;;; Segment .text (400000000001C480)

l400000000006C510:
	{ nop.m	0x0; nop.i	0x0; br.call.sptk.many	b0,shell_version_string; }
	{ adds	r1,0x0,r50; adds	r54,0x0,r0; adds	r53,0x0,r8; }
	{ nop.m	0x0; addl	r52,-1516,r1; nop.i	0x0; }
	{ ld8	r52,[r52]; nop.i	0x0; br.call.sptk.many	b0,bind_variable; }
	{ adds	r1,0x0,r50; addl	r52,-1508,r1; nop.i	0x0; }
	{ ld8	r52,[r52]; nop.i	0x0; br.call.sptk.many	b0,unbind_variable; }
	{ adds	r1,0x0,r50; addl	r52,-1508,r1; nop.i	0x0; }
	{ ld8	r52,[r52]; nop.i	0x0; br.call.sptk.many	b0,make_new_array_variable; }
	{ adds	r1,0x0,r50; adds	r14,0x8,r8; nop.i	0x0 }
	{ addl	r54,32,r0; adds	r38,0x0,r8; adds	r52,0x10,r12; }
	{ addl	r15,6092,r1; ld8	r34,[r14]; adds	r38,0x28,r38; }
	{ nop.m	0x0; nop.m	0x0; nop.i	0x0; }
	{ ld8	r53,[r15]; nop.i	0x0; br.call.sptk.many	b0,400000000001BAE0; }
	{ adds	r1,0x0,r50; nop.m	0x0; adds	r52,0x10,r12 }
	{ addl	r53,46,r0; nop.m	0x0; br.call.sptk.many	b0,400000000001B680; }
	{ cmp.eq	p06,p07,0x0,r8; adds	r36,0x0,r8; adds	r1,0x0,r50 }
	{ adds	r53,0x0,r0; adds	r54,0x10,r12; adds	r52,0x0,r34; }
	{ (p07) st1	[r36],r1,1; nop.i	0x0; br.call.sptk.many	b0,array_insert; }

l400000000006C626:
	{ break.m	0x4000; (p32) nop; (p16) nop }

l400000000006C632:
	{ (p32) chk.a.clr	r12,3FFFFFFFFF074A32; (p32) break.i	0x42008; nop }

l400000000006C638:
	{ (p04) break.m	0x840; Invalid; mov	pr,r64,0xC000 }

l400000000006C63E:
	{ rum	0x150320; (p01) nop }

l400000000006C64E:
	{ addl	r42,65538,r0; nop }
	{ chk.a.nc	r114,3FFFFFFFFF88867E; (p60) break.i	0x242; (p04) break.i	0x0 }

l400000000006C66A:
	{ sum	0x0; (p36) mov	pr,0x0; nop }

l400000000006C676:
	{ (p26) fwb; nop; break.i	0x80000 }

l400000000006C67C:
	{ Invalid; add	r0,r32,r0; (p06) break.i	0x16680 }
	{ (p30) nop; shladd	r64,r12,0x1,r64; zxt1	r64,r64 }
	{ nop; (p38) cmp.lt	p00,p18,r0,r0; zxt1	r0,r64 }
	{ (p59) nop; nop; (p06) cmp.lt	p12,p16,r3,r64 }
	{ Invalid; Invalid; Invalid }
	{ nop; add	r0,r32,r0; Invalid }
	{ Invalid; add	r0,r32,r0; (p06) break.i	0x16680 }
	{ (p27) nop; shladd	r64,r12,0x1,r64; zxt1	r64,r64 }
	{ nop; (p54) cmp.lt	p00,p18,r0,r0; zxt1	r0,r64 }
	{ (p56) nop; nop; (p06) shladd	r1,r0,0x3,r0 }
	{ Invalid; Invalid; Invalid }
	{ cmp.lt	p00,p17,r1,r0; Invalid; break.i	0x1000 }
	{ (p54) nop; shladd	r64,r12,0x1,r64; Invalid }
	{ (p02) nop; Invalid; (p06) nop }
	{ cmp.lt	p00,p17,r1,r0; Invalid; break.i	0x1000 }
	{ (p53) nop; cmp.lt.unc	p00,p16,r12,r64; (p01) cmp.lt.unc	p00,p08,r9,r4 }
	{ Invalid; Invalid; Invalid }
	{ Invalid; Invalid; Invalid }
	{ nop; nop; Invalid }
	{ cmp.lt	p00,p17,r1,r0; czx1.r	r32,r65; mov	pr,r32,0x0 }
	{ (p01) shladd	r0,r64,0x4,r33; Invalid; (p08) nop }
	{ nop; zxt1	r64,r64; break.i	0x1000 }
	{ nop; add	r0,r32,r0; Invalid }
	{ shladd	r0,r1,0x2,r0; Invalid; break.i	0x1000 }
	{ (p42) cmp.lt.unc	p43,p08,r63,r44; (p01) invala; nop.b	0x1000 }
	{ cmp.eq	p50,p25,r0,r66; czx1.r	r0,r65; mov	pr,r32,0x0 }
	{ (p30) nop; cmp.lt	p00,p00,r32,r0; (p01) rfi }
	{ invala; cmp.lt	p00,p00,r32,r0; (p32) mov	pr,r99,0x508E }
	{ (p55) cmpxchg2.acq.nt1	r1,[r33],r64; zxt4	r57,r11; break.b	0x1000 }
	{ nop; cmp.lt	p00,p00,r32,r0; Invalid }
	{ invala; cmp.lt	p00,p00,r32,r0; mov	pr,r99,0xE680 }
	{ (p06) cmp.lt	p00,p09,r0,r33; zxt4	r46,r12; nop }
	{ Invalid; Invalid; Invalid }
	{ cmp.lt	p00,p11,r1,r0; nop; Invalid }
	{ pavg2.raz	r0,r1,r0; (p06) nop; Invalid }
	{ pshladd2	r0,r1,1,r0; Invalid; break.i	0x1000 }
	{ (p24) nop; shladd	r64,r12,0x1,r64; Invalid }
	{ Invalid; Invalid; Invalid }
	{ shladd	r0,r1,0x2,r0; Invalid; break.i	0x1000 }
	{ (p37) nop; nop; shladd	r64,r12,0x1,r64 }
	{ Invalid; Invalid; Invalid }
	{ (p55) nop; invala; break.i	0x1000 }
	{ Invalid; break.i	0x1000; break.i	0x1000 }
	{ (p09) cmp.lt.unc	p39,p09,r63,r44; (p01) nop; nop }
	{ invala; cmp.eq	p00,p00,r32,r0; mov	pr,r67,0xE680 }
	{ (p22) addp4	r1,r64,r33; Invalid; nop }
	{ Invalid; Invalid; Invalid }
	{ (p07) nop; ld4	r64,[r64]; (p04) shladd	r0,r2,0x1,r64 }
	{ Invalid; Invalid; Invalid }
	{ (p30) nop; cmp.eq.unc	p00,p16,r12,r64; mov	pr,r66,0xE400 }
	{ (p16) cmp.eq	p02,p08,r64,r33; (p01) cmp.lt.unc	p33,p16,r8,r64; (p01) nop }
	{ Invalid; Invalid; Invalid }
	{ cmp.lt	p00,p17,r1,r0; Invalid; (p06) mov	pr,r0,0x801A }
	{ Invalid; break.i	0x1000; break.b	0x1000 }
	{ (p03) nop; nop; br.cond.sptk.many	400000000048CA9C }
	{ nop; (p06) nop }
	{ shladd	r0,r1,0x2,r0; Invalid; break.i	0x1000 }
	{ (p26) nop; cmp.eq.unc	p00,p16,r12,r64; mov	pr,r66,0xE400 }
	{ (p60) nop; add	r0,r32,r0; (p06) nop }
	{ shladd	r0,r1,0x2,r0; Invalid; break.i	0x1000 }
	{ (p24) cmp.lt.unc	p43,p08,r63,r44; (p01) invala; nop.b	0x1000 }
	{ cmp.lt	p50,p25,r0,r66; czx1.r	r0,r65; mov	pr,r32,0x0 }
	{ (p01) nop; cmp.lt	p00,p00,r32,r0; (p01) rfi }
	{ invala; cmp.lt	p00,p00,r32,r0; (p32) mov	pr,r99,0x508E }
	{ (p63) nop; add	r0,r32,r0; (p06) nop }
	{ shladd	r0,r1,0x2,r0; Invalid; break.i	0x1000 }
	{ (p21) nop; cmp.lt.unc	p00,p16,r12,r64; br.cond.sptk.few	400000000078D8BC }
	{ (p04) nop; (p04) nop }
	{ (p02) nop; nop; (p06) epc }
	{ shladdp4	r0,r1,0x2,r0; Invalid; break.i	0x1000 }
	{ (p13) nop; cmp.eq	p00,p00,r32,r0; nop }
	{ nop; (p06) mov	pr,r8,0x4080; Invalid }
	{ Invalid; Invalid; cmp.lt	p00,p00,r32,r0 }
	{ Invalid; Invalid; Invalid }
	{ (p05) nop; cmp.lt.unc	p00,p16,r12,r64; (p01) epc }
	{ (p16) nop; (p06) cmp.lt	p00,p16,r0,r64; (p06) cmp.eq	p00,p16,r0,r64; }
	{ Invalid; (p06) cmp.eq	p33,p19,r63,r125; Invalid; }
	{ Invalid; Invalid; (p48) cmp.lt.unc	p03,p08,r3,r102 }
	{ (p22) nop; cmp.lt	p00,p00,r32,r0; Invalid; }
	{ Invalid; Invalid; break.i	0x1000 }
	{ (p02) nop; cmp.lt.unc	p00,p16,r12,r64; (p01) epc }
	{ (p16) nop; (p06) cmp.lt	p00,p16,r0,r64; (p06) cmp.eq	p00,p16,r0,r64; }
	{ Invalid; Invalid; Invalid; }
	{ cmp.eq	p00,p09,r1,r0; (p01) addp4	r96,r3,r6; Invalid }
	{ Invalid; Invalid; break.i	0x1000 }
	{ nop; cmp.lt.unc	p00,p16,r12,r64; zxt1	r6,r64 }
	{ (p16) nop; (p06) cmp.lt	p00,p16,r0,r64; (p06) cmp.eq	p00,p16,r0,r64; }
	{ Invalid; (p06) cmp.eq	p37,p19,r63,r125; Invalid; }
	{ Invalid; Invalid; (p48) cmp.lt.unc	p03,p08,r3,r102 }
	{ (p62) nop; cmp.lt	p00,p00,r32,r0; Invalid; }
	{ Invalid; Invalid; break.i	0x1000 }
	{ (p61) nop; cmp.lt.unc	p00,p16,r12,r64; zxt1	r10,r64 }
	{ (p12) nop; (p01) nop; (p06) cmp.lt	p00,p16,r0,r64 }
	{ Invalid; Invalid; Invalid }
	{ Invalid; Invalid; Invalid }
	{ Invalid; Invalid; Invalid; }
	{ Invalid; Invalid; Invalid }
	{ Invalid; Invalid; break.i	0x1000 }
	{ (p57) nop; cmp.lt.unc	p00,p16,r12,r64; (p01) epc }
	{ (p12) nop; (p01) nop; (p06) cmp.lt	p00,p16,r0,r64 }
	{ Invalid; Invalid; Invalid }
	{ Invalid; Invalid; Invalid }
	{ Invalid; Invalid; Invalid; }
	{ Invalid; Invalid; Invalid }
	{ Invalid; Invalid; break.i	0x1000 }
	{ (p54) nop; cmp.lt.unc	p00,p16,r12,r64; zxt1	r10,r64 }
	{ (p12) nop; (p01) nop; (p06) cmp.lt	p00,p16,r0,r64 }
	{ Invalid; Invalid; Invalid }
	{ Invalid; Invalid; Invalid }
	{ Invalid; Invalid; Invalid; }
	{ Invalid; Invalid; Invalid }
	{ Invalid; Invalid; break.i	0x1000 }
	{ (p50) nop; cmp.lt.unc	p00,p16,r12,r64; (p01) epc }
	{ (p12) nop; (p01) nop; (p06) cmp.lt	p00,p16,r0,r64 }
	{ Invalid; Invalid; Invalid }
	{ Invalid; Invalid; Invalid }
	{ Invalid; Invalid; Invalid; }
	{ nop; Invalid; break.i	0x1000 }
	{ (p47) nop; cmp.lt.unc	p00,p16,r12,r64; (p01) epc }
	{ (p16) cmp.eq	p08,p10,r0,r66; (p06) cmp.eq	p00,p16,r0,r64; (p01) shladd	r55,r127,0x4,r123; }
	{ Invalid; Invalid; Invalid }
	{ Invalid; Invalid; Invalid }
	{ nop; Invalid; cmp.lt	p00,p00,r32,r0 }
	{ (p02) nop; (p06) cmp.lt	p32,p08,r13,r6; Invalid; }
	{ nop; cmp.lt	p00,p00,r32,r0; Invalid }
	{ Invalid; Invalid; break.i	0x1000 }
	{ (p37) nop; invala; Invalid }
	{ Invalid; Invalid; Invalid }
	{ Invalid; Invalid; Invalid }
	{ cmp.lt	p00,p17,r1,r0; Invalid; break.i	0x1000 }
	{ (p35) nop; invala; Invalid }
	{ Invalid; Invalid; Invalid }
	{ Invalid; Invalid; Invalid }
	{ cmp.lt	p00,p17,r1,r0; Invalid; break.i	0x1000 }
	{ (p33) nop; invala; Invalid }
	{ Invalid; Invalid; Invalid }
	{ Invalid; Invalid; Invalid }
	{ cmp.lt	p00,p17,r1,r0; Invalid; break.i	0x1000 }
	{ (p31) nop; invala; Invalid }
	{ Invalid; Invalid; Invalid }
	{ Invalid; Invalid; Invalid }
	{ cmp.lt	p00,p17,r1,r0; Invalid; break.i	0x1000 }
	{ (p29) nop; invala; Invalid }
	{ Invalid; Invalid; Invalid }
	{ Invalid; Invalid; Invalid }
	{ shladd	r0,r1,0x2,r0; Invalid; break.i	0x1000 }
	{ (p27) nop; shladd	r64,r12,0x1,r64; (p06) nop }
	{ shladd	r0,r1,0x2,r0; Invalid; break.i	0x1000 }
	{ (p44) nop; cmp.eq.unc	p00,p16,r12,r64; nop }
	{ (p03) nop; add	r0,r32,r0; (p06) nop }
	{ shladd	r0,r1,0x2,r0; Invalid; break.i	0x1000 }
	{ (p43) nop; cmp.eq.unc	p00,p16,r12,r64; mov	pr,r66,0xE400 }
	{ (p07) nop; add	r0,r32,r0; (p06) nop }
	{ shladd	r0,r1,0x2,r0; Invalid; break.i	0x1000 }
	{ (p41) nop; cmp.eq.unc	p00,p16,r12,r64; nop }
	{ (p59) nop.m	0x86000; cmp.eq	p00,p00,r32,r0; (p63) nop }
	{ Invalid; break.i	0x1000; (p16) break.i	0x2A80C }
	{ (p24) nop; add	r0,r32,r0; (p01) shladd	r12,r3,0x1,r64 }
	{ Invalid; (p06) nop; (p06) cmp.lt.unc	p00,p16,r8,r64 }

l400000000006D060:
	{ addl	r52,-1692,r1; adds	r53,0x0,r34; addl	r54,4,r0; }
	{ ld8	r52,[r52]; nop.i	0x0; br.call.sptk.many	b0,400000000001C020; }
	{ adds	r1,0x0,r50; cmp4.eq	p07,p06,0x0,r8; (p06) br.cond.dptk.few	400000000006BEF0 }

l400000000006D090:
	{ adds	r52,0x0,r34; adds	r47,0xFFFFFFFFFFFFFFFF,r38; br.call.sptk.many	b0,400000000001B6C0; }
	{ adds	r8,0x3,r8; adds	r1,0x0,r50; add	r47,r35,r47; }
	{ nop.m	0x0; add	r52,r37,r8; nop.i	0x0; }
	{ nop.m	0x0; sxt4	r52,r52; br.call.sptk.many	b0,xmalloc; }
	{ adds	r1,0x0,r50; adds	r37,0x0,r8; nop.i	0x0 }
	{ adds	r52,0x0,r8; adds	r53,0x0,r35; br.call.sptk.many	b0,400000000001B180; }
	{ add	r14,r37,r38; nop.m	0x0; adds	r53,0x0,r34 }
	{ adds	r1,0x0,r50; nop.m	0x0; add	r52,r37,r38,0x1; }
	{ st1	[r45],r14; nop.i	0x0; br.call.sptk.many	b0,400000000001B180; }
	{ adds	r53,0x0,r35; addl	r54,5,r0; nop.i	0x0 }
	{ adds	r1,0x0,r50; adds	r52,0x0,r37; br.call.sptk.many	b0,parse_and_execute; }
	{ ld1	r14,[r47]; adds	r1,0x0,r50; adds	r52,0x0,r35; }
	{ nop.m	0x0; sxt1	r14,r14; nop.i	0x0; }
	{ cmp4.eq	p07,p06,0x29,r14; nop.i	0x0; (p07) br.cond.dpnt.few	400000000006DDA0; }

l400000000006D170:
	{ nop.m	0x0; nop.i	0x0; br.call.sptk.many	b0,find_function; }
	{ cmp.eq	p18,p19,0x0,r8; adds	r1,0x0,r50; adds	r34,0x0,r8; }
	{ (p19) adds	r14,0x28,r8; (p18) addl	r53,-1684,r1; (p18) adds	r52,0x0,r0 }

l400000000006D196:
	{ Invalid; Invalid; Invalid }
	{ mf.a; (p52) nop }
	{ Invalid; Invalid; Invalid }
	{ Invalid; Invalid; Invalid }
	{ nop; (p32) addl	r25,2037467,r2; (p20) nop }
	{ nop; (p26) nop; (p20) nop }
	{ nop; Invalid; (p32) addl	r3,131168,r3 }
	{ Invalid; Invalid; Invalid }
	{ (p03) chk.a.clr	f41,3FFFFFFFFFD302F6; nop; br.call.spnt.many	b0,b1 }
	{ (p07) nop; nop; break.i	0x80000 }
	{ (p07) fwb; nop; break.i	0x80000 }
	{ (p03) chk.a.nc	r6,3FFFFFFFFFA70326; nop; break.b	0x80000 }
	{ break.m	0x4000; nop; nop }
	{ break.m	0x4000; (p32) nop; break.i	0x80000 }
	{ Invalid; nop; (p32) nop.b	0x34023 }

l400000000006D280:
	{ adds	r14,0x1,r52; ld1	r14,[r14]; nop.i	0x0; }
	{ nop.m	0x0; sxt1	r14,r14; nop.i	0x0; }
	{ nop.m	0x0; cmp4.eq	p07,p06,0x2F,r14; (p06) br.cond.dptk.few	400000000006C430 }

l400000000006D2B0:
	{ nop.m	0x0; addl	r52,-1812,r1; nop.i	0x0; }
	{ ld8	r52,[r52]; nop.i	0x0; br.call.sptk.many	b0,get_string_value; }
	{ adds	r1,0x0,r50; cmp.eq	p06,p07,0x0,r8; nop.i	0x0 }
	{ adds	r36,0x0,r8; adds	r52,0x0,r8; (p06) br.cond.dpnt.few	400000000006D9F0; }

l400000000006D2F0:
	{ nop.m	0x0; addl	r35,-22276,r1; nop.i	0x0; }
	{ nop.m	0x0; nop.i	0x0; br.call.sptk.many	b0,400000000001B6C0; }
	{ adds	r1,0x0,r50; nop.m	0x0; sxt4	r39,r8 }
	{ ld8	r52,[r38]; nop.m	0x0; br.call.sptk.many	b0,400000000001B6C0; }
	{ adds	r1,0x0,r50; add	r52,r8,r39,0x1; br.call.sptk.many	b0,xmalloc; }
	{ adds	r1,0x0,r50; adds	r34,0x0,r8; nop.i	0x0 }
	{ adds	r52,0x0,r8; adds	r53,0x0,r36; br.call.sptk.many	b0,400000000001B180; }
	{ ld8	r53,[r38]; adds	r1,0x0,r50; add	r52,r34,r39; }
	{ adds	r53,0x1,r53; nop.i	0x0; br.call.sptk.many	b0,400000000001B180; }
	{ adds	r1,0x0,r50; adds	r53,0x0,r34; adds	r54,0x0,r0; }
	{ nop.m	0x0; addl	r52,-1532,r1; nop.i	0x0; }
	{ ld8	r52,[r52]; nop.i	0x0; br.call.sptk.many	b0,bind_variable; }
	{ adds	r1,0x0,r50; adds	r52,0x0,r34; br.call.sptk.many	b0,400000000001A7E0; }
	{ adds	r1,0x0,r50; addl	r52,-1524,r1; nop.i	0x0; }
	{ ld8	r52,[r52]; nop.i	0x0; br.call.sptk.many	b0,find_variable; }
	{ adds	r1,0x0,r50; cmp.eq	p07,p06,0x0,r8; (p06) br.cond.dptk.few	400000000006C510 }

l400000000006D3F0:
	{ nop.m	0x0; nop.i	0x0; br.cond.sptk.few	400000000006D740; }
400000000006D400 09 00 00 00 01 00 40 E3 F5 E9 4F 00 00 00 04 00 ......@...O.....
400000000006D410 11 A0 01 68 18 10 00 00 00 02 00 00 38 51 FF 58 ...h........8Q.X
400000000006D420 08 70 A0 10 00 21 00 00 00 02 00 20 00 90 01 84 .p...!..... ....
400000000006D430 19 38 00 10 06 39 00 00 00 02 80 03 20 0B 00 43 .8...9...... ..C
400000000006D440 09 00 00 00 01 00 E0 00 38 20 20 00 00 00 04 00 ........8  .....
400000000006D450 10 00 00 00 01 00 60 F0 38 0E A8 03 20 07 00 43 ......`.8... ..C
400000000006D460 09 00 00 00 01 00 E0 00 94 20 20 00 00 00 04 00 .........  .....
400000000006D470 11 30 00 1C 87 39 00 00 00 02 00 03 E0 F4 FF 49 .0...9.........I
400000000006D480 09 00 00 00 01 00 E0 00 88 20 20 00 00 00 04 00 .........  .....
400000000006D490 10 00 00 00 01 00 60 00 38 0E 73 03 C0 F4 FF 4A ......`.8.s....J
400000000006D4A0 09 00 00 00 01 00 40 63 F6 E9 4F 00 00 00 04 00 ......@c..O.....
400000000006D4B0 11 A0 01 68 18 10 00 00 00 02 00 00 58 61 FF 58 ...h........Xa.X
400000000006D4C0 0B 08 00 64 00 21 40 A3 F6 E9 4F 00 00 00 04 00 ...d.!@...O.....
400000000006D4D0 11 A0 01 68 18 10 00 00 00 02 00 00 B8 C5 05 50 ...h...........P
400000000006D4E0 0B 08 00 64 00 21 40 E3 F6 E9 4F 00 00 00 04 00 ...d.!@...O.....
400000000006D4F0 11 A0 01 68 18 10 00 00 00 02 00 00 18 56 FF 58 ...h.........V.X
400000000006D500 08 08 00 64 00 21 40 03 8C 20 20 00 00 00 04 00 ...d.!@..  .....
400000000006D510 19 A8 41 18 00 21 60 5B 00 00 48 00 38 C5 0B 50 ..A..!`[..H.8..P
400000000006D520 03 08 00 64 00 21 20 02 20 00 42 80 46 EE D3 9F ...d.! . .B.F...
400000000006D530 11 A0 01 68 18 10 00 00 00 02 00 00 18 50 FF 58 ...h.........P.X
400000000006D540 10 08 00 64 00 21 70 00 20 0C 72 03 60 F4 FF 4A ...d.!p. .r.`..J
400000000006D550 11 00 00 00 01 00 00 00 00 02 00 00 40 06 00 40 ............@..@

l400000000006D560:
	{ addl	r14,5708,r1; nop.m	0x0; addl	r52,-1644,r1; }
	{ nop.m	0x0; ld8	r52,[r52]; nop.i	0x0; }
	{ ld8	r53,[r14]; nop.i	0x0; br.call.sptk.many	b0,set_if_not; }
	{ adds	r1,0x0,r50; addl	r14,5700,r1; addl	r52,-1636,r1; }
	{ nop.m	0x0; ld8	r52,[r52]; nop.i	0x0; }
	{ ld8	r53,[r14]; nop.i	0x0; br.call.sptk.many	b0,set_if_not; }
	{ nop.m	0x0; adds	r1,0x0,r50; br.cond.sptk.few	400000000006C110; }

l400000000006D5D0:
	{ addl	r14,6456,r1; nop.m	0x0; addl	r38,6476,r1; }
	{ nop.m	0x0; ld4	r14,[r14]; nop.i	0x0; }
	{ cmp4.eq	p06,p07,0x0,r14; nop.i	0x0; (p06) br.cond.dpnt.few	400000000006DAD0; }

l400000000006D600:
	{ nop.m	0x0; ld8	r52,[r38]; nop.i	0x0; }
	{ ld1	r14,[r52]; nop.m	0x0; sxt1	r14,r14; }
	{ nop.m	0x0; cmp4.eq	p07,p06,0x2F,r14; (p07) br.cond.dpnt.few	400000000006DA00 }

l400000000006D630:
	{ addl	r35,-22276,r1; nop.m	0x0; nop.i	0x0; }
	{ adds	r34,0x18,r35; ld8	r52,[r34]; nop.i	0x0; }
	{ cmp.eq	p07,p06,0x0,r52; nop.i	0x0; (p07) br.cond.dpnt.few	400000000006DE90; }

l400000000006D660:
	{ nop.m	0x0; nop.i	0x0; br.call.sptk.many	b0,400000000001B6C0; }
	{ adds	r1,0x0,r50; adds	r52,0x1,r8; br.call.sptk.many	b0,xmalloc; }
	{ adds	r14,0x18,r35; adds	r1,0x0,r50; adds	r52,0x0,r8; }
	{ ld8	r53,[r14]; nop.i	0x0; br.call.sptk.many	b0,400000000001B180; }
	{ nop.m	0x0; adds	r1,0x0,r50; adds	r34,0x0,r8; }

l400000000006D6B0:
	{ addl	r52,-1532,r1; adds	r53,0x0,r34; adds	r54,0x0,r0; }
	{ ld8	r52,[r52]; nop.i	0x0; br.call.sptk.many	b0,bind_variable; }
	{ adds	r1,0x0,r50; adds	r52,0x0,r34; br.call.sptk.many	b0,400000000001A7E0; }
	{ adds	r1,0x0,r50; addl	r52,-1524,r1; nop.i	0x0; }
	{ ld8	r52,[r52]; nop.i	0x0; br.call.sptk.many	b0,find_variable; }
	{ adds	r1,0x0,r50; cmp.eq	p07,p06,0x0,r8; (p06) br.cond.dptk.few	400000000006C510 }

l400000000006D710:
	{ nop.m	0x0; nop.i	0x0; br.cond.sptk.few	400000000006D740 }
400000000006D720 11 A0 01 10 18 10 00 00 00 02 00 00 68 51 FF 58 ............hQ.X
400000000006D730 11 00 00 00 01 00 10 00 C8 00 42 00 10 F1 FF 48 ..........B....H

l400000000006D740:
	{ adds	r34,0x18,r35; addl	r52,-1524,r1; adds	r54,0x0,r0; }
	{ nop.m	0x0; ld8	r53,[r34]; nop.i	0x0; }
	{ cmp.eq	p07,p06,0x0,r53; nop.i	0x0; (p07) br.cond.dpnt.few	400000000006DF00; }

l400000000006D770:
	{ ld8	r52,[r52]; nop.i	0x0; br.call.sptk.many	b0,bind_variable; }
	{ nop.m	0x0; adds	r1,0x0,r50; br.cond.sptk.few	400000000006C510; }
400000000006D790 09 00 00 00 01 00 40 A3 F6 E1 4F 00 00 00 04 00 ......@...O.....
400000000006D7A0 11 A0 01 68 18 10 00 00 00 02 00 00 A8 A2 FF 58 ...h...........X
400000000006D7B0 08 08 00 64 00 21 E0 40 21 00 42 00 82 41 00 84 ...d.!.@!.B..A..
400000000006D7C0 0A 40 80 10 00 21 10 E1 F4 DD 4F 00 00 00 04 00 .@...!....O.....
400000000006D7D0 0B 78 00 1C 10 10 10 01 44 30 20 00 00 00 04 00 .x......D0 .....
400000000006D7E0 02 00 44 20 98 11 00 01 00 40 49 E0 01 79 38 80 ..D .....@I..y8.
400000000006D7F0 0A 80 30 FA EE 27 00 01 40 30 20 00 00 00 04 00 ..0..'..@0 .....
400000000006D800 0B 00 3C 1C 90 11 00 80 20 30 23 E0 3F 83 7F 0B ..<..... 0#.?...
400000000006D810 02 00 00 00 01 00 00 88 01 55 00 00 00 0B 00 07 .........U......
400000000006D820 18 00 00 00 01 00 C0 80 31 00 42 80 08 00 84 00 ........1.B.....
400000000006D830 09 00 00 00 01 00 40 E3 F6 EB 4F 00 00 00 04 00 ......@...O.....
400000000006D840 11 A0 01 68 18 10 00 00 00 02 00 00 48 A1 FF 58 ...h........H..X
400000000006D850 08 08 00 64 00 21 00 00 00 02 00 C0 81 42 00 84 ...d.!.......B..
400000000006D860 09 80 60 10 00 21 00 00 00 02 00 00 01 42 00 84 ..`..!.......B..
400000000006D870 09 88 70 FA EF 27 F0 00 38 20 20 80 46 EE D7 9F ..p..'..8  .F...
400000000006D880 09 88 00 22 18 10 40 03 D0 30 20 00 00 00 04 00 ..."..@..0 .....
400000000006D890 09 00 44 20 98 11 00 00 00 02 00 00 02 40 00 90 ..D .........@..
400000000006D8A0 09 78 40 1E 0E 20 00 00 00 02 00 00 42 EC BF 9F .x@.. ......B...
400000000006D8B0 09 80 00 20 18 10 00 78 38 20 23 00 00 00 04 00 ... ...x8 #.....
400000000006D8C0 11 00 40 10 98 11 00 00 00 02 00 00 88 4C FF 58 ..@..........L.X
400000000006D8D0 11 08 00 64 00 21 70 00 20 0C 72 03 30 F7 FF 4A ...d.!p. .r.0..J
400000000006D8E0 09 00 00 00 01 00 40 23 F7 EB 4F 00 00 00 04 00 ......@#..O.....
400000000006D8F0 11 A0 01 68 18 10 00 00 00 02 00 00 98 A0 FF 58 ...h...........X
400000000006D900 08 08 00 64 00 21 00 00 00 02 00 C0 81 42 00 84 ...d.!.......B..
400000000006D910 09 80 60 10 00 21 00 00 00 02 00 00 01 42 00 84 ..`..!.......B..
400000000006D920 09 88 50 FA EF 27 F0 00 38 20 20 80 46 ED C3 9F ..P..'..8  .F...
400000000006D930 09 88 00 22 18 10 40 03 D0 30 20 00 00 00 04 00 ..."..@..0 .....
400000000006D940 09 00 44 20 98 11 00 00 00 02 00 00 02 40 00 90 ..D .........@..
400000000006D950 09 78 40 1E 0E 20 00 00 00 02 00 00 C2 EB BF 9F .x@.. ..........
400000000006D960 09 80 00 20 18 10 00 78 38 20 23 00 00 00 04 00 ... ...x8 #.....
400000000006D970 11 00 40 10 98 11 00 00 00 02 00 00 D8 4B FF 58 ..@..........K.X
400000000006D980 10 08 00 64 00 21 70 00 20 0C 72 03 B0 F6 FF 4A ...d.!p. .r....J
400000000006D990 11 00 00 00 01 00 00 00 00 02 00 00 00 FE FF 48 ...............H
400000000006D9A0 09 A0 B1 FB F4 27 50 03 88 00 42 C0 06 00 00 84 .....'P...B.....
400000000006D9B0 11 A0 01 68 18 10 00 00 00 02 00 00 18 AA FF 58 ...h...........X
400000000006D9C0 09 40 A0 10 00 21 00 00 00 02 00 20 00 90 01 84 .@...!..... ....
400000000006D9D0 0B 70 00 10 10 10 E0 90 38 5C 40 00 00 00 04 00 .p......8\@.....
400000000006D9E0 10 00 38 10 90 11 00 00 00 02 00 00 40 F0 FF 48 ..8.........@..H

l400000000006D9F0:
	{ ld8	r52,[r38]; nop.m	0x0; nop.i	0x0 }

l400000000006DA00:
	{ nop.m	0x0; addl	r35,-22276,r1; nop.i	0x0; }
	{ nop.m	0x0; nop.i	0x0; br.call.sptk.many	b0,400000000001B6C0; }
	{ adds	r1,0x0,r50; adds	r52,0x1,r8; br.call.sptk.many	b0,xmalloc; }
	{ adds	r1,0x0,r50; nop.m	0x0; adds	r52,0x0,r8 }
	{ ld8	r53,[r38]; nop.m	0x0; br.call.sptk.many	b0,400000000001B180; }
	{ adds	r1,0x0,r50; adds	r34,0x0,r8; adds	r54,0x0,r0; }
	{ addl	r52,-1532,r1; nop.m	0x0; adds	r53,0x0,r34; }
	{ ld8	r52,[r52]; nop.i	0x0; br.call.sptk.many	b0,bind_variable; }
	{ adds	r1,0x0,r50; adds	r52,0x0,r34; br.call.sptk.many	b0,400000000001A7E0; }
	{ adds	r1,0x0,r50; addl	r52,-1524,r1; nop.i	0x0; }
	{ ld8	r52,[r52]; nop.i	0x0; br.call.sptk.many	b0,find_variable; }
	{ adds	r1,0x0,r50; cmp.eq	p07,p06,0x0,r8; (p06) br.cond.dptk.few	400000000006C510 }

l400000000006DAC0:
	{ nop.m	0x0; nop.i	0x0; br.cond.sptk.few	400000000006D740; }

l400000000006DAD0:
	{ nop.m	0x0; addl	r52,-1820,r1; nop.i	0x0; }
	{ ld8	r52,[r52]; nop.i	0x0; br.call.sptk.many	b0,find_variable; }
	{ adds	r1,0x0,r50; cmp.eq	p07,p06,0x0,r8; (p07) br.cond.dpnt.few	400000000006E080; }

l400000000006DB00:
	{ nop.m	0x0; ld4	r14,[r34]; nop.i	0x0; }
	{ nop.m	0x0; cmp4.eq	p06,p07,0x1,r14; (p07) br.cond.dpnt.few	400000000006C3E0 }

l400000000006DB20:
	{ addl	r38,6476,r1; nop.m	0x0; nop.i	0x0; }
	{ ld8	r52,[r38]; ld1	r14,[r52]; nop.i	0x0; }
	{ nop.m	0x0; sxt1	r14,r14; nop.i	0x0; }
	{ nop.m	0x0; cmp4.eq	p07,p06,0x2F,r14; (p06) br.cond.dptk.few	400000000006D630 }

l400000000006DB60:
	{ nop.m	0x0; nop.i	0x0; br.cond.sptk.few	400000000006DA00 }
400000000006DB70 11 A0 01 10 18 10 00 00 00 02 00 00 18 4E FF 58 .............N.X
400000000006DB80 11 00 00 00 01 00 10 00 C8 00 42 00 E0 F8 FF 48 ..........B....H
400000000006DB90 09 A0 91 FB F4 27 50 03 88 00 42 C0 06 00 00 84 .....'P...B.....
400000000006DBA0 11 A0 01 68 18 10 00 00 00 02 00 00 28 A8 FF 58 ...h........(..X
400000000006DBB0 09 40 A0 10 00 21 00 00 00 02 00 20 00 90 01 84 .@...!..... ....
400000000006DBC0 0B 70 00 10 10 10 E0 90 38 5C 40 00 00 00 04 00 .p......8\@.....
400000000006DBD0 10 00 38 10 90 11 00 00 00 02 00 00 D0 ED FF 48 ..8............H
400000000006DBE0 09 00 00 00 01 00 40 A3 F5 E9 4F 00 00 00 04 00 ......@...O.....
400000000006DBF0 11 A0 01 68 18 10 00 00 00 02 00 00 58 49 FF 58 ...h........XI.X
400000000006DC00 10 08 00 64 00 21 70 00 20 0C F2 03 40 EC FF 48 ...d.!p. ...@..H
400000000006DC10 0B 70 A0 10 00 21 E0 00 38 20 20 00 00 00 04 00 .p...!..8  .....
400000000006DC20 10 00 00 00 01 00 60 F0 38 0E 28 03 20 EC FF 4A ......`.8.(. ..J
400000000006DC30 10 00 00 00 01 00 00 00 00 02 00 00 F0 FA FF 48 ...............H

l400000000006DC40:
	{ addl	r35,6476,r1; ld8	r52,[r38]; nop.i	0x0; }
	{ nop.m	0x0; nop.i	0x0; br.call.sptk.many	b0,file_status; }
	{ adds	r1,0x0,r50; tbit.z	p06,p07,r8,0x1; (p06) br.cond.dptk.few	400000000006D630; }

l400000000006DC70:
	{ addl	r52,-1812,r1; ld8	r34,[r35]; nop.i	0x0; }
	{ ld8	r52,[r52]; nop.i	0x0; br.call.sptk.many	b0,get_string_value; }
	{ adds	r1,0x0,r50; nop.m	0x0; adds	r52,0x0,r34 }
	{ adds	r53,0x0,r8; nop.m	0x0; br.call.sptk.many	b0,make_absolute; }
	{ ld8	r14,[r35]; adds	r1,0x0,r50; adds	r34,0x0,r8; }
	{ ld1	r14,[r14]; nop.m	0x0; sxt1	r14,r14; }
	{ nop.m	0x0; cmp4.eq	p07,p06,0x2E,r14; (p07) br.cond.dpnt.few	400000000006DFB0 }

l400000000006DCE0:
	{ addl	r35,-22276,r1; nop.m	0x0; addl	r52,-1532,r1 }
	{ adds	r53,0x0,r34; adds	r54,0x0,r0; nop.i	0x0 }
	{ nop.m	0x0; ld8	r52,[r52]; br.call.sptk.many	b0,bind_variable; }
	{ adds	r1,0x0,r50; adds	r52,0x0,r34; br.call.sptk.many	b0,400000000001A7E0; }
	{ adds	r1,0x0,r50; addl	r52,-1524,r1; nop.i	0x0; }
	{ ld8	r52,[r52]; nop.i	0x0; br.call.sptk.many	b0,find_variable; }
	{ adds	r1,0x0,r50; cmp.eq	p07,p06,0x0,r8; (p06) br.cond.dptk.few	400000000006C510 }

l400000000006DD50:
	{ nop.m	0x0; nop.i	0x0; br.cond.sptk.few	400000000006D740 }
400000000006DD60 0B 70 F8 4D 3F 23 E0 18 39 00 40 00 00 00 04 00 .p.M?#..9.@.....
400000000006DD70 09 00 00 00 01 00 F0 00 38 00 20 00 00 00 04 00 ........8. .....
400000000006DD80 03 00 00 00 01 00 F0 00 3C 28 00 E0 00 78 18 E6 ........<(...x..
400000000006DD90 F0 00 B8 1C 80 11 00 00 00 02 00 00 90 F4 FF 48 ...............H

l400000000006DDA0:
	{ adds	r14,0xFFFFFFFFFFFFFFFE,r38; adds	r52,0x0,r35; add	r14,r35,r14; }
	{ nop.m	0x0; ld1	r15,[r14]; nop.i	0x0; }
	{ nop.m	0x0; sxt1	r15,r15; cmp4.eq	p07,p06,0x28,r15; }
	{ (p07) st1	[r0],r14; nop.i	0x0; br.call.sptk.many	b0,find_function; }

l400000000006DDD6:
	{ break.m	0x4000; (p32) nop; (p32) nop }

l400000000006DDE2:
	{ invala; Invalid; Invalid }
	{ Invalid; Invalid; nop }
	{ Invalid; Invalid; Invalid }
	{ (p32) chk.a.clr	r3,3FFFFFFFFF591E52; (p16) break.i	0x2030D; Invalid }
	{ nop; (p53) break.i	0x401C3; mov	pr,0x3880020 }
	{ (p33) break.m	0x23203; nop; (p26) nop }
	{ (p32) break.m	0x4200C; Invalid; nop }
	{ (p48) break.m	0x42008; nop; Invalid; }
	{ (p48) sum	0x32000B; (p32) mov	pr,r64,0x118; Invalid }
	{ nop; (p37) nop; Invalid }
	{ break.m	0x20; cmp.lt	p32,p00,r0,r0; Invalid }

l400000000006DE90:
	{ nop.m	0x0; nop.i	0x0; br.call.sptk.many	b0,get_current_user_info; }
	{ nop.m	0x0; adds	r1,0x0,r50; nop.i	0x0 }
	{ ld8	r52,[r34]; nop.m	0x0; br.call.sptk.many	b0,400000000001B6C0; }
	{ adds	r1,0x0,r50; adds	r52,0x1,r8; br.call.sptk.many	b0,xmalloc; }
	{ adds	r14,0x18,r35; adds	r1,0x0,r50; adds	r52,0x0,r8; }
	{ ld8	r53,[r14]; nop.i	0x0; br.call.sptk.many	b0,400000000001B180; }
	{ adds	r1,0x0,r50; adds	r34,0x0,r8; br.cond.sptk.few	400000000006D6B0 }

l400000000006DF00:
	{ nop.m	0x0; nop.i	0x0; br.call.sptk.many	b0,get_current_user_info; }
	{ adds	r1,0x0,r50; ld8	r53,[r34]; adds	r54,0x0,r0; }
	{ nop.m	0x0; addl	r52,-1524,r1; nop.i	0x0; }
	{ ld8	r52,[r52]; nop.i	0x0; br.call.sptk.many	b0,bind_variable; }
	{ nop.m	0x0; adds	r1,0x0,r50; br.cond.sptk.few	400000000006C510; }
400000000006DF50 09 00 00 00 01 00 40 23 F6 E9 4F 00 00 00 04 00 ......@#..O.....
400000000006DF60 11 A0 01 68 18 10 00 00 00 02 00 00 E8 45 FF 58 ...h.........E.X
400000000006DF70 10 08 00 64 00 21 70 00 20 0C F2 03 F0 F4 FF 48 ...d.!p. ......H
400000000006DF80 0B 70 A0 10 00 21 E0 00 38 20 20 00 00 00 04 00 .p...!..8  .....
400000000006DF90 10 00 00 00 01 00 60 F0 38 0E 28 03 D0 F4 FF 4A ......`.8.(....J
400000000006DFA0 10 00 00 00 01 00 00 00 00 02 00 00 D0 FB FF 48 ...............H

l400000000006DFB0:
	{ addl	r53,3,r0; adds	r52,0x0,r8; br.call.sptk.many	b0,sh_canonpath; }
	{ adds	r1,0x0,r50; nop.m	0x0; cmp.eq	p06,p07,0x0,r8 }
	{ adds	r52,0x0,r34; nop.m	0x0; (p06) br.cond.dpnt.few	400000000006DCE0; }

l400000000006DFE0:
	{ addl	r35,-22276,r1; nop.m	0x0; adds	r34,0x0,r8; }
	{ nop.m	0x0; nop.i	0x0; br.call.sptk.many	b0,400000000001A7E0; }
	{ adds	r1,0x0,r50; adds	r53,0x0,r34; adds	r54,0x0,r0; }
	{ nop.m	0x0; addl	r52,-1532,r1; nop.i	0x0; }
	{ ld8	r52,[r52]; nop.i	0x0; br.call.sptk.many	b0,bind_variable; }
	{ adds	r1,0x0,r50; adds	r52,0x0,r34; br.call.sptk.many	b0,400000000001A7E0; }
	{ adds	r1,0x0,r50; addl	r52,-1524,r1; nop.i	0x0; }
	{ ld8	r52,[r52]; nop.i	0x0; br.call.sptk.many	b0,find_variable; }
	{ adds	r1,0x0,r50; cmp.eq	p07,p06,0x0,r8; (p06) br.cond.dptk.few	400000000006C510 }

l400000000006E070:
	{ nop.m	0x0; nop.i	0x0; br.cond.sptk.few	400000000006D740 }

l400000000006E080:
	{ nop.m	0x0; nop.i	0x0; br.call.sptk.many	b0,sh_get_home_dir; }
	{ adds	r1,0x0,r50; adds	r53,0x0,r8; adds	r54,0x0,r0; }
	{ nop.m	0x0; addl	r52,-1820,r1; nop.i	0x0; }
	{ ld8	r52,[r52]; nop.i	0x0; br.call.sptk.many	b0,bind_variable; }
	{ ld4	r14,[r34]; nop.m	0x0; adds	r1,0x0,r50; }
	{ nop.m	0x0; cmp4.eq	p06,p07,0x1,r14; (p06) br.cond.dptk.few	400000000006DB20 }

l400000000006E0E0:
	{ nop.m	0x0; nop.i	0x0; br.cond.sptk.few	400000000006C3E0; }
400000000006E0F0 08 00 00 00 01 00 00 00 00 02 00 00 00 00 04 00 ................

;; assign_in_env: 400000000006E100
assign_in_env proc
	{ alloc	r40,ar.pfs,0xE,0x0,0xA; ld8	r34,[r32]; nop.b	0x0 }
	{ adds	r41,0x0,r1; nop.m	0x0; mov	r39,b7; }
	{ adds	r43,0x0,r0; adds	r42,0x0,r34; br.call.sptk.many	b0,assignment; }
	{ adds	r42,0x0,r34; nop.m	0x0; adds	r1,0x0,r41 }
	{ adds	r35,0x0,r8; nop.m	0x0; br.call.sptk.many	b0,400000000001B6C0; }
	{ nop.m	0x0; sxt4	r35,r35; nop.i	0x0 }
	{ adds	r1,0x0,r41; adds	r42,0x1,r8; br.call.sptk.many	b0,xmalloc; }
	{ adds	r43,0x0,r34; nop.m	0x0; adds	r1,0x0,r41 }
	{ adds	r42,0x0,r8; nop.m	0x0; br.call.sptk.many	b0,400000000001B180; }
	{ add	r14,r8,r35; adds	r1,0x0,r41; adds	r34,0x0,r8; }
	{ ld1	r15,[r14]; addl	r37,7140,r1; sxt1	r15,r15; }
	{ cmp4.eq	p07,p06,0x3D,r15; nop.i	0x0; (p07) br.cond.dpnt.few	400000000006E4D0; }

l400000000006E1C0:
	{ ld8	r43,[r37]; nop.m	0x0; (p06) adds	r35,0x0,r0; }

l400000000006E1D0:
	{ nop.m	0x0; cmp.eq	p07,p06,0x0,r43; (p07) br.cond.dpnt.few	400000000006E710 }

l400000000006E1E0:
	{ adds	r42,0x0,r34; nop.i	0x0; br.call.sptk.many	b0,fn400000000005F7C0; }
	{ adds	r38,0x8,r8; adds	r1,0x0,r41; nop.i	0x0 }
	{ cmp.eq	p07,p06,0x0,r8; adds	r36,0x0,r8; (p07) br.cond.dpnt.few	400000000006E770; }

l400000000006E210:
	{ nop.m	0x0; ld8	r42,[r38]; nop.i	0x0; }
	{ cmp.eq	p06,p07,0x0,r42; nop.i	0x0; (p06) br.cond.dpnt.few	400000000006E250; }

l400000000006E230:
	{ nop.m	0x0; nop.i	0x0; br.call.sptk.many	b0,400000000001A7E0; }
	{ adds	r1,0x0,r41; nop.m	0x0; nop.i	0x0 }

l400000000006E250:
	{ nop.m	0x0; cmp.eq	p07,p06,0x0,r35; (p07) br.cond.dpnt.few	400000000006E6E0; }

l400000000006E260:
	{ adds	r14,0x28,r36; adds	r37,0x10,r36; addl	r15,7148,r1 }
	{ addl	r17,1048577,r0; st8	[r35],r38; adds	r36,0x2C,r36; }
	{ ld4	r16,[r14]; ld8	r42,[r37]; nop.i	0x0; }
	{ ld4	r15,[r15]; or	r16,r17,r16; cmp.eq	p06,p07,0x0,r42; }
	{ st4	[r15],r36; st4	[r16],r14; nop.i	0x0 }
	{ nop.b	0x0; (p06) br.cond.dpnt.few	400000000006E2D0; br.call.sptk.many	b0,400000000001A7E0; }

l400000000006E2BC:
	{ (p41) nop; invala; rfi }

l400000000006E2C2:
	{ (p16) break.m	0x4200A; (p16) break.i	0x23309; tbit.z	p32,p04,r32,0x0 }

l400000000006E2C8:
	{ Invalid; Invalid; Invalid }

l400000000006E2D0:
	{ adds	r42,0x0,r34; nop.i	0x0; br.call.sptk.many	b0,400000000001B6C0; }
	{ ld1	r14,[r35]; adds	r38,0x0,r8; adds	r1,0x0,r41; }
	{ nop.m	0x0; sxt1	r14,r14; cmp4.eq	p06,p07,0x0,r14; }
	{ nop.m	0x0; (p06) adds	r8,0x0,r0; (p06) br.cond.dptk.few	400000000006E3A0 }

l400000000006E30C:
	{ (p05) cmp.lt	p00,p11,r0,r33; (p17) cmp.lt.unc	p32,p16,r8,r64; Invalid }

l400000000006E312:
	{ Invalid; break.x	0x10001C080020 }
	{ Invalid; (p32) chk.s.i	r5,400000000086E352; Invalid }
	{ nop; cmp.eq	p00,p01,r0,r82; Invalid }
	{ Invalid; (p32) break.m	0x20003; break.i	0x80020 }
	{ Invalid; (p32) chk.s.i	r5,400000000086E382; Invalid }
	{ nop; add	r0,r0,r82,0x1; Invalid }
	{ Invalid; (p48) nop; Invalid }
	{ (p16) break.m	0x4200A; break.i	0x20; Invalid }
	{ break.m	0x20; break.i	0x20; Invalid }
	{ (p32) cmp4.gt.and	p09,p32,r0,r16; (p01) break.m	0x40002; Invalid }
	{ Invalid; (p32) nop; Invalid }
	{ Invalid; break.i	0x42002; tbit.z	p32,p06,r32,0x0 }
	{ Invalid; Invalid; (p27) break.i	0x2C7D6; }
	{ Invalid; (p32) nop; Invalid }
	{ (p16) nop; (p36) break.i	0x4000A; Invalid }
	{ Invalid; (p48) break.f	0x20008; break.b	0x80020 }
	{ Invalid; (p48) break.i	0x283; nop }
	{ (p48) nop; deposit	r0,r0,r114,63,1; (p04) nop }
	{ (p32) nop.m	0x42003; (p18) nop }
	{ (p20) break.m	0x23309; chk.s.i	r0,400000000086E642; (p16) clrrrb }
	{ (p33) break.m	0x23203; fcmp.eq	p32,p01,f0,f0; brp.sptk	400000000006E452 }
	{ (p25) break.m	0x48720; break.i	0x20; cover }
	{ Invalid; (p32) break.i	0x20203; Invalid }
	{ Invalid; (p32) nop; (p02) tbit.z	p00,p04,r40,0x18 }
	{ (p32) break.m	0x42008; nop; Invalid; }
	{ invala; (p16) nop; break.i	0xC8000 }
	{ break.m	0x20; (p05) break.i	0x550; Invalid }
	{ cmp.eq	p32,p00,r0,r0; (p20) nop; Invalid }

l400000000006E4D0:
	{ adds	r15,0xFFFFFFFFFFFFFFFF,r35; st1	[r0],r14; adds	r42,0x0,r8; }
	{ add	r14,r8,r15; ld1	r15,[r14]; nop.i	0x0; }
	{ nop.m	0x0; sxt1	r15,r15; cmp4.eq	p07,p06,0x2B,r15; }
	{ (p07) st1	[r0],r14; nop.i	0x0; br.call.sptk.many	b0,find_variable; }

l400000000006E506:
	{ break.m	0x4000; (p32) nop; (p32) nop }

l400000000006E512:
	{ Invalid; (p05) break.i	0x42002; Invalid }
	{ Invalid; cmp.eq	p00,p01,r32,r82; Invalid }
	{ cmp4.eq.and	p02,p32,r6,r8; (p49) break.i	0x40183; Invalid }
	{ Invalid; (p32) nop; Invalid }
	{ break.m	0x20202; mov	pr,0xC000020; Invalid }
	{ ld1.sa	r32,[r0]; (p32) cmp.lt.unc	p35,p01,r1,r106; Invalid }
	{ break.m	0x20; nop; Invalid }
	{ invala; (p16) mov	pr,0x4200A; break.i	0xC2000 }
	{ break.m	0x20; (p05) break.i	0x550; Invalid }
	{ cmp.eq	p32,p00,r0,r0; (p20) nop; tbit.z	p32,p02,r0,0x4 }
	{ Invalid; (p48) break.i	0x42008; nop; }
	{ nop; nop; Invalid; }
	{ Invalid; (p32) nop; Invalid }
	{ (p16) nop; nop; (p61) tbit.z.unc	p63,p04,r41,0x7 }
	{ (p32) break.m	0x42008; nop; Invalid; }
	{ (p16) nop; (p25) break.i	0x48720; Invalid }
	{ Invalid; (p32) break.i	0x20203; Invalid }
	{ Invalid; (p32) cmp.eq.unc	p35,p01,r97,r92; Invalid }
	{ break.m	0x20; break.i	0x20; (p63) tbit.z.unc	p63,p04,r41,0x7 }
	{ Invalid; (p48) addl	r8,262208,r0; (p22) cover; }
	{ (p16) break.m	0x4200A; nop; break.i	0xC8000 }
	{ Invalid; (p16) nop; (p18) clrrrb }
	{ (p33) break.m	0x23203; fselect	f32,f64,f1,f0; (p59) clrrrb }
	{ break.m	0x20; cmp.eq	p32,p00,r0,r0; (p62) tbit.z.unc	p63,p04,r41,0x7 }
	{ Invalid; ldfe	f0,[r16],64; (p05) break.i	0x1A801C; }
	{ (p16) srlz.d; Invalid; Invalid }
	{ Invalid; (p16) break.i	0x20309; Invalid }
	{ Invalid; (p48) deposit	r74,r65,r92,63,1; Invalid }
	{ break.m	0x20; add	r32,r0,r0; tbit.z	p00,p04,r40,0x0 }

l400000000006E6E0:
	{ addl	r42,1,r0; nop.i	0x0; br.call.sptk.many	b0,xmalloc; }
	{ nop.m	0x0; adds	r1,0x0,r41; adds	r35,0x0,r8 }
	{ nop.m	0x0; st1	[r0],r8; br.cond.sptk.few	400000000006E260 }

l400000000006E710:
	{ addl	r42,4,r0; nop.i	0x0; br.call.sptk.many	b0,hash_create; }
	{ nop.m	0x0; adds	r1,0x0,r41; adds	r43,0x0,r8 }
	{ nop.m	0x0; st8	[r8],r37; br.cond.sptk.few	400000000006E1E0 }
400000000006E740 11 50 01 44 00 21 00 00 00 02 00 00 C8 34 00 50 .P.D.!.......4.P
400000000006E750 11 08 00 52 00 21 A0 02 88 00 42 00 98 C0 FA 58 ...R.!....B....X
400000000006E760 10 08 00 52 00 21 80 00 00 00 42 00 30 FE FF 48 ...R.!....B.0..H

l400000000006E770:
	{ nop.m	0x0; adds	r42,0x0,r34; nop.i	0x0 }
	{ ld8	r43,[r37]; nop.m	0x0; br.call.sptk.many	b0,4000000000066B80; }
	{ adds	r1,0x0,r41; nop.m	0x0; adds	r36,0x0,r8 }
	{ adds	r38,0x8,r8; cmp.eq	p07,p06,0x0,r35; (p06) br.cond.dptk.few	400000000006E260 }

l400000000006E7B0:
	{ nop.m	0x0; nop.i	0x0; br.cond.sptk.few	400000000006E6E0; }

;; reinit_special_variables: 400000000006E7C0
reinit_special_variables proc
	{ alloc	r34,ar.pfs,0x5,0x0,0x4; addl	r36,-1356,r1; mov	r33,b1 }
	{ nop.m	0x0; adds	r35,0x0,r1; nop.i	0x0; }
	{ ld8	r36,[r36]; nop.i	0x0; br.call.sptk.many	b0,sv_comp_wordbreaks; }
	{ adds	r1,0x0,r35; addl	r36,-1300,r1; addl	r32,-1948,r1; }
	{ nop.m	0x0; ld8	r36,[r36]; nop.i	0x0 }
	{ ld8	r32,[r32]; nop.m	0x0; br.call.sptk.many	b0,sv_globignore; }
	{ adds	r1,0x0,r35; mov.spnt	b0,r33,400000000006E820; mov.i	ar.pfs,r34; }
	{ alloc	r2,ar.pfs,0x1,0x0,0x0; nop.i	0x0; br.cond.sptk.many	sv_opterr; }
400000000006E840 0D 00 00 00 01 00 00 00 00 00 00 00 00 00 04 00 ................
400000000006E850 08 00 00 00 01 00 00 00 00 02 00 00 00 00 04 00 ................
400000000006E860 08 00 00 00 01 00 00 00 00 02 00 00 00 00 04 00 ................
400000000006E870 08 00 00 00 01 00 00 00 00 02 00 00 00 00 04 00 ................

;; set_pipestatus_array: 400000000006E880
;;   Called from:
;;     400000000006EFAC (in set_pipestatus_from_exit)
set_pipestatus_array proc
	{ alloc	r41,ar.pfs,0xF,0x0,0xC; adds	r12,0xFFFFFFFFFFFFFFF0,r12; nop.b	0x0 }
	{ addl	r44,-1292,r1; adds	r42,0x0,r1; mov	r40,b0; }
	{ ld8	r44,[r44]; mov	r43,LC; br.call.sptk.many	b0,find_variable; }
	{ adds	r1,0x0,r42; cmp.eq	p07,p06,0x0,r8; (p07) br.cond.dpnt.few	400000000006EB80 }

l400000000006E8C0:
	{ adds	r14,0x28,r8; ld4	r14,[r14]; nop.i	0x0; }
	{ nop.m	0x0; tbit.z	p06,p07,r14,0x2; (p06) br.cond.dptk.few	400000000006EAA0 }

l400000000006E8E0:
	{ adds	r8,0x8,r8; ld8	r35,[r8]; nop.i	0x0; }
	{ adds	r39,0x10,r35; cmp.eq	p06,p07,0x0,r35; (p06) br.cond.dpnt.few	400000000006EAD0; }

l400000000006E900:
	{ nop.m	0x0; ld4	r14,[r39]; nop.i	0x0; }
	{ nop.m	0x0; cmp4.eq	p07,p06,0x0,r14; (p07) br.cond.dptk.few	400000000006EAD0; }

l400000000006E920:
	{ cmp4.eq	p07,p06,r33,r14; nop.i	0x0; (p07) br.cond.dpnt.few	400000000006ECB0; }

l400000000006E930:
	{ nop.m	0x0; cmp4.lt	p06,p07,r33,r14; (p06) br.cond.dpnt.few	400000000006EBB0; }

l400000000006E940:
	{ cmp4.lt	p07,p06,0x0,r14; adds	r15,0x18,r35; adds	r38,0x0,r32; }
	{ nop.m	0x0; (p06) adds	r34,0x0,r0; nop.i	0x0 }

l400000000006E95C:
	{ shladdp4	r0,r1,0x2,r0; Invalid; mov	pr,r32,0x0 }
	{ (p05) cmpxchg2.acq	r0,[r33],r64; zxt1	r0,r64; break.i	0x1000 }
	{ Invalid; zxt1	r4,r64; deposit	r0,r32,r0,63,0 }
	{ Invalid; Invalid; Invalid }
	{ shladd	r0,r1,0x2,r0; Invalid; break.i	0x1000 }
	{ Invalid; (p05) loadrs; nop }
	{ Invalid; add	r0,r32,r0; (p05) break.i	0x16580 }
	{ (p08) nop; cmp.lt	p00,p00,r32,r0; (p01) nop }
	{ nop; break.i	0x1000; Invalid }
	{ Invalid; cmp.lt	p00,p00,r32,r0; (p32) mov	pr,r99,0xC290 }
	{ (p60) break.m	0x95FFF; nop; Invalid }
	{ (p16) shladdp4	r34,r4,0x2,r64; (p04) cmp.lt	p00,p16,r0,r64; (p32) nop; }
	{ (p04) cmp.lt	p00,p03,r64,r33; zxt1	r3,r2; (p20) epc }
	{ (p07) nop; break.i	0x1000; break.i	0x1000 }
	{ Invalid; (p05) nop; (p05) cmp.lt	p04,p16,r3,r64 }
	{ Invalid; break.x	0x8000016580; }
	{ (p63) nop; nop; Invalid }
	{ cmp.lt	p35,p25,r0,r66; (p20) nop; }
	{ Invalid; nop; Invalid }
	{ (p62) nop; break.i	0x1000; break.i	0x1000 }
	{ nop.m	0x80; break.i	0x1000; (p16) break.i	0x2A80A }

l400000000006EAA0:
	{ nop.m	0x0; mov.i	ar.pfs,r41; nop.i	0x0; }
	{ nop.m	0x0; mov.i	LC,r43; mov.spnt	b0,r40,400000000006EAB0 }
	{ nop.m	0x0; adds	r12,0x10,r12; br.ret	b0 }

l400000000006EAD0:
	{ cmp4.lt	p07,p06,0x0,r33; nop.m	0x0; adds	r33,0xFFFFFFFFFFFFFFFF,r33 }
	{ adds	r34,0x0,r0; nop.m	0x0; (p06) br.cond.dpnt.few	400000000006EAA0; }

l400000000006EAF0:
	{ addp4	r33,r33,r0; nop.i	0x0; mov.i	LC,r33; }

l400000000006EB00:
	{ ld4	r44,[r32],4; adds	r45,0x10,r12; addl	r46,12,r0; }
	{ nop.m	0x0; sxt4	r44,r44; br.call.sptk.many	b0,inttostr; }
	{ adds	r1,0x0,r42; adds	r45,0x0,r34; adds	r44,0x0,r35 }
	{ adds	r46,0x0,r8; adds	r34,0x1,r34; br.call.sptk.many	b0,array_insert; }
	{ nop.m	0x0; adds	r1,0x0,r42; br.cloop.sptk.few	400000000006EB00 }

l400000000006EB50:
	{ nop.m	0x0; mov.i	ar.pfs,r41; nop.i	0x0; }
	{ nop.m	0x0; mov.i	LC,r43; mov.spnt	b0,r40,400000000006EB60 }
	{ nop.m	0x0; adds	r12,0x10,r12; br.ret	b0 }

l400000000006EB80:
	{ nop.m	0x0; addl	r44,-1292,r1; nop.i	0x0; }
	{ ld8	r44,[r44]; nop.i	0x0; br.call.sptk.many	b0,make_new_array_variable; }
	{ nop.m	0x0; adds	r1,0x0,r42; br.cond.sptk.few	400000000006E8C0 }

l400000000006EBB0:
	{ adds	r44,0x0,r35; adds	r34,0x0,r0; br.call.sptk.many	b0,array_flush; }
	{ ld4	r44,[r32]; adds	r32,0x4,r32; adds	r1,0x0,r42; }
	{ nop.m	0x0; cmp4.eq	p06,p07,0xFFFFFFFFFFFFFFFF,r44; (p06) br.cond.dpnt.few	400000000006EAA0; }

l400000000006EBE0:
	{ nop.m	0x0; sxt4	r44,r44; nop.i	0x0 }
	{ adds	r45,0x10,r12; addl	r46,12,r0; br.call.sptk.many	b0,inttostr; }
	{ adds	r45,0x0,r34; adds	r1,0x0,r42; adds	r44,0x0,r35 }
	{ adds	r46,0x0,r8; adds	r34,0x1,r34; br.call.sptk.many	b0,array_insert; }
	{ ld4	r44,[r32],4; nop.m	0x0; adds	r45,0x10,r12 }
	{ addl	r46,12,r0; nop.m	0x0; adds	r1,0x0,r42; }
	{ cmp4.eq	p07,p06,0xFFFFFFFFFFFFFFFF,r44; sxt4	r44,r44; (p07) br.cond.dpnt.few	400000000006EAA0; }

l400000000006EC50:
	{ nop.m	0x0; nop.i	0x0; br.call.sptk.many	b0,inttostr; }
	{ adds	r1,0x0,r42; adds	r44,0x0,r35; adds	r45,0x0,r34 }
	{ adds	r46,0x0,r8; adds	r34,0x1,r34; br.call.sptk.many	b0,array_insert; }
	{ ld4	r44,[r32],4; nop.m	0x0; adds	r1,0x0,r42; }
	{ nop.m	0x0; cmp4.eq	p07,p06,0xFFFFFFFFFFFFFFFF,r44; (p06) br.cond.dptk.few	400000000006EBE0 }

l400000000006ECA0:
	{ nop.m	0x0; nop.i	0x0; br.cond.sptk.few	400000000006EAA0; }

l400000000006ECB0:
	{ nop.m	0x0; cmp4.eq	p07,p06,0x1,r33; (p06) br.cond.dptk.few	400000000006E940 }

l400000000006ECC0:
	{ adds	r35,0x18,r35; ld8	r14,[r35]; nop.i	0x0; }
	{ adds	r14,0x10,r14; ld8	r34,[r14]; nop.i	0x0; }
	{ nop.m	0x0; adds	r34,0x8,r34; nop.i	0x0; }
	{ ld8	r44,[r34]; nop.i	0x0; br.call.sptk.many	b0,400000000001A7E0; }
	{ ld4	r44,[r32]; nop.m	0x0; adds	r1,0x0,r42; }
	{ nop.m	0x0; sxt4	r44,r44; br.call.sptk.many	b0,itos; }
	{ adds	r1,0x0,r42; st8	[r8],r34; mov.i	ar.pfs,r41; }
	{ nop.m	0x0; mov.i	LC,r43; mov.spnt	b0,r40,400000000006ED30 }
	{ nop.m	0x0; adds	r12,0x10,r12; br.ret	b0; }
400000000006ED50 08 00 00 00 01 00 00 00 00 02 00 00 00 00 04 00 ................
400000000006ED60 08 00 00 00 01 00 00 00 00 02 00 00 00 00 04 00 ................
400000000006ED70 08 00 00 00 01 00 00 00 00 02 00 00 00 00 04 00 ................

;; save_pipestatus_array: 400000000006ED80
save_pipestatus_array proc
	{ alloc	r33,ar.pfs,0x4,0x0,0x3; addl	r35,-1292,r1; mov	r32,b0 }
	{ nop.m	0x0; adds	r34,0x0,r1; nop.i	0x0; }
	{ ld8	r35,[r35]; nop.i	0x0; br.call.sptk.many	b0,find_variable; }
	{ adds	r14,0x28,r8; adds	r1,0x0,r34; nop.i	0x0 }
	{ adds	r15,0x8,r8; cmp.eq	p06,p07,0x0,r8; (p06) br.cond.dpnt.few	400000000006EE40; }

l400000000006EDD0:
	{ nop.m	0x0; ld4	r14,[r14]; nop.i	0x0; }
	{ nop.m	0x0; tbit.z	p06,p07,r14,0x2; (p06) br.cond.dpnt.few	400000000006EE40; }

l400000000006EDF0:
	{ nop.m	0x0; ld8	r35,[r15]; nop.i	0x0; }
	{ cmp.eq	p06,p07,0x0,r35; nop.i	0x0; (p06) br.cond.dpnt.few	400000000006EE40; }

l400000000006EE10:
	{ nop.m	0x0; nop.i	0x0; br.call.sptk.many	b0,array_copy; }
	{ adds	r1,0x0,r34; nop.m	0x0; mov.i	ar.pfs,r33; }
	{ nop.m	0x0; mov.spnt	b0,r32,400000000006EE30; br.ret	b0 }

l400000000006EE40:
	{ adds	r8,0x0,r0; nop.m	0x0; mov.i	ar.pfs,r33; }
	{ nop.m	0x0; mov.spnt	b0,r32,400000000006EE50; br.ret	b0; }
400000000006EE60 08 00 00 00 01 00 00 00 00 02 00 00 00 00 04 00 ................
400000000006EE70 08 00 00 00 01 00 00 00 00 02 00 00 00 00 04 00 ................

;; restore_pipestatus_array: 400000000006EE80
restore_pipestatus_array proc
	{ alloc	r34,ar.pfs,0x5,0x0,0x4; addl	r36,-1292,r1; mov	r33,b1 }
	{ nop.m	0x0; adds	r35,0x0,r1; nop.i	0x0; }
	{ ld8	r36,[r36]; nop.i	0x0; br.call.sptk.many	b0,find_variable; }
	{ adds	r15,0x28,r8; adds	r1,0x0,r35; nop.i	0x0 }
	{ adds	r14,0x8,r8; cmp.eq	p06,p07,0x0,r8; (p06) br.cond.dpnt.few	400000000006EF30; }

l400000000006EED0:
	{ nop.m	0x0; ld4	r15,[r15]; nop.i	0x0; }
	{ nop.m	0x0; tbit.z	p06,p07,r15,0x2; (p06) br.cond.dpnt.few	400000000006EF30; }

l400000000006EEF0:
	{ nop.m	0x0; ld8	r36,[r14]; nop.i	0x0; }
	{ cmp.eq	p06,p07,0x0,r36; nop.i	0x0; (p06) br.cond.dpnt.few	400000000006EF30; }

l400000000006EF10:
	{ st8	[r32],r14; br.call.sptk.many	b0,array_dispose; nop.b	0x0; }
	{ adds	r1,0x0,r35; nop.m	0x0; nop.i	0x0 }

l400000000006EF30:
	{ nop.m	0x0; mov.i	ar.pfs,r34; nop.i	0x0; }
	{ nop.m	0x0; mov.spnt	b0,r33,400000000006EF40; br.ret	b0; }
400000000006EF50 08 00 00 00 01 00 00 00 00 02 00 00 00 00 04 00 ................
400000000006EF60 08 00 00 00 01 00 00 00 00 02 00 00 00 00 04 00 ................
400000000006EF70 08 00 00 00 01 00 00 00 00 02 00 00 00 00 04 00 ................

;; set_pipestatus_from_exit: 400000000006EF80
set_pipestatus_from_exit proc
	{ alloc	r16,ar.pfs,0x2,0x0,0x2; nop.m	0x0; addl	r14,5796,r1; }
	{ st4	[r32],r14; addl	r33,1,r0; adds	r32,0x0,r14; }
	{ alloc	r2,ar.pfs,0x2,0x0,0x0; nop.i	0x0; br.cond.sptk.many	set_pipestatus_array; }
400000000006EFB0 0D 00 00 00 01 00 00 00 00 00 00 00 00 00 04 00 ................

;; copy_word: 400000000006EFC0
copy_word proc
	{ alloc	r34,ar.pfs,0x5,0x0,0x4; nop.m	0x0; mov	r33,b1 }
	{ adds	r35,0x0,r1; ld8	r36,[r32],8; nop.i	0x0; }
	{ nop.m	0x0; nop.i	0x0; br.call.sptk.many	b0,make_bare_word; }
	{ ld4	r15,[r32]; adds	r14,0x8,r8; nop.b	0x0 }
	{ adds	r1,0x0,r35; nop.m	0x0; mov.i	ar.pfs,r34; }
	{ st4	[r15],r14; mov.spnt	b0,r33,400000000006F010; br.ret	b0; }
400000000006F020 08 00 00 00 01 00 00 00 00 02 00 00 00 00 04 00 ................
400000000006F030 08 00 00 00 01 00 00 00 00 02 00 00 00 00 04 00 ................
400000000006F040 09 18 19 0A 80 05 40 02 04 00 42 40 04 00 C4 00 ......@...B@....
400000000006F050 11 28 A1 00 00 24 00 00 00 02 00 00 78 9C 07 50 .(...$......x..P
400000000006F060 08 78 00 40 00 21 30 81 80 00 42 C0 01 40 00 84 .x.@.!0...B..@..
400000000006F070 09 88 20 10 00 21 10 02 20 00 42 40 82 00 01 84 .. ..!.. .B@....
400000000006F080 08 00 00 00 01 00 00 21 3C 20 28 20 00 20 01 84 .......!< ( . ..
400000000006F090 0A 40 00 26 18 10 40 80 38 20 2B C0 00 40 1C E4 .@.&..@.8 +..@..
400000000006F0A0 09 80 00 1E 10 10 F0 00 48 20 20 A0 04 40 00 84 ........H  ..@..
400000000006F0B0 08 00 40 1C 90 11 00 78 44 20 23 00 00 00 04 00 ..@....xD #.....
400000000006F0C0 17 00 00 00 00 88 01 10 00 80 21 00 08 FF FF 58 ..........!....X
400000000006F0D0 08 08 00 48 00 21 00 00 00 02 00 00 00 00 04 00 ...H.!..........
400000000006F0E0 09 78 60 40 00 21 00 00 00 02 00 C0 01 09 01 84 .x`@.!..........
400000000006F0F0 09 28 01 1E 18 10 00 40 38 30 23 00 00 00 04 00 .(.....@80#.....
400000000006F100 09 00 00 00 01 00 60 00 94 0E 72 00 00 00 04 00 ......`...r.....
400000000006F110 D1 40 00 00 00 21 00 00 00 02 00 03 30 00 00 43 .@...!......0..C
400000000006F120 11 00 00 00 01 00 00 00 00 02 00 00 28 FF FF 58 ............(..X
400000000006F130 08 08 00 48 00 21 00 00 00 02 00 00 00 00 04 00 ...H.!..........
400000000006F140 09 00 81 40 00 21 00 00 00 02 00 C0 81 09 01 84 ...@.!..........
400000000006F150 09 28 01 40 18 10 00 40 38 30 23 00 00 00 04 00 .(.@...@80#.....
400000000006F160 09 00 00 00 01 00 60 00 94 0E 72 00 00 00 04 00 ......`...r.....
400000000006F170 D1 78 00 00 00 21 00 00 00 02 00 03 30 00 00 43 .x...!......0..C
400000000006F180 11 00 00 00 01 00 00 00 00 02 00 00 C8 FE FF 58 ...............X
400000000006F190 08 00 00 00 01 00 10 00 90 00 42 E0 01 40 00 84 ..........B..@..
400000000006F1A0 09 70 80 42 00 21 80 00 84 00 42 00 30 02 AA 00 .p.B.!....B.0...
400000000006F1B0 11 00 3C 1C 98 11 00 10 05 80 03 80 08 00 84 00 ..<.............

;; copy_word_list: 400000000006F1C0
copy_word_list proc
	{ alloc	r35,ar.pfs,0x7,0x0,0x5; adds	r36,0x0,r1; mov	r34,b2 }
	{ cmp.eq	p07,p06,0x0,r32; nop.m	0x0; (p07) br.cond.dpnt.few	400000000006F2D0; }

l400000000006F1E0:
	{ adds	r33,0x0,r0; nop.m	0x0; nop.i	0x0; }
	{ nop.m	0x0; nop.m	0x0; nop.i	0x0 }

l400000000006F200:
	{ nop.m	0x0; adds	r14,0x8,r32; nop.i	0x0; }
	{ ld8	r37,[r14]; nop.i	0x0; br.call.sptk.many	b0,copy_word; }
	{ adds	r1,0x0,r36; nop.m	0x0; adds	r38,0x0,r33 }
	{ adds	r37,0x0,r8; nop.m	0x0; br.call.sptk.many	b0,make_word_list; }
	{ ld8	r32,[r32]; adds	r1,0x0,r36; adds	r33,0x0,r8; }
	{ nop.m	0x0; cmp.eq	p07,p06,0x0,r32; (p06) br.cond.dptk.few	400000000006F200; }

l400000000006F260:
	{ cmp.eq	p06,p07,0x0,r8; adds	r37,0x0,r8; (p06) br.cond.dpnt.few	400000000006F2D0; }

l400000000006F270:
	{ nop.m	0x0; ld8	r14,[r8]; nop.i	0x0; }
	{ cmp.eq	p06,p07,0x0,r14; nop.i	0x0; (p06) br.cond.dpnt.few	400000000006F2B0; }

l400000000006F290:
	{ nop.m	0x0; nop.i	0x0; br.call.sptk.many	b0,list_reverse; }
	{ nop.m	0x0; adds	r1,0x0,r36; adds	r33,0x0,r8; }

l400000000006F2B0:
	{ adds	r8,0x0,r33; nop.m	0x0; mov.i	ar.pfs,r35; }
	{ nop.m	0x0; mov.spnt	b0,r34,400000000006F2C0; br.ret	b0 }

l400000000006F2D0:
	{ adds	r33,0x0,r0; nop.m	0x0; mov.i	ar.pfs,r35; }
	{ adds	r8,0x0,r33; mov.spnt	b0,r34,400000000006F2E0; br.ret	b0; }
400000000006F2F0 08 00 00 00 01 00 00 00 00 02 00 00 00 00 04 00 ................

;; copy_redirect: 400000000006F300
copy_redirect proc
	{ alloc	r36,ar.pfs,0x8,0x0,0x6; adds	r37,0x0,r1; mov	r35,b3; }
	{ addl	r38,48,r0; nop.i	0x0; br.call.sptk.many	b0,xmalloc; }
	{ adds	r16,0x0,r32; adds	r33,0x0,r8; nop.i	0x0 }
	{ adds	r17,0x10,r32; adds	r1,0x0,r37; adds	r34,0x0,r8; }
	{ ld8	r14,[r16],8; st8	[r33],r8,8; adds	r15,0x0,r16; }
	{ ld8	r18,[r15],8; nop.m	0x0; adds	r14,0x0,r33; }
	{ st8	[r14],r8,8; ld8	r18,[r15],8; nop.i	0x0; }
	{ st8	[r14],r8,8; ld8	r18,[r15],8; nop.i	0x0 }
	{ ld4	r17,[r17]; st8	[r14],r8,8; tbit.z	p06,p07,r17,0x0; }
	{ ld8	r17,[r15],8; st8	[r14],r8,8; nop.i	0x0; }
	{ nop.m	0x0; ld8	r15,[r15]; nop.i	0x0; }
	{ st8	[r15],r14; nop.i	0x0; (p07) br.cond.dpnt.few	400000000006F480 }

l400000000006F3C0:
	{ nop.m	0x0; adds	r14,0x18,r32; nop.i	0x0; }
	{ ld4	r14,[r14]; nop.i	0x0; sxt4	r15,r14 }
	{ nop.m	0x0; cmp4.ltu	p06,p07,0x13,r14; (p06) br.cond.dptk.few	400000000006F460 }

l400000000006F3F0:
	{ addl	r14,1,r0; addl	r16,272,r0; shl	r14,r14,r15 }
	{ addl	r15,949295,r0; and	r15,r15,r14; and	r14,r16,r14; }
	{ nop.m	0x0; cmp.eq	p07,p06,0x0,r15; (p07) br.cond.dptk.few	400000000006F4B0 }

l400000000006F420:
	{ nop.m	0x0; adds	r32,0x20,r32; nop.i	0x0; }
	{ ld8	r38,[r32]; nop.i	0x0; br.call.sptk.many	b0,copy_word; }
	{ adds	r14,0x20,r34; nop.m	0x0; adds	r1,0x0,r37; }
	{ st8	[r8],r14; nop.m	0x0; nop.i	0x0 }

l400000000006F460:
	{ adds	r8,0x0,r34; nop.m	0x0; mov.i	ar.pfs,r36; }
	{ nop.m	0x0; mov.spnt	b0,r35,400000000006F470; br.ret	b0; }

l400000000006F480:
	{ ld8	r38,[r16]; nop.i	0x0; br.call.sptk.many	b0,copy_word; }
	{ nop.m	0x0; adds	r1,0x0,r37; nop.i	0x0 }
	{ st8	[r8],r33; nop.m	0x0; br.cond.sptk.few	400000000006F3C0 }

l400000000006F4B0:
	{ adds	r33,0x28,r32; cmp.eq	p07,p06,0x0,r14; (p07) br.cond.dptk.few	400000000006F460; }

l400000000006F4C0:
	{ ld8	r38,[r33]; adds	r32,0x20,r32; br.call.sptk.many	b0,400000000001B6C0; }
	{ adds	r1,0x0,r37; adds	r38,0x1,r8; br.call.sptk.many	b0,xmalloc; }
	{ adds	r1,0x0,r37; ld8	r39,[r33]; adds	r38,0x0,r8 }
	{ nop.m	0x0; nop.m	0x0; br.call.sptk.many	b0,400000000001B180; }
	{ nop.m	0x0; adds	r14,0x28,r34; adds	r1,0x0,r37 }
	{ nop.m	0x0; ld8	r38,[r32]; nop.i	0x0; }
	{ st8	[r8],r14; nop.i	0x0; br.call.sptk.many	b0,copy_word; }
	{ adds	r14,0x20,r34; nop.m	0x0; adds	r1,0x0,r37; }
	{ st8	[r8],r14; nop.i	0x0; br.cond.sptk.few	400000000006F460; }
400000000006F550 08 00 00 00 01 00 00 00 00 02 00 00 00 00 04 00 ................
400000000006F560 08 00 00 00 01 00 00 00 00 02 00 00 00 00 04 00 ................
400000000006F570 08 00 00 00 01 00 00 00 00 02 00 00 00 00 04 00 ................

;; copy_redirects: 400000000006F580
copy_redirects proc
	{ alloc	r35,ar.pfs,0x6,0x0,0x5; cmp.eq	p06,p07,0x0,r32; mov	r34,b2 }
	{ adds	r36,0x0,r1; nop.m	0x0; adds	r37,0x0,r32; }
	{ (p06) adds	r8,0x0,r0; adds	r33,0x0,r0; (p06) br.cond.dpnt.few	400000000006F670; }

l400000000006F5A6:
	{ (p16) chk.a.clr	r0,3FFFFFFFFF0EF5A6; nop; break.b	0x80000 }

l400000000006F5AC:
	{ Invalid; break.i	0x1000; break.b	0x1000 }
	{ (p42) nop; (p16) nop; nop.b	0x1000 }
	{ nop; break.i	0x1000; Invalid }
	{ Invalid; cmp.eq	p00,p00,r32,r0; mov	pr,r72,0xE400 }
	{ (p03) nop; break.i	0x1000; break.i	0x1000 }
	{ nop; (p04) nop; zxt1	r0,r64 }
	{ (p40) nop; (p16) nop; nop }
	{ nop; break.i	0x1000; Invalid }
	{ Invalid; cmp.eq	p00,p00,r32,r0; mov	pr,r72,0xE400 }
	{ (p62) cmp.lt.unc	p63,p17,r63,r37; nop; (p04) epc }
	{ Invalid; break.i	0x1000; break.b	0x1000 }
	{ (p61) nop; invala; break.b	0x1000 }
	{ nop.m	0x80; break.i	0x1000; (p48) break.i	0x2A808 }
	{ Invalid; break.i	0x1000; (p32) add	r40,r0,r112 }
	{ nop; break.m	0x1000; break.i	0x1000 }
	{ nop; break.i	0x1000; break.i	0x1000 }
	{ nop; break.i	0x1000; break.i	0x1000 }
	{ cmp.eq	p00,p08,r1,r0; (p04) cmp.lt	p35,p02,r2,r96; cmp.lt	p00,p28,r104,r65 }

;; copy_command: 400000000006F6C0
copy_command proc
	{ alloc	r39,ar.pfs,0xC,0x0,0x9; cmp.eq	p06,p07,0x0,r32; mov	r38,b6 }
	{ adds	r40,0x0,r1; nop.m	0x0; (p06) br.cond.dpnt.few	400000000006F7C0; }

l400000000006F6E0:
	{ addl	r41,32,r0; nop.i	0x0; br.call.sptk.many	b0,xmalloc; }
	{ adds	r1,0x0,r40; adds	r33,0x0,r8; adds	r41,0x0,r8 }
	{ adds	r42,0x0,r32; addl	r43,32,r0; br.call.sptk.many	b0,400000000001A8A0; }
	{ adds	r18,0x10,r32; adds	r15,0x4,r32; adds	r14,0x8,r32 }
	{ adds	r17,0x4,r33; adds	r16,0x8,r33; adds	r1,0x0,r40; }
	{ ld8	r41,[r18]; ld4	r14,[r14]; nop.i	0x0; }
	{ nop.m	0x0; ld4	r15,[r15]; cmp.eq	p06,p07,0x0,r41 }
	{ nop.m	0x0; st4	[r14],r16; nop.i	0x0; }
	{ st4	[r15],r17; (p06) br.cond.dpnt.few	400000000006F790; br.call.sptk.many	b0,copy_redirects; }

l400000000006F76C:
	{ (p49) cmp.lt.unc	p63,p09,r63,r44; (p01) invala; nop }

l400000000006F772:
	{ (p18) break.m	0x42008; zxt1	r32,r0; Invalid }

l400000000006F778:
	{ (p16) break.m	0x40000; (p05) deposit	r64,r16,r2,63,0; (p56) break.i	0x8CC0 }

l400000000006F77E:
	{ (p32) ldfe.s	f16,[r0],2; (p32) break.i	0x119; (p04) break.i	0x0; }

l400000000006F784:
	{ (p12) break.m	0x100002; break.m	0x100000; break.b	0x48 }

l400000000006F78A:
	{ sum	0x0; (p36) mov	pr,0x0; nop }

l400000000006F790:
	{ nop.m	0x0; ld4	r14,[r32]; nop.i	0x0; }
	{ nop.m	0x0; cmp4.ltu	p06,p07,0xE,r14; (p07) br.cond.dptk.few	400000000006F7E0; }

l400000000006F7B0:
	{ (p06) adds	r32,0x0,r33; nop.m	0x0; nop.i	0x0; }

l400000000006F7B6:
	{ break.m	0x4000; nop; nop }

l400000000006F7C0:
	{ adds	r8,0x0,r32; nop.m	0x0; mov.i	ar.pfs,r39; }

l400000000006F7C2:
	{ break.m	0x42008; cmp.eq	p32,p00,r0,r0; Invalid }
	{ cmp.lt	p32,p00,r0,r0; (p20) nop; Invalid }

l400000000006F7E0:
	{ adds	r15,0x0,r14; nop.m	0x0; addl	r14,580,r1; }
	{ ld8	r14,[r14]; shladd	r14,r15,0x3,r14; nop.i	0x0; }
	{ ld8	r15,[r14]; add	r14,r14,r15; nop.i	0x0; }
	{ nop.m	0x0; mov.spnt	b6,r14,400000000006F810; br.cond	b6; }
400000000006F820 09 70 60 40 00 21 00 02 84 00 42 20 84 09 01 84 .p`@.!....B ....
400000000006F830 11 48 01 1C 18 10 00 00 00 02 00 00 18 0B 00 50 .H.............P
400000000006F840 08 08 00 50 00 21 00 40 84 30 23 00 70 02 AA 00 ...P.!.@.0#.p...
400000000006F850 09 00 00 00 01 00 80 00 80 00 42 00 00 00 04 00 ..........B.....
400000000006F860 10 00 00 00 01 00 00 30 05 80 03 80 08 00 84 00 .......0........
400000000006F870 09 00 61 40 00 21 00 00 00 02 00 20 85 01 00 90 ..a@.!..... ....
400000000006F880 11 18 01 40 18 10 00 00 00 02 00 00 48 94 07 50 ...@........H..P
400000000006F890 08 70 00 46 00 21 40 02 20 00 42 20 00 40 01 84 .p.F.!@. .B .@..
400000000006F8A0 0B 10 01 10 00 21 F0 40 38 20 28 00 00 00 04 00 .....!.@8 (.....
400000000006F8B0 08 00 00 00 01 00 80 78 90 20 2B 00 00 00 04 00 .......x. +.....
400000000006F8C0 19 48 01 1C 18 10 00 00 00 02 00 00 08 F9 FF 58 .H.............X
400000000006F8D0 09 70 40 46 00 21 00 40 90 30 23 20 00 40 01 84 .p@F.!.@.0# .@..
400000000006F8E0 0B 48 01 1C 18 10 60 00 A4 0E 72 00 00 00 04 00 .H....`...r.....
400000000006F8F0 D1 40 00 00 00 21 00 00 00 02 00 03 30 00 00 43 .@...!......0..C
400000000006F900 11 00 00 00 01 00 00 00 00 02 00 00 88 FC FF 58 ...............X
400000000006F910 08 08 00 50 00 21 00 00 00 02 00 00 00 00 04 00 ...P.!..........
400000000006F920 08 18 11 46 00 21 10 81 88 00 42 00 70 02 AA 00 ...F.!....B.p...
400000000006F930 09 80 10 44 00 21 F0 C0 84 00 42 00 04 08 01 84 ...D.!....B.....
400000000006F940 08 70 00 46 10 10 00 40 44 30 23 00 60 0A 00 07 .p.F...@D0#.`...
400000000006F950 02 40 00 40 00 21 00 00 00 02 00 00 00 00 04 00 .@.@.!..........
400000000006F960 18 00 38 20 90 11 00 10 3D 30 23 80 08 00 84 00 ..8 ....=0#.....
400000000006F970 09 00 61 40 00 21 00 00 00 02 00 20 05 02 00 90 ..a@.!..... ....
400000000006F980 11 18 01 40 18 10 00 00 00 02 00 00 48 93 07 50 ...@........H..P
400000000006F990 08 70 00 46 00 21 40 02 20 00 42 40 04 40 00 84 .p.F.!@. .B@.@..
400000000006F9A0 0B 08 00 50 00 21 F0 40 38 20 28 00 00 00 04 00 ...P.!.@8 (.....
400000000006F9B0 08 00 00 00 01 00 80 78 90 20 2B 00 00 00 04 00 .......x. +.....
400000000006F9C0 19 48 01 1C 18 10 00 00 00 02 00 00 08 FD FF 58 .H.............X
400000000006F9D0 08 70 40 46 00 21 00 00 00 02 00 20 00 40 01 84 .p@F.!..... .@..
400000000006F9E0 09 00 20 48 98 11 00 00 00 02 00 60 84 19 01 84 .. H.......`....
400000000006F9F0 11 48 01 1C 18 10 00 00 00 02 00 00 D8 FC FF 58 .H.............X
400000000006FA00 09 48 01 46 18 10 E0 80 88 00 42 20 00 40 01 84 .H.F......B .@..
400000000006FA10 08 00 00 00 01 00 60 00 A4 0E 72 00 00 00 04 00 ......`...r.....
400000000006FA20 19 00 20 1C 98 11 00 00 00 02 00 03 30 00 00 43 .. .........0..C
400000000006FA30 11 00 00 00 01 00 00 00 00 02 00 00 98 FC FF 58 ...............X
400000000006FA40 08 00 00 00 01 00 10 00 A0 00 42 20 05 40 00 84 ..........B .@..
400000000006FA50 18 78 60 44 00 21 E0 C0 84 00 42 00 00 00 00 20 .x`D.!....B.... 
400000000006FA60 09 00 01 42 00 21 00 00 00 02 00 00 70 02 AA 00 ...B.!......p...
400000000006FA70 18 00 A4 1E 98 11 80 00 80 00 42 00 00 00 00 20 ..........B.... 
400000000006FA80 10 00 88 1C 98 11 00 30 05 80 03 80 08 00 84 00 .......0........
400000000006FA90 08 70 60 40 00 21 00 00 00 02 00 20 85 01 00 90 .p`@.!..... ....
400000000006FAA0 09 00 01 42 00 21 00 00 00 02 00 20 84 09 01 84 ...B.!..... ....
400000000006FAB0 11 20 01 1C 18 10 00 00 00 02 00 00 18 92 07 50 . .............P
400000000006FAC0 08 70 00 48 00 21 30 02 20 00 42 00 00 00 04 00 .p.H.!0. .B.....
400000000006FAD0 09 10 01 10 00 21 10 00 A0 00 42 80 04 21 01 84 .....!....B..!..
400000000006FAE0 0A 78 20 1C 10 14 90 02 38 30 20 00 00 00 04 00 .x .....80 .....
400000000006FAF0 19 40 3C 46 90 15 00 00 00 02 00 00 D8 FB FF 58 .@<F...........X
400000000006FB00 08 08 00 50 00 21 00 40 8C 30 23 00 00 00 04 00 ...P.!.@.0#.....
400000000006FB10 19 48 01 48 18 10 00 00 00 02 00 00 B8 FB FF 58 .H.H...........X
400000000006FB20 09 70 40 44 00 21 00 00 00 02 00 20 00 40 01 84 .p@D.!..... .@..
400000000006FB30 08 00 20 1C 98 11 00 10 85 30 23 00 00 00 04 00 .. ......0#.....
400000000006FB40 09 40 00 40 00 21 00 00 00 02 00 00 70 02 AA 00 .@.@.!......p...
400000000006FB50 10 00 00 00 01 00 00 30 05 80 03 80 08 00 84 00 .......0........
400000000006FB60 09 00 61 40 00 21 00 00 00 02 00 20 85 01 00 90 ..a@.!..... ....
400000000006FB70 11 10 01 40 18 10 00 00 00 02 00 00 58 91 07 50 ...@........X..P
400000000006FB80 08 78 00 44 00 21 E0 00 20 00 42 20 82 10 01 84 .x.D.!.. .B ....
400000000006FB90 09 10 41 44 00 21 50 02 20 00 42 20 00 40 01 84 ..AD.!P. .B .@..
400000000006FBA0 09 80 10 1E 10 14 90 02 44 30 20 00 00 00 04 00 ........D0 .....
400000000006FBB0 09 20 40 1C 90 15 F0 00 3C 20 20 00 00 00 04 00 . @.....<  .....
400000000006FBC0 11 00 3C 1C 90 11 00 00 00 02 00 00 08 F4 FF 58 ..<............X
400000000006FBD0 09 10 01 44 18 10 E0 40 94 00 42 20 00 40 01 84 ...D...@..B .@..
400000000006FBE0 08 00 00 00 01 00 60 00 88 0E 72 00 00 00 04 00 ......`...r.....
400000000006FBF0 19 00 20 1C 98 11 00 00 00 02 00 03 70 06 00 43 .. .........p..C
400000000006FC00 E9 20 01 00 00 21 00 00 00 02 00 00 00 00 04 00 . ...!..........
400000000006FC10 08 00 00 00 01 00 00 00 00 02 00 00 00 00 04 00 ................
400000000006FC20 11 48 81 00 00 24 00 00 00 02 00 00 A8 90 07 50 .H...$.........P
400000000006FC30 09 70 20 44 00 21 30 02 20 00 42 20 00 40 01 84 .p D.!0. .B .@..
400000000006FC40 11 48 01 1C 18 10 00 00 00 02 00 00 88 F5 FF 58 .H.............X
400000000006FC50 09 70 40 44 00 21 F0 40 8C 00 42 20 00 40 01 84 .p@D.!.@..B .@..
400000000006FC60 08 00 00 00 01 00 90 02 38 30 20 00 00 00 04 00 ........80 .....
400000000006FC70 19 00 20 1E 98 11 00 00 00 02 00 00 58 FA FF 58 .. .........X..X
400000000006FC80 08 70 60 44 00 21 00 20 8D 30 23 00 00 00 04 00 .p`D.!. .0#.....
400000000006FC90 09 80 40 46 00 21 F0 C0 8C 00 42 20 00 40 01 84 ..@F.!....B .@..
400000000006FCA0 08 00 00 00 01 00 E0 00 38 20 20 00 00 00 04 00 ........8  .....
400000000006FCB0 09 00 20 20 98 11 20 02 88 30 20 00 00 00 04 00 ..  .. ..0 .....
400000000006FCC0 11 00 38 1E 90 11 70 00 88 0C F2 03 F0 05 00 43 ..8...p........C
400000000006FCD0 10 00 00 00 01 00 40 02 8C 00 42 00 50 FF FF 48 ......@...B.P..H
400000000006FCE0 08 70 60 40 00 21 00 00 00 02 00 20 05 01 00 90 .p`@.!..... ....
400000000006FCF0 09 00 01 42 00 21 00 00 00 02 00 20 84 09 01 84 ...B.!..... ....
400000000006FD00 11 18 01 1C 18 10 00 00 00 02 00 00 C8 8F 07 50 ...............P
400000000006FD10 09 70 20 46 00 21 20 02 20 00 42 20 00 40 01 84 .p F.! . .B .@..
400000000006FD20 11 48 01 1C 18 10 00 00 00 02 00 00 A8 F9 FF 58 .H.............X
400000000006FD30 18 70 00 46 10 10 F0 40 88 00 42 00 00 00 00 20 .p.F...@..B.... 
400000000006FD40 09 08 00 50 00 21 00 00 00 02 00 00 70 02 AA 00 ...P.!......p...
400000000006FD50 18 00 20 1E 98 11 00 70 88 20 23 00 00 00 00 20 .. ....p. #.... 
400000000006FD60 09 40 00 40 00 21 00 00 00 02 00 00 60 0A 00 07 .@.@.!......`...
400000000006FD70 10 00 88 42 98 11 00 00 00 02 00 80 08 00 84 00 ...B............
400000000006FD80 08 70 60 40 00 21 00 00 00 02 00 20 85 01 00 90 .p`@.!..... ....
400000000006FD90 09 00 01 42 00 21 00 00 00 02 00 20 84 09 01 84 ...B.!..... ....
400000000006FDA0 11 18 01 1C 18 10 00 00 00 02 00 00 28 8F 07 50 ............(..P
400000000006FDB0 09 20 21 46 00 21 20 02 20 00 42 20 00 40 01 84 . !F.! . .B .@..
400000000006FDC0 11 48 01 48 18 10 00 00 00 02 00 00 08 B9 FA 58 .H.H...........X
400000000006FDD0 11 08 00 50 00 21 90 0A 20 00 42 00 F8 8E 07 50 ...P.!.. .B....P
400000000006FDE0 08 08 00 50 00 21 A0 02 90 30 20 20 05 40 00 84 ...P.!...0  .@..
400000000006FDF0 19 00 00 00 01 00 00 00 00 02 00 00 98 B3 FA 58 ...............X
400000000006FE00 09 78 20 44 00 21 E0 80 8C 00 42 20 00 40 01 84 .x D.!....B .@..
400000000006FE10 08 00 00 00 01 00 90 02 38 30 20 00 00 00 04 00 ........80 .....
400000000006FE20 19 00 20 1E 98 11 00 00 00 02 00 00 A8 F8 FF 58 .. ............X
400000000006FE30 18 70 00 46 10 10 F0 80 88 00 42 00 00 00 00 20 .p.F......B.... 
400000000006FE40 09 08 00 50 00 21 00 00 00 02 00 00 70 02 AA 00 ...P.!......p...
400000000006FE50 18 00 20 1E 98 11 00 70 88 20 23 00 00 00 00 20 .. ....p. #.... 
400000000006FE60 09 40 00 40 00 21 00 00 00 02 00 00 60 0A 00 07 .@.@.!......`...
400000000006FE70 10 00 88 42 98 11 00 00 00 02 00 80 08 00 84 00 ...B............
400000000006FE80 08 70 60 40 00 21 00 00 00 02 00 20 85 02 00 90 .p`@.!..... ....
400000000006FE90 09 00 01 42 00 21 00 00 00 02 00 20 84 09 01 84 ...B.!..... ....
400000000006FEA0 11 18 01 1C 18 10 00 00 00 02 00 00 28 8E 07 50 ............(..P
400000000006FEB0 08 78 00 46 00 21 E0 00 20 00 42 00 00 00 04 00 .x.F.!.. .B.....
400000000006FEC0 09 88 20 46 00 21 20 02 20 00 42 20 00 40 01 84 .. F.! . .B .@..
400000000006FED0 09 80 10 1E 10 14 90 02 44 30 20 00 00 00 04 00 ........D0 .....
400000000006FEE0 09 20 40 1C 90 15 F0 00 3C 20 20 00 00 00 04 00 . @.....<  .....
400000000006FEF0 11 00 3C 1C 90 11 00 00 00 02 00 00 D8 F2 FF 58 ..<............X
400000000006FF00 09 70 20 44 00 21 F0 80 8C 00 42 20 00 40 01 84 .p D.!....B .@..
400000000006FF10 08 00 00 00 01 00 90 02 3C 30 20 00 00 00 04 00 ........<0 .....
400000000006FF20 19 00 20 1C 98 11 00 00 00 02 00 00 A8 F2 FF 58 .. ............X
400000000006FF30 08 78 60 46 00 21 00 00 00 02 00 C0 01 11 01 84 .x`F.!..........
400000000006FF40 02 08 00 50 00 21 30 02 8D 00 42 00 00 00 04 00 ...P.!0...B.....
400000000006FF50 19 48 01 1E 18 10 00 40 38 30 23 00 78 F2 FF 58 .H.....@80#.x..X
400000000006FF60 08 00 00 00 01 00 E0 C0 88 00 42 20 00 40 01 84 ..........B .@..
400000000006FF70 09 00 00 00 01 00 90 02 8C 30 20 00 00 00 04 00 .........0 .....
400000000006FF80 11 00 20 1C 98 11 00 00 00 02 00 00 48 F7 FF 58 .. .........H..X
400000000006FF90 09 70 80 44 00 21 10 00 A0 00 42 00 70 02 AA 00 .p.D.!....B.p...
400000000006FFA0 08 00 20 1C 98 11 00 00 00 02 00 00 60 0A 00 07 .. .........`...
400000000006FFB0 18 40 00 40 00 21 00 10 85 30 23 80 08 00 84 00 .@.@.!...0#.....
400000000006FFC0 09 70 60 40 00 21 00 02 84 00 42 20 84 09 01 84 .p`@.!....B ....
400000000006FFD0 11 48 01 1C 18 10 00 00 00 02 00 00 78 F0 FF 58 .H..........x..X
400000000006FFE0 08 08 00 50 00 21 00 40 84 30 23 00 70 02 AA 00 ...P.!.@.0#.p...
400000000006FFF0 09 00 00 00 01 00 80 00 80 00 42 00 00 00 04 00 ..........B.....
4000000000070000 10 00 00 00 01 00 00 30 05 80 03 80 08 00 84 00 .......0........
4000000000070010 08 70 60 40 00 21 00 00 00 02 00 20 05 01 00 90 .p`@.!..... ....
4000000000070020 09 00 01 42 00 21 00 00 00 02 00 20 84 09 01 84 ...B.!..... ....
4000000000070030 11 20 01 1C 18 10 00 00 00 02 00 00 98 8C 07 50 . .............P
4000000000070040 08 70 00 48 00 21 30 02 20 00 42 00 00 00 04 00 .p.H.!0. .B.....
4000000000070050 09 10 01 10 00 21 10 00 A0 00 42 80 44 20 01 84 .....!....B.D ..
4000000000070060 0A 78 20 1C 10 14 80 78 8C 20 2B 00 00 00 04 00 .x ....x. +.....
4000000000070070 19 48 01 1C 18 10 00 00 00 02 00 00 58 F1 FF 58 .H..........X..X
4000000000070080 08 00 00 00 01 00 E0 00 90 20 20 E0 41 10 01 84 .........  .A...
4000000000070090 09 00 20 46 98 11 10 00 A0 00 42 00 01 00 01 84 .. F......B.....
40000000000700A0 08 00 00 00 01 00 00 70 3C 20 23 00 70 02 AA 00 .......p< #.p...
40000000000700B0 09 00 00 00 01 00 00 10 85 30 23 00 00 00 04 00 .........0#.....
40000000000700C0 10 00 00 00 01 00 00 30 05 80 03 80 08 00 84 00 .......0........
40000000000700D0 08 70 60 40 00 21 00 00 00 02 00 20 05 01 00 90 .p`@.!..... ....
40000000000700E0 09 00 01 42 00 21 00 00 00 02 00 20 84 09 01 84 ...B.!..... ....
40000000000700F0 11 18 01 1C 18 10 00 00 00 02 00 00 D8 8B 07 50 ...............P
4000000000070100 09 18 21 46 00 21 20 02 20 00 42 20 00 40 01 84 ..!F.! . .B .@..
4000000000070110 11 48 01 46 18 10 00 00 00 02 00 00 B8 F5 FF 58 .H.F...........X
4000000000070120 09 70 20 44 00 21 10 00 A0 00 42 00 70 02 AA 00 .p D.!....B.p...
4000000000070130 08 00 20 1C 98 11 00 00 00 02 00 00 60 0A 00 07 .. .........`...
4000000000070140 18 40 00 40 00 21 00 10 85 30 23 80 08 00 84 00 .@.@.!...0#.....
4000000000070150 09 70 60 40 00 21 00 02 84 00 42 20 84 09 01 84 .p`@.!....B ....
4000000000070160 11 48 01 1C 18 10 00 00 00 02 00 00 28 04 00 50 .H..........(..P
4000000000070170 08 08 00 50 00 21 00 40 84 30 23 00 70 02 AA 00 ...P.!.@.0#.p...
4000000000070180 09 00 00 00 01 00 80 00 80 00 42 00 00 00 04 00 ..........B.....
4000000000070190 11 00 00 00 01 00 00 30 05 80 03 80 08 00 84 00 .......0........
40000000000701A0 08 18 61 40 00 21 90 02 01 00 48 00 00 00 04 00 ..a@.!....H.....
40000000000701B0 19 00 01 42 00 21 10 C2 84 00 42 00 18 8B 07 50 ...B.!....B....P
40000000000701C0 08 70 00 46 18 10 00 C1 20 00 42 40 04 40 00 84 .p.F.... .B@.@..
40000000000701D0 0B 08 00 50 00 21 F0 C0 38 00 42 C0 81 70 00 84 ...P.!..8.B..p..
40000000000701E0 09 78 00 1E 10 10 90 02 38 30 20 00 00 00 04 00 .x......80 .....
40000000000701F0 11 00 3C 20 90 11 00 00 00 02 00 00 D8 F4 FF 58 ..< ...........X
4000000000070200 09 70 20 44 00 21 00 00 00 02 00 20 00 40 01 84 .p D.!..... .@..
4000000000070210 0B 00 20 1C 98 11 E0 00 8C 30 20 00 00 00 04 00 .. ......0 .....
4000000000070220 09 00 00 00 01 00 E0 80 38 00 42 00 00 00 04 00 ........8.B.....
4000000000070230 11 48 01 1C 18 10 00 00 00 02 00 00 98 F4 FF 58 .H.............X
4000000000070240 02 70 40 44 00 21 10 00 A0 00 42 00 00 00 04 00 .p@D.!....B.....
4000000000070250 18 00 20 1C 98 11 00 10 85 30 23 00 F0 F8 FF 48 .. ......0#....H
4000000000070260 08 18 01 00 00 21 00 00 00 02 00 00 00 00 04 00 .....!..........
4000000000070270 09 78 40 4A 00 21 E0 C0 84 00 42 00 04 08 01 84 .x@J.!....B.....
4000000000070280 08 00 8C 1E 98 11 00 28 39 30 23 00 00 00 04 00 .......(90#.....
4000000000070290 09 40 00 40 00 21 00 00 00 02 00 00 70 02 AA 00 .@.@.!......p...
40000000000702A0 10 00 00 00 01 00 00 30 05 80 03 80 08 00 84 00 .......0........
40000000000702B0 08 30 00 48 07 39 00 00 00 02 00 20 05 18 01 84 .0.H.9..... ....
40000000000702C0 19 00 01 42 00 21 00 00 00 02 00 03 B0 FF FF 4B ...B.!.........K
40000000000702D0 11 00 00 00 01 00 00 00 00 02 00 00 38 8B 06 50 ............8..P
40000000000702E0 08 78 40 4A 00 21 30 02 20 00 42 C0 81 09 01 84 .x@J.!0. .B.....
40000000000702F0 0A 08 00 50 00 21 00 18 3D 30 23 00 00 00 04 00 ...P.!..=0#.....
4000000000070300 19 00 94 1C 98 11 00 00 00 02 00 00 90 FF FF 48 ...............H
4000000000070310 08 00 00 00 01 00 00 00 00 02 00 00 00 00 04 00 ................
4000000000070320 08 00 00 00 01 00 00 00 00 02 00 00 00 00 04 00 ................
4000000000070330 08 00 00 00 01 00 00 00 00 02 00 00 00 00 04 00 ................
4000000000070340 01 18 19 0A 80 05 20 02 00 62 00 80 04 08 00 84 ...... ..b......
4000000000070350 11 28 81 00 00 24 00 00 00 02 00 00 78 89 07 50 .(...$......x..P
4000000000070360 08 78 00 40 00 21 E0 00 20 00 42 00 00 00 04 00 .x.@.!.. .B.....
4000000000070370 09 88 20 40 00 21 10 02 20 00 42 20 00 20 01 84 .. @.!.. .B . ..
4000000000070380 09 80 10 1E 10 14 50 02 44 30 20 00 00 00 04 00 ......P.D0 .....
4000000000070390 09 20 40 1C 90 15 F0 00 3C 20 20 00 00 00 04 00 . @.....<  .....
40000000000703A0 11 00 3C 1C 90 11 00 00 00 02 00 00 28 EC FF 58 ..<.........(..X
40000000000703B0 08 78 40 40 00 21 00 00 00 02 00 C0 81 08 01 84 .x@@.!..........
40000000000703C0 02 08 00 48 00 21 00 C2 80 00 42 00 00 00 04 00 ...H.!....B.....
40000000000703D0 19 28 01 1E 18 10 00 40 38 30 23 00 F8 ED FF 58 .(.....@80#....X
40000000000703E0 08 00 00 00 01 00 E0 80 84 00 42 20 00 20 01 84 ..........B . ..
40000000000703F0 09 00 00 00 01 00 50 02 80 30 20 00 00 00 04 00 ......P..0 .....
4000000000070400 11 00 20 1C 98 11 00 00 00 02 00 00 C8 F2 FF 58 .. ............X
4000000000070410 09 70 60 42 00 21 10 00 90 00 42 00 30 02 AA 00 .p`B.!....B.0...
4000000000070420 08 00 00 00 01 00 00 40 38 30 23 00 20 0A 00 07 .......@80#. ...
4000000000070430 19 00 00 00 01 00 80 00 84 00 42 80 08 00 84 00 ..........B.....

;; copy_function_def_contents: 4000000000070440
;;   Called from:
;;     40000000000705CC (in copy_function_def)
copy_function_def_contents proc
	{ alloc	r36,ar.pfs,0x8,0x0,0x6; adds	r14,0x8,r32; nop.b	0x0 }
	{ adds	r37,0x0,r1; mov	r35,b3; adds	r34,0x18,r32; }
	{ ld8	r38,[r14]; nop.i	0x0; br.call.sptk.many	b0,copy_word; }
	{ adds	r15,0x10,r32; adds	r14,0x8,r33; adds	r1,0x0,r37; }
	{ ld8	r15,[r15]; st8	[r8],r14; nop.i	0x0; }
	{ cmp.eq	p06,p07,0x0,r15; adds	r38,0x0,r15; (p06) br.cond.dpnt.few	40000000000704C0; }

l40000000000704A0:
	{ nop.m	0x0; nop.i	0x0; br.call.sptk.many	b0,copy_command; }
	{ nop.m	0x0; adds	r1,0x0,r37; adds	r15,0x0,r8 }

l40000000000704C0:
	{ ld8	r14,[r34]; nop.m	0x0; adds	r16,0x0,r33 }
	{ adds	r18,0x10,r33; ld4	r17,[r32],4; nop.i	0x0; }
	{ cmp.eq	p06,p07,0x0,r14; st8	[r15],r18; nop.i	0x0 }
	{ st4	[r16],r4,4; ld4	r15,[r32]; adds	r38,0x0,r14; }
	{ st4	[r15],r16; (p06) br.cond.dpnt.few	4000000000070550; br.call.sptk.many	b0,400000000001B6C0; }

l400000000007050C:
	{ (p14) nop; cmp.lt	p32,p16,r9,r64; zxt1	r0,r64 }

l4000000000070512:
	{ (p16) nop; Invalid; Invalid }

l4000000000070518:
	{ alloc	r64,ar.pfs,0x10,0x8,0x0; Invalid; (p20) break.i	0x10802 }
	{ (p16) sum	0x180000; (p01) mov	pr,0x3819840; (p08) break.i	0x80C2 }
	{ (p16) nop; (p42) break.i	0x858F; Invalid }
	{ Invalid; Invalid; Invalid }

l4000000000070550:
	{ adds	r15,0x18,r33; adds	r8,0x0,r33; mov.i	ar.pfs,r36; }
	{ st8	[r14],r15; mov.spnt	b0,r35,4000000000070560; br.ret	b0; }
4000000000070570 08 00 00 00 01 00 00 00 00 02 00 00 00 00 04 00 ................

;; copy_function_def: 4000000000070580
copy_function_def proc
	{ alloc	r35,ar.pfs,0x6,0x0,0x5; mov	r34,b2; adds	r36,0x0,r1; }
	{ addl	r37,32,r0; nop.i	0x0; br.call.sptk.many	b0,xmalloc; }
	{ adds	r1,0x0,r36; adds	r33,0x0,r8; mov.spnt	b0,r34,40000000000705A0; }
	{ nop.m	0x0; mov.i	ar.pfs,r35; nop.i	0x0; }
	{ alloc	r2,ar.pfs,0x2,0x0,0x0; nop.i	0x0; br.cond.sptk.many	copy_function_def_contents; }
40000000000705D0 0D 00 00 00 01 00 00 00 00 00 00 00 00 00 04 00 ................
40000000000705E0 00 30 00 00 01 00 70 00 00 02 00 00 01 00 04 00 .0....p.........
40000000000705F0 00 30 00 00 01 00 70 00 00 02 00 00 01 00 04 00 .0....p.........

;; get_name_for_error: 4000000000070600
get_name_for_error proc
	{ alloc	r33,ar.pfs,0x5,0x0,0x3; addl	r14,6512,r1; mov	r32,b0 }
	{ adds	r34,0x0,r1; nop.m	0x0; nop.i	0x0; }
	{ nop.m	0x0; ld4	r14,[r14]; nop.i	0x0; }
	{ nop.m	0x0; cmp4.eq	p06,p07,0x0,r14; (p06) br.cond.dpnt.few	40000000000706D0 }

l4000000000070640:
	{ addl	r14,6476,r1; nop.m	0x0; nop.i	0x0; }
	{ nop.m	0x0; ld8	r35,[r14]; nop.i	0x0; }
	{ cmp.eq	p07,p06,0x0,r35; nop.i	0x0; (p07) br.cond.dpnt.few	4000000000070690; }

l4000000000070670:
	{ ld1	r14,[r35]; nop.m	0x0; sxt1	r14,r14; }
	{ nop.m	0x0; cmp4.eq	p06,p07,0x0,r14; (p07) br.cond.dpnt.few	40000000000707E0 }

l4000000000070690:
	{ nop.m	0x0; addl	r8,-8804,r1; nop.i	0x0; }
	{ ld8	r8,[r8]; nop.m	0x0; nop.i	0x0 }

l40000000000706B0:
	{ nop.m	0x0; mov.i	ar.pfs,r33; nop.i	0x0; }
	{ nop.m	0x0; mov.spnt	b0,r32,40000000000706C0; br.ret	b0 }

l40000000000706D0:
	{ nop.m	0x0; addl	r35,-8796,r1; nop.i	0x0; }
	{ ld8	r35,[r35]; nop.i	0x0; br.call.sptk.many	b0,find_variable; }
	{ adds	r14,0x28,r8; nop.m	0x0; adds	r1,0x0,r34 }
	{ cmp.eq	p07,p06,0x0,r8; nop.m	0x0; (p07) br.cond.dpnt.few	40000000000707A0; }

l4000000000070710:
	{ nop.m	0x0; ld4	r14,[r14]; nop.i	0x0; }
	{ nop.m	0x0; tbit.z	p06,p07,r14,0x2; (p06) br.cond.dptk.few	40000000000707A0 }

l4000000000070730:
	{ adds	r8,0x8,r8; nop.m	0x0; adds	r36,0x0,r0; }
	{ nop.m	0x0; ld8	r35,[r8]; nop.i	0x0; }
	{ cmp.eq	p06,p07,0x0,r35; nop.i	0x0; (p06) br.cond.dpnt.few	40000000000707A0; }

l4000000000070760:
	{ nop.m	0x0; nop.i	0x0; br.call.sptk.many	b0,array_reference; }
	{ adds	r1,0x0,r34; cmp.eq	p06,p07,0x0,r8; (p06) br.cond.spnt.few	40000000000707A0; }

l4000000000070780:
	{ ld1	r14,[r8]; nop.m	0x0; sxt1	r14,r14; }
	{ nop.m	0x0; cmp4.eq	p06,p07,0x0,r14; (p07) br.cond.dptk.few	40000000000706B0 }

l40000000000707A0:
	{ addl	r14,23444,r1; nop.m	0x0; mov.i	ar.pfs,r33; }
	{ nop.m	0x0; nop.m	0x0; mov.spnt	b0,r32,40000000000707B0; }
	{ nop.m	0x0; ld8	r8,[r14]; nop.i	0x0; }
	{ cmp.eq	p06,p07,0x0,r8; (p06) br.cond.spnt.few	4000000000070640; br.ret	b0; }

l40000000000707DC:
	{ Invalid; break.m	0x1000; break.i	0x1000 }

l40000000000707E0:
	{ nop.m	0x0; nop.i	0x0; br.call.sptk.many	b0,base_pathname; }
	{ adds	r1,0x0,r34; cmp.eq	p06,p07,0x0,r8; (p07) br.cond.spnt.few	40000000000706B0; }

l4000000000070800:
	{ nop.m	0x0; addl	r8,-8804,r1; nop.i	0x0; }
	{ ld8	r8,[r8]; nop.i	0x0; br.cond.sptk.few	40000000000706B0; }
4000000000070820 08 00 00 00 01 00 00 00 00 02 00 00 00 00 04 00 ................
4000000000070830 08 00 00 00 01 00 00 00 00 02 00 00 00 00 04 00 ................
4000000000070840 09 28 35 0E 80 05 60 02 04 00 42 80 04 00 C4 00 .(5...`...B.....
4000000000070850 11 00 00 00 01 00 00 00 00 02 00 00 B8 FD FF 58 ...............X
4000000000070860 08 00 00 00 01 00 10 00 98 00 42 20 04 40 00 84 ..........B .@..
4000000000070870 19 00 00 00 01 00 60 00 80 0E 73 03 40 00 00 42 ......`...s.@..B
4000000000070880 0B 70 C0 03 32 24 00 00 00 02 00 00 00 00 04 00 .p..2$..........
4000000000070890 09 00 00 00 01 00 E0 00 38 20 20 00 00 00 04 00 ........8  .....
40000000000708A0 10 00 00 00 01 00 70 00 38 0C F3 03 70 00 00 43 ......p.8...p..C
40000000000708B0 08 70 90 FB AC 27 00 00 00 02 00 20 45 EC EF 9E .p...'..... E...
40000000000708C0 09 40 05 00 00 24 00 00 00 02 00 40 05 08 01 84 .@...$.....@....
40000000000708D0 09 70 00 1C 18 10 90 02 A4 30 20 00 00 00 04 00 .p.......0 .....
40000000000708E0 11 38 01 1C 18 10 00 00 00 02 00 00 68 B7 FA 58 .8..........h..X
40000000000708F0 09 08 00 4C 00 21 00 00 00 02 00 00 50 02 AA 00 ...L.!......P...
4000000000070900 11 00 00 00 01 00 00 20 05 80 03 80 08 00 84 00 ....... ........
4000000000070910 11 00 00 00 01 00 00 00 00 02 00 00 38 E6 FD 58 ............8..X
4000000000070920 08 08 00 4C 00 21 70 00 20 0C 63 60 04 40 00 84 ...L.!p. .c`.@..
4000000000070930 19 40 05 00 00 24 A0 02 84 00 42 03 80 FF FF 49 .@...$....B....I
4000000000070940 08 78 90 FB AC 27 E0 80 06 70 48 00 00 00 04 00 .x...'...pH.....
4000000000070950 09 48 F1 FA BB 27 B0 62 F5 77 4F 80 05 18 01 84 .H...'.b.wO.....
4000000000070960 09 78 00 1E 18 10 E0 00 38 20 20 00 00 00 04 00 .x......8  .....
4000000000070970 09 38 00 1C 86 39 B0 02 AC 30 20 00 00 00 04 00 .8...9...0 .....
4000000000070980 11 10 01 1E 18 10 00 00 00 02 80 03 60 00 00 43 ............`..C
4000000000070990 08 00 00 00 01 00 70 02 88 00 42 00 00 00 04 00 ......p...B.....
40000000000709A0 19 48 01 52 18 10 00 00 00 02 00 00 A8 B6 FA 58 .H.R...........X
40000000000709B0 08 08 00 4C 00 21 00 00 00 02 00 00 00 00 04 00 ...L.!..........
40000000000709C0 01 00 00 00 01 00 00 28 01 55 00 00 00 00 04 00 .......(.U......
40000000000709D0 10 00 00 00 01 00 00 20 05 80 03 80 08 00 84 00 ....... ........
40000000000709E0 09 40 D1 FA BB 27 70 02 00 00 42 20 55 00 00 90 .@...'p...B U...
40000000000709F0 11 40 01 50 18 10 00 00 00 02 00 00 78 A1 FA 58 .@.P........x..X
4000000000070A00 08 08 00 4C 00 21 B0 02 20 00 42 E0 04 10 01 84 ...L.!.. .B.....
4000000000070A10 09 40 05 00 00 24 A0 02 84 00 42 80 05 18 01 84 .@...$....B.....
4000000000070A20 09 00 00 00 01 00 90 E2 F5 77 4F 00 00 00 04 00 .........wO.....
4000000000070A30 11 48 01 52 18 10 00 00 00 02 00 00 18 B6 FA 58 .H.R...........X
4000000000070A40 11 00 00 00 01 00 10 00 98 00 42 00 80 FF FF 48 ..........B....H
4000000000070A50 08 00 00 00 01 00 00 00 00 02 00 00 00 00 04 00 ................
4000000000070A60 08 00 00 00 01 00 00 00 00 02 00 00 00 00 04 00 ................
4000000000070A70 08 00 00 00 01 00 00 00 00 02 00 00 00 00 04 00 ................

;; programming_error: 4000000000070A80
programming_error proc
	{ alloc	r44,ar.pfs,0x13,0x0,0xF; adds	r16,0x8,r12; adds	r17,0x0,r12 }
	{ adds	r12,0xFFFFFFFFFFFFFFC0,r12; addl	r14,5896,r1; addl	r40,-10652,r1; }
	{ mov.m	r46,UNAT; st8.spill	[r16],r112,-16; mov	r43,b3 }
	{ nop.m	0x0; adds	r45,0x0,r1; adds	r48,0x0,r0; }
	{ nop.m	0x0; st8.spill	[r17],r112,-16; nop.i	0x0 }
	{ st8.spill	[r16],r112,-16; ld8	r40,[r40]; nop.i	0x0; }
	{ st8.spill	[r17],r112,-16; st8.spill	[r16],r112,-16; nop.i	0x0; }
	{ st8.spill	[r34],r17; st8.spill	[r33],r16; nop.i	0x0; }
	{ ld4	r47,[r14]; nop.i	0x0; br.call.sptk.many	b0,give_terminal_to; }
	{ adds	r50,0x18,r12; adds	r49,0x0,r32; adds	r1,0x0,r45 }
	{ ld8	r47,[r40]; addl	r48,1,r0; br.call.sptk.many	b0,400000000001A560; }
	{ adds	r1,0x0,r45; nop.m	0x0; addl	r47,10,r0 }
	{ ld8	r48,[r40]; nop.m	0x0; br.call.sptk.many	b0,400000000001BD80; }
	{ adds	r1,0x0,r45; addl	r49,5,r0; adds	r47,0x0,r0; }
	{ addl	r14,6116,r1; nop.m	0x0; addl	r48,-8740,r1; }
	{ nop.m	0x0; ld4	r14,[r14]; nop.i	0x0; }
	{ cmp4.eq	p06,p07,0x0,r14; nop.i	0x0; (p07) br.cond.dpnt.few	4000000000070C00; }

l4000000000070B90:
	{ nop.m	0x0; ld8	r48,[r48]; nop.i	0x0 }
	{ ld8	r41,[r40]; nop.m	0x0; br.call.sptk.many	b0,400000000001AB60; }
	{ addl	r48,1,r0; adds	r49,0x0,r8; nop.i	0x0 }
	{ adds	r1,0x0,r45; adds	r47,0x0,r41; br.call.sptk.many	b0,400000000001C040; }
	{ nop.m	0x0; adds	r1,0x0,r45; nop.i	0x0 }
	{ ld8	r47,[r40]; nop.m	0x0; br.call.sptk.many	b0,400000000001A680; }
	{ nop.m	0x0; adds	r1,0x0,r45; br.call.sptk.many	b0,400000000001C1A0; }

l4000000000070C00:
	{ nop.m	0x0; nop.i	0x0; br.call.sptk.many	b0,last_history_line; }
	{ nop.m	0x0; adds	r1,0x0,r45; adds	r41,0x0,r8 }
	{ ld8	r42,[r40]; adds	r47,0x0,r0; addl	r49,5,r0; }
	{ nop.m	0x0; addl	r48,-8748,r1; nop.i	0x0; }
	{ ld8	r48,[r48]; nop.i	0x0; br.call.sptk.many	b0,400000000001AB60; }
	{ cmp.eq	p07,p06,0x0,r41; adds	r1,0x0,r45; adds	r47,0x0,r42 }
	{ addl	r48,1,r0; adds	r49,0x0,r8; (p07) addl	r50,-8756,r1; }

l4000000000070C70:
	{ nop.m	0x0; (p06) adds	r50,0x0,r41; nop.i	0x0; }

l4000000000070C7C:
	{ getf.s	r0,f1; Invalid; break.i	0x1000 }
	{ (p30) nop; invala; nop }
	{ (p02) nop; Invalid; (p05) epc }
	{ Invalid; Invalid; Invalid }
	{ (p53) nop; (p22) nop; (p06) epc }
	{ nop; cmp.eq	p32,p16,r11,r64; zxt1	r32,r64 }
	{ (p27) nop; nop; epc }
	{ cmp.eq	p00,p25,r1,r0; Invalid; break.i	0x1000 }
	{ Invalid; nop; epc }
	{ Invalid; break.m	0x1000; break.i	0x0 }
	{ nop; break.i	0x1000; break.i	0x1000 }
	{ nop; break.i	0x1000; break.i	0x1000 }
	{ ld2	r0,[r0]; Invalid; (p02) nop }

;; report_error: 4000000000070D40
;;   Called from:
;;     4000000000070F3C (in file_error)
;;     4000000000071B3C (in err_badarraysub)
;;     4000000000071BEC (in err_unboundvar)
;;     4000000000071C6C (in err_readonly)
report_error proc
	{ alloc	r42,ar.pfs,0x11,0x0,0xD; adds	r16,0x8,r12; adds	r17,0x0,r12 }
	{ adds	r12,0xFFFFFFFFFFFFFFC0,r12; addl	r40,-10652,r1; adds	r43,0x0,r1; }
	{ mov.m	r44,UNAT; st8.spill	[r16],r112,-16; nop.b	0x0 }
	{ ld8	r40,[r40]; mov	r41,b1; addl	r45,1,r0; }
	{ st8.spill	[r17],r112,-16; st8.spill	[r16],r112,-16; nop.i	0x0; }
	{ st8.spill	[r17],r112,-16; st8.spill	[r16],r112,-16; nop.i	0x0; }
	{ nop.m	0x0; st8.spill	[r34],r17; nop.i	0x0 }
	{ st8.spill	[r33],r16; nop.m	0x0; br.call.sptk.many	b0,4000000000070840; }
	{ adds	r1,0x0,r43; ld8	r45,[r40]; adds	r47,0x0,r32 }
	{ adds	r48,0x18,r12; addl	r46,1,r0; br.call.sptk.many	b0,400000000001A560; }
	{ adds	r1,0x0,r43; nop.m	0x0; addl	r45,10,r0 }
	{ ld8	r46,[r40]; nop.m	0x0; br.call.sptk.many	b0,400000000001BD80; }
	{ adds	r1,0x0,r43; addl	r14,7404,r1; nop.i	0x0; }
	{ nop.m	0x0; ld4	r14,[r14]; nop.i	0x0; }
	{ cmp4.eq	p06,p07,0x0,r14; nop.i	0x0; (p07) br.cond.spnt.few	4000000000070E60; }

l4000000000070E30:
	{ nop.m	0x0; mov.i	ar.pfs,r42; nop.i	0x0 }
	{ mov.m	UNAT,r44; nop.i	0x0; mov.spnt	b0,r41,4000000000070E40 }
	{ nop.m	0x0; adds	r12,0x40,r12; br.ret	b0 }

l4000000000070E60:
	{ addl	r14,9044,r1; nop.m	0x0; nop.i	0x0; }
	{ ld4	r15,[r14]; cmp4.eq	p07,p06,0x0,r15; nop.i	0x0; }
	{ (p07) addl	r15,1,r0; (p07) st4	[r15],r14; nop.i	0x0; }

l4000000000070E86:
	{ mf.a; nop; (p16) nop; }

l4000000000070E96:
	{ break.m	0x4000; (p32) nop; break.i	0x80000 }

l4000000000070EA2:
	{ break.m	0x20; break.i	0x0; Invalid }
	{ break.m	0x20; break.i	0x20; nop }

;; file_error: 4000000000070EC0
file_error proc
	{ alloc	r36,ar.pfs,0x7,0x0,0x6; adds	r33,0x0,r32; nop.b	0x0 }
	{ addl	r32,-8732,r1; mov	r35,b3; adds	r37,0x0,r1; }
	{ ld8	r32,[r32]; nop.i	0x0; br.call.sptk.many	b0,400000000001B840; }
	{ nop.m	0x0; adds	r1,0x0,r37; nop.i	0x0 }
	{ ld4	r38,[r8]; nop.m	0x0; br.call.sptk.many	b0,400000000001B4A0; }
	{ adds	r1,0x0,r37; adds	r34,0x0,r8; mov.spnt	b0,r35,4000000000070F10; }
	{ nop.m	0x0; mov.i	ar.pfs,r36; nop.i	0x0; }
	{ alloc	r2,ar.pfs,0x3,0x0,0x0; nop.i	0x0; br.cond.sptk.many	report_error; }
4000000000070F40 0D 00 00 00 01 00 00 00 00 00 00 00 00 00 04 00 ................
4000000000070F50 08 00 00 00 01 00 00 00 00 02 00 00 00 00 04 00 ................
4000000000070F60 08 00 00 00 01 00 00 00 00 02 00 00 00 00 04 00 ................
4000000000070F70 08 00 00 00 01 00 00 00 00 02 00 00 00 00 04 00 ................

;; fatal_error: 4000000000070F80
fatal_error proc
	{ alloc	r42,ar.pfs,0x11,0x0,0xD; adds	r16,0x8,r12; adds	r17,0x0,r12 }
	{ adds	r12,0xFFFFFFFFFFFFFFC0,r12; addl	r40,-10652,r1; adds	r43,0x0,r1; }
	{ mov.m	r44,UNAT; st8.spill	[r16],r112,-16; nop.b	0x0 }
	{ ld8	r40,[r40]; mov	r41,b1; adds	r45,0x0,r0; }
	{ st8.spill	[r17],r112,-16; st8.spill	[r16],r112,-16; nop.i	0x0; }
	{ st8.spill	[r17],r112,-16; st8.spill	[r16],r112,-16; nop.i	0x0; }
	{ nop.m	0x0; st8.spill	[r34],r17; nop.i	0x0 }
	{ st8.spill	[r33],r16; nop.m	0x0; br.call.sptk.many	b0,4000000000070840; }
	{ adds	r47,0x0,r32; adds	r48,0x18,r12; adds	r1,0x0,r43 }
	{ ld8	r45,[r40]; addl	r46,1,r0; br.call.sptk.many	b0,400000000001A560; }
	{ adds	r1,0x0,r43; nop.m	0x0; addl	r45,10,r0 }
	{ ld8	r46,[r40]; nop.m	0x0; br.call.sptk.many	b0,400000000001BD80; }
	{ adds	r1,0x0,r43; addl	r45,2,r0; br.call.sptk.many	b0,sh_exit; }
	{ nop.m	0x0; break.f	0x0; nop.i	0x0; }
	{ nop.m	0x0; nop.m	0x0; nop.i	0x0 }
	{ nop.m	0x0; nop.m	0x0; nop.i	0x0 }

;; internal_error: 4000000000071080
;;   Called from:
;;     400000000007107C (in fatal_error)
internal_error proc
	{ alloc	r42,ar.pfs,0x11,0x0,0xD; adds	r16,0x8,r12; adds	r17,0x0,r12 }
	{ adds	r12,0xFFFFFFFFFFFFFFC0,r12; addl	r40,-10652,r1; adds	r43,0x0,r1; }
	{ mov.m	r44,UNAT; st8.spill	[r16],r112,-16; nop.b	0x0 }
	{ ld8	r40,[r40]; mov	r41,b1; addl	r45,1,r0; }
	{ st8.spill	[r17],r112,-16; st8.spill	[r16],r112,-16; nop.i	0x0; }
	{ st8.spill	[r17],r112,-16; st8.spill	[r16],r112,-16; nop.i	0x0; }
	{ nop.m	0x0; st8.spill	[r34],r17; nop.i	0x0 }
	{ st8.spill	[r33],r16; nop.m	0x0; br.call.sptk.many	b0,4000000000070840; }
	{ adds	r1,0x0,r43; ld8	r45,[r40]; adds	r47,0x0,r32 }
	{ adds	r48,0x18,r12; addl	r46,1,r0; br.call.sptk.many	b0,400000000001A560; }
	{ adds	r1,0x0,r43; nop.m	0x0; addl	r45,10,r0 }
	{ ld8	r46,[r40]; nop.m	0x0; br.call.sptk.many	b0,400000000001BD80; }
	{ nop.m	0x0; adds	r1,0x0,r43; mov.i	ar.pfs,r42 }
	{ mov.m	UNAT,r44; nop.i	0x0; mov.spnt	b0,r41,4000000000071150 }
	{ nop.m	0x0; adds	r12,0x40,r12; br.ret	b0; }
4000000000071170 08 00 00 00 01 00 00 00 00 02 00 00 00 00 04 00 ................

;; internal_warning: 4000000000071180
internal_warning proc
	{ alloc	r43,ar.pfs,0x12,0x0,0xE; adds	r16,0x8,r12; adds	r17,0x0,r12 }
	{ adds	r12,0xFFFFFFFFFFFFFFC0,r12; addl	r40,-10652,r1; adds	r44,0x0,r1; }
	{ mov.m	r45,UNAT; st8.spill	[r16],r112,-16; mov	r42,b2 }
	{ ld8	r40,[r40]; nop.m	0x0; addl	r46,1,r0; }
	{ st8.spill	[r17],r112,-16; st8.spill	[r16],r112,-16; nop.i	0x0; }
	{ st8.spill	[r17],r112,-16; st8.spill	[r16],r112,-16; nop.i	0x0; }
	{ nop.m	0x0; st8.spill	[r34],r17; nop.i	0x0 }
	{ st8.spill	[r33],r16; nop.m	0x0; br.call.sptk.many	b0,4000000000070840; }
	{ adds	r1,0x0,r44; ld8	r41,[r40]; addl	r48,5,r0 }
	{ adds	r46,0x0,r0; addl	r47,-8724,r1; nop.i	0x0; }
	{ ld8	r47,[r47]; nop.i	0x0; br.call.sptk.many	b0,400000000001AB60; }
	{ adds	r1,0x0,r44; adds	r46,0x0,r41; nop.i	0x0 }
	{ addl	r47,1,r0; adds	r48,0x0,r8; br.call.sptk.many	b0,400000000001C040; }
	{ adds	r1,0x0,r44; ld8	r46,[r40]; adds	r48,0x0,r32 }
	{ adds	r49,0x18,r12; addl	r47,1,r0; br.call.sptk.many	b0,400000000001A560; }
	{ adds	r1,0x0,r44; nop.m	0x0; addl	r46,10,r0 }
	{ ld8	r47,[r40]; nop.m	0x0; br.call.sptk.many	b0,400000000001BD80; }
	{ nop.m	0x0; adds	r1,0x0,r44; mov.i	ar.pfs,r43 }
	{ mov.m	UNAT,r45; nop.i	0x0; mov.spnt	b0,r42,40000000000712A0 }
	{ nop.m	0x0; adds	r12,0x40,r12; br.ret	b0; }

;; sys_error: 40000000000712C0
sys_error proc
	{ alloc	r43,ar.pfs,0x12,0x0,0xE; adds	r16,0x8,r12; adds	r17,0x0,r12 }
	{ adds	r12,0xFFFFFFFFFFFFFFC0,r12; addl	r40,-10652,r1; adds	r44,0x0,r1; }
	{ mov.m	r45,UNAT; st8.spill	[r16],r112,-16; mov	r42,b2 }
	{ ld8	r40,[r40]; st8.spill	[r17],r112,-16; nop.i	0x0 }
	{ st8.spill	[r16],r112,-16; st8.spill	[r17],r112,-16; nop.i	0x0 }
	{ st8.spill	[r16],r112,-16; st8.spill	[r34],r17; nop.i	0x0 }
	{ st8.spill	[r33],r16; nop.m	0x0; br.call.sptk.many	b0,400000000001B840; }
	{ adds	r1,0x0,r44; ld4	r41,[r8]; adds	r46,0x0,r0 }
	{ nop.m	0x0; nop.m	0x0; br.call.sptk.many	b0,4000000000070840; }
	{ adds	r48,0x0,r32; adds	r49,0x18,r12; adds	r1,0x0,r44 }
	{ addl	r47,1,r0; ld8	r46,[r40]; br.call.sptk.many	b0,400000000001A560; }
	{ adds	r1,0x0,r44; nop.m	0x0; adds	r46,0x0,r41 }
	{ ld8	r40,[r40]; nop.m	0x0; br.call.sptk.many	b0,400000000001B4A0; }
	{ adds	r1,0x0,r44; nop.m	0x0; adds	r46,0x0,r40 }
	{ addl	r47,1,r0; adds	r49,0x0,r8; addl	r48,-8716,r1; }
	{ ld8	r48,[r48]; nop.i	0x0; br.call.sptk.many	b0,400000000001C040; }
	{ nop.m	0x0; adds	r1,0x0,r44; mov.i	ar.pfs,r43 }
	{ mov.m	UNAT,r45; nop.i	0x0; mov.spnt	b0,r42,40000000000713D0 }
	{ nop.m	0x0; adds	r12,0x40,r12; br.ret	b0; }
40000000000713F0 08 00 00 00 01 00 00 00 00 02 00 00 00 00 04 00 ................

;; parser_error: 4000000000071400
parser_error proc
	{ alloc	r45,ar.pfs,0x17,0x0,0x10; adds	r16,0x8,r12; nop.i	0x0 }
	{ adds	r17,0x0,r12; adds	r12,0xFFFFFFFFFFFFFFD0,r12; adds	r46,0x0,r1; }
	{ mov.m	r47,UNAT; st8.spill	[r16],r112,-16; mov	r44,b4; }
	{ st8.spill	[r17],r112,-16; st8.spill	[r16],r112,-16; nop.i	0x0; }
	{ st8.spill	[r17],r112,-16; st8.spill	[r35],r16; nop.i	0x0; }
	{ st8.spill	[r34],r17; nop.i	0x0; br.call.sptk.many	b0,get_name_for_error; }
	{ adds	r1,0x0,r46; adds	r41,0x0,r8; br.call.sptk.many	b0,yy_input_name; }
	{ adds	r1,0x0,r46; adds	r42,0x0,r8; addl	r14,6516,r1; }
	{ nop.m	0x0; ld4	r14,[r14]; nop.i	0x0; }
	{ cmp4.eq	p06,p07,0x0,r14; addl	r14,6512,r1; (p07) br.cond.dpnt.few	4000000000071790; }

l40000000000714A0:
	{ nop.m	0x0; ld4	r14,[r14]; nop.i	0x0; }
	{ nop.m	0x0; cmp4.eq	p06,p07,0x0,r14; (p06) br.cond.dptk.few	4000000000071600 }

l40000000000714C0:
	{ addl	r40,-10652,r1; addl	r14,7248,r1; addl	r53,-8788,r1 }
	{ addl	r50,-8708,r1; addl	r49,1,r0; adds	r51,0x0,r41; }
	{ ld8	r40,[r40]; adds	r52,0x0,r42; adds	r54,0x0,r32 }
	{ ld4	r14,[r14]; cmp4.eq	p07,p06,0x0,r14; nop.i	0x0; }
	{ ld8	r43,[r40]; nop.i	0x0; (p07) br.cond.dpnt.few	4000000000071890; }

l4000000000071510:
	{ adds	r48,0x0,r43; ld8	r53,[r53]; nop.i	0x0 }
	{ ld8	r50,[r50]; nop.m	0x0; br.call.sptk.many	b0,400000000001C040; }
	{ adds	r1,0x0,r46; nop.m	0x0; nop.i	0x0 }

l4000000000071540:
	{ nop.m	0x0; adds	r50,0x0,r33; adds	r51,0x10,r12 }
	{ ld8	r48,[r40]; addl	r49,1,r0; br.call.sptk.many	b0,400000000001A560; }
	{ addl	r48,10,r0; nop.m	0x0; adds	r1,0x0,r46 }
	{ ld8	r49,[r40]; nop.m	0x0; br.call.sptk.many	b0,400000000001BD80; }
	{ adds	r1,0x0,r46; addl	r14,7404,r1; nop.i	0x0; }
	{ nop.m	0x0; ld4	r14,[r14]; nop.i	0x0; }
	{ cmp4.eq	p06,p07,0x0,r14; (p07) addl	r14,9044,r1; (p07) addl	r15,2,r0 }

l40000000000715AC:
	{ Invalid; zxt4	r0,r0; break.i	0x1000; }
	{ Invalid; Invalid; mov	pr,r32,0x0 }
	{ (p42) break.m	0xB3F61; break.m	0x1000; (p16) break.i	0x2A80B }
	{ Invalid; Invalid; break.i	0x1000 }
	{ (p22) nop; add	r0,r32,r0; (p01) shladd	r12,r3,0x1,r64 }
	{ cmp.eq	p00,p09,r33,r0; (p01) cmp.lt	p32,p08,r10,r0; Invalid }

l4000000000071600:
	{ ld1	r15,[r41]; ld1	r14,[r8]; nop.i	0x0; }
	{ nop.m	0x0; sxt1	r15,r15; sxt1	r14,r14; }
	{ nop.m	0x0; cmp4.eq	p07,p06,r15,r14; (p06) br.cond.dptk.few	40000000000714C0 }

l4000000000071630:
	{ adds	r48,0x0,r41; adds	r49,0x0,r8; br.call.sptk.many	b0,400000000001A540; }
	{ adds	r1,0x0,r46; cmp4.eq	p07,p06,0x0,r8; (p06) br.cond.dptk.few	40000000000714C0; }

l4000000000071650:
	{ addl	r40,-10652,r1; addl	r14,7248,r1; addl	r52,-8788,r1 }
	{ addl	r50,-8772,r1; addl	r49,1,r0; adds	r51,0x0,r41; }
	{ nop.m	0x0; ld8	r40,[r40]; adds	r53,0x0,r32 }
	{ ld4	r14,[r14]; cmp4.eq	p07,p06,0x0,r14; nop.i	0x0; }
	{ ld8	r42,[r40]; nop.i	0x0; (p07) br.cond.dpnt.few	4000000000071900; }

l40000000000716A0:
	{ adds	r48,0x0,r42; ld8	r52,[r52]; nop.i	0x0 }
	{ ld8	r50,[r50]; nop.m	0x0; br.call.sptk.many	b0,400000000001C040; }
	{ adds	r1,0x0,r46; nop.m	0x0; nop.i	0x0 }

l40000000000716D0:
	{ nop.m	0x0; adds	r50,0x0,r33; adds	r51,0x10,r12 }
	{ ld8	r48,[r40]; addl	r49,1,r0; br.call.sptk.many	b0,400000000001A560; }
	{ addl	r48,10,r0; nop.m	0x0; adds	r1,0x0,r46 }
	{ ld8	r49,[r40]; nop.m	0x0; br.call.sptk.many	b0,400000000001BD80; }
	{ adds	r1,0x0,r46; addl	r14,7404,r1; nop.i	0x0; }
	{ nop.m	0x0; ld4	r14,[r14]; nop.i	0x0; }
	{ cmp4.eq	p06,p07,0x0,r14; (p07) addl	r14,9044,r1; (p07) addl	r15,2,r0 }

l400000000007173C:
	{ Invalid; zxt4	r0,r0; break.i	0x1000; }
	{ Invalid; Invalid; mov	pr,r32,0x0 }
	{ (p29) break.m	0xB3F61; break.m	0x1000; (p16) break.b	0x2A80B }
	{ Invalid; Invalid; break.i	0x1000 }
	{ (p22) nop; add	r0,r32,r0; (p01) shladd	r12,r3,0x1,r64 }
	{ nop; (p05) invala.e	f57; deposit	r0,r32,r0,63,0 }

l4000000000071790:
	{ addl	r40,-10652,r1; nop.m	0x0; addl	r50,-8764,r1 }
	{ adds	r51,0x0,r41; nop.m	0x0; addl	r49,1,r0; }
	{ ld8	r40,[r40]; ld8	r50,[r50]; nop.i	0x0; }
	{ ld8	r48,[r40]; nop.i	0x0; br.call.sptk.many	b0,400000000001C040; }
	{ adds	r50,0x0,r33; adds	r51,0x10,r12; adds	r1,0x0,r46 }
	{ ld8	r48,[r40]; addl	r49,1,r0; br.call.sptk.many	b0,400000000001A560; }
	{ addl	r48,10,r0; nop.m	0x0; adds	r1,0x0,r46 }
	{ ld8	r49,[r40]; nop.m	0x0; br.call.sptk.many	b0,400000000001BD80; }
	{ adds	r1,0x0,r46; addl	r14,7404,r1; nop.i	0x0; }
	{ nop.m	0x0; ld4	r14,[r14]; nop.i	0x0; }
	{ cmp4.eq	p06,p07,0x0,r14; (p07) addl	r14,9044,r1; (p07) addl	r15,2,r0 }

l400000000007183C:
	{ Invalid; zxt4	r0,r0; break.i	0x1000; }
	{ Invalid; Invalid; mov	pr,r32,0x0 }
	{ (p21) break.m	0xB3F61; break.m	0x1000; (p16) break.b	0x2A80B }
	{ Invalid; Invalid; break.i	0x1000 }
	{ (p22) nop; add	r0,r32,r0; (p01) shladd	r12,r3,0x1,r64 }
	{ nop; (p06) invala.e	f45; (p06) deposit	r0,r0,r64,62,0 }

l4000000000071890:
	{ addl	r49,-8780,r1; adds	r48,0x0,r0; addl	r50,5,r0; }
	{ ld8	r49,[r49]; nop.i	0x0; br.call.sptk.many	b0,400000000001AB60; }
	{ adds	r1,0x0,r46; adds	r53,0x0,r8; adds	r48,0x0,r43 }
	{ addl	r49,1,r0; adds	r51,0x0,r41; adds	r52,0x0,r42; }
	{ addl	r50,-8708,r1; nop.m	0x0; adds	r54,0x0,r32; }
	{ ld8	r50,[r50]; nop.i	0x0; br.call.sptk.many	b0,400000000001C040; }
	{ nop.m	0x0; adds	r1,0x0,r46; br.cond.sptk.few	4000000000071540; }

l4000000000071900:
	{ addl	r49,-8780,r1; adds	r48,0x0,r0; addl	r50,5,r0; }
	{ ld8	r49,[r49]; nop.i	0x0; br.call.sptk.many	b0,400000000001AB60; }
	{ adds	r1,0x0,r46; adds	r52,0x0,r8; adds	r48,0x0,r42 }
	{ addl	r49,1,r0; adds	r51,0x0,r41; adds	r53,0x0,r32; }
	{ nop.m	0x0; addl	r50,-8772,r1; nop.i	0x0; }
	{ ld8	r50,[r50]; nop.i	0x0; br.call.sptk.many	b0,400000000001C040; }
	{ nop.m	0x0; adds	r1,0x0,r46; br.cond.sptk.few	40000000000716D0; }
4000000000071970 08 00 00 00 01 00 00 00 00 02 00 00 00 00 04 00 ................

;; command_error: 4000000000071980
command_error proc
	{ alloc	r36,ar.pfs,0xA,0x0,0x6; cmp4.lt	p06,p07,0x3,r33; nop.b	0x0 }
	{ addl	r14,-8676,r1; mov	r35,b3; adds	r37,0x0,r1; }
	{ (p06) adds	r33,0x0,r0; ld8	r14,[r14]; adds	r38,0x0,r0 }

l40000000000719A6:
	{ (p07) fwb; (p19) nop; break.i	0x80000 }

l40000000000719AC:
	{ nop; (p21) nop }

l40000000000719BC:
	{ Invalid; nop; (p04) nop }
	{ Invalid; Invalid; Invalid }
	{ (p12) nop; invala; Invalid }
	{ Invalid; (p05) nop }
	{ (p02) cmp.lt.unc	p61,p17,r60,r79; break.x	0x80C2600801000 }
	{ Invalid; break.m	0x1000; break.i	0x0 }
	{ nop; break.i	0x1000; break.i	0x1000 }
	{ nop; break.i	0x1000; break.i	0x1000 }
	{ ld8	r0,[r0]; (p52) cmp.lt	p01,p02,r1,r96; czx1.l	r0,r97 }

;; command_errstr: 4000000000071A40
command_errstr proc
	{ alloc	r34,ar.pfs,0x7,0x0,0x4; cmp4.lt	p06,p07,0x3,r32; nop.b	0x0 }
	{ addl	r14,-8676,r1; mov	r33,b1; adds	r35,0x0,r1; }
	{ (p06) adds	r32,0x0,r0; ld8	r14,[r14]; adds	r36,0x0,r0 }

l4000000000071A66:
	{ (p07) fwb; (p18) nop; break.i	0x80000 }

l4000000000071A6C:
	{ nop; (p20) nop }

l4000000000071A7C:
	{ Invalid; break.i	0x1000; (p04) break.i	0x16400 }
	{ (p16) nop; break.x	0x80C2000801000 }
	{ (p06) nop; invala; break.b	0x1000 }
	{ Invalid; break.i	0x1000; (p16) add	r40,r0,r112 }
	{ addp4	r0,r33,r0; (p20) cmp.lt.unc	p02,p02,r1,r96; (p01) nop }

;; err_badarraysub: 4000000000071AC0
err_badarraysub proc
	{ alloc	r36,ar.pfs,0x9,0x0,0x6; addl	r14,6100,r1; mov	r35,b3 }
	{ adds	r33,0x0,r32; addl	r32,-8732,r1; adds	r37,0x0,r1; }
	{ nop.m	0x0; nop.m	0x0; adds	r38,0x0,r0 }
	{ addl	r40,5,r0; ld8	r32,[r32]; nop.i	0x0; }
	{ ld8	r39,[r14]; nop.i	0x0; br.call.sptk.many	b0,400000000001AB60; }
	{ adds	r1,0x0,r37; adds	r34,0x0,r8; mov.spnt	b0,r35,4000000000071B10; }
	{ nop.m	0x0; mov.i	ar.pfs,r36; nop.i	0x0; }
	{ alloc	r2,ar.pfs,0x3,0x0,0x0; nop.i	0x0; br.cond.sptk.many	report_error; }
4000000000071B40 0D 00 00 00 01 00 00 00 00 00 00 00 00 00 04 00 ................
4000000000071B50 08 00 00 00 01 00 00 00 00 02 00 00 00 00 04 00 ................
4000000000071B60 08 00 00 00 01 00 00 00 00 02 00 00 00 00 04 00 ................
4000000000071B70 08 00 00 00 01 00 00 00 00 02 00 00 00 00 04 00 ................

;; err_unboundvar: 4000000000071B80
err_unboundvar proc
	{ alloc	r35,ar.pfs,0x8,0x0,0x5; mov	r34,b2; nop.b	0x0 }
	{ addl	r38,-8692,r1; adds	r36,0x0,r1; adds	r33,0x0,r32; }
	{ adds	r37,0x0,r0; nop.m	0x0; addl	r39,5,r0 }
	{ ld8	r38,[r38]; nop.m	0x0; br.call.sptk.many	b0,400000000001AB60; }
	{ adds	r1,0x0,r36; adds	r32,0x0,r8; mov.spnt	b0,r34,4000000000071BC0; }
	{ nop.m	0x0; mov.i	ar.pfs,r35; nop.i	0x0; }
	{ alloc	r2,ar.pfs,0x2,0x0,0x0; nop.i	0x0; br.cond.sptk.many	report_error; }
4000000000071BF0 0D 00 00 00 01 00 00 00 00 00 00 00 00 00 04 00 ................

;; err_readonly: 4000000000071C00
err_readonly proc
	{ alloc	r35,ar.pfs,0x8,0x0,0x5; mov	r34,b2; nop.b	0x0 }
	{ addl	r38,-8684,r1; adds	r36,0x0,r1; adds	r33,0x0,r32; }
	{ adds	r37,0x0,r0; nop.m	0x0; addl	r39,5,r0 }
	{ ld8	r38,[r38]; nop.m	0x0; br.call.sptk.many	b0,400000000001AB60; }
	{ adds	r1,0x0,r36; adds	r32,0x0,r8; mov.spnt	b0,r34,4000000000071C40; }
	{ nop.m	0x0; mov.i	ar.pfs,r35; nop.i	0x0; }
	{ alloc	r2,ar.pfs,0x2,0x0,0x0; nop.i	0x0; br.cond.sptk.many	report_error; }
4000000000071C70 0D 00 00 00 01 00 00 00 00 00 00 00 00 00 04 00 ................
4000000000071C80 18 20 1D 0C 80 05 10 A2 07 70 48 00 00 00 00 20 . .......pH.... 
4000000000071C90 01 78 B0 03 38 24 30 02 00 62 00 A0 04 08 00 84 .x..8$0..b......
4000000000071CA0 09 70 00 42 10 10 20 02 3C 30 20 00 00 00 04 00 .p.B.. .<0 .....
4000000000071CB0 09 00 00 00 01 00 E0 F8 3B 7E 46 00 00 00 04 00 ........;~F.....
4000000000071CC0 11 00 38 42 90 11 60 00 38 0E E3 03 F0 00 00 43 ..8B..`.8......C
4000000000071CD0 08 00 00 00 01 00 00 00 00 02 00 00 00 00 04 00 ................
4000000000071CE0 03 00 00 00 01 00 E0 00 38 2C 00 00 E4 10 49 80 ........8,....I.
4000000000071CF0 0B 70 00 40 18 10 F0 40 39 00 42 00 00 00 04 00 .p.@...@9.B.....
4000000000071D00 09 00 00 00 01 00 F0 00 3C 30 20 00 00 00 04 00 ........<0 .....
4000000000071D10 11 30 00 1E 07 39 60 02 3C 00 42 03 30 00 00 43 .0...9`.<.B.0..C
4000000000071D20 11 00 00 00 01 00 00 00 00 02 00 00 C8 8A FA 58 ...............X
4000000000071D30 09 08 00 4A 00 21 E0 00 80 30 20 00 00 00 04 00 ...J.!...0 .....
4000000000071D40 0B 78 20 1C 00 21 F0 00 3C 30 20 00 00 00 04 00 .x ..!..<0 .....
4000000000071D50 11 30 00 1E 07 39 60 02 3C 00 42 03 30 00 00 43 .0...9`.<.B.0..C
4000000000071D60 11 00 00 00 01 00 00 00 00 02 00 00 88 8A FA 58 ...............X
4000000000071D70 09 08 00 4A 00 21 E0 00 80 30 20 00 00 00 04 00 ...J.!...0 .....
4000000000071D80 11 30 01 1C 00 21 00 00 00 02 00 00 68 8A FA 58 .0...!......h..X
4000000000071D90 03 70 00 42 10 10 10 00 94 00 42 C0 F1 77 FC 8C .p.B......B..w..
4000000000071DA0 10 00 38 42 90 11 60 00 38 0E 63 03 40 FF FF 4A ..8B..`.8.c.@..J
4000000000071DB0 03 00 00 00 01 00 E0 00 38 2C 00 40 E4 10 49 80 ........8,.@..I.
4000000000071DC0 11 30 01 44 18 10 00 00 00 02 00 00 28 8A FA 58 .0.D........(..X
4000000000071DD0 09 08 00 4A 00 21 00 00 00 02 00 00 40 02 AA 00 ...J.!......@...
4000000000071DE0 09 70 50 03 38 24 00 00 00 02 00 00 30 0A 00 07 .pP.8$......0...
4000000000071DF0 11 00 00 1C 90 11 00 00 00 02 00 80 08 00 84 00 ................
4000000000071E00 08 20 31 0C 80 05 E0 20 07 70 48 60 04 00 C4 00 . 1.... .pH`....
4000000000071E10 0B 28 01 02 00 21 10 02 38 30 20 C0 C1 0C 18 91 .(...!..80 .....
4000000000071E20 09 00 00 00 01 00 00 00 00 02 00 00 00 00 04 00 ................
4000000000071E30 09 10 01 1C 18 10 E0 00 84 00 20 00 00 00 04 00 .......... .....
4000000000071E40 03 00 00 00 01 00 E0 00 38 28 00 E0 90 70 18 E6 ........8(...p..
4000000000071E50 11 38 80 1C C6 39 E0 08 84 00 42 03 40 00 00 43 .8...9....B.@..C
4000000000071E60 09 08 01 1C 00 21 F0 08 38 00 28 00 00 00 04 00 .....!..8.(.....
4000000000071E70 03 00 00 00 01 00 F0 00 3C 28 00 C0 00 7A 1C E6 ........<(...z..
4000000000071E80 10 00 00 00 01 00 60 48 3C 8E 73 03 E0 FF FF 4A ......`H<.s....J
4000000000071E90 09 38 31 02 06 24 80 2A 00 00 48 C0 04 00 00 84 .81..$.*..H.....
4000000000071EA0 11 38 01 4E 18 10 00 00 00 02 00 00 C8 8C FA 58 .8.N...........X
4000000000071EB0 09 08 00 4A 00 21 60 00 88 0E 72 C0 04 40 00 84 ...J.!`...r..@..
4000000000071EC0 09 70 50 02 39 A4 21 22 04 0C C8 03 C5 0F 14 90 .pP.9.!"........
4000000000071ED0 09 58 01 1C 18 90 21 02 88 30 20 00 00 00 04 00 .X....!..0 .....
4000000000071EE0 09 00 00 00 01 C0 81 02 A0 30 20 00 00 00 04 00 .........0 .....
4000000000071EF0 D1 40 01 44 00 21 70 00 AC 0C F2 03 70 00 00 43 .@.D.!p.....p..C
4000000000071F00 0B 70 00 56 00 10 00 00 00 02 00 C0 01 70 50 00 .p.V.........pP.
4000000000071F10 10 00 00 00 01 00 60 00 38 0E 73 03 50 00 00 42 ......`.8.s.P..B
4000000000071F20 08 38 01 44 00 21 00 00 00 02 00 20 05 08 01 84 .8.D.!..... ....
4000000000071F30 19 50 01 40 00 21 00 00 00 02 00 00 58 F1 FF 58 .P.@.!......X..X
4000000000071F40 03 08 00 4A 00 21 70 0A 00 00 48 C0 44 0F B8 91 ...J.!p...H.D...
4000000000071F50 10 00 00 00 01 00 00 00 00 02 00 00 98 9C FA 58 ...............X
4000000000071F60 08 58 11 02 06 24 00 00 00 02 00 E0 04 10 01 84 .X...$..........
4000000000071F70 09 48 01 42 00 21 00 00 00 02 00 40 05 00 01 84 .H.B.!.....@....
4000000000071F80 11 58 01 56 18 10 00 00 00 02 00 00 08 F1 FF 58 .X.V...........X
4000000000071F90 03 08 00 4A 00 21 70 0A 00 00 48 C0 44 0F B8 91 ...J.!p...H.D...
4000000000071FA0 11 00 00 00 01 00 00 00 00 02 00 00 48 9C FA 58 ............H..X
4000000000071FB0 0D 00 00 00 01 00 00 00 00 00 00 00 00 00 04 00 ................
4000000000071FC0 08 38 3D 12 80 05 C0 00 33 7E 46 C0 04 00 C4 00 .8=.....3~F.....
4000000000071FD0 09 40 01 02 00 21 00 00 00 02 00 20 05 08 01 84 .@...!..... ....
4000000000071FE0 08 60 59 00 00 24 D0 02 00 00 42 00 00 00 04 00 .`Y..$....B.....
4000000000071FF0 19 58 41 18 00 21 A0 52 00 00 48 00 98 23 0C 50 .XA..!.R..H..#.P
4000000000072000 08 50 01 00 00 21 B0 02 00 00 42 20 00 40 01 84 .P...!....B .@..
4000000000072010 19 28 01 10 00 21 90 02 80 00 42 00 38 EE 04 50 .(...!....B.8..P
4000000000072020 08 08 00 50 00 21 00 00 00 02 00 80 04 40 00 84 ...P.!.......@..
4000000000072030 19 48 01 10 00 21 00 00 00 02 00 00 98 96 FA 58 .H...!.........X
4000000000072040 11 08 00 50 00 21 90 CA 20 00 42 00 88 6C 07 50 ...P.!.. .B..l.P
4000000000072050 08 08 00 50 00 21 B0 FA F3 FF 4F A0 05 20 01 84 ...P.!....O.. ..
4000000000072060 09 70 01 4A 00 21 30 02 20 00 42 20 05 40 00 84 .p.J.!0. .B .@..
4000000000072070 09 60 51 02 06 24 00 00 00 02 00 40 15 00 00 90 .`Q..$.....@....
4000000000072080 11 60 01 58 18 10 00 00 00 02 00 00 C8 A3 FA 58 .`.X...........X
4000000000072090 08 50 01 44 00 21 00 00 00 02 00 20 00 40 01 84 .P.D.!..... .@..
40000000000720A0 19 48 01 46 00 21 00 00 00 02 00 00 28 67 FF 58 .H.F.!......(g.X
40000000000720B0 11 08 00 50 00 21 90 02 8C 00 42 00 18 8E FF 58 ...P.!....B....X
40000000000720C0 11 08 00 50 00 21 90 02 90 00 42 00 28 87 FA 58 ...P.!....B.(..X
40000000000720D0 11 08 00 50 00 21 90 02 8C 00 42 00 18 87 FA 58 ...P.!....B....X
40000000000720E0 02 08 00 50 00 21 00 38 01 55 00 00 60 0A 00 07 ...P.!.8.U..`...
40000000000720F0 19 00 00 00 01 00 C0 00 31 00 42 80 08 00 84 00 ........1.B.....
4000000000072100 00 C8 79 36 80 05 80 03 00 62 00 40 07 08 00 84 ..y6.....b.@....
4000000000072110 0A 08 21 02 39 24 00 00 00 02 00 60 14 00 00 90 ..!.9$.....`....
4000000000072120 09 00 01 42 10 10 00 00 00 02 00 40 84 08 E4 90 ...B.......@....
4000000000072130 11 00 00 00 01 00 70 08 81 0C F3 03 70 00 00 43 ......p.....p..C
4000000000072140 11 38 F8 41 86 39 00 00 00 02 80 03 00 01 00 43 .8.A.9.........C
4000000000072150 11 38 B4 40 86 39 00 00 00 02 80 03 D0 00 00 43 .8.@.9.........C
4000000000072160 11 38 AC 40 86 39 00 00 00 02 00 03 50 01 00 43 .8.@.9......P..C
4000000000072170 11 00 00 00 01 00 00 00 00 02 00 00 18 27 00 50 .............'.P
4000000000072180 09 08 00 74 00 21 00 02 84 20 20 00 00 00 04 00 ...t.!...  .....
4000000000072190 10 10 21 02 39 24 70 08 81 0C 73 03 B0 FF FF 4A ..!.9$p...s....J
40000000000721A0 11 00 00 00 01 00 00 00 00 02 00 00 E8 26 00 50 .............&.P
40000000000721B0 11 08 00 74 00 21 00 00 00 02 00 00 58 FF FF 58 ...t.!......X..X
40000000000721C0 18 30 00 10 07 39 70 18 01 C2 31 00 00 00 00 20 .0...9p...1.... 
40000000000721D0 09 08 00 74 00 21 00 00 00 02 00 00 90 03 AA 00 ...t.!..........
40000000000721E0 C3 20 05 00 00 24 00 C0 05 80 83 83 04 00 00 84 . ...$..........
40000000000721F0 09 00 00 00 01 00 60 20 01 C2 31 00 00 00 04 00 ......` ..1.....
4000000000072200 0F 00 00 00 01 00 00 00 00 02 00 C0 00 30 1C E8 .............0..
4000000000072210 11 40 18 00 E1 10 00 00 00 02 00 80 08 00 84 00 .@..............
4000000000072220 11 18 01 46 05 20 00 00 00 02 00 00 68 26 00 50 ...F. ......h&.P
4000000000072230 10 00 00 00 01 00 10 00 E8 00 42 00 F0 FE FF 48 ..........B....H
4000000000072240 11 00 00 00 01 00 00 00 00 02 00 00 48 26 00 50 ............H&.P
4000000000072250 11 08 00 74 00 21 00 00 00 02 00 00 B8 FE FF 58 ...t.!.........X
4000000000072260 18 20 FD 11 2D 22 70 18 01 C2 31 00 00 00 00 20 . ..-"p...1.... 
4000000000072270 09 08 00 74 00 21 00 00 00 02 00 00 90 03 AA 00 ...t.!..........
4000000000072280 09 30 90 00 E1 18 00 00 00 02 00 00 80 0B 00 07 .0..............
4000000000072290 0F 00 00 00 01 00 00 00 00 02 00 C0 00 30 1C E8 .............0..
40000000000722A0 10 40 18 00 E1 10 00 00 00 02 00 80 08 00 84 00 .@..............
40000000000722B0 09 70 C8 41 3F 23 00 00 00 02 00 A0 C4 08 E4 90 .p.A?#..........
40000000000722C0 11 30 04 1C 87 35 E0 D8 83 7E C6 03 C0 02 00 43 .0...5...~.....C
40000000000722D0 11 38 A0 40 86 39 00 00 00 02 80 03 40 04 00 43 .8.@.9......@..C
40000000000722E0 11 30 04 1C 87 35 00 00 00 02 00 03 A0 06 00 41 .0...5.........A
40000000000722F0 08 00 00 00 01 00 70 28 80 0C 73 00 00 00 04 00 ......p(..s.....
4000000000072300 18 20 01 4A 18 10 00 00 00 02 80 03 70 00 00 43 . .J........p..C
4000000000072310 11 00 00 00 01 00 00 00 00 02 00 00 78 25 00 50 ............x%.P
4000000000072320 08 08 00 74 00 21 00 00 00 02 00 00 00 00 04 00 ...t.!..........
4000000000072330 09 30 90 00 E1 18 70 18 01 C2 31 00 90 03 AA 00 .0....p...1.....
4000000000072340 01 00 00 00 01 00 00 C0 05 80 03 00 00 00 04 00 ................
4000000000072350 0F 00 00 00 01 00 00 00 00 02 00 C0 00 30 1C E8 .............0..
4000000000072360 10 40 18 00 E1 10 00 00 00 02 00 80 08 00 84 00 .@..............
4000000000072370 08 30 71 FB 5D 27 70 E2 06 70 48 00 45 0D E0 90 .0q.]'p..pH.E...
4000000000072380 09 50 11 02 39 24 C0 E2 07 70 48 60 45 09 E4 90 .P..9$...pH`E...
4000000000072390 08 00 00 00 01 00 00 00 00 02 00 C0 11 00 00 90 ................
40000000000723A0 09 98 01 4E 18 10 00 00 9C 30 23 00 00 00 04 00 ...N.....0#.....
40000000000723B0 08 48 01 4C 00 21 E0 82 98 00 42 A0 85 31 01 84 .H.L.!....B..1..
40000000000723C0 09 90 01 50 10 10 00 70 A0 20 23 00 00 00 04 00 ...P...p. #.....
40000000000723D0 09 A0 21 52 18 14 00 03 B8 30 20 00 00 00 04 00 ..!R.....0 .....
40000000000723E0 09 88 01 52 18 10 F0 02 B4 30 20 00 00 00 04 00 ...R.....0 .....
40000000000723F0 09 B8 01 54 10 10 60 03 B0 30 20 00 00 00 04 00 ...T..`..0 .....
4000000000072400 11 A8 01 56 18 10 00 00 00 02 00 00 88 24 00 50 ...V.........$.P
4000000000072410 03 70 00 44 10 10 10 00 E8 00 42 E0 01 77 FC 8C .p.D......B..w..
4000000000072420 11 30 04 1E 87 35 00 00 00 02 80 03 70 03 00 43 .0...5......p..C
4000000000072430 10 00 00 00 01 00 70 28 38 0C F3 03 A0 00 00 43 ......p(8......C
4000000000072440 08 70 00 4C 00 21 F0 80 98 00 42 00 52 00 00 90 .p.L.!....B.R...
4000000000072450 09 00 DC 54 90 11 00 B0 B1 30 23 C0 84 31 01 84 ...T.....0#..1..
4000000000072460 09 40 D0 1C 98 15 00 80 84 20 23 00 00 00 04 00 .@....... #.....
4000000000072470 09 00 D4 56 98 11 00 20 95 30 23 00 00 00 04 00 ...V... .0#.....
4000000000072480 08 00 00 00 01 00 00 98 9D 30 23 00 00 00 04 00 .........0#.....
4000000000072490 0A 00 C8 50 90 11 00 88 39 30 23 00 00 00 04 00 ...P....90#.....
40000000000724A0 0A 00 C0 1E 98 11 00 78 99 30 23 00 00 00 04 00 .......x.0#.....
40000000000724B0 11 00 00 00 01 00 00 00 00 02 00 00 D8 23 00 50 .............#.P
40000000000724C0 10 00 00 00 01 00 10 00 E8 00 42 00 70 FE FF 48 ..........B.p..H
40000000000724D0 09 00 00 00 01 00 B0 03 9C 30 20 00 00 00 04 00 .........0 .....
40000000000724E0 11 30 00 76 07 39 00 00 00 02 00 03 60 FF FF 4B .0.v.9......`..K
40000000000724F0 11 00 00 00 01 00 00 00 00 02 00 00 F8 82 FA 58 ...............X
4000000000072500 08 70 00 4C 00 21 F0 80 98 00 42 00 52 00 00 90 .p.L.!....B.R...
4000000000072510 09 30 61 4C 00 21 00 B8 A9 20 23 20 00 D0 01 84 .0aL.!... # ....
4000000000072520 09 40 D0 1C 98 15 00 B0 B1 30 23 00 00 00 04 00 .@.......0#.....
4000000000072530 09 00 40 42 90 11 00 A8 AD 30 23 00 00 00 04 00 ..@B.....0#.....
4000000000072540 09 00 90 4A 98 11 00 98 9D 30 23 00 00 00 04 00 ...J.....0#.....
4000000000072550 09 00 C8 50 90 11 00 88 39 30 23 00 00 00 04 00 ...P....90#.....
4000000000072560 08 00 00 00 01 00 00 80 3D 30 23 00 00 00 04 00 ........=0#.....
4000000000072570 18 00 BC 4C 98 11 00 00 00 02 00 00 40 FF FF 48 ...L........@..H
4000000000072580 09 00 00 00 01 00 E0 20 04 72 48 00 00 00 04 00 ....... .rH.....
4000000000072590 11 00 80 1C 90 11 00 00 00 02 00 00 F8 22 00 50 .............".P
40000000000725A0 09 70 00 44 10 10 00 00 00 02 00 20 00 D0 01 84 .p.D....... ....
40000000000725B0 03 30 14 1C 87 39 E0 60 04 72 C8 83 C7 09 18 90 .0...9.`.r......
40000000000725C0 F1 E0 01 78 18 10 00 00 00 02 80 03 B0 01 00 41 ...x...........A
40000000000725D0 09 38 38 40 86 39 E0 00 38 30 20 00 00 00 04 00 .88@.9..80 .....
40000000000725E0 CB 00 FD F9 FF E7 01 0A 00 00 48 00 00 00 04 00 ..........H.....
40000000000725F0 09 00 00 00 01 00 40 02 39 00 40 00 00 00 04 00 ......@.9.@.....
4000000000072600 11 D8 01 48 00 21 00 00 00 02 00 00 C8 74 0B 50 ...H.!.......t.P
4000000000072610 09 08 00 74 00 21 00 02 20 00 42 A0 07 40 00 84 ...t.!.. .B..@..
4000000000072620 0B 70 50 03 38 24 E0 00 38 20 20 00 00 00 04 00 .pP.8$..8  .....
4000000000072630 11 38 00 1C 86 39 E0 E0 F6 BB 4E 03 60 00 00 43 .8...9....N.`..C
4000000000072640 0B 00 00 00 01 00 F0 C0 38 00 42 00 00 00 04 00 ........8.B.....
4000000000072650 09 00 00 00 01 00 C0 03 3C 30 20 00 00 00 04 00 ........<0 .....
4000000000072660 11 30 FC 79 07 3B 00 00 00 02 00 03 40 02 00 43 .0.y.;......@..C
4000000000072670 13 D8 01 1C 18 10 00 AC FC 7F 2C 00 00 00 00 20 ..........,.... 
4000000000072680 08 08 00 74 00 21 00 00 00 02 00 00 00 00 04 00 ...t.!..........
4000000000072690 11 D8 01 40 00 21 00 00 00 02 00 00 58 81 FA 58 ...@.!......X..X
40000000000726A0 02 70 18 00 00 24 10 00 E8 00 42 00 00 00 04 00 .p...$....B.....
40000000000726B0 19 00 38 42 90 11 00 00 00 02 00 00 D8 21 00 50 ..8B.........!.P
40000000000726C0 08 08 00 74 00 21 00 00 00 02 00 00 00 00 04 00 ...t.!..........
40000000000726D0 09 30 90 00 E1 18 70 18 01 C2 31 00 90 03 AA 00 .0....p...1.....
40000000000726E0 01 00 00 00 01 00 00 C0 05 80 03 00 00 00 04 00 ................
40000000000726F0 0F 00 00 00 01 00 00 00 00 02 00 C0 00 30 1C E8 .............0..
4000000000072700 11 40 18 00 E1 10 00 00 00 02 00 80 08 00 84 00 .@..............
4000000000072710 11 00 00 00 01 00 00 00 00 02 00 00 78 21 00 50 ............x!.P
4000000000072720 11 08 00 74 00 21 00 00 00 02 00 00 E8 19 00 50 ...t.!.........P
4000000000072730 09 70 00 44 10 10 10 00 E8 00 42 80 04 40 00 84 .p.D......B..@..
4000000000072740 10 00 00 00 01 00 60 48 39 0E 73 03 D0 FB FF 48 ......`H9.s....H
4000000000072750 09 00 00 00 01 00 C0 23 05 0C 48 00 00 00 04 00 .......#..H.....
4000000000072760 08 E0 01 78 18 10 00 00 00 02 00 00 00 00 04 00 ...x............
4000000000072770 11 E8 15 00 00 24 B0 03 00 00 42 00 F8 83 FA 58 .....$....B....X
4000000000072780 10 08 00 74 00 21 B0 03 20 00 42 00 88 F6 FF 58 ...t.!.. .B....X
4000000000072790 08 38 40 1C 86 39 00 00 A9 20 23 00 00 00 04 00 .8@..9... #.....
40000000000727A0 0A 00 CC 4E 98 91 B1 FB F3 FF 4F 00 00 00 04 00 ...N......O.....
40000000000727B0 09 00 C8 50 90 11 00 A0 99 30 23 00 00 00 04 00 ...P.....0#.....
40000000000727C0 E8 D8 05 00 00 24 00 88 A5 30 23 00 00 00 04 00 .....$...0#.....
40000000000727D0 0A 00 C0 5C 98 11 00 00 00 02 00 60 47 DA 01 80 ...\.......`G...
40000000000727E0 19 00 00 00 01 00 00 78 B5 30 23 00 E8 72 0B 50 .......x.0#..r.P
40000000000727F0 09 70 00 50 10 10 10 00 E8 00 42 00 04 40 00 84 .p.P......B..@..
4000000000072800 10 00 00 00 01 00 70 00 38 0C 73 03 50 00 00 42 ......p.8.s.P..B
4000000000072810 09 E0 01 5A 18 10 E0 40 B7 7E 46 A0 07 40 00 84 ...Z...@.~F..@..
4000000000072820 11 30 FC 79 07 3B 00 00 00 02 00 03 00 01 00 43 .0.y.;.........C
4000000000072830 13 D8 01 1C 18 10 00 CC FB 7F 2C 00 00 00 00 20 ..........,.... 
4000000000072840 08 08 00 74 00 21 00 00 00 02 00 00 00 00 04 00 ...t.!..........
4000000000072850 11 D8 01 40 00 21 00 00 00 02 00 00 98 7F FA 58 ...@.!.........X
4000000000072860 09 70 18 00 00 24 00 00 00 02 00 20 00 D0 01 84 .p...$..... ....
4000000000072870 08 00 38 42 90 11 00 00 00 02 00 00 00 00 04 00 ..8B............
4000000000072880 11 00 00 00 01 00 00 00 00 02 00 00 08 20 00 50 ............. .P
4000000000072890 11 00 00 00 01 00 10 00 E8 00 42 00 A0 FA FF 48 ..........B....H
40000000000728A0 09 70 70 03 38 24 00 00 00 02 00 80 07 40 00 84 .pp.8$.......@..
40000000000728B0 09 00 00 00 01 00 20 02 38 30 20 00 00 00 04 00 ...... .80 .....
40000000000728C0 11 D8 01 44 00 21 00 00 00 02 00 00 08 5F FF 58 ...D.!......._.X
40000000000728D0 11 08 00 74 00 21 B0 03 88 00 42 00 F8 85 FF 58 ...t.!....B....X
40000000000728E0 11 08 00 74 00 21 B0 03 80 00 42 00 08 7F FA 58 ...t.!....B....X
40000000000728F0 09 70 18 00 00 24 00 00 00 02 00 20 00 D0 01 84 .p...$..... ....
4000000000072900 11 00 38 42 90 11 00 00 00 02 00 00 88 1F 00 50 ..8B...........P
4000000000072910 10 00 00 00 01 00 10 00 E8 00 42 00 C0 FD FF 48 ..........B....H
4000000000072920 09 10 01 4E 18 10 00 00 00 02 00 80 07 40 00 84 ...N.........@..
4000000000072930 11 D8 01 44 00 21 00 00 00 02 00 00 98 5E FF 58 ...D.!.......^.X
4000000000072940 11 08 00 74 00 21 B0 03 88 00 42 00 88 85 FF 58 ...t.!....B....X
4000000000072950 11 08 00 74 00 21 B0 03 80 00 42 00 98 7E FA 58 ...t.!....B..~.X
4000000000072960 09 70 18 00 00 24 00 00 00 02 00 20 00 D0 01 84 .p...$..... ....
4000000000072970 10 00 38 42 90 11 00 00 00 02 00 00 10 FF FF 48 ..8B...........H
4000000000072980 09 00 00 00 01 00 C0 63 05 0C 48 00 00 00 04 00 .......c..H.....
4000000000072990 11 E0 01 78 18 10 00 00 00 02 00 00 E0 FD FF 48 ...x...........H
40000000000729A0 08 00 00 00 01 00 00 00 00 02 00 00 00 00 04 00 ................
40000000000729B0 08 00 00 00 01 00 00 00 00 02 00 00 00 00 04 00 ................
40000000000729C0 08 18 25 0C 80 05 00 42 04 72 48 40 04 00 C4 00 ..%....B.rH@....
40000000000729D0 09 00 00 00 01 00 40 02 04 00 42 00 00 00 04 00 ......@...B.....
40000000000729E0 11 00 00 00 01 00 50 02 04 65 00 00 28 F7 FF 58 ......P..e..(..X
40000000000729F0 09 70 00 40 10 10 10 00 90 00 42 20 04 40 00 84 .p.@......B .@..
4000000000072A00 10 00 00 00 01 00 60 68 38 0E F3 03 B0 00 00 43 ......`h8......C
4000000000072A10 11 00 00 00 01 00 00 00 00 02 00 00 78 1E 00 50 ............x..P
4000000000072A20 11 08 00 48 00 21 00 00 00 02 00 00 A8 FF FF 58 ...H.!.........X
4000000000072A30 08 30 00 10 07 39 E0 F8 23 7E 46 00 00 00 04 00 .0...9..#~F.....
4000000000072A40 19 78 04 00 00 24 10 00 90 00 42 03 90 00 00 43 .x...$....B....C
4000000000072A50 10 30 20 00 07 30 00 70 04 55 00 03 B0 00 00 41 .0 ..0.p.U.....A
4000000000072A60 09 30 3C 00 E1 18 70 08 01 C2 31 00 00 00 04 00 .0<...p...1.....
4000000000072A70 0F 00 00 00 01 00 00 00 00 02 00 C0 00 30 1C E8 .............0..
4000000000072A80 11 78 18 00 E1 10 00 00 00 02 00 A0 E0 FF FF 48 .x.............H
4000000000072A90 09 70 00 40 10 10 10 32 00 C2 21 00 00 00 04 00 .p.@...2..!.....
4000000000072AA0 10 00 00 00 01 00 60 68 38 0E 73 03 70 FF FF 4A ......`h8.s.p..J
4000000000072AB0 03 40 00 42 00 21 00 18 01 55 00 00 50 0A AA 00 .@.B.!...U..P...
4000000000072AC0 10 00 00 00 01 00 00 10 05 80 03 80 08 00 84 00 ................
4000000000072AD0 09 08 05 00 00 24 00 00 00 02 00 00 30 02 AA 00 .....$......0...
4000000000072AE0 09 40 00 42 00 21 00 00 00 02 00 00 50 0A AA 00 .@.B.!......P...
4000000000072AF0 10 00 00 00 01 00 00 10 05 80 03 80 08 00 84 00 ................
4000000000072B00 09 38 D1 02 06 24 80 2A 00 00 48 C0 04 00 00 84 .8...$.*..H.....
4000000000072B10 11 38 01 4E 18 10 00 00 00 02 00 00 58 80 FA 58 .8.N........X..X
4000000000072B20 11 08 00 48 00 21 60 02 20 00 42 00 E8 F2 FF 58 ...H.!`. .B....X
4000000000072B30 0D 00 00 00 01 00 00 00 00 00 00 00 00 00 04 00 ................
4000000000072B40 18 40 35 14 80 05 90 02 04 00 42 00 00 00 00 20 .@5.......B.... 
4000000000072B50 09 28 21 02 39 24 00 00 00 02 00 E0 04 00 C4 00 .(!.9$..........
4000000000072B60 11 00 00 00 01 00 00 00 00 02 00 00 68 FE FF 58 ............h..X
4000000000072B70 03 08 00 52 00 21 40 02 20 00 42 C0 44 0D E0 90 ...R.!@. .B.D...
4000000000072B80 0B 00 01 4A 10 10 60 78 81 0E 73 00 A1 02 25 E6 ...J..`x..s...%.
4000000000072B90 C9 08 05 00 00 24 00 00 00 02 00 C4 11 00 00 90 .....$..........
4000000000072BA0 E2 08 01 00 00 61 E2 00 00 00 42 40 04 08 41 00 .....a....B@..A.
4000000000072BB0 0B 18 01 1C 00 21 E0 10 39 1C 40 00 00 00 04 00 .....!..9.@.....
4000000000072BC0 11 00 00 00 01 00 70 00 38 0C 73 03 20 01 00 43 ......p.8.s. ..C
4000000000072BD0 11 30 94 40 87 39 00 0A 00 00 C8 03 C0 01 00 43 .0.@.9.........C
4000000000072BE0 11 00 00 00 01 00 00 00 00 02 00 00 A8 1C 00 50 ...............P
4000000000072BF0 11 00 00 00 01 00 10 00 A4 00 42 00 D8 FD FF 58 ..........B....X
4000000000072C00 08 08 00 52 00 21 00 00 00 02 00 00 00 00 04 00 ...R.!..........
4000000000072C10 10 00 00 00 01 00 70 00 20 0C 72 03 30 00 00 42 ......p. .r.0..B
4000000000072C20 09 70 00 4C 10 10 00 00 00 02 00 00 11 00 00 90 .p.L............
4000000000072C30 11 00 00 00 01 00 70 00 38 0C F3 03 80 01 00 41 ......p.8......A
4000000000072C40 11 00 00 00 01 00 60 00 8C 0E F3 03 00 01 00 43 ......`........C
4000000000072C50 11 30 00 42 87 39 00 00 00 02 80 03 20 01 00 43 .0.B.9...... ..C
4000000000072C60 10 00 00 00 01 00 60 00 80 0E 73 03 20 FF FF 4A ......`...s. ..J
4000000000072C70 11 50 01 48 00 21 B0 02 20 00 42 00 98 4D 0C 50 .P.H.!.. .B..M.P
4000000000072C80 09 00 01 4A 10 10 10 00 A4 00 42 80 04 40 00 84 ...J......B..@..
4000000000072C90 02 30 BC 40 87 39 80 50 81 12 F3 23 04 00 00 84 .0.@.9.P...#....
4000000000072CA0 0B 71 04 00 00 A4 11 0A 00 00 C8 C4 01 00 00 84 .q..............
4000000000072CB0 01 00 00 00 01 00 20 02 84 20 00 60 04 70 00 84 ...... .. .`.p..
4000000000072CC0 09 00 00 00 01 00 E0 10 39 1C 40 00 00 00 04 00 ........9.@.....
4000000000072CD0 11 00 00 00 01 00 70 00 38 0C F3 03 00 FF FF 4A ......p.8......J
4000000000072CE0 11 00 00 00 01 00 00 00 00 02 00 00 A8 1B 00 50 ...............P
4000000000072CF0 11 08 00 52 00 21 00 00 00 02 00 00 D8 FC FF 58 ...R.!.........X
4000000000072D00 03 30 94 40 87 39 10 00 A4 00 42 03 14 00 00 90 .0.@.9....B.....
4000000000072D10 EB 00 01 00 00 21 20 12 81 1C 40 00 00 00 04 00 .....! ...@.....
4000000000072D20 11 30 00 44 87 39 00 00 00 02 80 03 F0 FE FF 49 .0.D.9.........I
4000000000072D30 D0 00 01 00 00 21 60 00 8C 0E 73 03 20 FF FF 4A .....!`...s. ..J
4000000000072D40 09 30 90 00 E1 18 70 40 00 C2 31 00 00 00 04 00 .0....p@..1.....
4000000000072D50 0F 00 00 00 01 00 00 00 00 02 00 C0 00 30 1C E8 .............0..
4000000000072D60 11 20 19 00 E1 10 00 00 00 02 00 00 20 FE FF 48 . .......... ..H
4000000000072D70 11 50 01 48 00 21 B0 02 20 00 42 00 A8 4B 0C 50 .P.H.!.. .B..K.P
4000000000072D80 11 08 00 52 00 21 40 02 20 00 42 00 00 FE FF 48 ...R.!@. .B....H
4000000000072D90 09 40 00 48 00 21 00 00 00 02 00 00 80 02 AA 00 .@.H.!..........
4000000000072DA0 10 00 00 00 01 00 00 38 05 80 03 80 08 00 84 00 .......8........
4000000000072DB0 09 58 F1 02 06 24 C0 2A 00 00 48 40 05 00 00 84 .X...$.*..H@....
4000000000072DC0 11 58 01 56 18 10 00 00 00 02 00 00 A8 7D FA 58 .X.V.........}.X
4000000000072DD0 11 08 00 52 00 21 A0 02 20 00 42 00 38 F0 FF 58 ...R.!.. .B.8..X
4000000000072DE0 0D 00 00 00 01 00 00 00 00 00 00 00 00 00 04 00 ................
4000000000072DF0 08 00 00 00 01 00 00 00 00 02 00 00 00 00 04 00 ................
4000000000072E00 18 28 1D 0E 80 05 60 02 04 00 42 00 00 00 00 20 .(....`...B.... 
4000000000072E10 09 08 21 02 39 24 00 00 00 02 00 80 04 00 C4 00 ..!.9$..........
4000000000072E20 11 00 00 00 01 00 00 00 00 02 00 00 28 FD FF 58 ............(..X
4000000000072E30 08 00 00 00 01 00 10 00 98 00 42 40 04 40 00 84 ..........B@.@..
4000000000072E40 0B 78 00 42 10 10 60 58 3D 0E 73 00 D1 7A 24 E6 .x.B..`X=.s..z$.
4000000000072E50 C9 70 04 00 00 24 00 00 00 02 00 E4 11 00 00 90 .p...$..........
4000000000072E60 E9 70 00 00 00 21 00 00 00 02 80 E4 01 00 00 84 .p...!..........
4000000000072E70 09 80 3C 1C 0E 20 00 02 3C 00 42 60 04 70 00 84 ..<.. ..<.B`.p..
4000000000072E80 10 00 00 00 01 00 70 00 40 0C F3 03 A0 00 00 43 ......p.@......C
4000000000072E90 11 00 00 00 01 00 00 00 00 02 00 00 F8 19 00 50 ...............P
4000000000072EA0 11 08 00 4C 00 21 00 00 00 02 00 00 A8 FC FF 58 ...L.!.........X
4000000000072EB0 09 30 00 46 87 39 00 00 00 02 00 20 00 30 01 84 .0.F.9..... .0..
4000000000072EC0 F1 10 89 10 00 20 00 00 00 02 80 03 80 FF FF 4B ..... .........K
4000000000072ED0 02 78 00 42 10 10 60 00 80 0E 73 00 D1 7A 24 E6 .x.B..`...s..z$.
4000000000072EE0 E2 10 89 10 05 20 60 58 3D 0E 73 C3 11 00 00 90 ..... `X=.s.....
4000000000072EF0 0B 79 04 00 00 E4 E1 00 00 00 C2 E4 01 00 00 84 .y..............
4000000000072F00 09 80 3C 1C 0E 20 00 02 3C 00 42 60 04 70 00 84 ..<.. ..<.B`.p..
4000000000072F10 10 00 00 00 01 00 70 00 40 0C 73 03 80 FF FF 4A ......p.@.s....J
4000000000072F20 09 40 00 44 00 21 00 00 00 02 00 00 50 02 AA 00 .@.D.!......P...
4000000000072F30 11 00 00 00 01 00 00 20 05 80 03 80 08 00 84 00 ....... ........
4000000000072F40 08 20 19 0C 80 05 20 42 04 72 48 60 04 00 C4 00 . .... B.rH`....
4000000000072F50 09 00 00 00 01 00 50 02 04 00 42 00 00 00 04 00 ......P...B.....
4000000000072F60 11 00 00 00 01 00 00 00 00 02 00 00 A8 FE FF 58 ...............X
4000000000072F70 09 00 01 44 10 10 10 00 94 00 42 20 04 40 00 84 ...D......B .@..
4000000000072F80 09 00 00 00 01 00 E0 B8 83 7E 46 00 00 00 04 00 .........~F.....
4000000000072F90 11 00 00 00 01 00 70 08 38 0C EB 03 80 00 00 43 ......p.8......C
4000000000072FA0 11 00 00 00 01 00 00 00 00 02 00 00 E8 18 00 50 ...............P
4000000000072FB0 11 08 00 4A 00 21 00 00 00 02 00 00 58 FE FF 58 ...J.!......X..X
4000000000072FC0 08 38 24 40 86 39 00 00 00 02 00 C0 01 40 58 00 .8$@.9.......@X.
4000000000072FD0 09 00 01 44 10 10 00 00 00 02 00 20 00 28 01 84 ...D....... .(..
4000000000072FE0 E1 40 00 1C 00 A1 11 72 84 88 3C C0 71 07 FD 8C .@.....r..<.q...
4000000000072FF0 00 00 00 00 01 C0 11 0A 21 90 3C 00 00 00 04 00 ........!.<.....
4000000000073000 19 38 04 1C 86 35 00 00 00 02 00 03 A0 FF FF 4A .8...5.........J
4000000000073010 09 40 00 42 00 21 00 00 00 02 00 00 40 02 AA 00 .@.B.!......@...
4000000000073020 11 00 00 00 01 00 00 18 05 80 03 80 08 00 84 00 ................
4000000000073030 08 00 00 00 01 00 00 00 00 02 00 00 00 00 04 00 ................
4000000000073040 18 28 1D 0E 80 05 60 02 04 00 42 00 00 00 00 20 .(....`...B.... 
4000000000073050 09 18 21 02 39 24 00 00 00 02 00 80 04 00 C4 00 ..!.9$..........
4000000000073060 11 00 00 00 01 00 00 00 00 02 00 00 E8 FE FF 58 ...............X
4000000000073070 09 00 00 00 01 00 10 00 98 00 42 20 04 40 00 84 ..........B .@..
4000000000073080 09 00 00 00 01 00 00 02 8C 20 20 00 00 00 04 00 .........  .....
4000000000073090 09 30 F0 40 87 39 F0 E8 83 7E 46 00 E1 03 25 E6 .0.@.9...~F...%.
40000000000730A0 CB 70 04 00 00 E4 E1 00 00 00 42 E0 10 78 18 D6 .p........B..x..
40000000000730B0 10 10 01 1C 00 21 60 04 38 8E 72 03 90 00 00 43 .....!`.8.r....C
40000000000730C0 13 00 00 00 01 40 02 A0 00 80 21 00 C8 17 00 50 .....@....!....P
40000000000730D0 11 00 00 00 01 00 10 00 98 00 42 00 78 FE FF 58 ..........B.x..X
40000000000730E0 08 08 00 4C 00 21 00 00 00 02 00 00 00 00 04 00 ...L.!..........
40000000000730F0 09 30 20 42 07 30 00 02 8C 20 20 00 00 00 04 00 .0 B.0...  .....
4000000000073100 E9 08 01 00 00 21 F0 E8 83 7E 46 00 E1 03 25 E6 .....!...~F...%.
4000000000073110 C9 08 05 00 00 24 00 00 00 02 00 C0 C0 03 1D E6 .....$..........
4000000000073120 CB 70 04 00 00 E4 E1 00 00 00 42 E0 10 78 18 D6 .p........B..x..
4000000000073130 10 10 01 1C 00 21 60 04 38 8E F2 03 90 FF FF 4A .....!`.8......J
4000000000073140 11 00 00 00 01 00 00 00 00 02 00 00 48 17 00 50 ............H..P
4000000000073150 11 08 00 4C 00 21 00 00 00 02 00 00 F8 FD FF 58 ...L.!.........X
4000000000073160 08 48 20 42 08 30 00 00 00 02 00 20 00 30 01 84 .H B.0..... .0..
4000000000073170 19 38 0C 40 86 39 00 00 00 02 00 03 30 00 00 43 .8.@.9......0..C
4000000000073180 09 00 00 00 01 00 12 0A 00 00 48 00 00 00 04 00 ..........H.....
4000000000073190 10 00 00 00 01 40 12 02 00 00 42 00 F0 FE FF 48 .....@....B....H
40000000000731A0 11 38 10 40 86 39 00 00 00 02 80 03 40 00 00 43 .8.@.9......@..C
40000000000731B0 11 00 00 00 01 00 60 00 88 0E 73 03 40 FF FF 4A ......`...s.@..J
40000000000731C0 0B 30 84 10 07 B0 11 0A 00 00 48 00 00 00 04 00 .0........H.....
40000000000731D0 11 00 00 00 01 C0 11 02 00 00 42 00 B0 FE FF 48 ..........B....H
40000000000731E0 0B 38 84 10 06 B0 11 0A 00 00 48 00 00 00 04 00 .8........H.....
40000000000731F0 11 00 00 00 01 C0 11 02 00 00 42 00 90 FE FF 48 ..........B....H
4000000000073200 09 40 00 42 00 21 00 00 00 02 00 00 50 02 AA 00 .@.B.!......P...
4000000000073210 11 00 00 00 01 00 00 20 05 80 03 80 08 00 84 00 ....... ........
4000000000073220 08 00 00 00 01 00 00 00 00 02 00 00 00 00 04 00 ................
4000000000073230 08 00 00 00 01 00 00 00 00 02 00 00 00 00 04 00 ................
4000000000073240 08 20 19 0C 80 05 20 42 04 72 48 60 04 00 C4 00 . .... B.rH`....
4000000000073250 09 00 00 00 01 00 50 02 04 00 42 00 00 00 04 00 ......P...B.....
4000000000073260 11 00 00 00 01 00 00 00 00 02 00 00 E8 FD FF 58 ...............X
4000000000073270 09 00 01 44 10 10 10 00 94 00 42 20 04 40 00 84 ...D......B .@..
4000000000073280 09 00 00 00 01 00 E0 F8 83 7E 46 00 00 00 04 00 .........~F.....
4000000000073290 11 00 00 00 01 00 70 08 38 0C EB 03 70 00 00 43 ......p.8...p..C
40000000000732A0 11 00 00 00 01 00 00 00 00 02 00 00 E8 15 00 50 ...............P
40000000000732B0 11 08 00 4A 00 21 00 00 00 02 00 00 98 FD FF 58 ...J.!.........X
40000000000732C0 08 48 04 40 88 39 00 00 00 02 00 E0 80 08 19 E0 .H.@.9..........
40000000000732D0 09 00 01 44 10 10 00 00 00 02 00 20 00 28 01 84 ...D....... .(..
40000000000732E0 23 31 20 42 07 38 E0 F8 83 7E 46 23 14 00 00 90 #1 B.8...~F#....
40000000000732F0 F1 08 01 00 00 21 70 08 38 0C 6B 03 B0 FF FF 4A .....!p.8.k....J
4000000000073300 09 40 00 42 00 21 00 00 00 02 00 00 40 02 AA 00 .@.B.!......@...
4000000000073310 11 00 00 00 01 00 00 18 05 80 03 80 08 00 84 00 ................
4000000000073320 08 00 00 00 01 00 00 00 00 02 00 00 00 00 04 00 ................
4000000000073330 08 00 00 00 01 00 00 00 00 02 00 00 00 00 04 00 ................
4000000000073340 08 18 15 0A 80 05 10 42 04 72 48 40 04 00 C4 00 .......B.rH@....
4000000000073350 09 00 00 00 01 00 40 02 04 00 42 00 00 00 04 00 ......@...B.....
4000000000073360 11 00 00 00 01 00 00 00 00 02 00 00 E8 FE FF 58 ...............X
4000000000073370 09 70 00 42 10 10 10 00 90 00 42 00 04 40 00 84 .p.B......B..@..
4000000000073380 11 00 00 00 01 00 70 30 39 0C 73 03 60 00 00 43 ......p09.s.`..C
4000000000073390 08 00 00 00 01 00 00 00 00 02 00 00 00 00 04 00 ................
40000000000733A0 11 00 00 00 01 00 00 00 00 02 00 00 E8 14 00 50 ...............P
40000000000733B0 11 08 00 48 00 21 00 00 00 02 00 00 98 FE FF 58 ...H.!.........X
40000000000733C0 09 70 00 42 10 10 10 00 90 00 42 00 84 00 31 80 .p.B......B...1.
40000000000733D0 10 00 00 00 01 00 60 30 39 0E 73 03 D0 FF FF 4A ......`09.s....J
40000000000733E0 09 40 00 40 00 21 00 00 00 02 00 00 30 02 AA 00 .@.@.!......0...
40000000000733F0 11 00 00 00 01 00 00 10 05 80 03 80 08 00 84 00 ................
4000000000073400 08 18 15 0A 80 05 10 42 04 72 48 40 04 00 C4 00 .......B.rH@....
4000000000073410 09 00 00 00 01 00 40 02 04 00 42 00 00 00 04 00 ......@...B.....
4000000000073420 11 00 00 00 01 00 00 00 00 02 00 00 28 FF FF 58 ............(..X
4000000000073430 09 70 00 42 10 10 10 00 90 00 42 00 04 40 00 84 .p.B......B..@..
4000000000073440 11 00 00 00 01 00 70 F0 3A 0C 73 03 60 00 00 43 ......p.:.s.`..C
4000000000073450 08 00 00 00 01 00 00 00 00 02 00 00 00 00 04 00 ................
4000000000073460 11 00 00 00 01 00 00 00 00 02 00 00 28 14 00 50 ............(..P
4000000000073470 11 08 00 48 00 21 00 00 00 02 00 00 D8 FE FF 58 ...H.!.........X
4000000000073480 09 70 00 42 10 10 10 00 90 00 42 00 84 00 3D 80 .p.B......B...=.
4000000000073490 10 00 00 00 01 00 60 F0 3A 0E 73 03 D0 FF FF 4A ......`.:.s....J
40000000000734A0 09 40 00 40 00 21 00 00 00 02 00 00 30 02 AA 00 .@.@.!......0...
40000000000734B0 11 00 00 00 01 00 00 10 05 80 03 80 08 00 84 00 ................
40000000000734C0 08 18 15 0A 80 05 10 42 04 72 48 40 04 00 C4 00 .......B.rH@....
40000000000734D0 09 00 00 00 01 00 40 02 04 00 42 00 00 00 04 00 ......@...B.....
40000000000734E0 11 00 00 00 01 00 00 00 00 02 00 00 28 FF FF 58 ............(..X
40000000000734F0 09 70 00 42 10 10 10 00 90 00 42 00 04 40 00 84 .p.B......B..@..
4000000000073500 11 00 00 00 01 00 70 E0 3B 0C 73 03 60 00 00 43 ......p.;.s.`..C
4000000000073510 08 00 00 00 01 00 00 00 00 02 00 00 00 00 04 00 ................
4000000000073520 11 00 00 00 01 00 00 00 00 02 00 00 68 13 00 50 ............h..P
4000000000073530 11 08 00 48 00 21 00 00 00 02 00 00 D8 FE FF 58 ...H.!.........X
4000000000073540 09 70 00 42 10 10 10 00 90 00 42 00 84 00 39 80 .p.B......B...9.
4000000000073550 10 00 00 00 01 00 60 E0 3B 0E 73 03 D0 FF FF 4A ......`.;.s....J
4000000000073560 09 40 00 40 00 21 00 00 00 02 00 00 30 02 AA 00 .@.@.!......0...
4000000000073570 11 00 00 00 01 00 00 10 05 80 03 80 08 00 84 00 ................
4000000000073580 08 28 21 10 80 05 00 00 00 02 00 E0 04 00 CC 00 .(!.............
4000000000073590 02 08 21 02 39 24 60 02 04 00 42 80 04 00 C4 00 ..!.9$`...B.....
40000000000735A0 19 18 1D 00 00 24 00 00 00 02 00 00 28 FF FF 58 .....$......(..X
40000000000735B0 09 08 00 4C 00 21 E0 00 84 20 20 00 00 00 04 00 ...L.!...  .....
40000000000735C0 08 00 00 00 01 00 20 22 04 72 48 00 44 0D E0 90 ...... ".rH.D...
40000000000735D0 19 00 00 00 01 00 70 38 38 0C 73 03 B0 00 00 43 ......p88.s....C
40000000000735E0 11 00 00 00 01 00 10 01 20 20 72 08 C0 00 00 42 ........  r....B
40000000000735F0 0B 70 00 40 10 10 E0 08 38 00 42 00 00 00 04 00 .p.@....8.B.....
4000000000073600 11 00 38 40 90 11 00 00 00 02 00 00 88 12 00 50 ..8@...........P
4000000000073610 11 08 00 4C 00 21 00 00 00 02 00 00 B8 FE FF 58 ...L.!.........X
4000000000073620 08 70 00 40 10 10 70 00 20 0C 72 E8 11 00 00 90 .p.@..p. .r.....
4000000000073630 09 08 00 4C 00 21 00 18 89 20 23 00 00 00 04 00 ...L.!... #.....
4000000000073640 09 70 FC 1D 3F A3 81 08 00 00 C8 E8 01 00 00 84 .p..?...........
4000000000073650 08 00 00 00 01 00 00 70 80 20 A3 03 01 00 00 84 .......p. ......
4000000000073660 09 00 00 00 01 00 E0 00 84 20 20 00 00 00 04 00 .........  .....
4000000000073670 11 40 3C 10 0C 20 60 38 38 0E 73 03 70 FF FF 4A .@<.. `88.s.p..J
4000000000073680 03 00 00 00 01 00 F0 3F C1 BF 05 00 50 02 AA 00 .......?....P...
4000000000073690 11 00 00 00 01 00 00 20 05 80 03 80 08 00 84 00 ....... ........
40000000000736A0 11 00 00 00 01 00 00 00 00 02 00 00 E8 11 00 50 ...............P
40000000000736B0 11 08 00 4C 00 21 00 00 00 02 00 00 18 FE FF 58 ...L.!.........X
40000000000736C0 08 00 00 00 01 00 70 00 20 0C 72 E8 11 00 00 90 ......p. .r.....
40000000000736D0 09 70 00 42 10 10 00 18 89 20 23 20 00 30 01 84 .p.B..... # .0..
40000000000736E0 C9 40 04 00 00 24 00 00 00 02 80 E8 01 00 00 84 .@...$..........
40000000000736F0 E9 40 00 00 00 21 00 00 00 02 00 C0 70 70 1C E6 .@...!......pp..
4000000000073700 10 00 00 00 01 00 80 78 20 18 40 03 E0 FE FF 4A .......x .@....J
4000000000073710 11 00 00 00 01 00 00 00 00 02 00 00 70 FF FF 48 ............p..H
4000000000073720 08 00 00 00 01 00 00 00 00 02 00 00 00 00 04 00 ................
4000000000073730 08 00 00 00 01 00 00 00 00 02 00 00 00 00 04 00 ................
4000000000073740 18 30 2D 10 80 05 20 42 04 72 48 00 00 00 00 20 .0-... B.rH.... 
4000000000073750 09 38 01 02 00 21 00 00 00 02 00 A0 04 00 C4 00 .8...!..........
4000000000073760 11 18 21 00 00 24 00 00 00 02 00 00 28 FE FF 58 ..!..$......(..X
4000000000073770 09 08 00 4E 00 21 E0 00 88 20 20 00 04 40 00 84 ...N.!...  ..@..
4000000000073780 08 00 00 00 01 00 40 22 04 72 48 20 44 0D E0 90 ......@".rH D...
4000000000073790 19 00 00 00 01 00 70 40 38 0C 73 03 90 00 00 43 ......p@8.s....C
40000000000737A0 10 00 00 00 01 00 60 00 80 0E 72 03 B0 00 00 42 ......`...r....B
40000000000737B0 0B 70 00 42 10 10 E0 08 38 00 42 00 00 00 04 00 .p.B....8.B.....
40000000000737C0 11 00 38 42 90 11 00 00 00 02 00 00 C8 10 00 50 ..8B...........P
40000000000737D0 11 08 00 4E 00 21 00 00 00 02 00 00 B8 FD FF 58 ...N.!.........X
40000000000737E0 08 70 00 42 10 10 00 02 21 1C 40 20 00 38 01 84 .p.B....!.@ .8..
40000000000737F0 0B 00 8C 48 90 11 E0 F8 3B 7E 46 20 01 00 21 E4 ...H....;~F ..!.
4000000000073800 09 00 38 42 90 11 E0 00 88 20 20 04 14 00 00 90 ..8B.....  .....
4000000000073810 11 30 20 1C 87 79 02 02 00 00 42 03 90 FF FF 4A .0 ..y....B....J
4000000000073820 11 38 FC 1C 86 39 00 30 01 55 80 03 A0 00 00 43 .8...9.0.U.....C
4000000000073830 00 00 00 00 01 00 00 28 05 80 03 00 00 00 04 00 .......(........
4000000000073840 D9 40 00 40 00 21 00 00 00 02 00 80 08 00 84 00 .@.@.!..........
4000000000073850 11 00 00 00 01 00 00 00 00 02 00 00 38 10 00 50 ............8..P
4000000000073860 11 08 00 4E 00 21 00 00 00 02 00 00 28 FD FF 58 ...N.!......(..X
4000000000073870 08 00 81 10 0E 20 E0 00 88 20 20 20 00 38 01 84 ..... ...   .8..
4000000000073880 0B 00 8C 48 90 11 90 00 80 10 72 C0 80 70 1C E6 ...H......r..p..
4000000000073890 09 00 00 00 01 00 02 0A 00 00 48 00 00 00 04 00 ..........H.....
40000000000738A0 10 00 00 00 01 40 02 02 00 00 42 03 00 FF FF 4A .....@....B....J
40000000000738B0 10 00 00 00 01 00 00 00 00 02 00 00 70 FF FF 48 ............p..H
40000000000738C0 11 00 00 00 01 00 00 00 00 02 00 00 C8 0F 00 50 ...............P
40000000000738D0 03 70 00 44 10 10 10 00 9C 00 42 E0 A0 73 18 E6 .p.D......B..s..
40000000000738E0 11 38 00 1C C6 39 00 00 00 02 80 03 D0 01 00 41 .8...9.........A
40000000000738F0 10 00 00 00 01 00 70 00 80 0C 72 03 A0 01 00 42 ......p...r....B
4000000000073900 0B 08 51 03 38 24 E0 00 84 20 20 00 00 00 04 00 ..Q.8$...  .....
4000000000073910 09 00 00 00 01 00 E0 08 38 00 42 00 00 00 04 00 ........8.B.....
4000000000073920 11 00 38 42 90 11 00 00 00 02 00 00 E8 07 00 50 ..8B...........P
4000000000073930 09 70 00 42 10 10 10 00 9C 00 42 60 04 40 00 84 .p.B......B`.@..
4000000000073940 09 00 00 00 01 00 E0 F8 3B 7E 46 00 00 00 04 00 ........;~F.....
4000000000073950 08 00 38 42 90 11 00 00 00 02 00 00 00 00 04 00 ..8B............
4000000000073960 09 00 00 00 01 00 E0 00 88 20 20 00 00 00 04 00 .........  .....
4000000000073970 11 30 E8 1C 87 39 00 00 00 02 80 03 80 01 00 41 .0...9.........A
4000000000073980 11 00 00 00 01 00 00 00 00 02 00 00 08 0F 00 50 ...............P
4000000000073990 0B 08 00 4E 00 21 E0 40 04 72 48 00 00 00 04 00 ...N.!.@.rH.....
40000000000739A0 09 00 00 00 01 00 E0 00 38 20 20 00 00 00 04 00 ........8  .....
40000000000739B0 11 38 00 1C 86 39 00 00 00 02 80 03 00 01 00 41 .8...9.........A
40000000000739C0 10 00 00 00 01 00 60 00 80 0E 72 03 A0 00 00 42 ......`...r....B
40000000000739D0 0B 08 51 03 38 24 E0 00 84 20 20 00 00 00 04 00 ..Q.8$...  .....
40000000000739E0 09 00 00 00 01 00 E0 08 38 00 42 00 00 00 04 00 ........8.B.....
40000000000739F0 11 00 38 42 90 11 00 00 00 02 00 00 58 FD FF 58 ..8B........X..X
4000000000073A00 08 70 00 42 10 10 00 00 00 02 00 20 00 38 01 84 .p.B....... .8..
4000000000073A10 03 78 30 00 00 24 80 00 8C 00 42 C0 F1 77 FC 8C .x0..$....B..w..
4000000000073A20 09 00 38 42 90 11 00 00 00 02 00 C0 41 08 E4 90 ..8B........A...
4000000000073A30 08 00 3C 1C 90 11 00 00 00 02 00 00 00 00 04 00 ..<.............
4000000000073A40 01 00 00 00 01 00 00 30 01 55 00 00 00 00 04 00 .......0.U......
4000000000073A50 11 00 00 00 01 00 00 28 05 80 03 80 08 00 84 00 .......(........
4000000000073A60 11 00 00 00 01 00 00 00 00 02 00 00 E8 FC FF 58 ...............X
4000000000073A70 03 08 00 4E 00 21 F0 60 00 00 48 C0 41 08 E4 90 ...N.!.`..H.A...
4000000000073A80 10 00 3C 1C 90 11 00 00 00 02 00 00 C0 FF FF 48 ..<............H
4000000000073A90 11 00 00 00 01 00 00 00 00 02 00 00 78 06 00 50 ............x..P
4000000000073AA0 11 08 00 4E 00 21 30 02 20 00 42 00 C0 FE FF 48 ...N.!0. .B....H
4000000000073AB0 09 00 00 00 01 00 90 22 06 0C 48 00 00 00 04 00 ......."..H.....
4000000000073AC0 08 48 01 52 18 10 00 00 00 02 00 00 00 00 04 00 .H.R............
4000000000073AD0 11 50 15 00 00 24 80 02 00 00 42 00 98 70 FA 58 .P...$....B..p.X
4000000000073AE0 11 08 00 4E 00 21 80 02 20 00 42 00 28 E3 FF 58 ...N.!.. .B.(..X
4000000000073AF0 09 00 00 00 01 00 90 62 06 0C 48 00 00 00 04 00 .......b..H.....
4000000000073B00 11 48 01 52 18 10 00 00 00 02 00 00 D0 FF FF 48 .H.R...........H
4000000000073B10 08 00 00 00 01 00 00 00 00 02 00 00 00 00 04 00 ................
4000000000073B20 08 00 00 00 01 00 00 00 00 02 00 00 00 00 04 00 ................
4000000000073B30 08 00 00 00 01 00 00 00 00 02 00 00 00 00 04 00 ................
4000000000073B40 01 30 2D 10 80 05 50 02 00 62 00 E0 04 08 00 84 .0-...P..b......
4000000000073B50 11 00 00 00 01 00 00 00 00 02 00 00 F8 FB FF 58 ...............X
4000000000073B60 02 08 00 4E 00 21 00 02 20 00 42 C0 81 08 E4 90 ...N.!.. .B.....
4000000000073B70 0B 08 71 03 38 24 F0 00 38 20 20 00 00 00 04 00 ..q.8$..8  .....
4000000000073B80 03 40 2C 1E 89 39 60 E8 3D 0E 73 C4 11 00 00 90 .@,..9`.=.s.....
4000000000073B90 22 71 00 00 00 21 00 00 00 02 00 C0 08 70 1C E5 "q...!.......p..
4000000000073BA0 19 78 00 1C 00 21 E0 20 04 72 C8 03 F0 02 00 43 .x...!. .r.....C
4000000000073BB0 0B 70 00 1C 10 10 60 28 38 0E 73 00 00 00 04 00 .p....`(8.s.....
4000000000073BC0 09 00 00 00 01 C0 91 A2 06 0C 48 00 00 00 04 00 ..........H.....
4000000000073BD0 F1 48 01 52 18 10 00 00 00 02 80 03 50 01 00 41 .H.R........P..A
4000000000073BE0 10 40 01 42 18 10 60 00 3C 0E 73 03 D0 02 00 42 .@.B..`.<.s....B
4000000000073BF0 09 00 00 00 01 00 E0 E0 04 72 48 00 00 00 04 00 .........rH.....
4000000000073C00 11 10 01 1C 10 10 00 00 00 02 00 00 C8 7A FA 58 .............z.X
4000000000073C10 11 08 00 4E 00 21 80 0A 20 00 42 00 B8 50 07 50 ...N.!.. .B..P.P
4000000000073C20 08 48 01 42 18 10 00 00 00 02 00 00 05 40 00 84 .H.B.........@..
4000000000073C30 19 08 00 4E 00 21 00 00 00 02 00 00 58 75 FA 58 ...N.!......Xu.X
4000000000073C40 03 08 00 4E 00 21 30 02 20 00 42 C0 C1 ED 77 9D ...N.!0. .B...w.
4000000000073C50 0B 00 00 00 01 00 E0 C0 38 00 42 00 00 00 04 00 ........8.B.....
4000000000073C60 11 20 01 1C 18 10 00 00 00 02 00 00 28 0C 00 50 . ..........(..P
4000000000073C70 11 08 00 4E 00 21 00 00 00 02 00 00 D8 FE FF 58 ...N.!.........X
4000000000073C80 09 50 94 44 8B 39 80 78 89 12 73 20 00 38 01 84 .P.D.9.x..s .8..
4000000000073C90 49 31 02 00 00 38 00 00 00 02 80 E5 08 00 00 E0 I1...8..........
4000000000073CA0 11 00 00 00 01 00 62 00 00 8E 73 03 A0 02 00 42 ......b...s....B
4000000000073CB0 11 30 AC 44 87 39 00 00 00 02 00 03 20 04 00 43 .0.D.9...... ..C
4000000000073CC0 11 00 00 00 01 00 60 58 89 0E E3 03 80 00 00 42 ......`X.......B
4000000000073CD0 13 30 BC 44 87 31 02 F0 01 80 21 03 50 03 00 42 .0.D.1....!.P..B
4000000000073CE0 10 00 00 00 01 00 60 68 89 0E 73 03 70 03 00 43 ......`h..s.p..C
4000000000073CF0 11 40 01 46 00 21 00 00 00 02 00 00 F8 6A FA 58 .@.F.!.......j.X
4000000000073D00 03 08 00 4E 00 21 00 00 00 02 00 20 C5 0D 18 90 ...N.!..... ....
4000000000073D10 08 48 01 52 18 10 00 00 00 02 00 00 00 00 04 00 .H.R............
4000000000073D20 11 50 15 00 00 24 80 02 00 00 42 00 48 6E FA 58 .P...$....B.Hn.X
4000000000073D30 10 08 00 4E 00 21 80 02 20 00 42 00 D8 E0 FF 58 ...N.!.. .B....X
4000000000073D40 11 30 98 44 87 39 00 00 00 02 00 03 A0 03 00 43 .0.D.9.........C
4000000000073D50 11 00 00 00 01 00 60 30 89 0E 63 03 90 02 00 42 ......`0..c....B
4000000000073D60 13 30 24 44 87 B9 02 80 01 80 21 03 30 03 00 43 .0$D......!.0..C
4000000000073D70 10 00 00 00 01 00 60 50 88 0E F3 03 80 FF FF 4A ......`P.......J
4000000000073D80 03 00 00 00 01 00 80 00 20 2C 00 00 84 00 11 79 ........ ,.....y
4000000000073D90 08 00 00 00 01 00 00 00 00 02 00 00 00 00 04 00 ................
4000000000073DA0 11 40 01 40 00 21 00 00 00 02 00 00 28 5D 0B 50 .@.@.!......(].P
4000000000073DB0 03 08 00 4E 00 21 20 02 20 00 42 C0 41 0D E0 90 ...N.! . .B.A...
4000000000073DC0 09 00 00 00 01 00 E0 00 38 20 20 00 00 00 04 00 ........8  .....
4000000000073DD0 11 00 00 00 01 00 70 00 38 0C 73 03 50 00 00 42 ......p.8.s.P..B
4000000000073DE0 08 30 FC 49 07 3B 80 02 8C 00 42 00 00 00 04 00 .0.I.;....B.....
4000000000073DF0 19 48 01 48 00 21 A0 02 20 00 42 03 C0 01 00 43 .H.H.!.. .B....C
4000000000073E00 11 00 00 00 01 00 00 00 00 02 00 00 C8 E1 FF 58 ...............X
4000000000073E10 08 08 00 4E 00 21 00 00 00 02 00 00 00 00 04 00 ...N.!..........
4000000000073E20 11 40 01 44 00 21 00 00 00 02 00 00 C8 69 FA 58 .@.D.!.......i.X
4000000000073E30 11 08 00 4E 00 21 80 02 8C 00 42 00 B8 69 FA 58 ...N.!....B..i.X
4000000000073E40 09 40 01 42 18 10 00 00 00 02 00 20 00 38 01 84 .@.B....... .8..
4000000000073E50 11 30 00 50 07 39 00 00 00 02 00 03 30 00 00 43 .0.P.9......0..C
4000000000073E60 11 00 00 00 01 00 00 00 00 02 00 00 88 69 FA 58 .............i.X
4000000000073E70 08 08 00 4E 00 21 00 00 00 02 00 00 00 00 04 00 ...N.!..........
4000000000073E80 08 00 00 42 98 11 00 00 00 02 00 00 00 00 04 00 ...B............
4000000000073E90 09 40 00 40 00 21 00 00 00 02 00 00 60 02 AA 00 .@.@.!......`...
4000000000073EA0 11 00 00 00 01 00 00 28 05 80 03 80 08 00 84 00 .......(........
4000000000073EB0 11 00 00 00 01 00 00 00 00 02 00 00 18 78 FA 58 .............x.X
4000000000073EC0 11 08 00 4E 00 21 80 0A 20 00 42 00 08 4E 07 50 ...N.!.. .B..N.P
4000000000073ED0 08 48 01 42 18 10 00 00 00 02 00 00 05 40 00 84 .H.B.........@..
4000000000073EE0 19 08 00 4E 00 21 00 00 00 02 00 00 A8 72 FA 58 ...N.!.......r.X
4000000000073EF0 03 08 00 4E 00 21 30 02 20 00 42 C0 C1 ED 77 9D ...N.!0. .B...w.
4000000000073F00 0B 00 00 00 01 00 E0 C0 38 00 42 00 00 00 04 00 ........8.B.....
4000000000073F10 11 20 01 1C 18 10 00 00 00 02 00 00 78 09 00 50 . ..........x..P
4000000000073F20 11 08 00 4E 00 21 00 00 00 02 00 00 28 FC FF 58 ...N.!......(..X
4000000000073F30 10 08 00 4E 00 21 00 02 20 00 42 00 70 FE FF 48 ...N.!.. .B.p..H
4000000000073F40 11 00 00 00 01 00 70 00 20 0C 72 03 70 FD FF 4A ......p. .r.p..J
4000000000073F50 0B 70 50 03 38 24 E0 00 38 20 20 00 00 00 04 00 .pP.8$..8  .....
4000000000073F60 09 00 00 00 01 00 70 00 38 0C 73 00 00 00 04 00 ......p.8.s.....
4000000000073F70 10 00 00 00 01 80 81 08 00 00 48 03 40 FD FF 48 ..........H.@..H
4000000000073F80 09 48 F1 02 06 24 A0 2A 00 00 48 00 05 00 00 84 .H...$.*..H.....
4000000000073F90 11 48 01 52 18 10 00 00 00 02 00 00 D8 6B FA 58 .H.R.........k.X
4000000000073FA0 11 08 00 4E 00 21 80 02 20 00 42 00 68 DE FF 58 ...N.!.. .B.h..X
4000000000073FB0 11 48 01 10 00 21 80 02 8C 00 42 00 18 48 FF 58 .H...!....B..H.X
4000000000073FC0 11 08 00 4E 00 21 80 02 8C 00 42 00 08 6F FF 58 ...N.!....B..o.X
4000000000073FD0 10 00 00 00 01 00 10 00 9C 00 42 00 50 FE FF 48 ..........B.P..H
4000000000073FE0 10 00 00 00 01 00 60 50 89 0E F3 03 10 FD FF 4A ......`P.......J
4000000000073FF0 09 38 80 00 E1 18 60 40 00 C2 31 00 00 00 04 00 .8....`@..1.....
4000000000074000 0F 00 00 00 01 00 00 00 00 02 00 C0 00 30 1C E8 .............0..
4000000000074010 10 00 19 00 E1 10 00 00 00 02 00 00 90 FD FF 48 ...............H
4000000000074020 11 30 78 45 87 39 00 00 00 02 00 03 60 00 00 43 .0xE.9......`..C
4000000000074030 10 00 00 00 01 00 60 E0 8B 0E F3 03 C0 FC FF 4A ......`........J
4000000000074040 11 00 00 00 01 00 00 02 21 1C 40 00 60 FD FF 48 ........!.@.`..H
4000000000074050 11 00 00 00 01 00 00 02 21 0A 40 00 50 FD FF 48 ........!.@.P..H
4000000000074060 11 40 01 40 00 21 90 02 20 00 42 00 A8 39 0C 50 .@.@.!.. .B..9.P
4000000000074070 11 08 00 4E 00 21 00 02 20 00 42 00 30 FD FF 48 ...N.!.. .B.0..H
4000000000074080 10 00 00 00 01 00 00 02 21 1E 40 00 20 FD FF 48 ........!.@. ..H
4000000000074090 01 00 00 00 01 00 80 00 20 2C 00 00 00 00 04 00 ........ ,......
40000000000740A0 11 00 00 00 01 00 00 02 21 90 3C 00 00 FD FF 48 ........!.<....H
40000000000740B0 11 40 01 40 00 21 90 02 20 00 42 00 68 38 0C 50 .@.@.!.. .B.h8.P
40000000000740C0 11 08 00 4E 00 21 00 02 20 00 42 00 E0 FC FF 48 ...N.!.. .B....H
40000000000740D0 11 00 00 00 01 00 00 42 80 00 40 00 D0 FC FF 48 .......B..@....H
40000000000740E0 11 00 00 00 01 00 00 02 21 18 40 00 C0 FC FF 48 ........!.@....H
40000000000740F0 08 00 00 00 01 00 00 00 00 02 00 00 00 00 04 00 ................
4000000000074100 08 10 11 08 80 05 00 42 04 72 48 20 04 00 C4 00 .......B.rH ....
4000000000074110 09 00 00 00 01 00 30 02 04 00 42 00 00 00 04 00 ......0...B.....
4000000000074120 11 00 00 00 01 00 00 00 00 02 00 00 28 FA FF 58 ............(..X
4000000000074130 09 70 00 40 10 10 00 00 00 02 00 20 00 18 01 84 .p.@....... ....
4000000000074140 11 00 00 00 01 00 70 60 39 0C 73 03 60 00 00 43 ......p`9.s.`..C
4000000000074150 08 00 00 00 01 00 00 00 00 02 00 00 00 00 04 00 ................
4000000000074160 11 00 00 00 01 00 00 00 00 02 00 00 28 07 00 50 ............(..P
4000000000074170 11 08 00 46 00 21 00 00 00 02 00 00 D8 F9 FF 58 ...F.!.........X
4000000000074180 09 70 00 40 10 10 00 00 00 02 00 20 00 18 01 84 .p.@....... ....
4000000000074190 10 00 00 00 01 00 60 60 39 0E 73 03 D0 FF FF 4A ......``9.s....J
40000000000741A0 01 00 00 00 01 00 00 10 01 55 00 00 00 00 04 00 .........U......
40000000000741B0 11 00 00 00 01 00 00 08 05 80 03 80 08 00 84 00 ................
40000000000741C0 08 70 51 22 80 05 00 00 00 02 00 00 06 08 CA 00 .pQ"............
40000000000741D0 09 30 00 40 07 39 00 00 00 02 00 E0 05 08 00 84 .0.@.9..........
40000000000741E0 11 00 00 00 01 00 D0 02 00 62 00 03 80 00 00 43 .........b.....C
40000000000741F0 0B 70 00 40 00 10 00 00 00 02 00 C0 01 70 50 00 .p.@.........pP.
4000000000074200 11 38 00 1C 86 39 00 00 00 02 80 03 60 00 00 43 .8...9......`..C
4000000000074210 C3 80 FC 41 2D A2 F1 00 80 00 42 03 00 09 AA 00 ...A-.....B.....
4000000000074220 09 00 00 00 01 00 60 00 39 0E 73 00 00 00 04 00 ......`.9.s.....
4000000000074230 11 00 00 00 01 00 60 48 38 8E 73 03 20 00 00 42 ......`H8.s. ..B
4000000000074240 10 00 00 00 01 00 60 50 38 0E F3 03 80 00 00 43 ......`P8......C
4000000000074250 10 00 00 00 01 00 F0 08 3C 00 42 A0 40 00 00 40 ........<.B.@..@
4000000000074260 09 08 01 00 00 21 00 00 00 02 00 00 00 00 04 00 .....!..........
4000000000074270 03 40 00 42 00 21 00 70 01 55 00 00 00 0B AA 00 .@.B.!.p.U......
4000000000074280 10 00 00 00 01 00 00 68 05 80 03 80 08 00 84 00 .......h........
4000000000074290 0B 70 00 1E 00 10 00 00 00 02 00 C0 01 70 50 00 .p...........pP.
40000000000742A0 10 00 00 00 01 00 70 00 38 0C 73 03 80 FF FF 4A ......p.8.s....J
40000000000742B0 10 00 00 00 01 00 10 02 00 00 42 00 C0 FF FF 48 ..........B....H
40000000000742C0 09 70 00 1E 00 10 50 A2 07 70 48 E0 F1 07 1C 90 .p....P..pH.....
40000000000742D0 01 00 00 00 01 00 E0 00 38 28 00 00 00 00 04 00 ........8(......
40000000000742E0 11 30 00 1C 87 39 00 00 00 02 00 03 80 FF FF 49 .0...9.........I
40000000000742F0 0B 70 00 4A 10 10 70 78 38 0C 61 E0 01 0A E4 90 .p.J..px8.a.....
4000000000074300 09 00 00 00 01 C0 21 23 07 0C 48 00 00 00 04 00 ......!#..H.....
4000000000074310 F1 90 01 64 18 10 00 00 00 02 80 03 40 05 00 41 ...d........@..A
4000000000074320 09 00 00 00 01 00 00 01 3C 20 20 00 00 00 04 00 ........<  .....
4000000000074330 11 00 00 00 01 00 60 70 40 0E E1 03 B0 04 00 43 ......`p@......C
4000000000074340 C8 50 B1 03 38 24 00 00 00 02 00 00 00 00 04 00 .P..8$..........
4000000000074350 09 20 71 FB 5D 27 00 00 00 02 00 20 86 05 00 90 . q.]'..... ....
4000000000074360 11 00 00 00 01 00 00 00 00 02 00 00 68 49 07 50 ............hI.P
4000000000074370 08 08 01 48 00 21 10 00 BC 00 42 C0 01 44 00 84 ...H.!....B..D..
4000000000074380 09 80 00 4A 10 10 40 C1 21 00 42 E0 01 40 00 84 ...J..@.!.B..@..
4000000000074390 08 98 20 42 18 14 60 42 04 72 48 40 C4 0D E0 90 .. B..`B.rH@....
40000000000743A0 09 18 91 03 38 24 90 22 04 72 48 00 C5 0F E0 90 ....8$.".rH.....
40000000000743B0 08 90 20 42 18 14 70 62 04 72 48 80 45 09 E4 90 .. B..pb.rH.E...
40000000000743C0 09 00 4C 28 98 11 B0 A2 06 70 48 20 03 80 58 00 ..L(.....pH ..X.
40000000000743D0 08 98 20 42 18 14 00 90 38 30 23 C0 81 44 00 84 .. B....80#..D..
40000000000743E0 09 F8 20 10 00 21 E0 81 20 00 42 A0 83 41 00 84 .. ..!.. .B..A..
40000000000743F0 08 88 00 4C 10 10 C0 01 21 00 42 60 83 42 00 84 ...L....!.B`.B..
4000000000074400 09 D0 C0 10 00 21 00 09 40 00 42 20 06 00 01 84 .....!..@.B ....
4000000000074410 08 90 00 54 18 10 40 88 3C 20 2B 00 00 00 04 00 ...T..@.< +.....
4000000000074420 09 00 4C 1C 98 11 10 01 84 30 20 C0 01 45 00 84 ..L......0 ..E..
4000000000074430 08 C8 64 24 12 20 80 01 8C 30 20 00 00 00 04 00 ..d$. ...0 .....
4000000000074440 09 00 44 1C 98 11 00 80 94 20 23 00 00 00 04 00 ..D...... #.....
4000000000074450 08 00 00 00 01 00 70 01 A4 20 20 00 00 00 04 00 ......p..  .....
4000000000074460 09 00 60 3E 98 11 60 01 A0 30 20 00 00 00 04 00 ..`>..`..0 .....
4000000000074470 08 A8 00 58 18 10 00 B8 3C 20 23 00 00 00 04 00 ...X....< #.....
4000000000074480 09 00 58 3C 98 11 40 01 9C 30 20 00 00 00 04 00 ..X<..@..0 .....
4000000000074490 08 98 00 44 18 10 00 A8 74 30 23 00 00 00 04 00 ...D....t0#.....
40000000000744A0 09 00 50 38 98 11 20 01 AC 20 20 00 00 00 04 00 ..P8.. ..  .....
40000000000744B0 09 00 4C 36 98 11 00 90 68 20 23 00 00 00 04 00 ..L6....h #.....
40000000000744C0 11 00 20 32 98 11 00 00 00 02 00 00 08 72 FA 58 .. 2.........r.X
40000000000744D0 11 08 00 5E 00 21 10 0B 20 00 42 00 F8 47 07 50 ...^.!.. .B..G.P
40000000000744E0 08 90 01 40 00 21 00 00 00 02 00 20 06 40 00 84 ...@.!..... .@..
40000000000744F0 19 08 00 5E 00 21 00 00 00 02 00 00 98 6C FA 58 ...^.!.......l.X
4000000000074500 08 08 00 5E 00 21 F0 F8 F3 FF 4F 00 02 20 01 84 ...^.!....O.. ..
4000000000074510 09 00 20 46 98 11 00 40 A0 30 23 20 82 20 01 84 .. F...@.0# . ..
4000000000074520 08 70 F0 FB 5D 27 00 01 40 30 2B 00 00 00 04 00 .p..]'..@0+.....
4000000000074530 0A 00 3C 42 98 11 00 00 00 02 00 00 00 00 04 00 ..<B............
4000000000074540 09 00 00 20 98 11 00 78 44 30 23 00 00 00 04 00 ... ...xD0#.....
4000000000074550 09 00 00 52 90 11 00 00 98 20 23 00 00 00 04 00 ...R..... #.....
4000000000074560 09 40 00 1C 98 15 00 00 88 30 23 00 00 00 04 00 .@.......0#.....
4000000000074570 09 40 3C 1C 98 15 00 00 9C 30 23 00 00 00 04 00 .@<......0#.....
4000000000074580 09 00 00 00 01 00 80 00 38 30 2B 00 00 00 04 00 ........80+.....
4000000000074590 11 00 3C 1C 98 11 00 00 00 02 00 00 F8 02 00 50 ..<............P
40000000000745A0 11 08 00 5E 00 21 00 00 00 02 00 00 68 FB FF 58 ...^.!......h..X
40000000000745B0 09 70 00 4C 10 10 10 00 BC 00 42 20 04 40 00 84 .p.L......B .@..
40000000000745C0 11 30 00 1C 87 39 00 00 00 02 80 03 70 02 00 41 .0...9......p..A
40000000000745D0 09 00 00 00 01 00 10 03 88 30 20 00 00 00 04 00 .........0 .....
40000000000745E0 11 30 00 62 07 39 00 00 00 02 00 03 30 00 00 43 .0.b.9......0..C
40000000000745F0 11 00 00 00 01 00 00 00 00 02 00 00 F8 61 FA 58 .............a.X
4000000000074600 08 08 00 5E 00 21 00 00 00 02 00 00 00 00 04 00 ...^.!..........
4000000000074610 09 00 00 00 01 00 10 03 8C 30 20 00 00 00 04 00 .........0 .....
4000000000074620 11 30 00 62 07 39 00 00 00 02 00 03 30 00 00 43 .0.b.9......0..C
4000000000074630 11 00 00 00 01 00 00 00 00 02 00 00 B8 61 FA 58 .............a.X
4000000000074640 09 08 00 5E 00 21 00 00 00 02 00 00 00 00 04 00 ...^.!..........
4000000000074650 09 70 00 4A 10 10 20 A1 07 70 48 E0 01 20 01 84 .p.J.. ..pH.. ..
4000000000074660 09 38 00 1C 86 39 00 00 00 02 00 C0 F1 77 FC 8C .8...9.......w..
4000000000074670 E9 90 D1 03 06 24 00 00 00 02 00 20 02 70 58 00 .....$..... .pX.
4000000000074680 F1 90 01 64 18 10 00 00 00 02 80 03 D0 01 00 41 ...d...........A
4000000000074690 09 80 00 54 18 10 00 70 48 20 23 00 00 00 04 00 ...T...pH #.....
40000000000746A0 0B 70 44 20 12 20 E0 00 38 30 20 00 00 00 04 00 .pD . ..80 .....
40000000000746B0 08 88 00 1C 00 21 40 C1 39 00 42 40 03 71 00 84 .....!@.9.B@.q..
40000000000746C0 09 C8 60 1C 00 21 00 01 3A 00 42 60 82 70 00 84 ..`..!..:.B`.p..
40000000000746D0 08 90 10 22 10 14 80 01 39 00 42 C0 82 72 00 84 ..."....9.B..r..
40000000000746E0 09 A8 C0 1C 00 21 70 01 50 30 20 20 06 70 00 84 .....!p.P0  .p..
40000000000746F0 08 00 00 00 01 00 40 01 44 20 20 00 00 00 04 00 ......@.D  .....
4000000000074700 09 00 48 4C 90 11 10 01 64 30 20 00 00 00 04 00 ..HL....d0 .....
4000000000074710 08 90 00 34 18 10 00 A0 A4 20 23 00 00 00 04 00 ...4..... #.....
4000000000074720 09 00 44 58 98 11 30 01 4C 30 20 00 00 00 04 00 ..DX..0.L0 .....
4000000000074730 08 40 5C 1E 98 15 70 01 40 30 20 00 82 74 00 84 .@\...p.@0 ..t..
4000000000074740 09 00 4C 46 98 11 30 01 60 30 20 00 00 00 04 00 ..LF..0.`0 .....
4000000000074750 08 A0 00 20 18 10 80 B8 3C 30 2B 00 02 75 00 84 ... ....<0+..u..
4000000000074760 09 00 48 50 98 11 10 01 54 20 20 00 00 00 04 00 ..HP....T  .....
4000000000074770 08 90 00 2C 18 10 80 A0 3C 30 2B 00 00 00 04 00 ...,....<0+.....
4000000000074780 09 00 4C 4E 98 11 E0 00 40 30 20 00 00 00 04 00 ..LN....@0 .....
4000000000074790 09 00 48 44 98 11 00 88 AC 20 23 00 00 00 04 00 ..HD..... #.....
40000000000747A0 11 00 38 1E 98 11 00 00 00 02 00 00 48 60 FA 58 ..8.........H`.X
40000000000747B0 09 40 00 42 00 21 10 00 BC 00 42 00 E0 02 AA 00 .@.B.!....B.....
40000000000747C0 01 00 00 00 01 00 00 80 05 55 00 00 00 00 04 00 .........U......
40000000000747D0 10 00 00 00 01 00 00 68 05 80 03 80 08 00 84 00 .......h........
40000000000747E0 02 80 28 20 00 21 A0 62 07 70 48 40 06 80 58 00 ..( .!.b.pH@..X.
40000000000747F0 09 00 40 1E 90 11 10 03 A8 30 20 00 00 00 04 00 ..@......0 .....
4000000000074800 11 90 C9 00 12 20 00 00 00 02 00 00 08 46 07 50 ..... .......F.P
4000000000074810 08 00 00 00 01 00 10 00 BC 00 42 00 00 00 04 00 ..........B.....
4000000000074820 19 00 20 54 98 11 00 00 00 02 00 00 30 FB FF 48 .. T........0..H
4000000000074830 09 00 00 00 01 00 20 63 07 0C 48 00 00 00 04 00 ...... c..H.....
4000000000074840 08 90 01 64 18 10 00 00 00 02 00 00 00 00 04 00 ...d............
4000000000074850 11 98 15 00 00 24 10 03 00 00 42 00 18 63 FA 58 .....$....B..c.X
4000000000074860 11 08 00 5E 00 21 10 03 20 00 42 00 A8 D5 FF 58 ...^.!.. .B....X
4000000000074870 0D 00 00 00 01 00 00 00 00 00 00 00 00 00 04 00 ................
4000000000074880 18 D0 89 3C 80 05 C0 80 33 7E 46 00 00 00 00 20 ...<....3~F.... 
4000000000074890 01 18 F1 03 38 24 C0 03 00 66 00 60 07 08 00 84 ....8$...f.`....
40000000000748A0 02 08 01 46 18 10 D0 03 04 65 00 20 07 00 C4 00 ...F.....e. ....
40000000000748B0 19 30 00 42 07 39 00 00 00 02 00 03 D0 01 00 43 .0.B.9.........C
40000000000748C0 09 00 00 00 01 00 00 02 84 00 20 00 00 00 04 00 .......... .....
40000000000748D0 11 38 00 40 86 39 00 00 00 02 80 03 B0 01 00 43 .8.@.9.........C
40000000000748E0 C3 70 FC 43 2D 22 00 00 00 02 00 03 E0 08 AA 00 .p.C-"..........
40000000000748F0 08 00 00 00 01 00 00 00 00 02 00 00 00 00 04 00 ................
4000000000074900 09 00 00 00 01 00 60 00 81 0E 73 00 00 00 04 00 ......`...s.....
4000000000074910 11 00 00 00 01 00 60 48 80 8E 73 03 20 00 00 42 ......`H..s. ..B
4000000000074920 10 00 00 00 01 00 60 50 80 0E F3 03 F0 05 00 43 ......`P.......C
4000000000074930 11 00 00 00 01 00 10 0A 84 00 42 A0 30 01 00 40 ..........B.0..@
4000000000074940 10 10 05 00 00 24 60 00 80 0E 73 03 40 01 00 43 .....$`...s.@..C
4000000000074950 09 40 51 02 39 24 00 08 8D 30 23 00 00 00 04 00 .@Q.9$...0#.....
4000000000074960 11 00 84 50 98 11 00 00 00 02 00 00 68 7A FA 58 ...P........hz.X
4000000000074970 00 00 00 00 01 00 E0 00 80 20 00 00 00 00 04 00 ......... ......
4000000000074980 03 78 00 10 18 10 10 00 EC 00 42 C0 E1 78 40 80 .x........B..x@.
4000000000074990 09 00 00 00 01 00 E0 00 38 10 20 00 00 00 04 00 ........8. .....
40000000000749A0 11 00 00 00 01 00 60 A0 38 0E A8 03 50 01 00 42 ......`.8...P..B
40000000000749B0 09 38 7C 41 86 39 00 00 00 02 00 00 02 05 FD 8C .8|A.9..........
40000000000749C0 E9 70 F8 1E 01 21 00 00 00 02 00 00 02 80 40 00 .p...!........@.
40000000000749D0 F1 70 00 1C 08 10 00 00 00 02 80 03 20 01 00 43 .p.......... ..C
40000000000749E0 11 00 00 00 01 00 60 48 40 0E 6B 03 C0 05 00 42 ......`H@.k....B
40000000000749F0 E9 80 00 44 00 21 00 00 00 02 00 00 00 00 04 00 ...D.!..........
4000000000074A00 11 00 00 00 01 00 70 30 38 0C 28 03 40 00 00 42 ......p08.(.@..B
4000000000074A10 09 00 00 00 01 00 60 18 81 0E 73 00 00 00 04 00 ......`...s.....
4000000000074A20 11 00 00 00 01 00 60 00 82 8E 73 03 20 00 00 42 ......`...s. ..B
4000000000074A30 10 00 00 00 01 00 60 F8 82 0E F3 03 60 06 00 43 ......`.....`..C
4000000000074A40 0B 00 05 20 00 14 E0 00 3D 20 40 00 00 00 04 00 ... ....= @.....
4000000000074A50 10 70 00 1C 08 10 00 00 00 02 00 00 B0 FF FF 48 .p.............H
4000000000074A60 09 00 00 00 01 00 00 02 84 00 20 00 00 00 04 00 .......... .....
4000000000074A70 10 00 00 00 01 00 70 00 80 0C 73 03 90 FE FF 4A ......p...s....J
4000000000074A80 09 70 20 02 39 24 00 08 8D 30 23 00 00 00 04 00 .p .9$...0#.....
4000000000074A90 09 78 00 1C 10 10 00 00 38 20 23 C0 41 08 E4 90 .x......8 #.A...
4000000000074AA0 03 00 3C 1C 90 11 F0 E7 C1 BF 05 00 A0 03 AA 00 ..<.............
4000000000074AB0 02 00 00 00 01 00 00 E8 05 55 00 00 90 0B 00 07 .........U......
4000000000074AC0 18 00 00 00 01 00 C0 80 30 00 42 80 08 00 84 00 ........0.B.....
4000000000074AD0 03 00 05 44 00 14 00 00 00 02 00 C0 01 7A 40 80 ...D.........z@.
4000000000074AE0 09 70 00 1C 08 10 00 00 00 02 00 00 00 00 04 00 .p..............
4000000000074AF0 11 00 00 00 01 00 70 30 38 0C 28 03 E0 FF FF 4A ......p08.(....J
4000000000074B00 10 00 00 00 01 00 60 F8 82 0E 73 03 D0 FF FF 4A ......`...s....J
4000000000074B10 0B 20 FD 45 3F 23 90 02 90 00 20 00 00 00 04 00 . .E?#.... .....
4000000000074B20 11 00 00 00 01 00 70 D8 A6 0C F3 03 D0 08 00 43 ......p........C
4000000000074B30 C8 C0 01 00 00 21 00 00 00 02 00 00 00 00 04 00 .....!..........
4000000000074B40 08 00 00 00 01 00 10 E2 F6 BB 4E 40 C5 0D E0 90 ..........N@....
4000000000074B50 0A 00 00 48 80 11 00 00 00 02 00 00 00 00 04 00 ...H............
4000000000074B60 0B F0 01 54 18 10 E0 00 84 30 20 00 00 00 04 00 ...T.....0 .....
4000000000074B70 11 38 00 1C 06 39 00 00 00 02 80 03 20 00 00 43 .8...9...... ..C
4000000000074B80 11 00 00 00 01 00 70 F0 39 0C F0 03 E0 08 00 43 ......p.9......C
4000000000074B90 11 30 00 7C 07 39 00 00 00 02 00 03 30 00 00 43 .0.|.9......0..C
4000000000074BA0 11 00 00 00 01 00 00 00 00 02 00 00 48 5C FA 58 ............H\.X
4000000000074BB0 09 08 00 76 00 21 00 00 00 02 00 00 00 00 04 00 ...v.!..........
4000000000074BC0 08 00 21 02 39 24 E0 03 8C 30 20 40 04 08 01 84 ..!.9$...0 @....
4000000000074BD0 19 78 41 42 00 21 E0 C2 84 00 42 00 F8 6A FA 58 .xAB.!....B..j.X
4000000000074BE0 09 08 00 76 00 21 00 00 00 02 00 C0 17 40 00 84 ...v.!.......@..
4000000000074BF0 11 28 51 03 38 24 00 00 00 02 00 00 D8 40 07 50 .(Q.8$.......@.P
4000000000074C00 09 08 00 76 00 21 B0 02 8C 30 20 C0 07 40 00 84 ...v.!...0 ..@..
4000000000074C10 08 38 11 02 39 24 00 00 00 02 00 C0 C4 08 E4 90 .8..9$..........
4000000000074C20 19 F8 01 56 00 21 00 00 00 02 00 00 68 65 FA 58 ...V.!......he.X
4000000000074C30 08 70 04 00 00 24 00 48 91 00 23 20 00 D8 01 84 .p...$.H..# ....
4000000000074C40 09 80 01 4A 10 10 00 00 A8 30 23 A0 05 40 00 84 ...J.....0#..@..
4000000000074C50 08 B8 21 44 18 14 00 70 94 20 23 C0 51 00 00 90 ..!D...p. #.Q...
4000000000074C60 09 00 90 46 98 11 90 02 80 20 20 20 C6 0D E0 90 ...F.....   ....
4000000000074C70 08 60 01 4E 10 10 00 70 80 20 23 00 00 00 04 00 .`.N...p. #.....
4000000000074C80 0A B0 01 50 18 10 50 03 98 30 20 00 00 00 04 00 ...P..P..0 .....
4000000000074C90 0A A0 01 44 18 10 30 03 BC 30 20 00 00 00 04 00 ...D..0..0 .....
4000000000074CA0 19 90 01 5C 18 10 00 00 00 02 00 00 E8 FB FF 58 ...\...........X
4000000000074CB0 09 70 00 40 10 10 10 00 EC 00 42 E0 21 67 FD 8C .p.@......B.!g..
4000000000074CC0 11 38 14 1C 86 39 00 E1 07 70 C8 03 B0 08 00 43 .8...9...p.....C
4000000000074CD0 08 00 00 00 01 00 70 08 3C 0C 6B E0 C1 ED 77 9D ......p.<.k...w.
4000000000074CE0 09 00 AC 20 98 11 00 48 81 20 23 00 42 09 E4 90 ... ...H. #.B...
4000000000074CF0 08 00 00 00 01 00 00 00 00 02 00 00 00 00 04 00 ................
4000000000074D00 09 00 B0 4E 90 11 00 B0 41 30 23 00 00 00 04 00 ...N....A0#.....
4000000000074D10 09 00 D4 4C 98 11 00 68 C5 30 23 00 00 00 04 00 ...L...h.0#.....
4000000000074D20 09 00 C0 4A 90 11 00 B8 3D 30 23 00 00 00 04 00 ...J....=0#.....
4000000000074D30 09 00 D0 44 98 11 00 98 BD 30 23 00 00 00 04 00 ...D.....0#.....
4000000000074D40 11 00 C8 5C 98 11 00 00 00 02 00 03 20 00 00 43 ...\........ ..C
4000000000074D50 11 00 00 00 01 00 60 E8 39 0E 73 03 90 05 00 43 ......`.9.s....C
4000000000074D60 09 70 F0 FB 5D 27 F0 00 84 00 42 E0 00 80 19 E6 .p..]'....B.....
4000000000074D70 09 00 00 00 01 00 00 41 3C 30 28 00 00 00 04 00 .......A<0(.....
4000000000074D80 09 40 40 1C 98 15 00 41 3C 30 28 00 00 00 04 00 .@@....A<0(.....
4000000000074D90 09 40 40 1C 98 15 00 41 3C 30 28 00 00 00 04 00 .@@....A<0(.....
4000000000074DA0 09 40 40 1C 98 15 F0 00 3C 30 20 00 00 00 04 00 .@@.....<0 .....
4000000000074DB0 10 00 3C 1C 98 11 00 00 00 02 00 03 70 01 00 43 ..<.........p..C
4000000000074DC0 09 88 74 71 90 39 00 00 00 02 00 C0 07 68 01 84 ..tq.9.......h..
4000000000074DD0 31 FA 01 00 00 61 04 04 00 00 C2 08 F8 C5 04 53 1....a.........S
4000000000074DE0 11 00 00 00 01 00 00 00 00 02 00 08 68 D7 FE 5A ............h..Z
4000000000074DF0 08 70 A0 10 00 21 10 00 EC 00 42 00 00 00 04 00 .p...!....B.....
4000000000074E00 19 10 01 10 00 21 60 00 20 0E 72 03 30 00 00 43 .....!`. .r.0..C
4000000000074E10 09 00 00 00 01 00 E0 00 38 20 20 00 00 00 04 00 ........8  .....
4000000000074E20 10 00 00 00 01 00 60 C0 38 0E 28 03 F0 04 00 42 ......`.8.(....B
4000000000074E30 0B 70 50 03 39 24 00 00 00 02 00 00 00 00 04 00 .pP.9$..........
4000000000074E40 09 00 00 00 01 00 E0 00 38 20 20 00 00 00 04 00 ........8  .....
4000000000074E50 10 00 00 00 01 00 60 00 38 0E 73 03 C0 04 00 42 ......`.8.s....B
4000000000074E60 08 70 50 03 46 24 00 00 00 02 00 C0 07 68 01 84 .pP.F$.......h..
4000000000074E70 19 78 04 00 00 24 00 00 00 02 80 08 80 09 00 43 .x...$.........C
4000000000074E80 02 00 00 00 01 00 00 00 00 02 00 00 00 00 04 00 ................
4000000000074E90 19 00 3C 1C 90 11 00 00 00 02 00 00 F8 CC FF 58 ..<............X
4000000000074EA0 09 08 00 76 00 21 00 00 00 02 00 00 00 00 04 00 ...v.!..........
4000000000074EB0 0B 70 C0 03 32 24 00 00 00 02 00 00 00 00 04 00 .p..2$..........
4000000000074EC0 09 00 00 00 01 00 E0 00 38 20 20 00 00 00 04 00 ........8  .....
4000000000074ED0 10 00 00 00 01 00 60 00 38 0E 73 03 B0 09 00 42 ......`.8.s....B
4000000000074EE0 11 00 00 00 01 00 00 00 00 02 00 00 A8 CD FF 58 ...............X
4000000000074EF0 11 08 00 76 00 21 00 00 00 02 00 00 98 F4 03 50 ...v.!.........P
4000000000074F00 10 08 00 76 00 21 E0 13 00 00 48 00 C8 F5 03 50 ...v.!....H....P
4000000000074F10 10 00 00 00 01 00 20 0A 84 00 42 00 40 FA FF 48 ...... ...B.@..H
4000000000074F20 09 40 00 00 00 21 90 02 80 20 20 00 00 00 04 00 .@...!...  .....
4000000000074F30 08 00 20 4C 98 11 00 00 00 02 00 00 00 00 04 00 .. L............
4000000000074F40 09 70 14 00 00 24 00 48 9D 20 23 00 00 00 04 00 .p...$.H. #.....
4000000000074F50 08 00 38 40 90 11 00 00 00 02 00 00 00 00 04 00 ..8@............
4000000000074F60 08 00 90 46 98 11 00 00 00 02 00 00 00 00 04 00 ...F............
4000000000074F70 03 00 00 00 01 00 F0 E7 C1 BF 05 00 A0 03 AA 00 ................
4000000000074F80 02 00 00 00 01 00 00 E8 05 55 00 00 90 0B 00 07 .........U......
4000000000074F90 18 00 00 00 01 00 C0 80 30 00 42 80 08 00 84 00 ........0.B.....
4000000000074FA0 09 70 04 42 00 21 40 12 84 00 42 C0 D0 03 1D E6 .p.B.!@...B.....
4000000000074FB0 03 80 00 1C 00 10 20 01 90 00 42 00 D1 83 24 E6 ...... ...B...$.
4000000000074FC0 0B 89 04 00 00 64 12 01 00 00 42 00 00 00 04 00 .....d....B.....
4000000000074FD0 01 00 00 00 01 00 E0 00 44 20 00 00 00 00 04 00 ........D ......
4000000000074FE0 11 00 00 00 01 00 70 00 38 8C 2C 03 A0 06 00 42 ......p.8.,....B
4000000000074FF0 0B 30 84 40 87 B9 31 09 00 00 48 00 00 00 04 00 .0.@..1...H.....
4000000000075000 EB 98 00 00 00 21 30 99 38 18 40 00 00 00 04 00 .....!0.8.@.....
4000000000075010 11 00 00 00 01 00 60 00 4C 0E F3 03 B0 07 00 42 ......`.L......B
4000000000075020 0B 30 F8 40 87 B9 31 09 00 00 48 00 00 00 04 00 .0.@..1...H.....
4000000000075030 EB 98 00 00 00 21 40 99 38 18 40 00 00 00 04 00 .....!@.8.@.....
4000000000075040 10 00 00 00 01 00 60 00 50 0E 73 03 50 08 00 42 ......`.P.s.P..B
4000000000075050 08 00 21 02 39 24 10 22 00 00 48 00 00 00 04 00 ..!.9$."..H.....
4000000000075060 0A 78 10 02 39 24 E0 00 80 20 20 00 00 00 04 00 .x..9$...  .....
4000000000075070 0A 00 84 40 90 11 00 70 3C 20 23 00 00 00 04 00 ...@...p< #.....
4000000000075080 10 00 90 46 98 11 00 00 00 02 00 00 F0 FE FF 48 ...F...........H
4000000000075090 08 00 00 00 01 00 00 F9 43 7E 46 00 00 00 04 00 ........C~F.....
40000000000750A0 09 70 00 42 40 10 60 00 00 C2 31 00 00 00 04 00 .p.B@.`...1.....
40000000000750B0 09 78 00 20 00 10 00 00 40 00 23 80 04 80 00 84 .x. ....@.#.....
40000000000750C0 09 70 00 42 00 11 00 00 00 02 00 E0 01 78 50 00 .p.B.........xP.
40000000000750D0 01 00 00 00 01 00 E0 00 38 28 00 80 02 78 00 84 ........8(...x..
40000000000750E0 11 38 C0 1C 86 39 E0 00 38 20 80 03 30 06 00 43 .8...9..8 ..0..C
40000000000750F0 08 00 00 00 01 80 31 01 00 00 42 23 A2 00 00 90 ......1...B#....
4000000000075100 19 00 00 00 01 00 60 00 38 0E 73 03 90 01 00 43 ......`.8.s....C
4000000000075110 08 00 00 00 01 00 00 00 00 02 00 00 00 00 04 00 ................
4000000000075120 11 38 8C 1C 86 39 20 01 38 20 80 03 90 03 00 43 .8...9 .8 .....C
4000000000075130 0B 78 00 10 18 10 F0 90 3C 20 40 00 00 00 04 00 .x......< @.....
4000000000075140 09 00 00 00 01 00 F0 00 3C 10 20 00 00 00 04 00 ........<. .....
4000000000075150 11 00 00 00 01 00 70 30 3C 0C 28 03 30 00 00 42 ......p0<.(.0..B
4000000000075160 09 00 00 00 01 00 70 00 3A 0C 73 00 00 00 04 00 ......p.:.s.....
4000000000075170 10 00 00 00 01 00 70 F8 3A 8C 73 03 20 01 00 43 ......p.:.s. ..C
4000000000075180 0B 90 40 1D 3F 23 00 00 00 02 00 40 02 90 40 00 ..@.?#.....@..@.
4000000000075190 11 78 00 24 00 21 60 48 48 0E EB 03 B0 00 00 42 .x.$.!`HH......B
40000000000751A0 0B 78 7C 1C 3F 23 00 00 00 02 00 E0 01 78 40 00 .x|.?#.......x@.
40000000000751B0 0B 30 64 1E 87 F5 21 49 39 7E 46 00 00 00 04 00 .0d...!I9~F.....
40000000000751C0 01 00 00 00 01 C0 21 01 48 20 00 00 00 00 04 00 ......!.H ......
40000000000751D0 11 00 00 00 01 C0 F1 00 48 00 C2 03 70 00 00 42 ........H...p..B
40000000000751E0 0B 78 FC 1C 3F 23 00 00 00 02 00 E0 01 78 40 00 .x..?#.......x@.
40000000000751F0 11 00 00 00 01 00 60 C8 3C 0E 6B 03 40 03 00 42 ......`.<.k.@..B
4000000000075200 0B 30 90 22 87 B1 21 E9 00 00 48 00 00 00 04 00 .0."..!...H.....
4000000000075210 EB 90 DC 00 00 24 20 71 48 0A 40 00 00 00 04 00 .....$ qH.@.....
4000000000075220 03 00 00 00 01 00 20 01 48 20 00 E0 01 90 00 84 ...... .H ......
4000000000075230 08 00 00 00 01 00 00 00 00 02 00 00 00 00 04 00 ................
4000000000075240 00 00 00 00 01 00 E0 00 44 2C 00 E0 01 78 40 00 ........D,...x@.
4000000000075250 19 30 48 22 87 30 00 00 00 02 80 03 B0 08 00 41 .0H".0.........A
4000000000075260 08 38 38 00 E1 18 80 78 00 C2 31 00 00 00 04 00 .88....x..1.....
4000000000075270 0B 70 04 44 00 14 70 00 38 0C 73 00 00 00 04 00 .p.D..p.8.s.....
4000000000075280 1C 00 00 00 01 00 60 40 18 0E 74 03 A0 FE FF 4A ......`@..t....J
4000000000075290 09 00 50 20 80 11 00 61 04 72 48 C0 81 08 E4 90 ..P ...a.rH.....
40000000000752A0 08 00 00 00 01 00 00 30 40 10 33 00 62 00 00 90 .......0@.3.b...
40000000000752B0 0A 78 00 1C 10 10 00 80 38 20 23 C0 41 08 E4 90 .x......8 #.A...
40000000000752C0 0A 00 00 00 01 00 00 78 38 20 23 00 00 00 04 00 .......x8 #.....
40000000000752D0 10 00 90 46 98 11 00 00 00 02 00 00 A0 FC FF 48 ...F...........H
40000000000752E0 08 00 00 00 01 00 E0 28 00 00 48 00 00 00 04 00 .......(..H.....
40000000000752F0 09 00 00 4C 98 11 00 48 9D 20 23 00 00 00 04 00 ...L...H. #.....
4000000000075300 10 00 38 40 90 11 00 00 00 02 00 00 60 FC FF 48 ..8@........`..H
4000000000075310 08 70 FC F9 FF 27 F0 80 30 00 42 00 00 00 04 00 .p...'..0.B.....
4000000000075320 29 F2 01 5A 00 61 F4 03 00 00 C2 08 08 00 00 84 )..Z.a..........
4000000000075330 11 00 38 1E 98 51 14 04 3C 00 C2 08 98 CA 04 53 ..8..Q..<......S
4000000000075340 11 F2 01 44 00 21 00 00 00 02 00 08 88 DC FE 5A ...D.!.........Z
4000000000075350 11 08 00 76 00 21 60 00 20 0E 72 03 30 00 00 43 ...v.!`. .r.0..C
4000000000075360 0B 70 00 10 00 10 00 00 00 02 00 C0 01 70 50 00 .p...........pP.
4000000000075370 10 00 00 00 01 00 60 00 38 0E F3 03 40 03 00 43 ......`.8...@..C
4000000000075380 08 70 00 42 00 21 00 00 00 02 00 E0 01 09 01 84 .p.B.!..........
4000000000075390 09 40 00 00 00 21 00 00 00 02 00 20 84 09 01 84 .@...!..... ....
40000000000753A0 08 40 B4 1C 98 15 00 10 3D 30 23 00 00 00 04 00 .@......=0#.....
40000000000753B0 0A 78 40 18 00 21 00 40 38 30 23 00 00 00 04 00 .x@..!.@80#.....
40000000000753C0 0A 70 00 1E 18 10 00 70 84 30 23 00 00 00 04 00 .p.....p.0#.....
40000000000753D0 08 00 00 00 01 00 00 40 98 30 23 00 00 00 04 00 .......@.0#.....
40000000000753E0 18 48 01 40 10 10 00 00 00 02 00 00 60 FB FF 48 .H.@........`..H
40000000000753F0 08 F0 01 48 00 21 F0 03 00 00 42 00 00 00 04 00 ...H.!....B.....
4000000000075400 19 00 02 00 00 21 80 EB 02 00 48 00 48 2D 01 50 .....!....H.H-.P
4000000000075410 01 00 00 00 01 00 80 00 20 2C 00 20 00 D8 01 84 ........ ,. ....
4000000000075420 09 70 90 10 00 20 00 00 00 02 00 80 44 42 04 80 .p... ......DB..
4000000000075430 0B 70 00 1C 00 10 00 00 00 02 00 C0 01 70 50 00 .p...........pP.
4000000000075440 11 38 74 1D 86 39 00 00 00 02 00 03 90 0B 00 41 .8t..9.........A
4000000000075450 10 48 01 48 00 10 00 00 00 02 00 00 F0 F6 FF 48 .H.H...........H
4000000000075460 08 70 00 42 00 21 F0 F8 F3 FF 4F 20 82 09 01 84 .p.B.!....O ....
4000000000075470 0A 80 20 42 00 21 00 01 38 30 2B 00 00 00 04 00 .. B.!..80+.....
4000000000075480 0A 00 3C 22 98 11 00 00 38 30 23 00 00 00 04 00 ..<"....80#.....
4000000000075490 19 00 3C 20 98 11 00 00 00 02 00 00 58 53 FA 58 ..< ........XS.X
40000000000754A0 10 00 00 00 01 00 10 00 EC 00 42 00 20 F7 FF 48 ..........B. ..H
40000000000754B0 08 78 18 00 E1 10 00 00 00 02 00 C0 00 98 1C E6 .x..............
40000000000754C0 19 98 04 00 00 24 00 00 00 02 80 03 60 0B 00 41 .....$......`..A
40000000000754D0 09 88 18 00 E1 10 60 00 00 C2 31 00 00 00 04 00 ......`...1.....
40000000000754E0 09 00 00 00 01 00 E0 F0 3F 7E 46 00 00 00 04 00 ........?~F.....
40000000000754F0 11 38 F8 1C 06 35 00 00 00 02 80 03 00 0B 00 41 .8...5.........A
4000000000075500 09 00 00 00 01 00 E0 08 88 00 28 00 00 00 04 00 ..........(.....
4000000000075510 10 00 00 00 01 00 70 00 38 0C 73 03 10 FC FF 4A ......p.8.s....J
4000000000075520 11 00 00 00 01 00 00 00 00 02 00 00 70 FD FF 48 ............p..H
4000000000075530 09 00 00 00 01 00 60 00 3A 0E 73 00 00 00 04 00 ......`.:.s.....
4000000000075540 D1 90 F8 00 00 A4 F1 F0 01 00 48 03 00 FD FF 4B ..........H....K
4000000000075550 0B 30 7C 1D 87 F9 21 01 38 00 42 E3 F1 03 00 90 .0|...!.8.B.....
4000000000075560 F0 78 00 24 00 A1 21 F9 01 00 48 00 E0 FC FF 48 .x.$..!...H....H
4000000000075570 09 00 00 00 01 00 E0 03 C4 30 20 00 00 00 04 00 .........0 .....
4000000000075580 11 30 00 7C 07 39 00 00 00 02 00 03 30 00 00 43 .0.|.9......0..C
4000000000075590 11 00 00 00 01 00 00 00 00 02 00 00 58 52 FA 58 ............XR.X
40000000000755A0 08 08 00 76 00 21 00 00 00 02 00 00 00 00 04 00 ...v.!..........
40000000000755B0 08 70 00 42 00 21 F0 C0 84 00 42 00 02 09 01 84 .p.B.!....B.....
40000000000755C0 09 00 A4 40 90 11 00 60 9D 20 23 E0 00 80 19 E6 ...@...`. #.....
40000000000755D0 09 40 DC 1C 98 15 00 90 3D 30 23 E0 01 08 01 84 .@......=0#.....
40000000000755E0 08 00 D0 1C 98 11 00 00 00 02 00 C0 C1 EF 77 9D ..............w.
40000000000755F0 09 00 CC 20 98 11 00 41 3C 30 28 00 00 00 04 00 ... ...A<0(.....
4000000000075600 08 00 00 00 01 00 00 58 8D 30 23 00 00 00 04 00 .......X.0#.....
4000000000075610 0A 00 D8 50 98 11 00 A8 99 30 23 00 00 00 04 00 ...P.....0#.....
4000000000075620 0A 00 B4 54 98 11 80 80 38 30 2B 00 00 00 04 00 ...T....80+.....
4000000000075630 09 80 20 1E 18 14 00 80 95 20 23 00 00 00 04 00 .. ...... #.....
4000000000075640 09 40 40 1C 98 15 00 41 3C 30 28 00 00 00 04 00 .@@....A<0(.....
4000000000075650 09 40 40 1C 98 15 F0 00 3C 30 20 00 00 00 04 00 .@@.....<0 .....
4000000000075660 10 00 3C 1C 98 11 00 00 00 02 80 03 60 F7 FF 4A ..<.........`..J
4000000000075670 10 00 00 00 01 00 00 00 00 02 00 00 B0 F8 FF 48 ...............H
4000000000075680 09 00 21 02 39 24 10 0A 00 00 48 E0 41 08 E4 90 ..!.9$....H.A...
4000000000075690 09 70 00 40 10 10 00 08 81 20 23 00 00 00 04 00 .p.@..... #.....
40000000000756A0 10 00 38 1E 90 11 00 00 00 02 00 00 E0 F9 FF 48 ..8............H
40000000000756B0 11 F0 01 10 00 21 00 00 00 02 00 00 18 EB FF 58 .....!.........X
40000000000756C0 08 70 00 42 00 21 00 00 00 02 00 E0 01 09 01 84 .p.B.!..........
40000000000756D0 09 08 61 42 00 21 00 00 00 02 00 20 00 D8 01 84 ..aB.!..... ....
40000000000756E0 09 40 B4 1C 98 15 00 10 3D 30 23 E0 01 61 00 84 .@......=0#..a..
40000000000756F0 09 00 20 1C 98 11 E0 00 3C 30 20 00 00 00 04 00 .. .....<0 .....
4000000000075700 10 00 38 42 98 11 00 00 00 02 00 00 D0 FC FF 48 ..8B...........H
4000000000075710 09 70 04 42 00 21 60 00 00 C2 31 00 00 00 04 00 .p.B.!`...1.....
4000000000075720 09 00 00 00 01 00 E0 00 38 00 20 00 00 00 04 00 ........8. .....
4000000000075730 02 00 00 00 01 00 E0 00 38 28 00 E0 01 70 50 00 ........8(...pP.
4000000000075740 19 30 00 1C 87 39 00 00 00 02 00 03 B0 01 00 43 .0...9.........C
4000000000075750 0B 78 7C 1F 2C 22 60 C0 3E 0E 73 00 00 00 04 00 .x|.,"`.>.s.....
4000000000075760 C8 70 08 42 00 E1 21 0A 88 00 C2 63 12 00 00 90 .p.B..!....c....
4000000000075770 EA 88 20 00 00 A4 E1 00 38 00 20 43 34 08 01 84 .. .....8. C4...
4000000000075780 C9 98 04 00 00 24 00 00 00 02 00 23 02 01 00 90 .....$.....#....
4000000000075790 03 00 00 00 01 80 E1 00 38 28 00 C0 01 70 40 00 ........8(...p@.
40000000000757A0 10 00 00 00 01 00 60 00 38 0E F3 03 80 F9 FF 4A ......`.8......J
40000000000757B0 10 00 00 00 01 00 00 00 00 02 00 00 E0 FA FF 48 ...............H
40000000000757C0 09 00 21 02 39 24 10 12 00 00 48 E0 41 08 E4 90 ..!.9$....H.A...
40000000000757D0 09 70 00 40 10 10 00 08 81 20 23 00 00 00 04 00 .p.@..... #.....
40000000000757E0 10 00 38 1E 90 11 00 00 00 02 00 00 A0 F8 FF 48 ..8............H
40000000000757F0 11 F8 01 00 00 21 00 04 00 00 42 00 58 B6 04 50 .....!....B.X..P
4000000000075800 08 08 00 76 00 21 00 00 00 02 00 E0 11 00 00 90 ...v.!..........
4000000000075810 03 00 01 10 00 21 E0 03 20 00 42 C0 41 0D 18 91 .....!.. .B.A...
4000000000075820 09 00 00 00 01 00 00 00 00 02 00 00 00 00 04 00 ................
4000000000075830 11 00 3C 1C 90 11 00 00 00 02 00 00 58 C3 FF 58 ..<.........X..X
4000000000075840 08 30 00 40 07 39 00 00 00 02 00 C0 07 00 01 84 .0.@.9..........
4000000000075850 19 08 00 76 00 21 00 00 00 02 00 03 60 F6 FF 4B ...v.!......`..K
4000000000075860 11 00 00 00 01 00 00 00 00 02 00 00 88 4F FA 58 .............O.X
4000000000075870 10 00 00 00 01 00 10 00 EC 00 42 00 40 F6 FF 48 ..........B.@..H
4000000000075880 10 00 00 00 01 00 E0 0B 00 00 48 00 48 EC 03 50 ..........H.H..P
4000000000075890 0B 30 F0 40 87 B9 41 09 00 00 48 00 00 00 04 00 .0.@..A...H.....
40000000000758A0 EB A0 00 00 00 21 E0 A0 38 18 40 00 00 00 04 00 .....!..8.@.....
40000000000758B0 10 00 00 00 01 00 60 00 38 0E 73 03 90 00 00 42 ......`.8.s....B
40000000000758C0 09 00 21 02 39 24 10 1A 00 00 48 E0 41 08 E4 90 ..!.9$....H.A...
40000000000758D0 09 70 00 40 10 10 00 08 81 20 23 00 00 00 04 00 .p.@..... #.....
40000000000758E0 10 00 38 1E 90 11 00 00 00 02 00 00 A0 F7 FF 48 ..8............H
40000000000758F0 08 30 00 00 E1 18 00 A0 40 00 23 00 C2 08 E4 90 .0......@.#.....
4000000000075900 09 00 00 00 01 00 E0 40 04 72 48 00 00 00 04 00 .......@.rH.....
4000000000075910 0B 78 00 1C 10 10 00 30 40 10 33 00 62 00 00 90 .x.....0@.3.b...
4000000000075920 09 00 40 1C 90 11 00 00 00 02 00 C0 41 08 E4 90 ..@.........A...
4000000000075930 10 00 3C 1C 90 11 00 00 00 02 00 00 A0 F9 FF 48 ..<............H
4000000000075940 0B 30 F0 20 87 B9 E1 08 00 00 48 00 00 00 04 00 .0. ......H.....
4000000000075950 EB 70 00 00 00 21 40 71 50 18 40 00 00 00 04 00 .p...!@qP.@.....
4000000000075960 10 00 00 00 01 00 60 00 50 0E 73 03 60 00 00 42 ......`.P.s.`..B
4000000000075970 09 70 00 48 00 10 00 42 04 72 48 E0 41 08 E4 90 .p.H...B.rH.A...
4000000000075980 01 00 00 00 01 00 E0 00 38 28 00 00 00 00 04 00 ........8(......
4000000000075990 11 30 F4 1C 87 39 00 00 00 02 00 03 B0 00 00 43 .0...9.........C
40000000000759A0 02 70 00 40 10 10 10 4A 00 00 48 00 00 00 04 00 .p.@...J..H.....
40000000000759B0 18 00 84 40 90 11 00 70 3C 20 23 00 D0 F6 FF 48 ...@...p< #....H
40000000000759C0 0B 30 F8 20 87 B9 E1 08 00 00 48 00 00 00 04 00 .0. ......H.....
40000000000759D0 EB 70 00 00 00 21 30 71 4C 18 40 00 00 00 04 00 .p...!0qL.@.....
40000000000759E0 10 00 00 00 01 00 60 00 4C 0E 73 03 B0 00 00 42 ......`.L.s....B
40000000000759F0 09 70 00 48 00 10 00 42 04 72 48 E0 41 08 E4 90 .p.H...B.rH.A...
4000000000075A00 01 00 00 00 01 00 E0 00 38 28 00 00 00 00 04 00 ........8(......
4000000000075A10 11 30 F4 1C 87 39 00 00 00 02 00 03 90 05 00 43 .0...9.........C
4000000000075A20 02 70 00 40 10 10 10 52 00 00 48 00 00 00 04 00 .p.@...R..H.....
4000000000075A30 18 00 84 40 90 11 00 70 3C 20 23 00 50 F6 FF 48 ...@...p< #.P..H
4000000000075A40 08 70 70 02 39 24 00 00 00 02 00 E0 91 00 00 90 .pp.9$..........
4000000000075A50 09 20 0D 42 00 21 00 00 00 02 00 20 B4 00 00 90 . .B.!..... ....
4000000000075A60 08 00 3C 1C 90 11 E0 00 80 20 20 00 00 00 04 00 ..<......  .....
4000000000075A70 09 78 10 02 39 24 00 08 81 20 23 00 00 00 04 00 .x..9$... #.....
4000000000075A80 10 00 38 1E 90 11 00 00 00 02 00 00 00 F6 FF 48 ..8............H
4000000000075A90 09 30 98 20 87 39 00 00 00 02 00 00 61 02 25 E6 .0. .9......a.%.
4000000000075AA0 C9 98 04 00 00 24 00 00 00 02 00 C4 11 00 00 90 .....$..........
4000000000075AB0 E3 98 00 00 00 61 E2 00 00 00 42 C0 E1 98 30 80 .....a....B...0.
4000000000075AC0 10 00 00 00 01 00 60 00 38 0E 73 03 70 00 00 42 ......`.8.s.p..B
4000000000075AD0 09 00 21 02 39 24 10 3A 00 00 48 E0 41 08 E4 90 ..!.9$.:..H.A...
4000000000075AE0 09 70 00 40 10 10 00 08 81 20 23 00 00 00 04 00 .p.@..... #.....
4000000000075AF0 10 00 38 1E 90 11 00 00 00 02 00 00 90 F5 FF 48 ..8............H
4000000000075B00 09 F8 31 02 07 24 00 2C 00 00 48 C0 07 00 00 84 ..1..$.,..H.....
4000000000075B10 11 F8 01 7E 18 10 00 00 00 02 00 00 58 50 FA 58 ...~........XP.X
4000000000075B20 10 08 00 76 00 21 E0 03 20 00 42 00 E8 C2 FF 58 ...v.!.. .B....X
4000000000075B30 09 30 F0 21 87 39 00 00 00 02 00 00 C1 07 25 E6 .0.!.9........%.
4000000000075B40 C9 98 04 00 00 24 00 00 00 02 00 C4 11 00 00 90 .....$..........
4000000000075B50 E3 98 00 00 00 61 E2 00 00 00 42 C0 E1 98 30 80 .....a....B...0.
4000000000075B60 11 00 00 00 01 00 60 00 38 0E F3 03 80 00 00 42 ......`.8......B
4000000000075B70 09 30 A8 20 87 39 00 00 00 02 00 00 A1 02 25 E6 .0. .9........%.
4000000000075B80 C9 98 04 00 00 24 00 00 00 02 00 C4 11 00 00 90 .....$..........
4000000000075B90 E3 98 00 00 00 61 E2 00 00 00 42 C0 E1 98 30 80 .....a....B...0.
4000000000075BA0 10 00 00 00 01 00 60 00 38 0E 73 03 70 00 00 42 ......`.8.s.p..B
4000000000075BB0 09 00 21 02 39 24 10 6A 00 00 48 E0 41 08 E4 90 ..!.9$.j..H.A...
4000000000075BC0 09 70 00 40 10 10 00 08 81 20 23 00 00 00 04 00 .p.@..... #.....
4000000000075BD0 10 00 38 1E 90 11 00 00 00 02 00 00 B0 F4 FF 48 ..8............H
4000000000075BE0 09 00 21 02 39 24 10 42 00 00 48 E0 41 08 E4 90 ..!.9$.B..H.A...
4000000000075BF0 09 70 00 40 10 10 00 08 81 20 23 00 00 00 04 00 .p.@..... #.....
4000000000075C00 10 00 38 1E 90 11 00 00 00 02 00 00 80 F4 FF 48 ..8............H
4000000000075C10 0B 40 B4 40 89 39 62 04 00 00 F0 E4 08 00 00 E0 .@.@.9b.........
4000000000075C20 11 00 00 00 01 00 60 58 81 8E F3 03 20 00 00 42 ......`X.... ..B
4000000000075C30 11 00 00 00 01 00 70 00 41 0C F1 03 70 00 00 43 ......p.A...p..C
4000000000075C40 10 08 01 40 00 21 60 00 44 0E F3 03 C0 02 00 43 ...@.!`.D......C
4000000000075C50 11 F0 01 40 00 21 00 00 00 02 00 00 58 6B FA 58 ...@.!......Xk.X
4000000000075C60 11 08 00 76 00 21 60 00 20 0E 73 03 F0 01 00 42 ...v.!`. .s....B
4000000000075C70 09 00 21 02 39 24 F0 20 04 72 48 80 04 10 01 84 ..!.9$. .rH.....
4000000000075C80 09 70 00 40 10 10 00 08 81 20 23 00 00 00 04 00 .p.@..... #.....
4000000000075C90 10 00 38 1E 90 11 00 00 00 02 00 00 F0 F3 FF 48 ..8............H
4000000000075CA0 0B 00 21 02 39 24 E0 00 80 20 20 00 00 00 04 00 ..!.9$...  .....
4000000000075CB0 11 38 14 1C 86 39 00 00 00 02 80 03 70 01 00 43 .8...9......p..C
4000000000075CC0 0B 88 00 48 00 10 00 00 00 02 00 20 02 88 50 00 ...H....... ..P.
4000000000075CD0 11 38 00 22 86 39 00 00 00 02 80 03 00 01 00 43 .8.".9.........C
4000000000075CE0 C2 98 FC 49 2D 22 00 00 00 02 00 03 30 09 AA 00 ...I-"......0...
4000000000075CF0 09 00 00 00 01 00 60 00 45 0E 73 00 00 00 04 00 ......`.E.s.....
4000000000075D00 11 00 00 00 01 00 60 48 44 8E 73 03 20 00 00 42 ......`HD.s. ..B
4000000000075D10 10 00 00 00 01 00 60 50 44 0E F3 03 20 00 00 43 ......`PD... ..C
4000000000075D20 11 00 00 00 01 00 20 09 48 00 42 A0 90 00 00 40 ...... .H.B....@
4000000000075D30 0B 88 00 24 00 10 00 00 00 02 00 20 02 88 50 00 ...$....... ..P.
4000000000075D40 03 00 00 00 01 00 20 01 44 20 00 E0 21 79 40 80 ...... .D ..!y@.
4000000000075D50 09 00 00 00 01 00 F0 00 3C 10 20 00 00 00 04 00 ........<. .....
4000000000075D60 11 00 00 00 01 00 70 A0 3C 0C 28 03 90 00 00 42 ......p.<.(....B
4000000000075D70 10 00 00 00 01 00 60 F8 46 0E 73 03 80 00 00 43 ......`.F.s....C
4000000000075D80 09 08 01 20 00 21 F0 20 04 72 48 80 04 10 01 84 ... .!. .rH.....
4000000000075D90 08 00 00 00 01 00 00 08 81 20 23 00 00 00 04 00 ......... #.....
4000000000075DA0 18 00 38 1E 90 11 00 00 00 02 00 00 E0 F2 FF 48 ..8............H
4000000000075DB0 0B 88 00 24 00 10 00 00 00 02 00 20 02 88 50 00 ...$....... ..P.
4000000000075DC0 10 00 00 00 01 00 70 00 44 0C 73 03 30 FF FF 4A ......p.D.s.0..J
4000000000075DD0 09 00 00 00 01 00 F0 00 3C 10 20 00 00 00 04 00 ........<. .....
4000000000075DE0 11 00 00 00 01 00 70 A0 3C 0C A8 03 A0 FF FF 4A ......p.<......J
4000000000075DF0 02 30 B4 20 87 39 F0 20 04 72 48 23 F4 00 00 90 .0. .9. .rH#....
4000000000075E00 0B 00 38 1E 90 D1 11 72 00 00 48 00 00 00 04 00 ..8....r..H.....
4000000000075E10 10 00 84 40 90 11 00 00 00 02 00 00 70 F2 FF 48 ...@........p..H
4000000000075E20 09 09 45 00 00 24 00 00 00 02 00 E0 41 08 E4 90 ..E..$......A...
4000000000075E30 29 09 41 00 00 24 00 70 3C 20 23 00 00 00 04 00 ).A..$.p< #.....
4000000000075E40 10 00 84 40 90 11 00 00 00 02 00 00 40 F2 FF 48 ...@........@..H
4000000000075E50 0B 70 20 02 39 24 00 02 38 20 20 00 00 00 04 00 .p .9$..8  .....
4000000000075E60 11 30 00 40 87 39 E0 03 80 00 42 03 70 00 00 41 .0.@.9....B.p..A
4000000000075E70 11 00 00 00 01 00 00 00 00 02 00 00 38 69 FA 58 ............8i.X
4000000000075E80 11 38 00 10 86 39 10 00 EC 00 42 03 50 00 00 41 .8...9....B.P..A
4000000000075E90 10 00 00 00 01 00 60 88 80 0E 6B 03 E0 00 00 42 ......`...k....B
4000000000075EA0 01 78 04 00 00 24 00 02 80 2C 00 C0 E1 61 FC 97 .x...$...,...a..
4000000000075EB0 03 00 00 00 01 00 F0 78 80 90 3C C0 E1 78 30 80 .......x..<..x0.
4000000000075EC0 10 00 00 00 01 00 70 00 38 0C F2 03 B0 00 00 42 ......p.8......B
4000000000075ED0 09 F8 B1 02 06 24 00 2C 00 00 48 C0 07 00 00 84 .....$.,..H.....
4000000000075EE0 11 F8 01 7E 18 10 00 00 00 02 00 00 88 4C FA 58 ...~.........L.X
4000000000075EF0 11 08 00 76 00 21 E0 03 20 00 42 00 18 BF FF 58 ...v.!.. .B....X
4000000000075F00 09 F0 51 02 07 24 00 00 00 02 00 E0 07 00 01 84 ..Q..$..........
4000000000075F10 11 F0 01 7C 18 10 00 00 00 02 00 00 B8 16 0C 50 ...|...........P
4000000000075F20 11 08 00 76 00 21 60 00 20 0E 72 03 30 FD FF 4B ...v.!`. .r.0..K
4000000000075F30 09 70 70 02 39 24 00 42 04 72 48 E0 41 08 E4 90 .pp.9$.B.rH.A...
4000000000075F40 09 00 84 1C 90 11 E0 00 80 20 20 20 B4 00 00 90 .........   ....
4000000000075F50 08 00 00 00 01 00 00 08 81 20 23 00 00 00 04 00 ......... #.....
4000000000075F60 18 00 38 1E 90 11 00 00 00 02 00 00 20 F1 FF 48 ..8......... ..H
4000000000075F70 09 F8 71 02 07 24 00 2C 00 00 48 C0 07 00 00 84 ..q..$.,..H.....
4000000000075F80 11 F8 01 7E 18 10 00 00 00 02 00 00 E8 4B FA 58 ...~.........K.X
4000000000075F90 11 08 00 76 00 21 E0 03 20 00 42 00 78 BE FF 58 ...v.!.. .B.x..X
4000000000075FA0 08 70 70 02 39 24 F0 50 00 00 48 80 34 08 01 84 .pp.9$.P..H.4...
4000000000075FB0 0A 08 2D 00 00 24 00 78 38 20 23 00 00 00 04 00 ..-..$.x8 #.....
4000000000075FC0 19 70 00 40 10 10 00 00 00 02 00 00 B0 FA FF 48 .p.@...........H
4000000000075FD0 0B 70 50 03 2F 24 00 00 00 02 00 00 00 00 04 00 .pP./$..........
4000000000075FE0 11 F0 01 1C 18 10 00 00 00 02 00 00 28 BE FF 58 ............(..X
4000000000075FF0 09 F8 11 02 07 24 00 2C 00 00 48 C0 07 00 00 84 .....$.,..H.....
4000000000076000 11 F8 01 7E 18 10 00 00 00 02 00 00 68 4B FA 58 ...~........hK.X
4000000000076010 11 08 00 76 00 21 E0 03 20 00 42 00 F8 BD FF 58 ...v.!.. .B....X
4000000000076020 09 F8 F1 03 06 24 00 2C 00 00 48 C0 07 00 00 84 .....$.,..H.....
4000000000076030 11 F8 01 7E 18 10 00 00 00 02 00 00 38 4B FA 58 ...~........8K.X
4000000000076040 11 08 00 76 00 21 E0 03 20 00 42 00 C8 BD FF 58 ...v.!.. .B....X
4000000000076050 0D 00 00 00 01 00 00 00 00 00 00 00 00 00 04 00 ................
4000000000076060 08 00 00 00 01 00 00 00 00 02 00 00 00 00 04 00 ................
4000000000076070 08 00 00 00 01 00 00 00 00 02 00 00 00 00 04 00 ................

;; evalexp: 4000000000076080
evalexp proc
	{ alloc	r36,ar.pfs,0x8,0x0,0x5; adds	r16,0x8,r12; nop.i	0x0 }
	{ adds	r12,0xFFFFFFFFFFFFFD20,r12; addl	r14,7252,r1; addl	r34,14196,r1; }
	{ st8.spill	[r1],r16; nop.m	0x0; adds	r15,0x2D0,r12 }
	{ st4	[r0],r14; adds	r14,0x2D8,r12; adds	r37,0x10,r12; }
	{ nop.m	0x0; mov	r35,b3; adds	r38,0x0,r34 }
	{ addl	r39,704,r0; st8	[r32],r14; nop.b	0x0; }
	{ st8	[r33],r15; nop.i	0x0; br.call.sptk.many	b0,400000000001A8A0; }
	{ adds	r1,0x2E8,r12; adds	r37,0x0,r34; addl	r38,1,r0; }
	{ ld8	r1,[r1]; nop.i	0x0; br.call.sptk.many	b0,400000000001BD60; }
	{ adds	r1,0x2E8,r12; nop.m	0x0; cmp4.eq	p06,p07,0x0,r8; }
	{ ld8	r1,[r1]; nop.i	0x0; (p06) br.cond.dpnt.few	4000000000076260; }

l4000000000076130:
	{ addl	r14,7260,r1; ld8	r37,[r14]; nop.i	0x0; }
	{ cmp.eq	p06,p07,0x0,r37; nop.i	0x0; (p06) br.cond.dpnt.few	4000000000076180; }

l4000000000076150:
	{ nop.m	0x0; nop.i	0x0; br.call.sptk.many	b0,400000000001A7E0; }
	{ nop.m	0x0; adds	r1,0x2E8,r12; nop.i	0x0; }
	{ ld8	r1,[r1]; nop.m	0x0; nop.i	0x0; }

l4000000000076180:
	{ addl	r14,7268,r1; ld8	r37,[r14]; nop.i	0x0; }
	{ cmp.eq	p06,p07,0x0,r37; nop.i	0x0; (p06) br.cond.dpnt.few	40000000000761D0; }

l40000000000761A0:
	{ nop.m	0x0; nop.i	0x0; br.call.sptk.many	b0,400000000001A7E0; }
	{ nop.m	0x0; adds	r1,0x2E8,r12; nop.i	0x0; }
	{ ld8	r1,[r1]; nop.m	0x0; nop.i	0x0; }

l40000000000761D0:
	{ addl	r14,7268,r1; st8	[r0],r14; addl	r14,7260,r1; }
	{ st8	[r0],r14; nop.i	0x0; br.call.sptk.many	b0,4000000000071C80; }
	{ adds	r14,0x2D0,r12; nop.m	0x0; adds	r1,0x2E8,r12; }
	{ ld8	r14,[r14]; ld8	r1,[r1]; nop.i	0x0; }
	{ nop.m	0x0; cmp.eq	p06,p07,0x0,r14; nop.i	0x0; }
	{ (p06) adds	r34,0x0,r0; nop.i	0x0; (p06) br.cond.dpnt.few	4000000000076240; }

l4000000000076226:
	{ chk.a.nc	r0,3FFFFFFFFF076A26; nop; break.i	0x80000 }
	{ mf.a; Invalid; nop }
	{ break.m	0xAA024; nop; break.i	0x80000 }
	{ Invalid; (p34) nop; break.i	0x80000 }

l4000000000076260:
	{ nop.m	0x0; adds	r14,0x2D8,r12; nop.i	0x0; }
	{ ld8	r37,[r14]; nop.i	0x0; br.call.sptk.many	b0,40000000000741C0; }
	{ adds	r15,0x2D0,r12; adds	r1,0x2E8,r12; nop.i	0x0 }
	{ adds	r34,0x0,r8; adds	r38,0x10,r12; addl	r39,704,r0; }
	{ ld8	r15,[r15]; ld8	r1,[r1]; nop.i	0x0; }
	{ cmp.eq	p06,p07,0x0,r15; nop.m	0x0; addl	r37,14196,r1; }
	{ (p07) addl	r14,1,r0; nop.m	0x0; nop.i	0x0; }

l40000000000762C6:
	{ break.m	0x4000; cmp4.eq	p00,p00,r0,r1; (p01) nop }

l40000000000762D6:
	{ break.m	0x4000; (p32) nop; (p16) nop }

l40000000000762E2:
	{ (p13) break.m	0x420A3; mov	pr,0x20; (p32) break.i	0x142008 }

l40000000000762E8:
	{ (p16) cmpxchg1.acq	r0,[r0],r0; Invalid; (p04) nop }

l40000000000762EE:
	{ (p32) break.m	0x110050; (p32) mov	pr,0x2000101; (p42) mov	pr,0x9800002; }

l40000000000762F4:
	{ ld1.c.clr	r2,[r16],128; (p01) rum	0x30000; (p14) break.b	0xC8 }

l4000000000076300:
	{ nop.m	0x0; adds	r12,0x2E0,r12; br.ret	b0; }
4000000000076310 00 30 00 00 01 00 70 00 00 02 00 00 01 00 04 00 .0....p.........
4000000000076320 00 30 00 00 01 00 70 00 00 02 00 00 01 00 04 00 .0....p.........
4000000000076330 00 30 00 00 01 00 70 00 00 02 00 00 01 00 04 00 .0....p.........

;; find_flag: 4000000000076340
find_flag proc
	{ cmp4.eq	p06,p07,0x61,r32; adds	r16,0x0,r0; (p06) br.cond.dpnt.few	4000000000076410; }

l4000000000076350:
	{ nop.m	0x0; (p07) addl	r14,5812,r1; nop.i	0x0; }

l400000000007635C:
	{ cmp4.eq.and	p00,p41,r1,r0; Invalid; break.i	0x1000 }
	{ nop; break.i	0x1000; break.i	0x1000 }
	{ cmp.eq	p00,p09,r1,r0; Invalid; (p18) cmp.lt	p00,p16,r4,r64 }
	{ (p08) nop.m	0x800E; cmp.eq	p00,p00,r32,r0; (p01) break.i	0x141E0; }
	{ cmp.eq	p00,p17,r1,r0; czx1.r	r96,r97; mov	pr,r32,0x0 }
	{ (p03) invala; cmp.eq	p00,p00,r32,r0; mov	pr,r67,0xE2D0 }
	{ (p62) cmp.lt.unc	p63,p09,r63,r37; Invalid; break.b	0x1000 }
	{ Invalid; cmp.lt	p00,p00,r32,r0; zxt1	r66,r64 }
	{ nop; break.i	0x1000; zxt1	r68,r4 }
	{ Invalid; Invalid; add	r0,r32,r0 }
	{ invala; break.m	0x1000; (p01) shladd	r0,r0,0x1,r64 }
	{ cmp.lt	p00,p09,r33,r0; (p01) invala.e	f57; break.i	0x1000 }

l4000000000076410:
	{ addl	r14,-25372,r1; nop.m	0x0; adds	r16,0x0,r0; }
	{ nop.m	0x0; sxt4	r16,r16; adds	r14,0x8,r14; }
	{ nop.m	0x0; shladd	r16,r16,0x4,r14; nop.i	0x0; }
	{ ld8	r8,[r16]; nop.i	0x0; br.ret	b0; }
4000000000076450 08 00 00 00 01 00 00 00 00 02 00 00 00 00 04 00 ................
4000000000076460 08 00 00 00 01 00 00 00 00 02 00 00 00 00 04 00 ................
4000000000076470 08 00 00 00 01 00 00 00 00 02 00 00 00 00 04 00 ................

;; change_flag: 4000000000076480
change_flag proc
	{ alloc	r36,ar.pfs,0x7,0x0,0x6; addl	r14,7352,r1; mov	r35,b3 }
	{ adds	r37,0x0,r1; ld4	r14,[r14]; nop.i	0x0; }
	{ nop.m	0x0; cmp4.eq	p07,p06,0x0,r14; (p07) br.cond.dptk.few	40000000000764D0; }

l40000000000764B0:
	{ nop.m	0x0; cmp4.eq	p06,p07,0x72,r32; nop.i	0x0; }
	{ nop.m	0x0; cmp4.ne.or.andcm	p07,p06,0x2B,r33; (p06) br.cond.dpnt.few	4000000000076620; }

l40000000000764D0:
	{ cmp4.eq	p06,p07,0x61,r32; nop.i	0x0; (p06) br.cond.dpnt.few	40000000000767D0; }

l40000000000764E0:
	{ (p07) addl	r14,5820,r1; nop.m	0x0; (p07) adds	r16,0x0,r0; }

l40000000000764E6:
	{ chk.a.nc	f0,3FFFFFFFFF076CE6; (p08) cmp4.eq.or	p00,p02,r0,r0; (p33) nop }

l40000000000764F2:
	{ (p32) break.m	0x20303; break.i	0x20; Invalid }

l40000000000764F8:
	{ (p16) break.m	0x0; Invalid; (p56) chk.s.i	r0,3FFFFFFFFF0774F8 }

l40000000000764FE:
	{ ldfe	f32,[r60],2; nop }
	{ (p32) break.m	0x30; (p04) pshr4.u	r0,r60,r0; (p16) break.i	0x1 }

l4000000000076514:
	{ nop; break.i	0x100000; nop; }
	{ Invalid; Invalid; Invalid }
	{ nop; (p04) nop; (p21) nop; }

l4000000000076540:
	{ addl	r14,-25372,r1; sxt4	r16,r16; adds	r32,0xFFFFFFFFFFFFFFB8,r32; }
	{ nop.m	0x0; adds	r14,0x8,r14; nop.i	0x0; }
	{ shladd	r16,r16,0x4,r14; ld8	r14,[r16]; nop.i	0x0; }
	{ cmp.eq	p06,p07,0x0,r14; nop.i	0x0; (p06) br.cond.spnt.few	4000000000076620; }

l4000000000076580:
	{ cmp4.eq	p07,p06,0x2B,r33; (p06) cmp.eq.unc	p08,p00,r0,r0; (p07) cmp.eq.unc	p09,p00,r0,r0; }

l400000000007658C:
	{ nop; (p17) flushrs; Invalid; }

l4000000000076598:
	{ Invalid; nop; (p05) mov	pr,0x101CC4A }
	{ (p01) break.m	0x404; (p16) break.m	0x9000; clrrrb }
	{ break.m	0x900; (p16) mov	pr,0x922000; tbit.z	p00,p32,r4,0x8 }
	{ (p20) nop; (p04) break.i	0x18840; break.i	0x100008; }
	{ Invalid; nop; (p54) break.b	0x13EEF; }
	{ (p16) sum	0x800000; Invalid; (p56) mov	pr,0x80C0 }
	{ (p33) break.m	0x804; (p16) nop; break.b	0x80C2; }
	{ (p01) break.m	0x800; (p16) break.m	0x11000; nop; }
	{ Invalid; break.x	0x8048040013FFF; }

l4000000000076620:
	{ addl	r34,-1,r0; nop.m	0x0; nop.i	0x0; }
	{ adds	r8,0x0,r34; nop.m	0x0; mov.i	ar.pfs,r36; }
	{ nop.m	0x0; mov.spnt	b0,r35,4000000000076640; br.ret	b0 }
4000000000076650 10 00 00 00 01 00 60 00 84 0E 73 03 E0 FF FF 4A ......`...s....J
4000000000076660 0B 70 30 02 33 24 00 00 00 02 00 00 00 00 04 00 .p0.3$..........
4000000000076670 09 00 00 00 01 00 E0 00 38 20 20 00 00 00 04 00 ........8  .....
4000000000076680 10 00 00 00 01 00 60 00 38 0E 73 03 B0 FF FF 4A ......`.8.s....J
4000000000076690 0B 70 30 03 32 24 00 00 00 02 00 00 00 00 04 00 .p0.2$..........
40000000000766A0 11 30 01 1C 18 10 00 00 00 02 00 00 68 C0 FA 58 .0..........h..X
40000000000766B0 09 40 00 44 00 21 10 00 94 00 42 00 40 02 AA 00 .@.D.!....B.@...
40000000000766C0 10 00 00 00 01 00 00 18 05 80 03 80 08 00 84 00 ................
40000000000766D0 11 00 00 00 01 00 00 00 00 02 00 03 60 FF FF 4A ............`..J
40000000000766E0 11 00 00 00 01 00 00 00 00 02 00 00 E8 C1 FA 58 ...............X
40000000000766F0 09 40 00 44 00 21 10 00 94 00 42 00 40 02 AA 00 .@.D.!....B.@...
4000000000076700 10 00 00 00 01 00 00 18 05 80 03 80 08 00 84 00 ................
4000000000076710 09 70 C0 03 32 24 80 00 88 00 42 00 40 02 AA 00 .p..2$....B.@...
4000000000076720 09 00 00 00 01 00 00 00 00 02 00 00 30 0A 00 07 ............0...
4000000000076730 0B 70 00 1C 10 10 60 00 38 0E 73 00 00 00 04 00 .p....`.8.s.....
4000000000076740 09 00 00 00 01 C0 E1 00 07 72 48 00 00 00 04 00 .........rH.....
4000000000076750 F1 00 00 1C 90 11 00 00 00 02 00 80 08 00 84 00 ................
4000000000076760 11 00 00 00 01 00 00 00 00 02 00 00 28 E9 00 50 ............(..P
4000000000076770 09 40 00 44 00 21 10 00 94 00 42 00 40 02 AA 00 .@.D.!....B.@...
4000000000076780 10 00 00 00 01 00 00 18 05 80 03 80 08 00 84 00 ................
4000000000076790 11 00 00 00 01 00 60 00 84 0E 73 03 A0 FE FF 4A ......`...s....J
40000000000767A0 11 00 00 00 01 00 00 00 00 02 00 00 28 11 05 50 ............(..P
40000000000767B0 09 40 00 44 00 21 10 00 94 00 42 00 40 02 AA 00 .@.D.!....B.@...
40000000000767C0 10 00 00 00 01 00 00 18 05 80 03 80 08 00 84 00 ................

l40000000000767D0:
	{ nop.m	0x0; adds	r16,0x0,r0; br.cond.sptk.few	4000000000076540; }
40000000000767E0 08 00 00 00 01 00 00 00 00 02 00 00 00 00 04 00 ................
40000000000767F0 08 00 00 00 01 00 00 00 00 02 00 00 00 00 04 00 ................

;; which_set_flags: 4000000000076800
which_set_flags proc
	{ alloc	r35,ar.pfs,0x6,0x0,0x5; addl	r32,8916,r1; nop.b	0x0 }
	{ addl	r33,8868,r1; adds	r36,0x0,r1; mov	r34,b2; }
	{ nop.m	0x0; nop.m	0x0; nop.i	0x0; }
	{ ld4	r14,[r32]; ld4	r15,[r33]; nop.i	0x0; }
	{ nop.m	0x0; sxt4	r37,r14; sxt4	r14,r15; }
	{ nop.m	0x0; add	r37,r37,r14; nop.i	0x0; }
	{ adds	r37,0x18,r37; nop.i	0x0; br.call.sptk.many	b0,xmalloc; }
	{ adds	r1,0x0,r36; adds	r20,0x0,r8; addl	r15,97,r0 }
	{ adds	r16,0x0,r0; addl	r14,5828,r1; nop.i	0x0; }
	{ ld8	r14,[r14]; nop.m	0x0; nop.i	0x0; }
	{ ld8	r18,[r14]; sxt4	r19,r16; adds	r14,0x10,r14; }
	{ add	r19,r20,r19; nop.m	0x0; adds	r17,0xFFFFFFFFFFFFFFF8,r14; }
	{ nop.m	0x0; ld4	r18,[r18]; nop.i	0x0; }
	{ cmp4.eq	p06,p07,0x0,r18; (p07) st1	[r15],r19; (p07) adds	r16,0x1,r16; }

l40000000000768DC:
	{ cmp.eq	p16,p11,r0,r66; (p01) rfi; Invalid }

l40000000000768E8:
	{ (p16) cmp.eq	p00,p01,r0,r112; (p01) break.i	0x10005; czx1.r	r8,r0 }

l40000000000768EE:
	{ (p02) break.m	0x200; (p04) pshr4.u	r0,r28,r0; Invalid }

l40000000000768F4:
	{ nop; (p12) nop; (p21) deposit	r66,r0,r14,55,0; }

l4000000000076900:
	{ ld4	r14,[r33]; adds	r8,0x0,r20; mov.i	ar.pfs,r35 }
	{ nop.m	0x0; sxt4	r15,r16; nop.b	0x0; }
	{ cmp4.eq	p06,p07,0x0,r14; add	r15,r20,r15; mov.spnt	b0,r34,4000000000076920; }
	{ (p07) addl	r14,99,r0; nop.m	0x0; (p07) adds	r16,0x1,r16; }

l4000000000076936:
	{ chk.a.nc	f0,3FFFFFFFFF077136; (p08) cmp4.eq.or	p01,p02,r16,r0; (p01) nop }

l4000000000076942:
	{ (p49) break.m	0x23003; Invalid; brp.sptk	4000000000076D82 }

l4000000000076948:
	{ (p16) nop.m	0xC0000; Invalid; nop }

l400000000007694E:
	{ (p02) break.m	0xE0060; (p01) ldfs.a	f1,[r60],-254; brp.sptk	400000000007694E }

l4000000000076954:
	{ flushrs; nop; (p12) nop }

l4000000000076964:
	{ Invalid; (p32) nop; nop }
	{ Invalid; break.i	0x100004; nop }
	{ (p12) break.m	0x100002; break.i	0x108800; (p01) break.i	0x40 }
	{ break.m	0x100000; break.i	0x100000; break.i	0x40; }
	{ break.m	0x100000; break.i	0x100000; break.i	0x40; }
	{ break.m	0x100000; break.i	0x100000; mov	pr,r0,0x4090; }

;; reset_shell_flags: 40000000000769C0
reset_shell_flags proc
	{ addl	r15,7400,r1; nop.m	0x0; addl	r14,1,r0; }
	{ st4	[r0],r15; nop.m	0x0; addl	r15,7404,r1; }
	{ st4	[r0],r15; nop.m	0x0; addl	r15,7412,r1; }
	{ st4	[r0],r15; nop.m	0x0; addl	r15,7388,r1; }
	{ st4	[r0],r15; nop.m	0x0; addl	r15,7392,r1; }
	{ st4	[r0],r15; nop.m	0x0; addl	r15,7396,r1; }
	{ st4	[r0],r15; nop.m	0x0; addl	r15,7376,r1; }
	{ st4	[r0],r15; nop.m	0x0; addl	r15,7380,r1; }
	{ st4	[r0],r15; nop.m	0x0; addl	r15,7384,r1; }
	{ st4	[r0],r15; nop.m	0x0; addl	r15,7364,r1; }
	{ st4	[r0],r15; nop.m	0x0; addl	r15,7368,r1; }
	{ st4	[r0],r15; nop.m	0x0; addl	r15,7372,r1; }
	{ st4	[r0],r15; nop.m	0x0; addl	r15,7332,r1; }
	{ st4	[r0],r15; nop.m	0x0; addl	r15,7344,r1; }
	{ st4	[r0],r15; nop.m	0x0; addl	r15,7356,r1; }
	{ st4	[r0],r15; nop.m	0x0; addl	r15,7360,r1; }
	{ st4	[r0],r15; nop.m	0x0; addl	r15,5856,r1; }
	{ st4	[r14],r15; nop.m	0x0; addl	r15,5864,r1; }
	{ st4	[r14],r15; nop.m	0x0; addl	r15,7408,r1; }
	{ st4	[r0],r15; nop.m	0x0; addl	r15,5860,r1; }
	{ st4	[r14],r15; nop.m	0x0; addl	r15,5852,r1; }
	{ st4	[r14],r15; nop.m	0x0; addl	r14,7352,r1; }
	{ st4	[r0],r14; nop.i	0x0; br.ret	b0; }
4000000000076B30 08 00 00 00 01 00 00 00 00 02 00 00 00 00 04 00 ................

;; initialize_flags: 4000000000076B40
initialize_flags proc
	{ addl	r14,5836,r1; addl	r15,97,r0; adds	r16,0x0,r0; }
	{ ld8	r17,[r14]; addl	r14,5844,r1; nop.i	0x0; }
	{ ld8	r14,[r14]; nop.m	0x0; nop.i	0x0; }
	{ nop.m	0x0; nop.m	0x0; nop.i	0x0 }

l4000000000076B80:
	{ adds	r14,0x10,r14; st1	[r17],r1,1; adds	r16,0x1,r16; }
	{ adds	r15,0xFFFFFFFFFFFFFFF0,r14; ld1	r15,[r15]; nop.i	0x0; }
	{ nop.m	0x0; sxt1	r15,r15; nop.i	0x0; }
	{ nop.m	0x0; cmp4.eq	p07,p06,0x0,r15; (p06) br.cond.dptk.few	4000000000076B80 }

l4000000000076BC0:
	{ adds	r17,0x1,r16; nop.m	0x0; adds	r15,0x2,r16 }
	{ addl	r14,-20708,r1; nop.m	0x0; adds	r16,0x3,r16; }
	{ nop.m	0x0; sxt4	r16,r16; sxt4	r17,r17; }
	{ nop.m	0x0; sxt4	r15,r15; add	r17,r14,r17; }
	{ add	r15,r14,r15; add	r14,r14,r16; addl	r16,111,r0; }
	{ st1	[r16],r17; addl	r16,59,r0; nop.i	0x0 }
	{ st1	[r16],r15; st1	[r0],r14; br.ret	b0; }
4000000000076C30 00 30 00 00 01 00 70 00 00 02 00 00 01 00 04 00 .0....p.........
4000000000076C40 08 70 F0 FA 5E 27 80 00 00 00 42 60 F2 07 04 90 .p..^'....B`....
4000000000076C50 0B 40 00 42 89 39 00 00 00 02 00 00 00 00 04 00 .@.B.9..........
4000000000076C60 0B 70 70 1C 00 21 40 01 38 20 20 C0 41 09 E8 90 .pp..!@.8  .A...
4000000000076C70 11 00 00 00 01 00 70 00 50 0C 63 03 D0 00 00 43 ......p.P.c....C
4000000000076C80 09 90 00 1C 18 10 00 00 00 02 00 00 00 00 04 00 ................
4000000000076C90 08 00 00 00 01 00 00 00 00 02 00 00 00 00 04 00 ................
4000000000076CA0 09 00 00 00 01 00 E0 40 48 30 28 00 00 00 04 00 .......@H0(.....
4000000000076CB0 11 30 00 1C 07 39 E0 40 38 00 42 03 70 00 00 43 .0...9.@8.B.p..C
4000000000076CC0 03 80 00 1C 18 10 00 00 00 02 00 C0 01 80 00 84 ................
4000000000076CD0 08 00 00 00 01 00 00 00 00 02 00 00 00 00 04 00 ................
4000000000076CE0 0B 78 20 1C 00 21 F0 00 3C 20 20 00 00 00 04 00 .x ..!..<  .....
4000000000076CF0 10 00 00 00 01 00 70 00 3D 0C F1 03 60 00 00 43 ......p.=...`..C
4000000000076D00 09 00 00 00 01 00 E0 00 38 30 20 00 00 00 04 00 ........80 .....
4000000000076D10 10 00 00 00 01 00 70 70 40 0C 70 03 D0 FF FF 4A ......pp@.p....J
4000000000076D20 09 00 00 00 01 00 80 08 20 00 42 00 00 00 04 00 ........ .B.....
4000000000076D30 10 00 00 00 01 00 70 A0 20 0C 71 03 70 FF FF 4A ......p. .q.p..J
4000000000076D40 10 00 00 00 01 00 80 F8 F3 FF 4F 80 08 00 84 00 ..........O.....
4000000000076D50 11 78 40 1C 00 21 10 61 38 00 42 04 50 00 00 43 .x@..!.a8.B.P..C
4000000000076D60 09 00 00 00 01 00 F0 00 3C 20 20 00 00 00 04 00 ........<  .....
4000000000076D70 11 30 04 1E 87 39 00 00 00 02 00 03 30 00 00 43 .0...9......0..C
4000000000076D80 0B 78 00 22 10 10 F0 98 3C 18 40 00 00 00 04 00 .x."....<.@.....
4000000000076D90 11 00 00 00 01 00 70 F8 3F 0C 73 03 70 FF FF 4A ......p.?.s.p..J
4000000000076DA0 09 00 00 00 01 00 60 00 88 0E 72 00 00 00 04 00 ......`...r.....
4000000000076DB0 F1 00 38 44 98 11 00 00 00 02 00 80 08 00 84 00 ..8D............
4000000000076DC0 08 20 25 0C 80 05 C0 80 33 7E 46 C0 41 08 E8 90 . %.....3~F.A...
4000000000076DD0 09 30 00 44 07 39 80 00 84 12 73 A0 04 08 00 84 .0.D.9....s.....
4000000000076DE0 18 78 00 1C 18 D0 E1 F8 F3 FF 4F 00 00 00 00 20 .x........O.... 
4000000000076DF0 09 88 FC 01 01 24 00 00 00 02 00 60 04 00 C4 00 .....$.....`....
4000000000076E00 E8 00 38 44 90 11 00 00 00 02 00 E0 00 78 18 E4 ..8D.........x..
4000000000076E10 19 40 00 1E 00 21 00 00 00 02 80 03 90 00 00 43 .@...!.........C
4000000000076E20 09 00 00 00 01 80 E1 80 30 00 42 00 00 00 04 00 ........0.B.....
4000000000076E30 C9 00 3C 1C 98 11 00 00 00 02 00 00 00 00 04 00 ..<.............
4000000000076E40 0B 70 20 10 00 21 E0 00 38 20 20 00 00 00 04 00 .p ..!..8  .....
4000000000076E50 11 38 80 1C 86 38 00 00 00 02 80 03 F0 00 00 43 .8...8.........C
4000000000076E60 09 00 00 00 01 00 80 00 20 30 20 00 00 00 04 00 ........ 0 .....
4000000000076E70 10 00 00 00 01 00 70 40 3C 0C 70 03 D0 FF FF 4A ......p@<.p....J
4000000000076E80 09 00 00 00 01 00 E0 80 30 00 42 00 00 00 04 00 ........0.B.....
4000000000076E90 08 00 3C 1C 98 11 00 00 00 02 00 00 00 00 04 00 ..<.............
4000000000076EA0 08 30 01 40 00 21 00 00 00 02 00 E0 04 08 01 84 .0.@.!..........
4000000000076EB0 19 40 41 18 00 21 00 00 00 02 00 00 98 FD FF 58 .@A..!.........X
4000000000076EC0 09 38 00 44 06 39 00 00 00 02 00 20 00 28 01 84 .8.D.9..... .(..
4000000000076ED0 C9 00 20 44 90 11 60 F8 23 0E 77 00 01 40 58 00 .. D..`.#.w..@X.
4000000000076EE0 E9 70 50 02 3A 24 00 00 00 02 00 03 01 00 00 84 .pP.:$..........
4000000000076EF0 EB 70 00 1C 18 D0 81 40 38 24 40 00 00 00 04 00 .p.....@8$@.....
4000000000076F00 E3 70 00 10 18 10 00 00 00 02 80 C3 81 70 00 84 .p...........p..
4000000000076F10 E8 40 00 1C 18 10 00 00 00 02 00 00 00 00 04 00 .@..............
4000000000076F20 02 00 00 00 01 00 00 20 01 55 00 00 30 0A 00 07 ....... .U..0...
4000000000076F30 18 00 00 00 01 00 C0 80 30 00 42 80 08 00 84 00 ........0.B.....
4000000000076F40 11 70 40 10 00 21 00 61 20 00 42 04 E0 FF FF 4B .p@..!.a .B....K
4000000000076F50 09 00 00 00 01 00 E0 00 38 20 20 00 00 00 04 00 ........8  .....
4000000000076F60 11 30 04 1C 87 39 00 00 00 02 00 03 C0 FF FF 4B .0...9.........K
4000000000076F70 0B 70 00 20 10 10 E0 88 38 18 40 00 00 00 04 00 .p. ....8.@.....
4000000000076F80 11 30 FC 1D 87 39 00 00 00 02 00 03 A0 FF FF 4B .0...9.........K
4000000000076F90 09 00 00 00 01 00 80 00 20 30 20 00 00 00 04 00 ........ 0 .....
4000000000076FA0 10 00 00 00 01 00 70 40 3C 0C 70 03 A0 FE FF 4A ......p@<.p....J
4000000000076FB0 11 00 00 00 01 00 00 00 00 02 00 00 D0 FE FF 48 ...............H
4000000000076FC0 01 70 50 02 3A 24 00 02 80 2C 00 40 F2 07 04 90 .pP.:$...,.@....
4000000000076FD0 0B 70 00 1C 18 10 E0 00 39 24 40 00 00 00 04 00 .p......9$@.....
4000000000076FE0 0B 70 00 1C 18 10 E0 40 38 00 42 00 00 00 04 00 .p.....@8.B.....
4000000000076FF0 03 88 00 1C 18 10 00 00 00 02 00 C0 01 88 00 84 ................
4000000000077000 09 00 00 00 01 00 F0 60 38 00 42 00 00 00 04 00 .......`8.B.....
4000000000077010 0B 40 00 1E 10 10 F0 F8 23 58 40 00 22 41 30 80 .@......#X@."A0.
4000000000077020 03 78 04 1E 00 21 80 F8 43 12 73 E0 31 78 18 52 .x...!..C.s.1x.R
4000000000077030 11 38 00 1E 86 31 00 00 00 02 80 83 08 00 84 03 .8...1..........
4000000000077040 11 00 00 00 01 00 00 00 00 02 00 84 08 00 84 03 ................
4000000000077050 09 00 00 00 01 00 E0 00 38 30 20 00 00 00 04 00 ........80 .....
4000000000077060 10 00 00 00 01 00 70 70 44 0C 70 03 A0 FF FF 4A ......ppD.p....J
4000000000077070 11 00 00 00 01 00 00 00 00 02 00 80 08 00 84 00 ................
4000000000077080 00 70 50 02 3A 24 00 02 80 2C 00 20 F2 07 04 90 .pP.:$...,. ....
4000000000077090 0B 90 04 00 00 24 E0 00 38 30 20 00 00 00 04 00 .....$..80 .....
40000000000770A0 0B 70 80 1C 12 20 30 01 38 30 20 00 00 00 04 00 .p... 0.80 .....
40000000000770B0 09 00 00 00 01 00 E0 40 4C 00 42 00 00 00 04 00 .......@L.B.....
40000000000770C0 03 80 00 1C 18 10 00 00 00 02 00 C0 01 80 00 84 ................
40000000000770D0 08 00 00 00 01 00 00 00 00 02 00 00 00 00 04 00 ................
40000000000770E0 0B 78 30 1C 00 21 F0 00 3C 20 20 00 00 00 04 00 .x0..!..<  .....
40000000000770F0 0B 78 44 1E 0C 20 70 F8 3F 0C 73 00 00 00 04 00 .xD.. p.?.s.....
4000000000077100 E9 78 40 1C 00 21 E0 00 38 30 20 00 00 00 04 00 .x@..!..80 .....
4000000000077110 F0 00 48 1E 90 11 70 70 40 0C 70 03 D0 FF FF 4A ..H...pp@.p....J
4000000000077120 09 98 50 26 00 21 00 00 00 02 00 C0 11 00 00 90 ..P&.!..........
4000000000077130 11 00 38 26 90 11 00 00 00 02 00 80 08 00 84 00 ..8&............
4000000000077140 18 18 1D 0A 80 05 00 E2 04 5C 48 00 00 00 00 20 .........\H.... 
4000000000077150 01 08 B1 FA B2 27 20 02 00 62 00 80 04 08 00 84 .....' ..b......
4000000000077160 08 00 00 00 01 00 10 02 84 30 20 A0 24 00 00 90 .........0 .$...
4000000000077170 09 00 00 00 01 00 E0 00 80 30 20 00 00 00 04 00 .........0 .....
4000000000077180 11 30 84 1C 07 38 60 02 38 00 42 03 30 00 00 43 .0...8`.8.B.0..C
4000000000077190 11 00 00 00 01 00 00 00 00 02 00 00 78 D9 03 50 ............x..P
40000000000771A0 08 08 00 48 00 21 00 08 81 30 23 00 00 00 04 00 ...H.!...0#.....
40000000000771B0 01 00 00 00 01 00 00 18 01 55 00 00 00 00 04 00 .........U......
40000000000771C0 11 00 00 00 01 00 00 10 05 80 03 80 08 00 84 00 ................
40000000000771D0 08 00 00 00 01 00 00 00 00 02 00 00 00 00 04 00 ................
40000000000771E0 08 00 00 00 01 00 00 00 00 02 00 00 00 00 04 00 ................
40000000000771F0 08 00 00 00 01 00 00 00 00 02 00 00 00 00 04 00 ................
4000000000077200 18 20 29 0E 80 05 C0 00 30 7C 46 00 00 00 00 20 . ).....0|F.... 
4000000000077210 09 28 01 02 00 21 00 00 00 02 00 60 04 00 C4 00 .(...!.....`....
4000000000077220 11 38 41 18 01 21 60 02 04 65 00 00 08 4A FA 58 .8A..!`..e...J.X
4000000000077230 08 40 45 00 00 24 00 00 00 02 00 20 00 28 01 84 .@E..$..... .(..
4000000000077240 19 38 41 18 01 21 00 00 00 02 00 00 C8 41 FA 58 .8A..!.......A.X
4000000000077250 11 08 00 4A 00 21 70 82 30 00 42 00 D8 49 FA 58 ...J.!p.0.B..I.X
4000000000077260 08 08 00 4A 00 21 70 02 00 00 42 00 00 00 04 00 ...J.!p...B.....
4000000000077270 19 40 41 18 01 21 90 82 30 00 42 00 58 34 FA 58 .@A..!..0.B.X4.X
4000000000077280 09 08 00 4A 00 21 00 00 00 02 00 00 F1 07 FD 8C ...J.!..........
4000000000077290 08 00 00 00 01 00 F0 A0 04 74 48 C0 01 40 58 00 .........tH..@X.
40000000000772A0 19 30 20 00 87 30 00 41 00 10 40 03 70 00 00 43 .0 ..0.A..@.p..C
40000000000772B0 03 78 00 1E 18 10 00 80 04 55 00 E0 E1 78 48 80 .x.......U...xH.
40000000000772C0 09 00 00 00 01 00 E0 C0 3F 32 2C 00 00 00 04 00 ........?2,.....
40000000000772D0 11 80 50 1C 00 21 60 00 38 0E 72 03 30 00 00 43 ..P..!`.8.r.0..C
40000000000772E0 09 00 00 00 01 00 E0 00 40 20 20 00 00 00 04 00 ........@  .....
40000000000772F0 10 00 00 00 01 00 60 08 39 0E 71 03 70 00 00 43 ......`.9.q.p..C
4000000000077300 10 00 00 00 01 00 80 F8 23 7E 46 A0 C0 FF FF 48 ........#~F....H
4000000000077310 08 10 FD F9 FF 27 70 12 00 00 48 00 00 00 04 00 .....'p...H.....
4000000000077320 19 40 41 18 00 21 90 02 00 00 42 00 A8 33 FA 58 .@A..!....B..3.X
4000000000077330 09 40 00 44 00 21 10 00 94 00 42 00 40 02 AA 00 .@.D.!....B.@...
4000000000077340 02 00 00 00 01 00 00 30 05 55 00 00 30 0A 00 07 .......0.U..0...
4000000000077350 19 00 00 00 01 00 C0 00 30 04 42 80 08 00 84 00 ........0.B.....
4000000000077360 08 10 01 10 00 21 70 12 00 00 48 00 00 00 04 00 .....!p...H.....
4000000000077370 19 40 41 18 00 21 90 02 00 00 42 00 58 33 FA 58 .@A..!....B.X3.X
4000000000077380 09 40 00 44 00 21 10 00 94 00 42 00 40 02 AA 00 .@.D.!....B.@...
4000000000077390 02 00 00 00 01 00 00 30 05 55 00 00 30 0A 00 07 .......0.U..0...
40000000000773A0 19 00 00 00 01 00 C0 00 30 04 42 80 08 00 84 00 ........0.B.....
40000000000773B0 08 00 00 00 01 00 00 00 00 02 00 00 00 00 04 00 ................
40000000000773C0 18 08 15 06 80 05 30 E2 F6 7F 4F 00 00 00 00 20 ......0...O.... 
40000000000773D0 09 10 01 02 00 21 00 00 00 02 00 00 04 00 C4 00 .....!..........
40000000000773E0 11 18 01 46 18 10 00 00 00 02 00 00 E8 BC FE 58 ...F...........X
40000000000773F0 10 08 00 44 00 21 70 00 20 0C F2 03 30 00 00 43 ...D.!p. ...0..C
4000000000077400 01 00 00 00 01 00 00 08 01 55 00 00 00 00 04 00 .........U......
4000000000077410 10 00 00 00 01 00 00 00 05 80 03 80 08 00 84 00 ................
4000000000077420 09 70 F0 02 41 24 30 62 06 E8 48 80 04 00 80 90 .p..A$0b..H.....
4000000000077430 09 00 00 00 01 00 00 00 00 02 00 00 00 00 04 00 ................
4000000000077440 09 40 00 1C 18 10 00 00 00 02 00 C0 01 0C E4 90 .@..............
4000000000077450 11 30 00 10 07 39 00 00 00 02 00 03 30 00 00 43 .0...9......0..C
4000000000077460 0B 00 00 00 01 00 E0 00 38 20 20 00 00 00 04 00 ........8  .....
4000000000077470 10 00 00 00 01 00 70 00 38 0C 73 03 90 FF FF 4A ......p.8.s....J
4000000000077480 11 00 00 00 01 00 00 00 00 02 00 00 C8 40 FA 58 .............@.X
4000000000077490 09 08 00 44 00 21 60 00 20 0E 72 00 10 02 AA 00 ...D.!`. .r.....
40000000000774A0 C3 40 50 FB BF 27 00 00 05 80 83 03 C1 0C D0 91 .@P..'..........
40000000000774B0 09 00 00 00 01 80 81 00 20 30 20 00 00 00 04 00 ........ 0 .....
40000000000774C0 11 00 00 00 01 00 00 00 00 02 00 80 08 00 84 00 ................
40000000000774D0 08 00 00 00 01 00 00 00 00 02 00 00 00 00 04 00 ................
40000000000774E0 08 00 00 00 01 00 00 00 00 02 00 00 00 00 04 00 ................
40000000000774F0 08 00 00 00 01 00 00 00 00 02 00 00 00 00 04 00 ................
4000000000077500 18 18 19 0A 80 05 10 A2 05 E8 48 00 00 00 00 20 ..........H.... 
4000000000077510 09 20 01 02 00 21 00 00 00 02 00 40 04 00 C4 00 . ...!.....@....
4000000000077520 0B 00 00 00 01 00 50 02 84 30 20 00 00 00 04 00 ......P..0 .....
4000000000077530 11 00 00 00 01 00 70 00 94 0C F2 03 40 00 00 43 ......p.....@..C
4000000000077540 11 00 01 4A 18 10 00 00 00 02 00 00 A8 32 FA 58 ...J.........2.X
4000000000077550 08 00 00 00 01 00 10 00 90 00 42 A0 04 00 01 84 ..........B.....
4000000000077560 18 00 00 00 01 00 70 00 80 0C 72 03 E0 FF FF 4A ......p...r....J
4000000000077570 09 70 00 42 00 21 10 42 84 00 42 00 30 02 AA 00 .p.B.!.B..B.0...
4000000000077580 09 80 00 1C 98 15 00 00 84 30 23 00 20 0A 00 07 .........0#. ...
4000000000077590 11 00 00 1C 90 11 00 00 00 02 00 80 08 00 84 00 ................
40000000000775A0 08 00 00 00 01 00 00 00 00 02 00 00 00 00 04 00 ................
40000000000775B0 08 00 00 00 01 00 00 00 00 02 00 00 00 00 04 00 ................
40000000000775C0 08 10 15 08 80 05 10 A1 05 E8 48 20 04 00 C4 00 ..........H ....
40000000000775D0 0B 18 01 02 00 21 00 00 00 02 00 00 00 00 04 00 .....!..........
40000000000775E0 09 00 00 00 01 00 00 01 44 30 20 00 00 00 04 00 ........D0 .....
40000000000775F0 11 70 20 20 00 21 60 00 40 0E 72 03 90 00 00 43 .p  .!`.@.r....C
4000000000077600 09 78 00 1C 10 10 00 00 00 02 00 C0 01 80 00 84 .x..............
4000000000077610 11 30 80 1E 87 38 00 00 00 02 00 03 70 01 00 43 .0...8......p..C
4000000000077620 09 00 00 00 01 00 40 02 38 30 20 00 00 00 04 00 ......@.80 .....
4000000000077630 11 78 20 48 00 21 70 00 90 0C F2 03 50 00 00 43 .x H.!p.....P..C
4000000000077640 09 00 00 00 01 00 F0 00 3C 20 20 00 00 00 04 00 ........<  .....
4000000000077650 11 38 80 1E 86 38 00 00 00 02 80 03 50 00 00 43 .8...8......P..C
4000000000077660 0B 70 00 48 00 21 40 02 38 30 20 00 00 00 04 00 .p.H.!@.80 .....
4000000000077670 10 78 20 48 00 21 70 00 90 0C 72 03 D0 FF FF 4A .x H.!p...r....J
4000000000077680 09 40 00 00 00 21 00 00 00 02 00 00 20 02 AA 00 .@...!...... ...
4000000000077690 10 00 00 00 01 00 00 08 05 80 03 80 08 00 84 00 ................
40000000000776A0 09 78 00 48 18 10 20 41 44 00 42 C0 40 82 1C E0 .x.H.. AD.B.@...
40000000000776B0 11 00 3C 1C 98 11 00 00 00 02 00 03 D0 00 00 43 ..<............C
40000000000776C0 03 78 00 24 18 10 00 00 00 02 00 E0 F0 20 19 E0 .x.$......... ..
40000000000776D0 E8 00 38 24 98 11 00 00 00 02 00 00 00 00 04 00 ..8$............
40000000000776E0 09 78 00 22 00 21 00 00 00 02 00 20 02 89 00 84 .x.".!..... ....
40000000000776F0 03 70 00 22 10 10 00 41 3C 00 42 C0 F1 77 FC 8C .p."...A<.B..w..
4000000000077700 09 38 00 1C 86 39 00 70 44 20 23 00 00 00 04 00 .8...9.pD #.....
4000000000077710 08 00 00 00 01 C0 01 00 40 30 23 00 00 00 04 00 ........@0#.....
4000000000077720 F8 00 00 1E 98 11 00 00 00 02 80 03 30 00 00 42 ............0..B
4000000000077730 02 38 04 1C 86 39 00 00 00 02 80 03 82 78 00 84 .8...9.......x..
4000000000077740 EA 70 00 1E 18 D0 01 70 40 30 23 00 00 00 04 00 .p.....p@0#.....
4000000000077750 11 00 00 00 01 00 00 00 00 02 00 00 98 30 FA 58 .............0.X
4000000000077760 09 40 04 00 00 24 10 00 8C 00 42 00 20 02 AA 00 .@...$....B. ...
4000000000077770 10 00 00 00 01 00 00 08 05 80 03 80 08 00 84 00 ................
4000000000077780 09 70 00 20 18 10 00 00 00 02 00 80 04 80 00 84 .p. ............
4000000000077790 11 00 38 22 98 11 00 00 00 02 00 00 50 FF FF 48 ..8"........P..H
40000000000777A0 08 00 00 00 01 00 00 00 00 02 00 00 00 00 04 00 ................
40000000000777B0 08 00 00 00 01 00 00 00 00 02 00 00 00 00 04 00 ................
40000000000777C0 00 28 21 0E 80 05 40 02 00 62 00 C0 04 08 00 84 .(!...@..b......
40000000000777D0 0B 08 01 40 00 21 00 00 00 02 00 40 04 00 00 84 ...@.!.....@....
40000000000777E0 09 70 00 42 00 21 00 00 00 02 00 40 14 10 01 84 .p.B.!.....@....
40000000000777F0 0B 18 61 1C 18 14 70 02 38 30 20 00 00 00 04 00 ..a...p.80 .....
4000000000077800 11 30 00 4E 07 39 00 00 00 02 00 03 30 00 00 43 .0.N.9......0..C
4000000000077810 11 00 00 00 01 00 00 00 00 02 00 00 D8 2F FA 58 ............./.X
4000000000077820 08 08 00 4C 00 21 00 00 00 02 00 00 00 00 04 00 ...L.!..........
4000000000077830 11 38 01 42 00 21 10 02 8C 00 42 00 B8 2F FA 58 .8.B.!....B../.X
4000000000077840 10 08 00 4C 00 21 70 18 81 0C 70 03 A0 FF FF 4A ...L.!p...p....J
4000000000077850 09 40 00 44 00 21 00 00 00 02 00 00 50 02 AA 00 .@.D.!......P...
4000000000077860 11 00 00 00 01 00 00 20 05 80 03 80 08 00 84 00 ....... ........
4000000000077870 08 00 00 00 01 00 00 00 00 02 00 00 00 00 04 00 ................
4000000000077880 08 18 1D 0A 80 05 10 C2 07 76 48 40 04 00 C4 00 .........vH@....
4000000000077890 09 00 11 03 41 24 40 02 04 00 42 E0 41 EB CF 9E ....A$@...B.A...
40000000000778A0 09 00 00 00 01 00 00 00 00 02 00 00 00 00 04 00 ................
40000000000778B0 09 00 00 00 01 00 E0 00 84 20 20 00 00 00 04 00 .........  .....
40000000000778C0 11 38 00 1C 86 39 00 00 00 02 00 03 70 00 00 43 .8...9......p..C
40000000000778D0 09 00 00 00 01 00 E0 00 80 30 20 00 00 00 04 00 .........0 .....
40000000000778E0 11 38 00 1C 06 39 00 00 00 02 80 03 30 00 00 43 .8...9......0..C
40000000000778F0 09 00 00 00 01 00 F0 00 3C 30 20 00 00 00 04 00 ........<0 .....
4000000000077900 10 00 00 00 01 00 70 78 38 0C F0 03 30 00 00 43 ......px8...0..C
4000000000077910 09 78 04 00 00 24 E0 A0 05 74 48 00 30 02 AA 00 .x...$...tH.0...
4000000000077920 10 00 3C 1C 90 11 00 10 05 80 03 80 08 00 84 00 ..<.............
4000000000077930 09 70 50 03 46 24 00 00 00 02 00 E0 11 00 00 90 .pP.F$..........
4000000000077940 09 00 00 00 01 00 00 00 00 02 00 00 00 00 04 00 ................
4000000000077950 11 00 3C 1C 90 11 00 00 00 02 00 00 F8 F7 FF 58 ..<............X
4000000000077960 09 08 00 48 00 21 E0 00 80 30 20 00 00 00 04 00 ...H.!...0 .....
4000000000077970 11 78 D0 FA B3 27 60 00 38 0E 72 03 30 00 00 43 .x...'`.8.r.0..C
4000000000077980 09 00 00 00 01 00 F0 00 3C 30 20 00 00 00 04 00 ........<0 .....
4000000000077990 10 00 00 00 01 00 70 78 38 0C F0 03 00 01 00 43 ......px8......C
40000000000779A0 09 00 11 02 3C 24 00 00 00 02 00 C0 C1 0F EC 90 ....<$..........
40000000000779B0 09 00 00 00 01 00 00 00 00 02 00 00 00 00 04 00 ................
40000000000779C0 0B 78 00 40 B0 10 F0 08 3C 00 42 00 00 00 04 00 .x.@....<.B.....
40000000000779D0 0B 00 3C 40 B0 11 F0 00 38 60 21 00 00 00 04 00 ..<@....8`!.....
40000000000779E0 11 30 00 1E 87 39 00 00 00 02 80 03 70 00 00 43 .0...9......p..C
40000000000779F0 09 00 00 00 01 00 E0 00 80 60 21 00 00 00 04 00 .........`!.....
4000000000077A00 10 00 00 00 01 00 60 00 38 0E 73 03 10 FF FF 4A ......`.8.s....J
4000000000077A10 11 00 00 00 01 00 00 00 00 02 00 00 F8 CA 03 50 ...............P
4000000000077A20 09 08 00 48 00 21 F0 08 00 00 48 00 30 02 AA 00 ...H.!....H.0...
4000000000077A30 09 70 D0 02 3A 24 00 00 00 02 00 00 20 0A 00 07 .p..:$...... ...
4000000000077A40 11 00 3C 1C 90 11 00 00 00 02 00 80 08 00 84 00 ..<.............
4000000000077A50 11 28 01 1C B0 10 00 00 00 02 00 00 38 D2 03 50 .(..........8..P
4000000000077A60 09 70 00 40 B0 10 00 00 00 02 00 20 00 20 01 84 .p.@....... . ..
4000000000077A70 10 00 00 00 01 00 60 00 38 0E 73 03 A0 FE FF 4A ......`.8.s....J
4000000000077A80 10 00 00 00 01 00 00 00 00 02 00 00 90 FF FF 48 ...............H
4000000000077A90 11 28 09 00 00 24 00 00 00 02 00 00 78 81 03 50 .(...$......x..P
4000000000077AA0 10 08 00 48 00 21 60 00 20 0E 73 03 00 FF FF 4A ...H.!`. .s....J
4000000000077AB0 11 28 09 00 00 24 00 00 00 02 00 00 58 5E 03 50 .(...$......X^.P
4000000000077AC0 0B 08 00 48 00 21 E0 20 F7 69 4F 00 00 00 04 00 ...H.!. .iO.....
4000000000077AD0 09 00 00 00 01 00 E0 00 38 30 20 00 00 00 04 00 ........80 .....
4000000000077AE0 10 00 00 00 01 00 70 40 38 0C 70 03 C0 FE FF 48 ......p@8.p....H
4000000000077AF0 08 00 00 00 01 00 50 12 00 00 48 00 00 00 04 00 ......P...H.....
4000000000077B00 19 00 00 42 90 11 00 00 00 02 00 00 48 7B 03 50 ...B........H{.P
4000000000077B10 09 08 00 48 00 21 F0 10 00 00 48 C0 14 00 00 90 ...H.!....H.....
4000000000077B20 09 70 B0 02 47 24 00 00 00 02 00 A0 44 0E 28 93 .p..G$......D.(.
4000000000077B30 09 00 00 00 01 00 00 00 00 02 00 00 00 00 04 00 ................
4000000000077B40 11 00 3C 1C 90 11 00 00 00 02 00 00 A8 40 FA 58 ..<..........@.X
4000000000077B50 0D 00 00 00 01 00 00 00 00 00 00 00 00 00 04 00 ................
4000000000077B60 08 00 00 00 01 00 00 00 00 02 00 00 00 00 04 00 ................
4000000000077B70 08 00 00 00 01 00 00 00 00 02 00 00 00 00 04 00 ................

l4000000000077B80:
	{ and	r8,0x7F,r32; adds	r14,0x1,r8; adds	r8,0x80,r8; }
	{ nop.m	0x0; extr.u	r14,r14,1,7; nop.i	0x0; }
	{ nop.m	0x0; cmp4.lt	p07,p06,0x0,r14; (p07) br.ret	b0 }

l4000000000077BB0:
	{ nop.m	0x0; extr.u	r8,r32,8,8; zxt1	r32,r32; }
	{ nop.m	0x0; cmp4.eq	p06,p07,0x7F,r32; nop.i	0x0; }
	{ nop.m	0x0; (p06) adds	r8,0x0,r0; br.ret	b0; }

l4000000000077BDC:
	{ nop; break.m	0x1000; break.i	0x1000 }
	{ nop; break.i	0x1000; break.i	0x1000 }
	{ nop; (p37) cmp.eq	p03,p02,r3,r96; (p04) nop }

l4000000000077C08:
	{ (p32) rum	0xC090E; break.x	0x8048066010800 }

l4000000000077C0E:
	{ (p06) nop.m	0x1A0120; break.f	0x210; (p04) nop.i	0x0 }

l4000000000077C14:
	{ (p08) break.m	0x100004; nop; Invalid }

l4000000000077C1A:
	{ Invalid; (p32) nop; nop }
	{ (p01) add	r0,r0,r0; (p12) break.i	0x4780; (p08) nop }
	{ nop.m	0x41C38; (p46) nop; Invalid }
	{ (p02) sum	0x0; (p36) mov	pr,0x0; nop }
	{ (p01) sum	0x0; (p44) nop; (p32) nop }
	{ Invalid; (p06) mov	pr,0x1; break.b	0x91A0 }
	{ (p02) chk.a.nc	r1,3FFFFFFFFF077D7A; (p37) nop; (p32) mov	pr,0x0 }
	{ Invalid; (p02) mov	pr,0x1; Invalid }
	{ (p27) nop; Invalid; (p02) break.b	0x1 }
	{ sum	0x0; Nyi; (p08) nop }
	{ (p01) sum	0x0; Invalid; (p33) mov	pr,0x1 }
	{ (p24) chk.a.nc	r0,3FFFFFFFFF07810A; Nyi; (p08) mov	pr,0x1 }
	{ Invalid; (p10) nop; Invalid }
	{ Invalid; Invalid; (p02) mov	pr,0x1 }
	{ Invalid; (p06) nop; (p32) mov	pr,0x0 }
	{ setf.d	f0,r34; (p33) mov	pr,0x0; Invalid }
	{ Invalid; (p38) mov	pr,0x1; nop }
	{ (p01) chk.a.nc	r1,3FFFFFFFFF077EAA; Invalid; mov	pr,0x0; }
	{ sum	0x0; Invalid; (p02) nop }
	{ Invalid; (p06) nop; (p32) nop }
	{ (p03) setf.d	f0,r14; (p33) mov	pr,0x0; nop }
	{ Invalid; (p38) mov	pr,0x1; nop }
	{ (p05) nop; Invalid; nop; }
	{ Invalid; Invalid; (p02) nop }
	{ (p02) nop; (p06) nop; (p35) mov	pr,0x0 }
	{ setf.d	f0,r58; (p13) mov.i	KR0,r1; (p02) nop }
	{ Invalid; nop; }
	{ Invalid; Nyi; (p08) mov	pr,0x1; }
	{ Invalid; (p04) nop; (p32) nop }
	{ (p02) cmpxchg1.acq.nta	r0,[r8],r10; (p33) mov	pr,0x0; nop }
	{ Invalid; (p38) nop; (p35) nop }
	{ Invalid; Invalid; mov	pr,0x1; }
	{ Invalid; (p14) nop; Invalid }
	{ Invalid; (p46) nop; Invalid }
	{ (p02) sum	0x0; (p36) mov	pr,0x0; nop }
	{ (p01) sum	0x0; (p04) mov	pr,0x1; nop }
	{ (p03) nop; (p33) mov	pr,0x0; break.b	0x0 }
	{ sum	0x0; (p32) mov	pr,0x0; mov	pr,0x0 }
	{ sum	0x0; Invalid; (p08) break.i	0x401 }
	{ Invalid; (p36) mov	pr,0x0; mov	pr,0x0 }
	{ sum	0x0; (p44) nop; Invalid }
	{ Invalid; nop; (p32) break.b	0x0; }
	{ (p24) break.m	0x101200; (p45) nop; nop }
	{ (p01) sum	0x0; (p36) mov	pr,0x0; Invalid }
	{ (p02) sum	0x0; (p12) nop; (p32) mov	pr,0x0 }
	{ Invalid; (p34) mov	pr,0x0; mov	pr,0x0 }
	{ sum	0x0; Invalid; (p02) nop }
	{ (p01) sum	0x0; (p12) nop; Invalid }
	{ (p03) addl	r36,-1110016,r0; (p03) mov	pr,0x1; nop }
	{ (p26) nop; (p01) mov	pr,0x1; mov	pr,0x0 }
	{ Invalid; (p44) nop; nop }
	{ (p01) sum	0x0; Invalid; (p02) nop }
	{ (p01) sum	0x0; zxt1	r0,r0; (p02) nop }
	{ (p01) sum	0x0; (p04) mov	pr,0x1; Invalid }
	{ (p31) chk.a.nc	r0,3FFFFFFFFF07803A; Invalid; nop }
	{ (p01) sum	0x0; mov	pr,0x1; Invalid }
	{ (p27) nop; (p37) mov	pr,0x0; nop }
	{ (p02) sum	0x0; (p04) nop; (p32) mov	pr,0x0 }
	{ Invalid; Invalid; (p11) mov	pr,0x0 }
	{ Invalid; (p36) nop.i	0x1180; (p02) mov	pr,0x1 }
	{ Invalid; (p06) mov	pr,0x1; mov	pr,0x0 }
	{ nop; Invalid; Invalid }
	{ Invalid; (p36) break.b	0x1; break.b	0x0 }
	{ (p28) chk.a.nc	r0,3FFFFFFFFF07808A; (p01) mov	pr,0x1; add	r0,r0,r33,0x1 }
	{ Invalid; Invalid; (p15) break.i	0x1201; }
	{ (p02) ld1	r24,[r0]; (p06) nop; (p32) mov	pr,0x0 }
	{ nop; Invalid; (p02) break.i	0x5281 }
	{ (p02) ld1	r24,[r2]; (p14) nop; Invalid }
	{ (p02) ld4.a	r16,[r6],r49; (p06) mov	pr,0x1; mov	pr,0x0 }
	{ nop; Invalid; (p02) mov	pr,0x1 }
	{ Invalid; (p36) nop; (p09) mov	pr,0x1 }
	{ nop; (p04) mov	pr,0x1; mov	pr,0x0 }
	{ Invalid; (p32) mov	pr,0x0; mov	pr,0x0 }
	{ sum	0x0; (p32) mov	pr,0x0; mov	pr,0x0 }
	{ sum	0x0; Invalid; (p11) nop }

;; fn40000000000780C0: 40000000000780C0
;;   Called from:
;;     400000000007C76C (in list_one_job)
fn40000000000780C0 proc
	{ alloc	r61,ar.pfs,0x25,0x0,0x20; mov	r63,pr; nop.b	0x0 }
	{ cmp4.eq	p07,p06,0x2,r33; adds	r62,0x0,r1; sxt4	r43,r32; }
	{ nop.m	0x0; mov	r60,b4; (p07) br.cond.dpnt.few	4000000000078FF0; }

l40000000000780F0:
	{ cmp4.eq	p07,p06,0x3,r33; nop.i	0x0; (p07) br.cond.dpnt.few	4000000000078E70; }

l4000000000078100:
	{ cmp4.eq	p07,p06,0x4,r33; nop.i	0x0; (p07) addl	r45,7444,r1 }

l4000000000078110:
	{ (p07) shladd	r43,r43,0x3,r0; (p07) addl	r33,1,r0; (p07) br.cond.dpnt.few	40000000000781C0; }

l4000000000078116:
	{ (p16) chk.a.clr	f1,3FFFFFFFFF278116; nop; break.b	0x80000; }

l400000000007811C:
	{ (p05) nop; nop; nop }

l4000000000078122:
	{ Invalid; (p18) nop; Invalid }
	{ (p23) break.m	0x4EBDF; nop; cover }
	{ Invalid; (p38) nop; Invalid }
	{ Invalid; (p52) break.i	0x710E3; nop }
	{ (p05) break.m	0x48000; nop; nop }
	{ Invalid; (p04) break.i	0x710D1; nop }
	{ (p04) break.m	0x48000; nop; (p05) nop }
	{ Invalid; nop; br.call.sptk.few	b0,b0 }
	{ (p32) ld1	r16,[r8],6; (p61) break.i	0x2C7D1; Invalid }
	{ (p32) break.m	0x4200F; break.i	0x20; Invalid }
	{ (p16) cmp4.eq.and	p11,p32,r6,r8; (p49) break.i	0x4000A; Invalid }
	{ Invalid; (p49) break.i	0x42003; Invalid }
	{ Invalid; (p48) break.i	0x20303; nop }
	{ (p16) break.m	0x720E9; nop; (p15) nop }
	{ Invalid; (p32) break.i	0x20309; Invalid; }
	{ cmp.eq.and	p32,p48,r0,r0; (p17) nop; nop }
	{ Invalid; (p32) break.i	0x20309; Invalid; }
	{ cmp.eq.and	p32,p48,r0,r0; (p17) cmp.eq.unc	p09,p01,r1,r92; (p63) nop }
	{ (p16) cmp.le.or.andcm	p08,p00,r0,r28; (p15) cmp.gt.or.andcm	p40,p16,r0,r17; Invalid }
	{ (p30) addp4	r32,0xFFFFFFFFFFFFE00E,r18; Invalid; (p23) deposit	r64,r12,r18,60,2; }
	{ adds	r0,0xFFFFFFFFFFFFF000,r18; (p07) nop; }
	{ (p16) break.m	0x42009; cmp4.ge.or.andcm	p32,p48,r0,r0; (p15) deposit	r32,r0,r18,60,10; }
	{ chk.a.clr	r0,3FFFFFFFFF480682; adds	r64,0xFFFFFFFFFFFFE07F,r18; (p24) nop; }
	{ (p18) addp4	r9,0xFFFFFFFFFFFFE840,r16; (p17) mov	pr,0xC042009; nop; }
	{ chk.a.nc	r74,40000000008868B2; cmp.eq.unc	p42,p48,0xFFFFFFFFFFFFFFE4,r28; (p15) nop }
	{ break.m	0x48020; mov	pr,0x8000020; nop; }
	{ (p29) chk.a.clr	r127,40000000004821B2; cmp.gt	p08,p16,r0,r28; (p23) cover; }
	{ addp4	r32,0xFFFFFFFFFFFFF000,r0; (p33) addp4	r9,0xFFFFFFFFFFFFF840,r16; (p18) nop }
	{ (p30) break.m	0x4F7FF; break.i	0x20; cover; }
	{ Invalid; (p32) break.i	0x2030B; nop }
	{ (p32) break.m	0x2030B; break.i	0x20; Invalid; }
	{ break.m	0x20; cmp.eq	p32,p04,r0,r96; Invalid }
	{ (p32) break.m	0x42008; nop; Invalid }
	{ (p20) break.m	0x70209; fms.d.s0	f32,f0,f0,f0; Invalid }
	{ invala; (p32) sub	r15,r64,r48; Invalid }
	{ (p19) break.m	0x4F81F; br.call.sptk.few	b0,b0; br.call.sptk.few	b0,b0 }
	{ break.b	0x48000; nop; (p32) clrrrb }
	{ (p16) break.m	0x20310; nop; Invalid }
	{ Invalid; zxt1	r11,r8; Invalid }
	{ (p01) cmp4.eq.and	p12,p32,r102,r8; Invalid; Invalid }
	{ (p32) nop; (p34) break.i	0x42003; Invalid }
	{ Invalid; (p32) break.i	0x20203; Invalid }
	{ ld4.sa	r32,[r0]; (p32) nop; (p16) deposit	r0,r48,r40,31,4 }
	{ (p49) nop; (p32) deposit	r67,r97,r124,63,1; brp.dptk	40000000000783D2; }
	{ (p16) cmp4.eq.or.andcm	p10,p48,r4,r8; (p37) break.i	0x40183; Invalid }
	{ cmp.eq.or.andcm	p32,p48,r0,r0; (p63) nop; Invalid }
	{ Invalid; Invalid; Invalid }
	{ nop; nop }
	{ break.m	0x630C4; nop; (p17) nop }
	{ Invalid; nop.i	0x42000; Invalid }
	{ Invalid; break.i	0x730C9; Invalid }
	{ (p07) break.m	0x2330B; nop; Invalid }
	{ Invalid; (p32) break.i	0x730E3; Invalid }
	{ (p23) addl	r31,1313008,r3; (p24) break.b	0x4F81F; cover }
	{ nop; (p16) break.i	0x20310; Invalid }
	{ (p16) break.m	0x20310; nop; Invalid }
	{ (p32) chk.s.m	r64,4000000000080592; nop; nop }
	{ (p08) nop; addl	r2,262208,r0; Invalid }
	{ break.m	0x20; nop; Invalid }
	{ Invalid; break.i	0x2030C; nop }
	{ (p20) break.m	0x700E9; frcpa	f32,p00,f0,f0; Invalid }
	{ add	r0,r4,r92,0x1; sub	r0,r48,r72,0x1; Invalid }
	{ Invalid; Invalid; Invalid }
	{ Invalid; break.i	0x2020D; Invalid }
	{ cmp.eq.and	p32,p48,r0,r0; (p49) nop.i	0xF10C3; (p16) deposit	r0,r48,r8,31,4 }
	{ Invalid; nop; (p02) clrrrb; }
	{ nop; (p32) tbit.z	p08,p00,r16,0x20; Invalid }
	{ invala; (p32) mov	pr,r64,0x11E; Invalid }
	{ Invalid; (p32) nop.i	0x730E3; Invalid }
	{ Invalid; break.x	0x10001C080020 }
	{ Invalid; (p32) chk.s.i	r5,40000000008785B2; Invalid }
	{ nop; (p02) cmp.eq	p00,p01,r0,r82; Invalid }
	{ Invalid; (p32) break.m	0x20003; break.i	0x80020 }
	{ Invalid; (p32) break.i	0x283; Invalid }
	{ Invalid; (p32) deposit	r99,r97,r92,63,1; Invalid }
	{ break.m	0x42009; nop; Invalid }
	{ nop; zxt1	r34,r16; Invalid }
	{ Invalid; cmp.eq.unc	p34,p01,r97,r92; (p13) nop }
	{ (p26) break.m	0x4F81F; Invalid; (p31) break.b	0x4F7FF }
	{ (p32) nop; break.i	0x48000; nop }
	{ (p32) chk.s.m	r6,400000000007C722; tbit.z	p17,p00,r8,0x3; Invalid }
	{ (p16) invala; (p32) cmp4.eq.or.andcm	p15,p48,r64,r16; (p37) nop }
	{ (p63) break.m	0x730E3; fma.s0	f32,f64,f1,f0; nop }
	{ (p38) break.m	0x710E3; nop; Invalid }
	{ cmp4.eq.and	p32,p32,r0,r0; (p49) break.i	0x4018D; Invalid }
	{ Invalid; (p32) nop.i	0xF30E3; Invalid }
	{ Invalid; nop }
	{ cmp4.eq.and	p32,p32,r0,r0; (p01) break.i	0x4018A; Invalid }
	{ Invalid; (p32) add	r99,r97,r124,0x1; Invalid }
	{ (p51) break.m	0x42008; nop; Invalid }
	{ Invalid; (p32) break.i	0x20303; nop }
	{ break.m	0x720F0; nop; Invalid }
	{ break.m	0x20; nop; Invalid }
	{ (p32) break.m	0x4200F; break.i	0x20; nop }
	{ (p36) nop; break.f	0x48000; Invalid }
	{ Invalid; break.i	0x42000; break.i	0x80020 }
	{ Invalid; (p48) deposit	r9,r4,r0,49,0; Invalid }
	{ Invalid; (p32) nop; Invalid }
	{ Invalid; (p05) break.i	0x401C9; Invalid }
	{ Invalid; cmp.eq.unc	p41,p01,r97,r92; Invalid }
	{ Invalid; (p16) break.i	0x2020C; nop }
	{ (p32) break.m	0x730E3; nop; Invalid }
	{ Invalid; (p32) break.i	0x2020C; Invalid }
	{ Invalid; (p32) nop; Invalid }
	{ (p01) nop; (p32) cmp.ltu	p08,p00,r64,r16; Invalid }
	{ Invalid; (p48) nop; (p03) nop }
	{ (p48) break.m	0x20308; nop; Invalid; }
	{ Invalid; Invalid; Invalid }
	{ Invalid; (p54) fnma.d.s0	f127,f9,f0,f63; Invalid }
	{ invala; (p32) nop; Invalid }
	{ (p49) addl	r8,266304,r0; (p18) nop; Invalid }
	{ Invalid; Invalid; Invalid }
	{ (p32) nop; (p32) break.i	0x20310; Invalid }
	{ nop; (p48) nop; Invalid }
	{ (p32) break.m	0x4200F; nop; Invalid }
	{ (p04) break.m	0x48000; Invalid; Invalid }
	{ (p32) break.m	0x4200F; nop; (p36) break.i	0x4018A }
	{ nop; addl	r0,264192,r2; (p19) nop }
	{ (p32) break.m	0x730C3; nop.i	0x80020; Invalid }
	{ (p16) break.m	0x20310; break.i	0x20; nop }
	{ (p48) break.m	0x42008; addl	r32,0,r0; Invalid; }
	{ Invalid; zxt1	r11,r8; Invalid }
	{ (p01) cmp4.eq.and	p12,p32,r102,r8; (p49) break.i	0x4000A; Invalid }
	{ (p32) nop; (p34) break.i	0x42003; Invalid }
	{ Invalid; (p32) break.i	0x20203; Invalid }
	{ ld1.sa	r32,[r0]; (p32) cmp.lt.unc	p35,p01,r97,r124; (p53) nop }
	{ (p48) nop; (p49) break.i	0x42009; Invalid; }
	{ (p16) cmp4.eq.or.andcm	p10,p48,r4,r8; (p37) break.i	0x40183; Invalid }
	{ cmp.eq.or.andcm	p32,p48,r0,r0; (p63) cmp.lt.unc	p03,p01,r97,r92; Invalid }
	{ break.m	0x20; break.i	0x20; Invalid }
	{ nop; (p38) break.i	0x40183; Invalid }
	{ Invalid; (p02) nop; Invalid }
	{ invala; (p32) chk.s.i	r64,3FFFFFFFFF080A52; Invalid }
	{ break.m	0x20; (p01) cmp.eq	p11,p00,r102,r8; Invalid }
	{ (p32) break.m	0x42008; nop; Invalid }
	{ (p16) invala; (p32) cmp4.eq.and	p15,p32,r64,r16; Invalid }
	{ (p32) break.m	0x20303; nop; Invalid }
	{ (p35) break.m	0x42003; nop; (p07) pshr4.u	r80,r96,r10 }
	{ (p32) add	r3,r4,r8; (p23) deposit	r0,r112,r0,48,0; Invalid }
	{ (p33) break.m	0x23203; fprcpa	f32,p00,f0,f0; clrrrb }
	{ break.m	0x20; cmp.ltu	p32,p00,r0,r0; Invalid }
	{ (p16) invala; (p32) mov	pr,0xA04200F; Invalid }
	{ Invalid; (p32) break.m	0x20303; Invalid }
	{ (p50) chk.a.nc	r3,4000000000080E12; break.i	0x20204; clrrrb }
	{ nop; nop; Invalid }
	{ (p32) break.m	0x20303; nop; Invalid }
	{ (p32) break.m	0x20303; nop; Invalid }
	{ Invalid; cmp.eq.unc	p34,p01,r97,r92; Invalid }
	{ (p30) nop; br.call.sptk.few	b0,b0; clrrrb }
	{ (p16) break.m	0x20310; nop; Invalid }
	{ (p16) invala; (p32) mov	pr,0xA04200F; Invalid }
	{ Invalid; (p32) break.m	0x20303; clrrrb }
	{ (p32) break.m	0x20303; cmp.ltu	p32,p00,r0,r0; Invalid }
	{ Invalid; (p32) nop; nop }
	{ (p16) nop; nop; Invalid }
	{ invala; (p32) cmp.eq	p15,p00,r64,r16; Invalid }
	{ (p28) break.m	0x4F81F; nop; br.call.sptk.few	b0,b0 }
	{ break.m	0x48000; nop; Invalid }
	{ break.m	0x20310; nop; Invalid }
	{ invala; (p32) deposit	r15,r64,r16,63,0; Invalid }
	{ (p31) break.m	0x4F81F; nop; br.call.sptk.few	b0,b0 }
	{ break.m	0x48000; nop; Invalid }
	{ break.m	0x20310; addl	r32,0,r0; Invalid }
	{ Invalid; (p48) cmp.eq.unc	p09,p01,r97,r124; Invalid }
	{ break.m	0x20; deposit	r32,r0,r0,63,0; Invalid }
	{ Invalid; (p48) break.i	0x20203; Invalid }
	{ Invalid; (p48) nop; Invalid }
	{ (p29) break.m	0x4F81F; nop; br.call.sptk.few	b0,b0 }
	{ break.m	0x48000; nop; Invalid }
	{ break.m	0x20310; nop; Invalid }
	{ (p48) invala; (p32) nop; Invalid }
	{ Invalid; (p32) break.m	0x20303; clrrrb }
	{ (p32) break.m	0x20303; cmp.ltu	p32,p00,r0,r0; Invalid }
	{ Invalid; nop; Invalid }
	{ break.m	0x20; cmp.lt	p32,p00,r0,r0; Invalid }
	{ (p32) break.m	0x2020D; addl	r32,2048,r0; (p20) break.i	0x4F81F }
	{ nop; chk.s.i	r0,4000000000881C22; Invalid }
	{ (p16) break.m	0x20310; nop; Invalid }
	{ (p32) cmp4.eq.or.andcm	p14,p32,r4,r8; (p37) break.i	0x40183; Invalid }
	{ cmp.eq.or.andcm	p32,p32,r0,r0; (p47) cmp.eq.unc	p35,p01,r97,r92; Invalid }
	{ break.m	0x20; nop; Invalid }
	{ (p32) break.m	0x4200F; chk.s.i	r0,3FFFFFFFFF078E72; Invalid }
	{ (p01) break.m	0x2330C; break.i	0x20; Invalid }
	{ nop; (p20) break.i	0x70209; nop }
	{ (p32) nop; nop; Invalid; }
	{ cmp4.eq.and	p00,p32,r64,r16; (p01) break.i	0x4018A; Invalid }
	{ Invalid; (p32) cmp.eq.unc	p35,p01,r97,r92; Invalid }
	{ break.m	0x20; nop; Invalid }
	{ cmp.ltu	p32,p48,r0,r0; (p02) deposit	r0,r0,r18,63,0; Invalid }
	{ break.m	0x20; nop; Invalid }
	{ invala; (p32) chk.s.i	r64,3FFFFFFFFF080DF2; Invalid }
	{ break.m	0x20; (p01) nop; (p47) deposit	r127,r15,r41,31,2 }
	{ Invalid; (p16) break.i	0x2020E; cover; }
	{ Invalid; (p16) break.i	0x2020A; Invalid }
	{ cmp.eq.and	p32,p32,r0,r0; (p49) cmp.eq.unc	p35,p01,r33,r124; (p47) nop }
	{ (p31) break.m	0x4F7FF; Invalid; nop; }
	{ break.m	0x20309; cmp.lt	p32,p00,r0,r0; Invalid; }
	{ (p27) nop; br.call.sptk.few	b0,b0; clrrrb }
	{ (p16) break.m	0x20310; cmp.ltu	p32,p00,r0,r0; Invalid }
	{ Invalid; (p32) break.i	0x42008; Invalid }
	{ Invalid; Invalid; Invalid }
	{ invala; nop }
	{ cmp4.eq.and	p32,p32,r0,r0; (p01) break.i	0x4018A; Invalid }
	{ Invalid; (p32) cmp.lt.unc	p35,p01,r97,r92; Invalid }
	{ break.m	0x20; break.i	0x20; Invalid }
	{ Invalid; Invalid; clrrrb }
	{ (p16) break.m	0x20310; cmp.ltu	p32,p00,r0,r0; Invalid }
	{ invala; (p32) chk.s.i	r64,3FFFFFFFFF080F02; Invalid }
	{ break.m	0x20; (p01) add	r11,r102,r8; Invalid }
	{ Invalid; Invalid; clrrrb }
	{ (p16) break.m	0x20310; tbit.z	p32,p00,r0,0x0; Invalid }
	{ invala; (p32) chk.s.i	r64,3FFFFFFFFF080F42; Invalid }
	{ break.m	0x20; (p01) break.i	0x2330B; (p45) nop }

l4000000000078E70:
	{ addl	r45,7444,r1; nop.m	0x0; shladd	r43,r43,0x3,r0; }
	{ ld8	r14,[r45]; add	r14,r14,r43; nop.i	0x0; }
	{ ld8	r14,[r14]; adds	r14,0x18,r14; nop.i	0x0; }
	{ ld4	r14,[r14]; nop.m	0x0; tbit.z	p07,p06,r14,0x1; }
	{ nop.m	0x0; (p07) adds	r33,0x0,r0; (p07) br.cond.dptk.few	4000000000078130 }

l4000000000078EBC:
	{ Invalid; cmp.eq	p00,p00,r32,r0; (p63) nop.i	0xDFE0F }
	{ (p30) invala; break.i	0x1000; Invalid }
	{ nop; (p08) invala.e	f39; (p08) deposit	r0,r0,r64,62,0 }
	{ (p02) nop; (p08) nop; break.b	0x1000 }
	{ (p35) nop; ld4	r64,[r64]; (p08) nop }
	{ Invalid; (p08) invala.e	r51; break.i	0x1000 }
	{ shladd	r0,r1,0x2,r0; zxt1	r0,r64; break.i	0x1000 }
	{ Invalid; nop; zxt1	r64,r64 }
	{ (p45) nop; Invalid; br.cond.sptk.few	400000000007913C }
	{ (p02) nop; nop; break.b	0x1000 }
	{ nop; (p08) nop; break.i	0x1000 }
	{ (p32) cmp.lt.unc	p03,p09,r62,r44; (p01) nop; shladd	r64,r15,0x1,r64 }
	{ nop; (p24) nop }
	{ Invalid; break.i	0x1000; Invalid }
	{ (p33) nop; ldfs	f64,[r64]; (p08) brp.sptk	b1,4000000000078F9C }
	{ cmpxchg1.acq.nt1	r0,[r72],r0; (p08) shladd	r16,r0,0x3,r0; (p08) epc }
	{ Invalid; break.m	0x1000; break.i	0x1000 }
	{ (p36) nop; nop; zxt1	r64,r64 }
	{ shladdp4	r0,r1,0x2,r0; Invalid; break.i	0x1000 }
	{ (p37) nop; cmp.lt	p00,p00,r32,r0; (p01) nop }

l4000000000078FF0:
	{ nop.m	0x0; addl	r14,7444,r1; sxt4	r32,r32 }
	{ addl	r66,-8188,r1; adds	r64,0x0,r34; addl	r65,1,r0; }
	{ ld8	r14,[r14]; ld8	r66,[r66]; nop.i	0x0; }
	{ shladd	r14,r32,0x3,r14; ld8	r14,[r14]; nop.i	0x0; }
	{ adds	r14,0x8,r14; ld8	r14,[r14]; nop.i	0x0; }
	{ adds	r14,0x8,r14; ld4	r67,[r14]; nop.i	0x0; }
	{ nop.m	0x0; sxt4	r67,r67; br.call.sptk.many	b0,400000000001C040; }
	{ adds	r1,0x0,r62; mov	pr,r63,0xFFFFFFFFFFFFFFFE; mov.i	ar.pfs,r61; }
	{ nop.m	0x0; mov.spnt	b0,r60,4000000000079070; br.ret	b0; }
4000000000079080 00 28 29 0E 80 05 40 02 00 62 00 00 44 01 01 84 .()...@..b..D...
4000000000079090 19 30 01 02 00 21 60 F8 8B 0E 77 03 40 00 00 43 .0...!`...w.@..C
40000000000790A0 09 70 00 40 10 10 80 00 00 00 42 00 50 02 AA 00 .p.@......B.P...
40000000000790B0 08 00 00 00 01 00 70 10 39 0C 71 00 40 0A 00 07 ......p.9.q.@...
40000000000790C0 16 00 00 00 00 C8 01 08 00 80 21 80 08 00 84 00 ..........!.....
40000000000790D0 09 70 B0 FB AF 27 70 02 8C 00 42 00 05 08 01 84 .p...'p...B.....
40000000000790E0 09 00 00 00 01 00 E0 00 38 30 20 00 00 00 04 00 ........80 .....
40000000000790F0 11 48 01 1C 18 10 00 00 00 02 00 00 D8 EF FF 58 .H.............X
4000000000079100 09 40 00 00 00 21 10 00 98 00 42 00 50 02 AA 00 .@...!....B.P...
4000000000079110 11 00 00 00 01 00 00 20 05 80 03 80 08 00 84 00 ....... ........
4000000000079120 08 00 00 00 01 00 00 00 00 02 00 00 00 00 04 00 ................
4000000000079130 08 00 00 00 01 00 00 00 00 02 00 00 00 00 04 00 ................
4000000000079140 09 70 50 02 3A 24 00 00 00 02 00 00 04 00 59 00 .pP.:$........Y.
4000000000079150 0B 70 00 1C 18 10 E0 00 39 24 40 00 00 00 04 00 .p......9$@.....
4000000000079160 0B 70 00 1C 18 10 E0 40 38 00 42 00 00 00 04 00 .p.....@8.B.....
4000000000079170 09 00 00 00 01 00 F0 00 38 30 20 00 00 00 04 00 ........80 .....
4000000000079180 11 30 00 1E 07 39 00 00 00 02 00 03 A0 00 00 43 .0...9.........C
4000000000079190 09 00 00 00 01 00 80 00 3C 30 20 00 00 00 04 00 ........<0 .....
40000000000791A0 11 38 20 1E 06 38 00 00 00 02 80 03 70 00 00 43 .8 ..8......p..C
40000000000791B0 11 00 00 00 01 00 70 00 20 0C F2 03 50 00 00 43 ......p. ...P..C
40000000000791C0 09 00 00 00 01 00 E0 00 20 30 20 00 00 00 04 00 ........ 0 .....
40000000000791D0 11 38 38 1E 06 38 00 00 00 02 80 83 08 00 84 03 .88..8..........
40000000000791E0 09 00 00 00 01 00 80 00 38 00 42 00 00 00 04 00 ........8.B.....
40000000000791F0 10 00 00 00 01 00 70 00 20 0C 72 03 D0 FF FF 4A ......p. .r....J
4000000000079200 11 00 00 00 01 00 00 00 00 02 00 80 08 00 84 00 ................
4000000000079210 11 00 00 00 01 00 00 00 00 02 00 80 08 00 84 00 ................
4000000000079220 11 00 00 00 01 00 80 00 00 00 42 80 08 00 84 00 ..........B.....
4000000000079230 08 00 00 00 01 00 00 00 00 02 00 00 00 00 04 00 ................
4000000000079240 18 B0 75 30 80 05 C0 00 30 7C 46 00 00 00 00 20 ..u0....0|F.... 
4000000000079250 09 30 F1 FA 5E 27 50 A2 04 74 48 A0 06 00 C4 00 .0..^'P..tH.....
4000000000079260 08 00 00 00 01 00 00 00 00 02 00 E0 06 08 00 84 ................
4000000000079270 09 48 F1 02 3A 24 E0 00 94 30 20 00 00 00 04 00 .H..:$...0 .....
4000000000079280 11 00 71 4C 00 21 60 00 38 0E 72 03 20 02 00 43 ..qL.!`.8.r. ..C
4000000000079290 09 00 00 00 01 00 E0 00 80 20 20 00 00 00 04 00 .........  .....
40000000000792A0 10 00 00 00 01 00 60 00 38 0E 73 03 00 02 00 42 ......`.8.s....B
40000000000792B0 08 00 00 00 01 00 F0 00 A4 30 20 00 07 61 04 84 .........0 ..a..
40000000000792C0 09 08 01 00 00 21 E0 02 00 00 42 60 06 00 04 90 .....!....B`....
40000000000792D0 11 30 00 1E 07 39 00 00 00 02 00 03 60 08 00 43 .0...9......`..C
40000000000792E0 11 30 71 4C 00 21 00 00 00 02 00 00 48 29 FA 58 .0qL.!......H).X
40000000000792F0 08 08 00 6E 00 21 00 00 00 02 00 00 07 61 04 84 ...n.!.......a..
4000000000079300 19 C8 45 00 00 24 00 00 00 02 00 00 08 21 FA 58 ..E..$.......!.X
4000000000079310 08 C8 59 00 00 24 00 00 00 02 00 20 00 B8 01 84 ..Y..$..... ....
4000000000079320 19 C0 41 18 01 21 00 00 00 02 00 00 E8 20 FA 58 ..A..!....... .X
4000000000079330 11 08 00 6E 00 21 80 83 30 00 42 00 F8 28 FA 58 ...n.!..0.B..(.X
4000000000079340 08 08 00 6E 00 21 80 03 00 00 42 00 00 00 04 00 ...n.!....B.....
4000000000079350 19 C8 41 18 01 21 A0 83 30 00 42 00 78 13 FA 58 ..A..!..0.B.x..X
4000000000079360 09 08 00 6E 00 21 E0 00 80 20 20 00 04 00 00 84 ...n.!...  .....
4000000000079370 08 50 81 03 32 24 D0 82 07 64 48 E0 45 EE B3 9E .P..2$...dH.E...
4000000000079380 09 A0 E1 03 33 24 00 23 06 8C 48 60 C5 0E B4 90 ....3$.#..H`....
4000000000079390 08 00 00 00 01 00 20 83 07 5A 48 20 46 09 E8 90 ...... ..ZH F...
40000000000793A0 19 30 00 1C 87 31 00 00 00 02 80 03 B0 00 00 43 .0...1.........C
40000000000793B0 09 78 01 5E 18 10 00 00 00 02 00 00 00 00 04 00 .x.^............
40000000000793C0 09 00 00 00 01 00 00 00 00 02 00 00 00 00 04 00 ................
40000000000793D0 08 00 00 00 01 00 00 00 00 02 00 00 00 00 04 00 ................
40000000000793E0 0B 70 00 4A 18 10 E0 70 84 00 40 00 00 00 04 00 .p.J...p..@.....
40000000000793F0 09 00 00 00 01 00 20 02 38 30 20 00 00 00 04 00 ...... .80 .....
4000000000079400 11 20 61 44 00 21 60 00 88 0E 72 03 30 00 00 43 . aD.!`...r.0..C
4000000000079410 09 00 00 00 01 00 30 02 90 20 20 00 00 00 04 00 ......0..  .....
4000000000079420 10 00 00 00 01 00 70 10 8C 0C A8 03 A0 00 00 43 ......p........C
4000000000079430 09 00 05 40 00 21 E0 00 98 20 20 20 84 08 01 84 ...@.!...   ....
4000000000079440 10 00 00 00 01 00 60 00 39 0E 61 03 A0 FF FF 4A ......`.9.a....J
4000000000079450 08 70 00 52 18 10 00 00 00 02 00 00 27 00 00 90 .p.R........'...
4000000000079460 09 C8 41 18 00 21 00 00 00 02 00 40 07 00 00 84 ..A..!.....@....
4000000000079470 11 38 00 1C 06 39 00 00 00 02 80 03 60 07 00 43 .8...9......`..C
4000000000079480 11 00 00 00 01 00 00 00 00 02 00 00 48 12 FA 58 ............H..X
4000000000079490 08 08 00 6E 00 21 00 00 00 02 00 00 00 00 04 00 ...n.!..........
40000000000794A0 02 00 00 00 01 00 00 B0 01 55 00 00 50 0B 00 07 .........U..P...
40000000000794B0 19 00 00 00 01 00 C0 00 30 04 42 80 08 00 84 00 ........0.B.....
40000000000794C0 11 C0 01 40 00 21 00 00 00 02 00 00 C8 E9 FF 58 ...@.!.........X
40000000000794D0 09 78 00 54 10 10 70 02 20 00 42 20 00 B8 01 84 .x.T..p. .B ....
40000000000794E0 03 30 00 1E 87 39 80 FA 9F 58 C0 43 44 11 01 84 .0...9...X.CD...
40000000000794F0 F0 70 00 44 10 10 00 00 00 02 80 03 40 00 00 42 .p.D........@..B
4000000000079500 02 60 05 50 00 21 20 A2 88 00 42 80 35 60 19 52 .`.P.! ...B.5`.R
4000000000079510 09 00 00 00 01 00 E0 00 88 20 20 00 00 00 04 00 .........  .....
4000000000079520 10 00 00 00 01 00 70 00 B0 0C 63 03 E0 01 00 43 ......p...c....C
4000000000079530 09 00 00 00 01 00 00 01 AC 20 20 00 00 00 04 00 .........  .....
4000000000079540 10 00 00 00 01 00 70 00 40 0C 73 03 B0 00 00 42 ......p.@.s....B
4000000000079550 09 00 00 00 01 00 00 01 B4 20 20 00 00 00 04 00 .........  .....
4000000000079560 10 00 00 00 01 00 90 00 40 10 F3 04 90 00 00 42 ........@......B
4000000000079570 10 00 00 00 01 00 70 20 38 0C 73 03 C0 FE FF 4A ......p 8.s....J
4000000000079580 09 00 00 00 01 00 E0 00 B4 20 20 00 00 00 04 00 .........  .....
4000000000079590 10 00 00 00 01 00 70 00 38 0C F3 03 60 07 00 43 ......p.8...`..C
40000000000795A0 09 00 00 00 01 00 30 12 8C 5C 40 00 00 00 04 00 ......0..\@.....
40000000000795B0 08 00 8C 48 90 11 00 00 00 02 00 00 00 00 04 00 ...H............
40000000000795C0 09 00 05 40 00 21 E0 00 98 20 20 20 84 08 01 84 ...@.!...   ....
40000000000795D0 10 00 00 00 01 00 60 00 39 0E 61 03 10 FE FF 4A ......`.9.a....J
40000000000795E0 10 00 00 00 01 00 00 00 00 02 00 00 70 FE FF 48 ............p..H
40000000000795F0 11 00 00 00 01 00 90 10 3C 10 F3 04 90 00 00 43 ........<......C
4000000000079600 11 40 08 1C 89 39 00 00 00 02 00 04 E0 02 00 43 .@...9.........C
4000000000079610 10 00 00 00 01 00 80 10 38 12 63 04 B0 00 00 42 ........8.c....B
4000000000079620 11 30 04 1C 87 39 80 E3 F4 83 4F 03 10 FE FF 4B .0...9....O....K
4000000000079630 13 C0 01 70 18 10 00 2C BA 7F 2C 00 00 00 00 20 ...p...,..,.... 
4000000000079640 08 08 00 6E 00 21 00 00 00 02 00 00 00 00 04 00 ...n.!..........
4000000000079650 09 00 05 40 00 21 E0 00 98 20 20 20 84 08 01 84 ...@.!...   ....
4000000000079660 10 00 00 00 01 00 60 00 39 0E 61 03 80 FD FF 4A ......`.9.a....J
4000000000079670 10 00 00 00 01 00 00 00 00 02 00 00 E0 FD FF 48 ...............H
4000000000079680 09 00 00 00 01 00 F0 00 C0 20 20 00 00 00 04 00 .........  .....
4000000000079690 10 00 00 00 01 00 80 20 3C 12 28 04 70 FF FF 4A ....... <.(.p..J
40000000000796A0 10 00 00 00 01 00 70 20 38 0C 73 03 90 FD FF 4A ......p 8.s....J
40000000000796B0 11 00 00 00 01 00 00 00 00 02 00 00 D0 FE FF 48 ...............H
40000000000796C0 11 40 10 1C 89 39 80 E3 F4 83 4F 04 90 00 00 43 .@...9....O....C
40000000000796D0 11 30 20 1C 87 39 00 00 00 02 00 03 60 FD FF 4B .0 ..9......`..K
40000000000796E0 11 C0 01 70 18 10 00 00 00 02 00 00 A8 73 FF 58 ...p.........s.X
40000000000796F0 10 00 00 00 01 00 10 00 DC 00 42 00 60 FF FF 48 ..........B.`..H
4000000000079700 11 38 10 1C 86 39 00 00 00 02 80 03 70 07 00 43 .8...9......p..C
4000000000079710 10 00 00 00 01 00 60 10 38 0E F3 03 20 FE FF 4A ......`.8... ..J
4000000000079720 09 00 05 40 00 21 E0 00 98 20 20 20 84 08 01 84 ...@.!...   ....
4000000000079730 10 00 00 00 01 00 60 00 39 0E 61 03 B0 FC FF 4A ......`.9.a....J
4000000000079740 10 00 00 00 01 00 00 00 00 02 00 00 10 FD FF 48 ...............H
4000000000079750 09 00 00 00 01 00 E0 00 B4 20 20 00 00 00 04 00 .........  .....
4000000000079760 11 00 00 00 01 00 90 00 38 10 73 04 80 02 00 42 ........8.s....B
4000000000079770 11 00 00 00 01 00 80 00 A0 12 73 04 A0 04 00 42 ..........s....B
4000000000079780 03 60 05 50 00 21 90 10 A0 10 73 C0 31 60 19 52 .`.P.!....s.1`.R
4000000000079790 11 38 00 1C 86 31 E2 08 00 00 48 03 40 00 00 43 .8...1....H.@..C
40000000000797A0 03 38 34 50 86 79 E2 00 00 00 42 E3 11 00 00 90 .84P.y....B.....
40000000000797B0 EB 78 00 00 00 21 E0 70 3C 18 40 00 00 00 04 00 .x...!.p<.@.....
40000000000797C0 11 00 00 00 01 00 60 00 38 0E F3 03 80 07 00 43 ......`.8......C
40000000000797D0 10 00 00 00 01 00 70 00 8C 0C 28 03 40 02 00 42 ......p...(.@..B
40000000000797E0 03 80 00 56 10 10 00 00 00 02 00 E0 00 80 18 E6 ...V............
40000000000797F0 08 00 00 00 01 00 00 00 00 02 00 00 00 00 04 00 ................
4000000000079800 11 00 00 00 01 00 00 00 00 02 80 03 E0 02 00 42 ...............B
4000000000079810 08 18 91 FB AC 27 00 00 00 02 00 E0 00 70 19 E4 .....'.......p..
4000000000079820 09 C0 01 40 00 21 00 00 00 02 00 20 07 00 00 84 ...@.!..... ....
4000000000079830 11 18 01 46 18 10 00 00 00 02 80 03 60 07 00 43 ...F........`..C
4000000000079840 13 D0 01 5E 18 10 00 44 F4 7F 2C 00 00 00 00 20 ...^...D..,.... 
4000000000079850 08 08 00 6E 00 21 00 00 00 02 00 00 00 00 04 00 ...n.!..........
4000000000079860 03 70 00 4A 18 10 80 03 B8 00 42 C0 E1 08 01 80 .p.J......B.....
4000000000079870 0B 10 01 1C 18 10 40 C2 88 00 42 00 00 00 04 00 ......@...B.....
4000000000079880 11 C8 01 44 18 10 00 00 00 02 00 00 C8 0C FA 58 ...D...........X
4000000000079890 08 00 00 00 01 00 10 00 DC 00 42 E0 00 40 18 E6 ..........B..@..
40000000000798A0 19 00 00 00 01 00 00 00 00 02 00 03 A0 04 00 43 ...............C
40000000000798B0 09 18 01 48 10 10 00 00 00 02 00 00 00 00 04 00 ...H............
40000000000798C0 09 00 00 00 01 00 30 12 8C 5C 40 00 00 00 04 00 ......0..\@.....
40000000000798D0 10 00 8C 48 90 11 00 00 00 02 00 00 F0 FC FF 48 ...H...........H
40000000000798E0 08 00 00 00 01 00 20 22 F7 59 4F 00 A7 00 00 90 ...... ".YO.....
40000000000798F0 09 00 00 00 01 00 90 03 BC 30 20 00 00 00 04 00 .........0 .....
4000000000079900 11 10 01 44 18 10 00 00 00 02 00 00 88 24 FA 58 ...D.........$.X
4000000000079910 08 38 00 5C 06 39 10 00 DC 00 42 00 00 00 04 00 .8.\.9....B.....
4000000000079920 19 C0 01 40 00 21 90 03 00 00 C2 03 90 05 00 43 ...@.!.........C
4000000000079930 13 D0 01 44 18 10 00 CC F3 7F 2C 00 00 00 00 20 ...D......,.... 
4000000000079940 08 08 00 6E 00 21 00 00 00 02 00 00 00 00 04 00 ...n.!..........
4000000000079950 03 70 00 4A 18 10 80 03 B8 00 42 C0 E1 08 01 80 .p.J......B.....
4000000000079960 09 00 00 00 01 00 20 02 38 30 20 00 00 00 04 00 ...... .80 .....
4000000000079970 11 C8 01 44 18 10 20 C2 88 00 42 00 D8 0B FA 58 ...D.. ...B....X
4000000000079980 11 08 00 6E 00 21 60 00 20 0E F3 03 C0 02 00 43 ...n.!`. ......C
4000000000079990 03 70 00 44 10 10 00 00 00 02 00 C0 21 70 B8 80 .p.D........!p..
40000000000799A0 08 00 38 44 90 11 00 00 00 02 00 00 00 00 04 00 ..8D............
40000000000799B0 09 00 05 40 00 21 E0 00 98 20 20 20 84 08 01 84 ...@.!...   ....
40000000000799C0 10 00 00 00 01 00 60 00 39 0E 61 03 20 FA FF 4A ......`.9.a. ..J
40000000000799D0 10 00 00 00 01 00 00 00 00 02 00 00 80 FA FF 48 ...............H
40000000000799E0 11 00 00 00 01 00 80 00 8C 12 28 04 20 FE FF 4A ..........(. ..J
40000000000799F0 10 00 00 00 01 00 60 00 A0 0E 73 03 B0 FB FF 4A ......`...s....J
4000000000079A00 09 60 05 50 00 21 00 00 00 02 00 00 00 00 04 00 .`.P.!..........
4000000000079A10 01 00 00 00 01 00 C0 1A B0 0C 29 00 00 00 04 00 ..........).....
4000000000079A20 11 30 00 58 87 31 00 00 00 02 80 03 C0 00 00 43 .0.X.1.........C
4000000000079A30 09 00 00 00 01 00 70 10 A0 0C 73 00 00 00 04 00 ......p...s.....
4000000000079A40 10 00 00 00 01 00 70 68 A0 8C F3 03 A0 00 00 42 ......ph.......B
4000000000079A50 08 10 01 5E 18 10 00 00 00 02 00 00 07 40 01 84 ...^.........@..
4000000000079A60 19 38 9D 66 0C 20 00 00 00 02 00 00 68 E5 FF 58 .8.f. ......h..X
4000000000079A70 08 08 00 6E 00 21 00 00 00 02 00 00 07 40 00 84 ...n.!.......@..
4000000000079A80 19 C8 01 44 00 21 00 00 00 02 00 00 E8 27 FA 58 ...D.!.......'.X
4000000000079A90 08 30 00 4E 87 39 00 00 00 02 00 20 00 B8 01 84 .0.N.9..... ....
4000000000079AA0 19 C0 29 00 00 24 00 00 00 02 80 03 40 03 00 43 ..)..$......@..C
4000000000079AB0 13 C8 01 5E 18 10 00 6C 11 7D 2C 00 00 00 00 20 ...^...l.},.... 
4000000000079AC0 09 08 00 6E 00 21 00 00 00 02 00 00 00 00 04 00 ...n.!..........
4000000000079AD0 08 00 00 00 01 00 00 00 00 02 00 00 00 00 04 00 ................
4000000000079AE0 0B 70 00 4A 18 10 E0 70 84 00 40 00 00 00 04 00 .p.J...p..@.....
4000000000079AF0 03 10 01 1C 18 10 00 00 00 02 00 80 84 11 01 84 ................
4000000000079B00 09 18 01 48 10 10 00 00 00 02 00 00 00 00 04 00 ...H............
4000000000079B10 09 00 00 00 01 00 30 12 8C 5C 40 00 00 00 04 00 ......0..\@.....
4000000000079B20 10 00 8C 48 90 11 00 00 00 02 00 00 A0 FA FF 48 ...H...........H
4000000000079B30 08 78 C0 02 3A 24 A0 02 07 64 48 A0 05 0F C8 90 .x..:$...dH.....
4000000000079B40 09 78 91 FB AC 27 40 C3 07 66 48 00 46 0C 18 91 .x...'@..fH.F...
4000000000079B50 08 80 00 1E 10 10 10 02 00 00 42 C0 05 00 00 84 ..........B.....
4000000000079B60 09 00 01 00 00 21 30 03 00 02 48 60 C5 0E B4 90 .....!0...H`....
4000000000079B70 08 80 04 20 00 21 00 00 00 02 00 40 06 0F B4 90 ... .!.....@....
4000000000079B80 09 30 71 4C 00 21 10 A3 04 74 48 C0 00 70 1C C6 .0qL.!...tH..p..
4000000000079B90 08 00 40 1E 90 11 00 00 00 02 00 00 00 00 04 00 ..@.............
4000000000079BA0 02 78 01 5E 18 10 00 00 00 02 00 00 00 00 04 00 .x.^............
4000000000079BB0 18 00 00 00 01 00 00 00 00 02 00 03 30 F8 FF 4A ............0..J
4000000000079BC0 10 00 00 00 01 00 00 00 00 02 00 00 90 F8 FF 48 ...............H
4000000000079BD0 0B 70 C0 02 3A 24 F0 00 38 20 20 00 00 00 04 00 .p..:$..8  .....
4000000000079BE0 09 00 00 00 01 00 F0 F8 3F 7E 46 00 00 00 04 00 ........?~F.....
4000000000079BF0 02 00 3C 1C 90 11 00 B0 01 55 00 00 50 0B 00 07 ..<......U..P...
4000000000079C00 18 00 00 00 01 00 C0 00 30 04 42 80 08 00 84 00 ........0.B.....
4000000000079C10 10 00 00 00 01 00 90 00 8C 10 A8 04 F0 FB FF 4A ...............J
4000000000079C20 09 00 00 00 01 00 30 12 8C 5C 40 00 00 00 04 00 ......0..\@.....
4000000000079C30 10 00 8C 48 90 11 00 00 00 02 00 00 90 F9 FF 48 ...H...........H
4000000000079C40 08 C8 51 FA C1 27 20 02 BC 30 20 40 57 00 00 90 ..Q..' ..0 @W...
4000000000079C50 09 00 00 00 01 00 80 03 00 00 42 00 00 00 04 00 ..........B.....
4000000000079C60 11 C8 01 72 18 10 00 00 00 02 00 00 08 0F FA 58 ...r...........X
4000000000079C70 08 08 00 6E 00 21 00 00 00 02 00 60 04 40 00 84 ...n.!.....`.@..
4000000000079C80 19 C0 01 5C 00 21 00 00 00 02 00 00 88 72 FC 58 ...\.!.......r.X
4000000000079C90 08 08 00 6E 00 21 80 03 88 00 42 20 17 00 00 90 ...n.!....B ....
4000000000079CA0 19 D0 01 46 00 21 B0 03 20 00 42 00 A8 23 FA 58 ...F.!.. .B..#.X
4000000000079CB0 03 70 00 62 18 10 10 00 DC 00 42 C0 E1 08 01 80 .p.b......B.....
4000000000079CC0 0B 10 01 1C 18 10 20 C2 88 00 42 00 00 00 04 00 ...... ...B.....
4000000000079CD0 0B 70 00 44 10 10 E0 10 38 5C 40 00 00 00 04 00 .p.D....8\@.....
4000000000079CE0 10 00 38 44 90 11 00 00 00 02 00 00 D0 FC FF 48 ..8D...........H
4000000000079CF0 11 C0 01 40 00 21 30 12 8C 5C 40 00 58 F4 FF 58 ...@.!0..\@.X..X
4000000000079D00 09 40 20 10 00 21 E0 00 C8 20 20 20 00 B8 01 84 .@ ..!...   ....
4000000000079D10 09 00 00 00 01 00 F0 00 20 20 20 00 00 00 04 00 ........   .....
4000000000079D20 11 30 3C 1C 87 38 00 00 00 02 00 03 10 F7 FF 4B .0<..8.........K
4000000000079D30 10 00 8C 48 90 11 00 00 00 02 00 00 90 F8 FF 48 ...H...........H
4000000000079D40 08 C8 51 FA C1 27 20 02 8C 30 20 40 57 00 00 90 ..Q..' ..0 @W...
4000000000079D50 09 00 00 00 01 00 80 03 00 00 42 00 00 00 04 00 ..........B.....
4000000000079D60 11 C8 01 72 18 10 00 00 00 02 00 00 08 0E FA 58 ...r...........X
4000000000079D70 08 08 00 6E 00 21 00 00 00 02 00 60 04 40 00 84 ...n.!.....`.@..
4000000000079D80 19 C0 01 5C 00 21 00 00 00 02 00 00 88 71 FC 58 ...\.!.......q.X
4000000000079D90 08 08 00 6E 00 21 80 03 88 00 42 40 07 18 01 84 ...n.!....B@....
4000000000079DA0 19 C8 05 00 00 24 B0 03 20 00 42 00 A8 22 FA 58 .....$.. .B..".X
4000000000079DB0 03 70 00 62 18 10 10 00 DC 00 42 C0 E1 08 01 80 .p.b......B.....
4000000000079DC0 0B 10 01 1C 18 10 40 C2 88 00 42 00 00 00 04 00 ......@...B.....
4000000000079DD0 10 18 01 48 10 10 00 00 00 02 00 00 F0 FA FF 48 ...H...........H
4000000000079DE0 08 70 90 FB AC 27 00 00 00 02 00 20 C7 E8 07 9F .p...'..... ....
4000000000079DF0 09 D0 15 00 00 24 00 00 00 02 00 00 07 00 00 84 .....$..........
4000000000079E00 09 70 00 1C 18 10 90 03 E4 30 20 00 00 00 04 00 .p.......0 .....
4000000000079E10 11 10 01 1C 18 10 00 00 00 02 00 00 58 0D FA 58 ............X..X
4000000000079E20 08 08 00 6E 00 21 80 03 88 00 42 00 00 00 04 00 ...n.!....B.....
4000000000079E30 19 D0 01 10 00 21 90 0B 00 00 48 00 18 22 FA 58 .....!....H..".X
4000000000079E40 08 08 00 6E 00 21 00 00 00 02 00 00 A7 00 00 90 ...n.!..........
4000000000079E50 19 C8 01 5E 18 10 00 00 00 02 00 00 38 1F FA 58 ...^........8..X
4000000000079E60 10 00 00 00 01 00 10 00 DC 00 42 00 80 FC FF 48 ..........B....H
4000000000079E70 10 00 00 00 01 00 60 00 8C 0E A8 03 C0 F6 FF 4A ......`........J
4000000000079E80 09 00 05 40 00 21 E0 00 98 20 20 20 84 08 01 84 ...@.!...   ....
4000000000079E90 10 00 00 00 01 00 60 00 39 0E 61 03 50 F5 FF 4A ......`.9.a.P..J
4000000000079EA0 10 00 00 00 01 00 00 00 00 02 00 00 B0 F5 FF 48 ...............H
4000000000079EB0 11 00 00 00 01 00 00 00 00 02 00 00 18 D5 FF 58 ...............X
4000000000079EC0 08 00 00 00 01 00 10 00 DC 00 42 C0 05 40 00 84 ..........B..@..
4000000000079ED0 09 D0 01 44 18 10 80 03 80 00 42 20 07 00 00 84 ...D......B ....
4000000000079EE0 11 00 00 00 01 00 00 00 00 02 00 00 E8 E1 FF 58 ...............X
4000000000079EF0 11 08 00 6E 00 21 70 00 B8 0C 72 03 60 FA FF 49 ...n.!p...r.`..I
4000000000079F00 0B 70 00 4A 18 10 E0 70 84 00 40 00 00 00 04 00 .p.J...p..@.....
4000000000079F10 0B 10 01 1C 18 10 20 C2 88 00 42 00 00 00 04 00 ...... ...B.....
4000000000079F20 0B 70 00 44 10 10 E0 10 38 5C 40 00 00 00 04 00 .p.D....8\@.....
4000000000079F30 10 00 38 44 90 11 00 00 00 02 00 00 80 FA FF 48 ..8D...........H
4000000000079F40 11 C0 01 50 00 21 00 00 00 02 00 00 C8 5C 03 50 ...P.!.......\.P
4000000000079F50 11 08 00 6E 00 21 60 00 20 0E 73 03 B0 00 00 43 ...n.!`. .s....C
4000000000079F60 0B 70 00 4A 18 10 E0 70 84 00 40 00 00 00 04 00 .p.J...p..@.....
4000000000079F70 0B 70 00 1C 18 10 E0 C0 38 00 42 00 00 00 04 00 .p......8.B.....
4000000000079F80 10 18 01 1C 10 10 00 00 00 02 00 00 50 F8 FF 48 ............P..H
4000000000079F90 11 00 00 00 01 00 00 00 00 02 00 00 38 D4 FF 58 ............8..X
4000000000079FA0 08 08 00 6E 00 21 E0 02 20 00 42 00 07 00 01 84 ...n.!.. .B.....
4000000000079FB0 19 C8 01 00 00 21 A0 03 BC 30 20 00 18 E1 FF 58 .....!...0 ....X
4000000000079FC0 11 08 00 6E 00 21 70 00 B8 0C 72 03 A0 F8 FF 49 ...n.!p...r....I
4000000000079FD0 0B 70 00 4A 18 10 E0 70 84 00 40 00 00 00 04 00 .p.J...p..@.....
4000000000079FE0 0B 10 01 1C 18 10 40 C2 88 00 42 00 00 00 04 00 ......@...B.....
4000000000079FF0 10 18 01 48 10 10 00 00 00 02 00 00 20 FB FF 48 ...H........ ..H
400000000007A000 08 C8 11 FA C1 27 20 02 BC 30 20 00 07 00 00 84 .....' ..0 .....
400000000007A010 09 00 00 00 01 00 A0 2B 00 00 48 00 00 00 04 00 .......+..H.....
400000000007A020 11 C8 01 72 18 10 00 00 00 02 00 00 48 0B FA 58 ...r........H..X
400000000007A030 11 08 00 6E 00 21 30 02 20 00 42 00 D8 65 FF 58 ...n.!0. .B..e.X
400000000007A040 08 70 00 68 10 10 10 00 DC 00 42 40 07 18 01 84 .p.h......B@....
400000000007A050 09 D8 01 10 00 21 80 03 88 00 42 20 17 00 00 90 .....!....B ....
400000000007A060 0B 38 00 1C 86 B9 C1 03 38 00 42 00 00 00 04 00 .8......8.B.....
400000000007A070 F1 E0 05 00 00 24 00 00 00 02 00 00 D8 1F FA 58 .....$.........X
400000000007A080 08 08 00 6E 00 21 80 03 80 00 42 00 00 00 04 00 ...n.!....B.....
400000000007A090 19 C8 11 00 00 24 A0 03 BC 30 20 00 38 E0 FF 58 .....$...0 .8..X
400000000007A0A0 03 70 00 4A 18 10 10 00 DC 00 42 C0 E1 08 01 80 .p.J......B.....
400000000007A0B0 0B 10 01 1C 18 10 40 C2 88 00 42 00 00 00 04 00 ......@...B.....
400000000007A0C0 11 18 01 48 10 10 00 00 00 02 00 00 50 FA FF 48 ...H........P..H
400000000007A0D0 08 00 00 00 01 00 00 00 00 02 00 00 00 00 04 00 ................
400000000007A0E0 08 00 00 00 01 00 00 00 00 02 00 00 00 00 04 00 ................
400000000007A0F0 08 00 00 00 01 00 00 00 00 02 00 00 00 00 04 00 ................

;; fn400000000007A100: 400000000007A100
;;   Called from:
;;     400000000007ECBC (in list_all_jobs)
;;     400000000007ED3C (in list_running_jobs)
;;     400000000007EDBC (in list_stopped_jobs)
fn400000000007A100 proc
	{ alloc	r41,ar.pfs,0xF,0x0,0xB; adds	r12,0xFFFFFFFFFFFFFF00,r12; nop.b	0x0 }
	{ addl	r39,-20676,r1; mov	r40,b0; adds	r42,0x0,r1; }
	{ nop.m	0x0; adds	r36,0x0,r0; adds	r39,0x1C,r39 }
	{ adds	r8,0x0,r36; ld4	r14,[r39]; nop.i	0x0; }
	{ cmp4.eq	p06,p07,0x0,r14; nop.i	0x0; (p07) br.cond.dpnt.few	400000000007A170; }

l400000000007A150:
	{ nop.m	0x0; mov.i	ar.pfs,r41; mov.spnt	b0,r40,400000000007A150 }
	{ nop.m	0x0; adds	r12,0x100,r12; br.ret	b0; }

l400000000007A170:
	{ addl	r37,7444,r1; adds	r43,0x90,r12; adds	r35,0x0,r0 }
	{ adds	r34,0x0,r0; adds	r38,0x0,r39; br.call.sptk.many	b0,400000000001BC20; }
	{ addl	r44,17,r0; nop.m	0x0; adds	r1,0x0,r42 }
	{ adds	r43,0x90,r12; nop.m	0x0; br.call.sptk.many	b0,400000000001B400; }
	{ adds	r1,0x0,r42; adds	r43,0x10,r12; br.call.sptk.many	b0,400000000001BC20; }
	{ adds	r1,0x0,r42; adds	r43,0x0,r0; nop.i	0x0 }
	{ adds	r44,0x90,r12; adds	r45,0x10,r12; br.call.sptk.many	b0,400000000001A6C0; }
	{ ld4	r14,[r39]; nop.m	0x0; adds	r1,0x0,r42; }
	{ nop.m	0x0; cmp4.lt	p06,p07,0x0,r14; (p07) br.cond.dpnt.few	400000000007A290; }

l400000000007A200:
	{ ld8	r14,[r37]; adds	r46,0x0,r34; adds	r44,0x0,r32 }
	{ adds	r34,0x1,r34; adds	r45,0x0,r33; add	r14,r14,r35 }
	{ adds	r35,0x8,r35; ld8	r14,[r14]; nop.i	0x0; }
	{ cmp.eq	p07,p06,0x0,r14; adds	r43,0x0,r14; (p07) br.cond.dpnt.few	400000000007A270; }

l400000000007A240:
	{ nop.m	0x0; nop.i	0x0; br.call.sptk.many	b0,4000000000079080; }
	{ nop.m	0x0; adds	r1,0x0,r42; adds	r36,0x0,r8 }
	{ nop.m	0x0; cmp4.eq	p06,p07,0x0,r8; (p07) br.cond.dpnt.few	400000000007A2A0 }

l400000000007A270:
	{ nop.m	0x0; ld4	r14,[r38]; nop.i	0x0; }
	{ nop.m	0x0; cmp4.lt	p06,p07,r34,r14; (p06) br.cond.dptk.few	400000000007A200 }

l400000000007A290:
	{ adds	r36,0x0,r0; nop.m	0x0; nop.i	0x0 }

l400000000007A2A0:
	{ addl	r43,2,r0; nop.m	0x0; adds	r44,0x10,r12 }
	{ adds	r45,0x0,r0; nop.m	0x0; br.call.sptk.many	b0,400000000001A6C0; }
	{ adds	r8,0x0,r36; adds	r1,0x0,r42; mov.i	ar.pfs,r41; }
	{ nop.m	0x0; mov.spnt	b0,r40,400000000007A2D0; nop.i	0x0 }
	{ adds	r12,0x100,r12; nop.m	0x0; br.ret	b0; }
400000000007A2F0 08 00 00 00 01 00 00 00 00 02 00 00 00 00 04 00 ................

l400000000007A300:
	{ alloc	r36,ar.pfs,0x8,0x0,0x6; addl	r33,-20676,r1; mov	r35,b3 }
	{ adds	r37,0x0,r1; nop.m	0x0; nop.i	0x0; }
	{ adds	r15,0x30,r33; ld4	r14,[r15]; nop.i	0x0; }
	{ cmp4.eq	p07,p06,r32,r14; nop.i	0x0; (p07) br.cond.dpnt.few	400000000007A4C0; }

l400000000007A340:
	{ (p06) adds	r16,0x34,r33; (p06) st4	[r32],r15; nop.i	0x0; }

l400000000007A346:
	{ mf.a; addl	r0,0,r1; (p01) nop; }
	{ break.m	0x4000; nop; (p32) nop }
	{ Invalid; (p07) cmp4.eq	p00,p00,r14,r22; (p49) br.call.sptk.few	b3,b0 }
	{ chk.a.nc	f0,3FFFFFFFFF07AB76; nop; (p48) nop }
	{ Invalid; nop; break.i	0x80000 }
	{ (p07) fwb; nop; (p32) nop }
	{ (p07) chk.a.clr	r20,3FFFFFFFFF0FA486; nop; break.i	0x80000 }
	{ (p07) fwb; nop; break.i	0x80000 }
	{ (p03) chk.a.clr	r2,3FFFFFFFFFD3DCA6; Invalid; break.i	0x80000 }
	{ (p07) add	r0,r32,r22; (p07) nop; (p32) nop }
	{ Invalid; nop; break.i	0x80000 }
	{ (p07) fwb; nop; (p48) nop }
	{ chk.a.nc	f0,3FFFFFFFFF07AC06; nop; (p48) nop }
	{ (p07) chk.a.clr	f28,3FFFFFFFFF0FA626; (p19) cmp.eq.or	p00,p02,0x20,r0; (p49) nop; }
	{ adds	r0,0xFFFFFFFFFFFFE000,r1; (p19) nop; add	r0,r0,r32 }
	{ (p19) fwb; (p32) nop; (p16) nop; }
	{ (p03) chk.a.clr	r127,3FFFFFFFFFE3DCC6; nop; break.i	0x80000 }
	{ Invalid; nop; br.call.spnt.few	b0,b2 }
	{ break.m	0x4000; mov	pr,0x4000; break.i	0x80000 }
	{ break.m	0xAA024; nop; break.i	0x80000 }
	{ Invalid; (p34) nop; (p32) nop }
	{ Invalid; nop; (p32) br.call.sptk.few	b3,b0 }
	{ break.m	0x4000; nop; nop }
	{ break.m	0x4000; (p34) nop; (p48) nop }

l400000000007A4C0:
	{ adds	r15,0x34,r33; ld4	r15,[r15]; nop.i	0x0; }
	{ cmp4.eq	p07,p06,r15,r32; (p07) addl	r34,7444,r1; nop.i	0x0; }

l400000000007A4DC:
	{ cmp4.eq.or.andcm	p00,p49,r1,r0; Invalid; mov	pr,r32,0x0 }
	{ Invalid; (p04) cmp.lt.unc	p00,p16,r3,r64; (p01) epc }
	{ (p51) cmp.lt.unc	p63,p17,r63,r36; (p04) cmp.eq	p00,p16,r8,r64; (p36) nop }
	{ (p40) nop; cmp.eq	p32,p16,r9,r64; (p48) mov	pr,r66,0xEE3E }
	{ (p58) cmp.eq.unc	p63,p09,r63,r37; (p01) cmp.lt	p44,p16,r8,r64; Invalid }
	{ Invalid; Invalid; cmp.eq	p00,p00,r32,r0 }
	{ cmp.lt	p32,p11,r22,r0; (p49) cmp.lt.unc	p03,p16,r67,r4; Invalid; }
	{ cmp.lt	p00,p11,r1,r0; (p01) cmp.lt.unc	p05,p16,r3,r64; Invalid }
	{ cmp.eq	p00,p10,r1,r0; (p16) cmp4.ne.and	p00,p28,r67,r97; (p01) cmp4.eq.and	p39,p48,r8,r64 }
	{ cmp4.eq.or.andcm	p32,p42,r0,r66; nop }
	{ Invalid; Invalid; Invalid }
	{ (p36) nop; cmp.lt	p32,p16,r9,r64; (p48) mov	pr,r98,0xEE3E }
	{ Invalid; break.i	0x1000; break.i	0x1000 }
	{ (p55) nop; break.i	0x1000; break.b	0x1000 }
	{ addp4	r0,r1,r0; (p04) nop; (p04) nop }

l400000000007A5C0:
	{ alloc	r36,ar.pfs,0x8,0x0,0x6; addl	r33,-20676,r1; mov	r35,b3 }
	{ adds	r37,0x0,r1; nop.m	0x0; nop.i	0x0; }
	{ adds	r14,0x1C,r33; ld4	r38,[r14]; nop.i	0x0; }
	{ nop.m	0x0; cmp4.eq	p06,p07,0x0,r38; (p06) br.cond.dptk.few	400000000007A670 }

l400000000007A600:
	{ adds	r14,0x30,r33; ld4	r8,[r14]; addl	r14,7444,r1; }
	{ cmp4.eq	p06,p07,0xFFFFFFFFFFFFFFFF,r8; sxt4	r15,r8; (p06) br.cond.dpnt.few	400000000007A670; }

l400000000007A620:
	{ ld8	r14,[r14]; shladd	r14,r15,0x3,r14; nop.i	0x0; }
	{ nop.m	0x0; ld8	r14,[r14]; nop.i	0x0; }
	{ cmp.eq	p06,p07,0x0,r14; adds	r14,0x14,r14; (p06) br.cond.dpnt.few	400000000007A670; }

l400000000007A650:
	{ nop.m	0x0; ld4	r14,[r14]; nop.i	0x0; }
	{ nop.m	0x0; cmp4.eq	p06,p07,0x2,r14; (p06) br.cond.dpnt.few	400000000007A770 }

l400000000007A670:
	{ adds	r14,0x34,r33; ld4	r8,[r14]; addl	r14,7444,r1; }
	{ cmp4.eq	p06,p07,0xFFFFFFFFFFFFFFFF,r8; sxt4	r15,r8; (p06) br.cond.dpnt.few	400000000007A6E0; }

l400000000007A690:
	{ ld8	r14,[r14]; shladd	r14,r15,0x3,r14; nop.i	0x0; }
	{ nop.m	0x0; ld8	r14,[r14]; nop.i	0x0; }
	{ cmp.eq	p06,p07,0x0,r14; adds	r14,0x14,r14; (p06) br.cond.dpnt.few	400000000007A6E0; }

l400000000007A6C0:
	{ nop.m	0x0; ld4	r14,[r14]; nop.i	0x0; }
	{ nop.m	0x0; cmp4.eq	p06,p07,0x2,r14; (p06) br.cond.dpnt.few	400000000007A770 }

l400000000007A6E0:
	{ addl	r39,2,r0; adds	r33,0x1C,r33; br.call.sptk.many	b0,4000000000077200; }
	{ cmp4.eq	p06,p07,0xFFFFFFFFFFFFFFFF,r8; adds	r1,0x0,r37; nop.i	0x0 }
	{ adds	r34,0xFFFFFFFFFFFFFFE4,r33; addl	r39,1,r0; (p07) br.cond.spnt.few	400000000007A770; }

l400000000007A710:
	{ ld4	r38,[r33]; nop.i	0x0; br.call.sptk.many	b0,4000000000077200; }
	{ cmp4.eq	p06,p07,0xFFFFFFFFFFFFFFFF,r8; nop.m	0x0; mov.i	ar.pfs,r36 }
	{ adds	r1,0x0,r37; nop.m	0x0; (p07) br.cond.spnt.few	400000000007A770; }

l400000000007A740:
	{ (p06) adds	r14,0x34,r34; (p06) adds	r34,0x30,r34; mov.spnt	b0,r35,400000000007A740; }

l400000000007A746:
	{ Invalid; nop; add	r0,r0,r32; }
	{ mf.a; nop; (p01) nop; }
	{ break.m	0x4000; Invalid; nop }

l400000000007A770:
	{ adds	r32,0x0,r8; mov.spnt	b0,r35,400000000007A770; mov.i	ar.pfs,r36; }
	{ alloc	r2,ar.pfs,0x1,0x0,0x0; nop.i	0x0; br.cond.sptk.many	400000000007A300; }
400000000007A790 0D 00 00 00 01 00 00 00 00 00 00 00 00 00 04 00 ................
400000000007A7A0 08 00 00 00 01 00 00 00 00 02 00 00 00 00 04 00 ................
400000000007A7B0 08 00 00 00 01 00 00 00 00 02 00 00 00 00 04 00 ................
400000000007A7C0 18 48 41 1A 80 05 C0 00 30 7C 46 00 00 00 00 20 .HA.....0|F.... 
400000000007A7D0 01 08 F1 FA 5E 27 B0 02 00 66 00 40 05 08 00 84 ....^'...f.@....
400000000007A7E0 09 00 00 00 01 00 00 00 00 02 00 80 05 08 CA 00 ................
400000000007A7F0 09 18 71 42 00 21 00 00 00 02 00 00 05 00 C4 00 ..qB.!..........
400000000007A800 09 00 00 00 01 00 E0 00 8C 20 20 00 00 00 04 00 .........  .....
400000000007A810 11 30 00 1C 87 39 00 00 00 02 80 03 40 00 00 43 .0...9......@..C
400000000007A820 03 00 00 00 01 00 F0 5F C1 BF 05 00 90 02 AA 00 ......._........
400000000007A830 02 00 00 00 01 00 00 60 05 55 00 00 80 0A 00 07 .......`.U......
400000000007A840 19 00 00 00 01 00 C0 00 30 04 42 80 08 00 84 00 ........0.B.....
400000000007A850 08 68 41 18 01 21 00 00 00 02 00 40 04 00 00 84 .hA..!.....@....
400000000007A860 19 20 01 00 00 21 00 00 00 02 00 00 C8 13 FA 58 . ...!.........X
400000000007A870 08 70 45 00 00 24 00 00 00 02 00 20 00 50 01 84 .pE..$..... .P..
400000000007A880 19 68 41 18 01 21 00 00 00 02 00 00 88 0B FA 58 .hA..!.........X
400000000007A890 11 08 00 54 00 21 D0 82 30 00 42 00 98 13 FA 58 ...T.!..0.B....X
400000000007A8A0 08 08 00 54 00 21 D0 02 00 00 42 00 00 00 04 00 ...T.!....B.....
400000000007A8B0 19 70 41 18 01 21 F0 82 30 00 42 00 18 FE F9 58 .pA..!..0.B....X
400000000007A8C0 08 00 00 00 01 00 10 00 A8 00 42 00 00 00 04 00 ..........B.....
400000000007A8D0 19 70 00 46 10 10 70 00 80 0C F3 03 20 01 00 42 .p.F..p..... ..B
400000000007A8E0 08 78 FC 1D 3F 23 60 00 38 0E 63 00 00 00 04 00 .x..?#`.8.c.....
400000000007A8F0 19 70 C0 03 32 24 00 81 07 5A C8 03 A0 00 00 43 .p..2$...Z.....C
400000000007A900 08 00 00 00 01 00 00 00 00 02 00 E0 F1 00 20 80 .............. .
400000000007A910 09 20 01 20 10 10 00 00 00 02 00 00 42 09 E8 90 . . ........B...
400000000007A920 09 18 01 20 18 10 00 00 00 02 00 00 F0 08 AA 00 ... ............
400000000007A930 03 70 00 1C 10 10 00 00 00 02 00 20 02 70 40 E6 .p......... .p@.
400000000007A940 09 00 00 00 01 00 10 42 8C 30 28 00 00 00 04 00 .......B.0(.....
400000000007A950 11 70 50 42 00 21 60 00 84 0E 72 03 30 00 00 43 .pPB.!`...r.0..C
400000000007A960 09 00 00 00 01 00 E0 00 38 20 20 00 00 00 04 00 ........8  .....
400000000007A970 10 00 00 00 01 00 70 20 38 0C F3 03 C0 02 00 43 ......p 8......C
400000000007A980 10 00 00 00 01 00 20 0A 88 00 42 A0 C0 FF FF 48 ...... ...B....H
400000000007A990 08 68 09 00 00 24 00 00 00 02 00 C0 05 61 00 84 .h...$.......a..
400000000007A9A0 19 78 01 00 00 21 00 00 00 02 00 00 28 FD F9 58 .x...!......(..X
400000000007A9B0 08 08 00 54 00 21 00 00 00 02 00 00 00 00 04 00 ...T.!..........
400000000007A9C0 03 00 00 00 01 00 F0 5F C1 BF 05 00 90 02 AA 00 ......._........
400000000007A9D0 02 00 00 00 01 00 00 60 05 55 00 00 80 0A 00 07 .......`.U......
400000000007A9E0 18 00 00 00 01 00 C0 00 30 04 42 80 08 00 84 00 ........0.B.....
400000000007A9F0 09 30 00 1C 87 31 30 F9 3B 7E 46 C0 41 09 E8 90 .0...10.;~F.A...
400000000007AA00 F1 18 01 00 00 21 30 99 00 10 C0 03 00 01 00 43 .....!0........C
400000000007AA10 09 00 00 00 01 00 10 01 38 30 20 00 00 00 04 00 ........80 .....
400000000007AA20 03 78 20 22 00 21 00 00 00 02 00 60 32 79 48 80 .x ".!.....`2yH.
400000000007AA30 08 00 00 00 01 00 00 00 00 02 00 00 00 00 04 00 ................
400000000007AA40 09 70 00 22 18 10 00 00 00 02 00 20 02 78 00 84 .p."....... .x..
400000000007AA50 11 80 50 1C 00 21 60 00 38 0E 72 03 30 00 00 43 ..P..!`.8.r.0..C
400000000007AA60 09 00 00 00 01 00 00 01 40 20 20 00 00 00 04 00 ........@  .....
400000000007AA70 11 00 00 00 01 00 70 20 40 0C F3 03 30 00 00 43 ......p @...0..C
400000000007AA80 10 00 00 00 01 00 70 98 3C 0C F0 03 70 00 00 43 ......p.<...p..C
400000000007AA90 10 00 00 00 01 00 F0 40 3C 00 42 00 B0 FF FF 48 .......@<.B....H
400000000007AAA0 09 70 20 1C 00 21 00 00 00 02 00 00 02 00 00 84 .p ..!..........
400000000007AAB0 03 90 00 1C 18 10 00 00 00 02 00 C0 01 90 00 84 ................
400000000007AAC0 09 70 00 1C 18 10 00 00 00 02 00 00 12 80 00 84 .p..............
400000000007AAD0 11 00 00 00 01 00 70 70 48 0C 70 03 F0 FF FF 4A ......ppH.p....J
400000000007AAE0 11 20 91 20 00 20 70 98 3C 0C 70 03 B0 FF FF 4A . . . p.<.p....J
400000000007AAF0 00 00 00 00 01 00 30 02 90 2C 00 00 00 00 04 00 ......0..,......
400000000007AB00 09 30 01 42 18 10 50 E2 F5 BD 4E 40 04 00 00 84 .0.B..P...N@....
400000000007AB10 11 00 00 00 01 00 70 30 01 0C E0 03 F0 02 00 43 ......p0.......C
400000000007AB20 08 08 71 42 00 21 70 30 8D 0C 60 00 00 00 04 00 ..qB.!p0..`.....
400000000007AB30 19 70 C0 03 32 24 F0 80 07 5A 48 03 60 FE FF 4B .p..2$...ZH.`..K
400000000007AB40 09 00 00 00 01 00 50 02 84 20 20 00 00 00 04 00 ......P..  .....
400000000007AB50 11 30 00 4A 87 31 00 00 00 02 80 03 40 FE FF 4B .0.J.1......@..K
400000000007AB60 09 00 00 00 01 00 70 02 3C 20 20 E0 41 09 E8 90 ......p.<  .A...
400000000007AB70 09 00 00 00 01 00 30 02 3C 30 20 00 00 00 04 00 ......0.<0 .....
400000000007AB80 03 70 00 1C 10 10 00 00 00 02 00 20 02 70 40 E6 .p......... .p@.
400000000007AB90 08 00 00 00 01 00 00 00 00 02 00 00 00 00 04 00 ................
400000000007ABA0 09 00 00 00 01 00 10 42 8C 30 28 00 00 00 04 00 .......B.0(.....
400000000007ABB0 11 70 50 42 00 21 60 00 84 0E 72 03 30 00 00 43 .pPB.!`...r.0..C
400000000007ABC0 09 00 00 00 01 00 E0 00 38 20 20 00 00 00 04 00 ........8  .....
400000000007ABD0 10 00 00 00 01 00 70 20 38 0C F3 03 20 01 00 43 ......p 8... ..C
400000000007ABE0 09 00 00 00 01 00 20 0A 88 00 42 00 00 00 04 00 ...... ...B.....
400000000007ABF0 10 00 00 00 01 00 70 28 89 0C 71 03 B0 FF FF 4A ......p(..q....J
400000000007AC00 08 68 09 00 00 24 00 00 00 02 00 C0 05 61 00 84 .h...$.......a..
400000000007AC10 19 78 01 00 00 21 00 00 00 02 00 00 B8 FA F9 58 .x...!.........X
400000000007AC20 10 00 00 00 01 00 10 00 A8 00 42 00 A0 FD FF 48 ..........B....H
400000000007AC30 11 00 00 00 01 00 00 00 00 02 80 08 60 00 00 43 ............`..C
400000000007AC40 0B 08 61 42 00 21 E0 00 84 20 20 00 00 00 04 00 ..aB.!...  .....
400000000007AC50 09 00 00 00 01 00 E0 10 38 5C 40 00 00 00 04 00 ........8\@.....
400000000007AC60 08 00 38 42 90 11 00 00 00 02 00 00 00 00 04 00 ..8B............
400000000007AC70 10 00 00 00 01 00 20 0A 88 00 42 A0 D0 FC FF 48 ...... ...B....H
400000000007AC80 11 00 00 00 01 00 00 00 00 02 00 00 10 FD FF 48 ...............H
400000000007AC90 11 68 01 44 00 21 10 C2 84 00 42 00 B8 E4 FF 58 .h.D.!....B....X
400000000007ACA0 09 40 20 10 00 21 00 00 00 02 00 20 00 50 01 84 .@ ..!..... .P..
400000000007ACB0 09 00 00 00 01 00 E0 00 20 20 20 00 00 00 04 00 ........   .....
400000000007ACC0 11 30 38 48 87 38 00 00 00 02 00 03 C0 FC FF 4B .08H.8.........K
400000000007ACD0 0B 70 00 42 10 10 E0 10 38 5C 40 00 00 00 04 00 .p.B....8\@.....
400000000007ACE0 10 00 38 42 90 11 00 00 00 02 00 00 90 FF FF 48 ..8B...........H
400000000007ACF0 11 70 20 42 00 21 F0 00 00 00 C2 08 B0 00 00 43 .p B.!.........C
400000000007AD00 03 80 00 1C 18 10 00 00 00 02 00 C0 01 80 00 84 ................
400000000007AD10 08 00 00 00 01 00 00 00 00 02 00 00 00 00 04 00 ................
400000000007AD20 09 70 00 1C 18 10 00 00 00 02 00 E0 11 78 00 84 .p...........x..
400000000007AD30 10 00 00 00 01 00 70 70 40 0C 70 03 F0 FF FF 4A ......pp@.p....J
400000000007AD40 09 20 91 1E 05 20 10 C2 84 00 42 40 14 10 01 84 . ... ....B@....
400000000007AD50 01 00 00 00 01 00 E0 00 90 2C 00 00 00 00 04 00 .........,......
400000000007AD60 11 38 98 1C 06 30 00 00 00 02 00 03 30 FC FF 4B .8...0......0..K
400000000007AD70 03 70 00 42 10 10 70 28 89 0C 71 C0 21 70 B8 80 .p.B..p(..q.!p..
400000000007AD80 10 00 38 42 90 11 00 00 00 02 00 03 20 FE FF 4A ..8B........ ..J
400000000007AD90 10 00 00 00 01 00 00 00 00 02 00 00 70 FE FF 48 ............p..H
400000000007ADA0 11 68 01 44 00 21 00 00 00 02 00 00 A8 E3 FF 58 .h.D.!.........X
400000000007ADB0 09 40 20 10 00 21 10 00 A8 00 42 E0 01 00 00 84 .@ ..!....B.....
400000000007ADC0 09 00 00 00 01 00 E0 00 20 20 20 00 00 00 04 00 ........   .....
400000000007ADD0 11 30 38 4E 87 38 E0 40 84 00 42 03 10 FE FF 4B .08N.8.@..B....K
400000000007ADE0 09 00 00 00 01 00 00 01 38 30 20 00 00 00 04 00 ........80 .....
400000000007ADF0 10 00 00 00 01 00 E0 00 40 00 42 00 30 FF FF 48 ........@.B.0..H
400000000007AE00 11 00 00 00 01 00 00 00 00 02 00 00 48 EB 0A 50 ............H..P
400000000007AE10 08 38 20 00 06 30 00 00 00 02 00 C0 04 40 00 84 .8 ..0.......@..
400000000007AE20 09 00 20 4A 98 11 00 00 00 02 00 20 00 50 01 84 .. J....... .P..
400000000007AE30 E9 70 80 00 00 24 00 00 00 02 80 C3 04 02 00 90 .p...$..........
400000000007AE40 F1 00 38 4A 98 11 00 00 00 02 00 00 E0 FC FF 48 ..8J...........H
400000000007AE50 08 00 00 00 01 00 00 00 00 02 00 00 00 00 04 00 ................
400000000007AE60 08 00 00 00 01 00 00 00 00 02 00 00 00 00 04 00 ................
400000000007AE70 08 00 00 00 01 00 00 00 00 02 00 00 00 00 04 00 ................

;; init_job_stats: 400000000007AE80
init_job_stats proc
	{ addl	r15,-7044,r1; nop.m	0x0; addl	r14,-20676,r1 }
	{ addl	r16,-1,r0; nop.m	0x0; addl	r18,5904,r1; }
	{ ld8	r15,[r15]; st4	[r16],r18; addl	r18,5908,r1 }
	{ nop.m	0x0; st4	[r16],r18; nop.i	0x0; }
	{ nop.m	0x0; ld8	r17,[r15],8; nop.i	0x0; }
	{ st8	[r14],r8,8; ld8	r17,[r15],8; nop.i	0x0; }
	{ st8	[r14],r8,8; ld8	r17,[r15],8; nop.i	0x0; }
	{ st8	[r14],r8,8; ld8	r16,[r15],8; nop.i	0x0; }
	{ st8	[r14],r8,8; ld8	r16,[r15],8; nop.i	0x0; }
	{ st8	[r14],r8,8; ld8	r16,[r15],8; nop.i	0x0; }
	{ st8	[r14],r8,8; ld8	r16,[r15],8; nop.i	0x0; }
	{ st8	[r14],r8,8; ld8	r16,[r15],8; nop.i	0x0; }
	{ st8	[r14],r8,8; ld8	r15,[r15]; nop.i	0x0; }
	{ st8	[r15],r14; nop.i	0x0; br.ret	b0; }
400000000007AF60 08 00 00 00 01 00 00 00 00 02 00 00 00 00 04 00 ................
400000000007AF70 08 00 00 00 01 00 00 00 00 02 00 00 00 00 04 00 ................

;; stop_making_children: 400000000007AF80
stop_making_children proc
	{ nop.m	0x0; addl	r14,7420,r1; nop.i	0x0; }
	{ st4	[r0],r14; nop.i	0x0; br.ret	b0; }
400000000007AFA0 08 00 00 00 01 00 00 00 00 02 00 00 00 00 04 00 ................
400000000007AFB0 08 00 00 00 01 00 00 00 00 02 00 00 00 00 04 00 ................

;; cleanup_the_pipeline: 400000000007AFC0
cleanup_the_pipeline proc
	{ alloc	r34,ar.pfs,0x7,0x0,0x4; adds	r12,0xFFFFFFFFFFFFFF00,r12; mov	r33,b1 }
	{ nop.m	0x0; adds	r35,0x0,r1; nop.i	0x0; }
	{ adds	r36,0x90,r12; nop.i	0x0; br.call.sptk.many	b0,400000000001BC20; }
	{ addl	r37,17,r0; nop.m	0x0; adds	r1,0x0,r35 }
	{ adds	r36,0x90,r12; nop.m	0x0; br.call.sptk.many	b0,400000000001B400; }
	{ adds	r1,0x0,r35; adds	r36,0x10,r12; br.call.sptk.many	b0,400000000001BC20; }
	{ adds	r1,0x0,r35; adds	r36,0x0,r0; nop.i	0x0 }
	{ adds	r37,0x90,r12; adds	r38,0x10,r12; br.call.sptk.many	b0,400000000001A6C0; }
	{ adds	r1,0x0,r35; nop.m	0x0; addl	r36,2,r0 }
	{ adds	r37,0x10,r12; adds	r38,0x0,r0; addl	r14,7428,r1; }
	{ nop.m	0x0; ld8	r32,[r14]; nop.i	0x0 }
	{ st8	[r0],r14; nop.m	0x0; br.call.sptk.many	b0,400000000001A6C0; }
	{ cmp.eq	p06,p07,0x0,r32; nop.m	0x0; adds	r1,0x0,r35 }
	{ adds	r36,0x0,r32; nop.m	0x0; (p06) br.cond.dpnt.few	400000000007B0C0; }

l400000000007B0A0:
	{ nop.m	0x0; nop.i	0x0; br.call.sptk.many	b0,40000000000777C0; }
	{ adds	r1,0x0,r35; nop.m	0x0; nop.i	0x0 }

l400000000007B0C0:
	{ nop.m	0x0; mov.i	ar.pfs,r34; mov.spnt	b0,r33,400000000007B0C0 }
	{ nop.m	0x0; adds	r12,0x100,r12; br.ret	b0; }
400000000007B0E0 08 00 00 00 01 00 00 00 00 02 00 00 00 00 04 00 ................
400000000007B0F0 08 00 00 00 01 00 00 00 00 02 00 00 00 00 04 00 ................

;; save_pipeline: 400000000007B100
save_pipeline proc
	{ addl	r14,7428,r1; nop.m	0x0; addl	r15,7420,r1 }
	{ cmp4.eq	p06,p07,0x0,r32; nop.m	0x0; addl	r17,7452,r1; }
	{ ld4	r16,[r15]; ld8	r15,[r14]; nop.i	0x0 }
	{ (p07) st8	[r0],r14; addl	r14,7460,r1; nop.i	0x0 }

l400000000007B136:
	{ Invalid; nop; nop }
	{ mf.a; (p34) nop; break.i	0x80000 }
	{ break.m	0x4000; nop; break.i	0x80000 }
	{ break.m	0x4000; nop; break.i	0x80000 }
	{ break.m	0x4000; nop; (p32) nop }

;; restore_pipeline: 400000000007B180
restore_pipeline proc
	{ addl	r14,7428,r1; cmp4.eq	p07,p06,0x0,r32; addl	r16,7452,r1 }
	{ addl	r17,7460,r1; ld8	r15,[r14]; (p06) addl	r18,1,r0 }

l400000000007B1A0:
	{ ld8	r16,[r16]; (p07) adds	r18,0x0,r0; cmp.eq	p07,p06,0x0,r15 }

l400000000007B1AC:
	{ nop; nop; Invalid }
	{ nop; cmp4.eq.and	p00,p00,r32,r0; zxt4	r0,r0 }
	{ cmp4.eq.and	p00,p43,r1,r0; zxt1	r0,r64; (p36) cmp.lt.unc	p03,p16,r4,r3 }
	{ (p62) invala; (p16) cmp.lt.unc	p04,p08,r3,r100; nop; }
	{ nop; break.m	0x1000; zxt1	r96,r64 }
	{ cmpxchg4.acq	r0,[r0],r1; Invalid; break.i	0x1000 }
	{ Invalid; break.m	0x1000; break.i	0x0 }
	{ nop; break.i	0x1000; break.i	0x1000 }
	{ nop; break.i	0x1000; break.i	0x1000 }
	{ nop; (p36) cmp.lt.unc	p33,p02,r0,r96; zxt4	r33,r14 }

;; start_pipeline: 400000000007B240
;;   Called from:
;;     400000000007B3BC (in making_children)
;;     400000000007C416 (in kill_current_pipeline)
start_pipeline proc
	{ alloc	r33,ar.pfs,0x6,0x0,0x3; addl	r14,7428,r1; nop.b	0x0 }
	{ adds	r34,0x0,r1; nop.m	0x0; mov	r32,b0; }
	{ nop.m	0x0; ld8	r14,[r14]; nop.i	0x0; }
	{ cmp.eq	p06,p07,0x0,r14; nop.i	0x0; (p06) br.cond.dpnt.few	400000000007B2C0; }

l400000000007B280:
	{ nop.m	0x0; nop.i	0x0; br.call.sptk.many	b0,cleanup_the_pipeline; }
	{ adds	r1,0x0,r34; addl	r14,7436,r1; addl	r35,5880,r1; }
	{ st4	[r0],r14; br.call.sptk.many	b0,sh_closepipe; nop.b	0x0; }
	{ adds	r1,0x0,r34; nop.m	0x0; nop.i	0x0; }

l400000000007B2C0:
	{ addl	r14,5868,r1; ld4	r14,[r14]; nop.i	0x0; }
	{ nop.m	0x0; cmp4.eq	p07,p06,0x0,r14; (p06) br.cond.dpnt.few	400000000007B300 }

l400000000007B2E0:
	{ nop.m	0x0; mov.i	ar.pfs,r33; nop.i	0x0; }
	{ nop.m	0x0; mov.spnt	b0,r32,400000000007B2F0; br.ret	b0; }

l400000000007B300:
	{ addl	r35,5880,r1; nop.i	0x0; br.call.sptk.many	b0,400000000001BB40; }
	{ adds	r1,0x0,r34; cmp4.eq	p07,p06,0xFFFFFFFFFFFFFFFF,r8; (p06) br.cond.dptk.few	400000000007B2E0; }

l400000000007B320:
	{ addl	r36,-8028,r1; addl	r37,5,r0; adds	r35,0x0,r0; }
	{ ld8	r36,[r36]; nop.i	0x0; br.call.sptk.many	b0,400000000001AB60; }
	{ adds	r1,0x0,r34; adds	r35,0x0,r8; br.call.sptk.many	b0,sys_error; }
	{ adds	r1,0x0,r34; nop.m	0x0; mov.i	ar.pfs,r33; }
	{ nop.m	0x0; mov.spnt	b0,r32,400000000007B360; br.ret	b0; }
400000000007B370 08 00 00 00 01 00 00 00 00 02 00 00 00 00 04 00 ................

;; making_children: 400000000007B380
making_children proc
	{ addl	r14,7420,r1; ld4	r15,[r14]; nop.i	0x0; }
	{ nop.m	0x0; cmp4.eq	p07,p06,0x0,r15; (p06) br.ret	b0 }

l400000000007B3A0:
	{ nop.m	0x0; addl	r15,1,r0; nop.i	0x0; }
	{ st4	[r15],r14; nop.i	0x0; br.cond.sptk.many	start_pipeline; }
400000000007B3C0 0D 00 00 00 01 00 00 00 00 00 00 00 00 00 04 00 ................
400000000007B3D0 08 00 00 00 01 00 00 00 00 02 00 00 00 00 04 00 ................
400000000007B3E0 08 00 00 00 01 00 00 00 00 02 00 00 00 00 04 00 ................
400000000007B3F0 08 00 00 00 01 00 00 00 00 02 00 00 00 00 04 00 ................

;; delete_job: 400000000007B400
delete_job proc
	{ alloc	r43,ar.pfs,0x10,0x0,0xD; addl	r34,-20676,r1; mov	r42,b2 }
	{ adds	r44,0x0,r1; nop.m	0x0; nop.i	0x0; }
	{ adds	r14,0x1C,r34; ld4	r14,[r14]; nop.i	0x0; }
	{ cmp4.eq	p07,p06,0x0,r14; addl	r14,7464,r1; (p07) br.cond.dpnt.few	400000000007B6F0; }

l400000000007B440:
	{ nop.m	0x0; ld4	r14,[r14]; nop.i	0x0; }
	{ cmp4.eq	p07,p06,0x0,r14; nop.i	0x0; (p06) br.cond.dpnt.few	400000000007B6F0; }

l400000000007B460:
	{ nop.m	0x0; tbit.z	p07,p06,r33,0x0; (p07) br.cond.dptk.few	400000000007B710 }

l400000000007B470:
	{ addl	r14,9028,r1; nop.m	0x0; nop.i	0x0; }
	{ nop.m	0x0; ld4	r14,[r14]; nop.i	0x0; }
	{ nop.m	0x0; cmp4.eq	p06,p07,0x0,r14; (p07) br.cond.dptk.few	400000000007B710 }

l400000000007B4A0:
	{ addl	r37,7444,r1; nop.m	0x0; sxt4	r38,r32; }
	{ shladd	r38,r38,0x3,r0; ld8	r36,[r37]; nop.i	0x0; }
	{ add	r36,r36,r38; ld8	r35,[r36]; nop.i	0x0; }
	{ adds	r39,0x14,r35; ld4	r14,[r39]; nop.i	0x0; }
	{ cmp4.eq	p07,p06,0x2,r14; nop.i	0x0; (p07) br.cond.dpnt.few	400000000007BC10; }

l400000000007B4F0:
	{ nop.m	0x0; tbit.z	p07,p06,r33,0x1; (p07) br.cond.dpnt.few	400000000007B7C0; }

l400000000007B500:
	{ adds	r14,0x38,r34; st8	[r0],r36; adds	r36,0x0,r35; }
	{ nop.m	0x0; ld8	r15,[r14]; nop.i	0x0; }
	{ cmp.eq	p07,p06,r35,r15; nop.i	0x0; (p07) br.cond.dpnt.few	400000000007BA60; }

l400000000007B530:
	{ addl	r14,-20676,r1; nop.m	0x0; nop.i	0x0; }
	{ adds	r14,0x40,r14; ld8	r15,[r14]; nop.i	0x0; }
	{ cmp.eq	p07,p06,r35,r15; nop.i	0x0; (p07) br.cond.dpnt.few	400000000007BA60; }

l400000000007B560:
	{ ld8	r45,[r36],8; nop.i	0x0; br.call.sptk.many	b0,400000000001A7E0; }
	{ nop.m	0x0; adds	r1,0x0,r44; nop.i	0x0 }
	{ ld8	r45,[r36]; nop.m	0x0; br.call.sptk.many	b0,40000000000777C0; }
	{ adds	r14,0x10,r34; ld4	r16,[r39]; adds	r1,0x0,r44; }
	{ ld4	r15,[r14]; cmp4.eq	p06,p07,0x4,r16; sub	r15,r15,r8; }
	{ st4	[r15],r14; nop.i	0x0; (p06) br.cond.dpnt.few	400000000007BA10 }

l400000000007B5C0:
	{ adds	r14,0x20,r35; ld8	r45,[r14]; nop.i	0x0; }
	{ cmp.eq	p06,p07,0x0,r45; nop.i	0x0; (p06) br.cond.dpnt.few	400000000007B600; }

l400000000007B5E0:
	{ nop.m	0x0; nop.i	0x0; br.call.sptk.many	b0,dispose_command; }
	{ adds	r1,0x0,r44; nop.m	0x0; nop.i	0x0 }

l400000000007B600:
	{ adds	r45,0x0,r35; nop.i	0x0; br.call.sptk.many	b0,400000000001A7E0; }
	{ adds	r15,0x28,r34; nop.m	0x0; adds	r1,0x0,r44; }
	{ ld4	r14,[r15]; adds	r14,0xFFFFFFFFFFFFFFFF,r14; nop.i	0x0; }
	{ st4	[r14],r15; cmp4.eq	p07,p06,0x0,r14; (p07) br.cond.dptk.few	400000000007B780 }

l400000000007B640:
	{ adds	r18,0x24,r34; ld8	r15,[r37]; adds	r16,0x20,r34; }
	{ ld4	r14,[r18]; nop.m	0x0; sxt4	r17,r14; }
	{ shladd	r17,r17,0x3,r15; ld8	r17,[r17]; nop.i	0x0; }
	{ cmp.eq	p06,p07,0x0,r17; nop.i	0x0; (p06) br.cond.dpnt.few	400000000007BCA0; }

l400000000007B680:
	{ ld4	r16,[r16]; nop.m	0x0; sxt4	r14,r16; }
	{ shladd	r14,r14,0x3,r15; ld8	r14,[r14]; nop.i	0x0; }
	{ nop.m	0x0; cmp.eq	p06,p07,0x0,r14; (p06) br.cond.dpnt.few	400000000007BB40 }

l400000000007B6B0:
	{ adds	r34,0x30,r34; ld4	r14,[r34]; nop.i	0x0; }
	{ cmp4.eq	p06,p07,r14,r32; adds	r14,0x4,r34; (p06) br.cond.dpnt.few	400000000007B7A0; }

l400000000007B6D0:
	{ nop.m	0x0; ld4	r14,[r14]; nop.i	0x0; }
	{ nop.m	0x0; cmp4.eq	p07,p06,r14,r32; (p07) br.cond.dpnt.few	400000000007B7A0 }

l400000000007B6F0:
	{ nop.m	0x0; mov.i	ar.pfs,r43; nop.i	0x0; }
	{ nop.m	0x0; mov.spnt	b0,r42,400000000007B700; br.ret	b0 }

l400000000007B710:
	{ nop.m	0x0; sxt4	r38,r32; addl	r37,7444,r1; }
	{ shladd	r38,r38,0x3,r0; ld8	r36,[r37]; nop.i	0x0; }
	{ nop.m	0x0; add	r36,r36,r38; nop.i	0x0; }
	{ ld8	r35,[r36]; nop.m	0x0; nop.i	0x0; }

l400000000007B750:
	{ cmp.eq	p06,p07,0x0,r35; adds	r39,0x14,r35; (p06) br.cond.dpnt.few	400000000007B6F0; }

l400000000007B760:
	{ nop.m	0x0; tbit.z	p07,p06,r33,0x1; (p06) br.cond.dptk.few	400000000007B500 }

l400000000007B770:
	{ nop.m	0x0; nop.i	0x0; br.cond.sptk.few	400000000007B7C0 }

l400000000007B780:
	{ adds	r14,0x20,r34; adds	r16,0x24,r34; nop.i	0x0 }
	{ st4	[r0],r14; st4	[r0],r16; br.cond.sptk.few	400000000007B6B0 }

l400000000007B7A0:
	{ nop.m	0x0; mov.spnt	b0,r42,400000000007B7A0; mov.i	ar.pfs,r43; }
	{ alloc	r2,ar.pfs,0x2,0x0,0x0; nop.i	0x0; br.cond.sptk.many	400000000007A5C0; }

l400000000007B7C0:
	{ adds	r45,0x0,r32; nop.i	0x0; br.call.sptk.many	b0,4000000000079140; }
	{ adds	r1,0x0,r44; cmp.eq	p06,p07,0x0,r8; nop.i	0x0 }
	{ adds	r14,0x8,r8; adds	r8,0xC,r8; (p06) br.cond.dpnt.few	400000000007B500; }

l400000000007B7F0:
	{ nop.m	0x0; addl	r36,14900,r1; nop.i	0x0 }
	{ ld4	r41,[r14]; ld4	r45,[r8]; nop.i	0x0; }
	{ nop.m	0x0; nop.i	0x0; br.call.sptk.many	b0,4000000000077B80; }
	{ adds	r1,0x0,r44; nop.m	0x0; adds	r40,0x0,r8 }
	{ addl	r45,16,r0; nop.m	0x0; br.call.sptk.many	b0,xmalloc; }
	{ ld8	r15,[r36]; adds	r16,0xC,r8; adds	r17,0x8,r8 }
	{ st8	[r0],r8; ld8	r14,[r34]; adds	r1,0x0,r44; }
	{ cmp.eq	p07,p06,0x0,r15; st4	[r40],r16; adds	r16,0x8,r36 }
	{ st4	[r41],r17; adds	r40,0x10,r36; (p06) adds	r15,0x10,r36 }

l400000000007B880:
	{ (p06) ld8	r17,[r16]; (p07) st8	[r8],r36; nop.i	0x0; }

l400000000007B886:
	{ mf.a; adds	r0,0x0,r1; (p49) cmp.ltu	p03,p04,r96,r3; }
	{ Invalid; (p07) addl	r1,24847,r0; (p01) br.call.spnt.few	b0,b2; }
	{ mf.a; cmp.lt	p00,p00,0x0,r1; (p49) nop }
	{ adds	r0,0xFFFFFFFFFFFFE000,r1; (p08) nop; break.i	0x80000 }
	{ mf.a; nop; break.i	0x80000 }
	{ (p03) chk.a.clr	r14,3FFFFFFFFF87F1E6; nop; break.i	0x80000 }
	{ (p18) fwb; nop; break.i	0x80000 }
	{ Invalid; nop; (p32) nop }
	{ Invalid; nop; break.b	0x80000 }
	{ (p07) fwb; nop; nop }
	{ break.m	0x4000; (p32) nop; break.i	0x80000 }
	{ Invalid; nop; break.i	0x80000 }
	{ (p07) fwb; Invalid; (p32) nop }
	{ break.m	0x4000; (p08) nop; break.i	0x80000 }
	{ mf.a; nop; (p32) nop }
	{ chk.a.nc	f0,3FFFFFFFFF07C176; nop; (p32) nop }
	{ Invalid; nop; break.b	0x80000 }
	{ (p07) fwb; nop; nop }
	{ break.m	0x4000; (p32) nop; break.i	0x80000 }
	{ Invalid; nop; break.i	0x80000 }
	{ (p07) fwb; Invalid; (p32) nop }
	{ break.m	0x4000; (p08) nop; break.i	0x80000 }
	{ mf.a; nop; break.i	0x80000 }
	{ (p03) chk.a.clr	r15,3FFFFFFFFF87F2F6; nop; break.i	0x80000 }
	{ break.m	0x4000; nop; (p32) nop }

l400000000007BA10:
	{ adds	r14,0xC,r34; nop.m	0x0; adds	r17,0x2C,r34; }
	{ ld4	r16,[r14]; ld4	r15,[r17]; nop.i	0x0; }
	{ sub	r8,r16,r8; adds	r15,0xFFFFFFFFFFFFFFFF,r15; cmp4.lt	p07,p06,r8,r0 }
	{ st4	[r8],r14; st4	[r15],r17; nop.i	0x0; }
	{ (p07) st4	[r0],r14; nop.i	0x0; br.cond.sptk.few	400000000007B5C0 }

l400000000007BA56:
	{ break.m	0x4000; nop; nop }

l400000000007BA60:
	{ st8	[r0],r14; nop.m	0x0; adds	r36,0x0,r35; }

l400000000007BA62:
	{ (p32) break.m	0x23303; chk.s.i	r0,3FFFFFFFFF07BC62; (p48) nop }
	{ (p01) break.m	0x28309; nop; Invalid; }
	{ invala; break.i	0x4200B; nop }
	{ break.m	0x20309; Invalid; Invalid; }
	{ (p34) chk.a.nc	r8,4000000000083EA2; zxt1	r9,r8; pshr4.u	r11,r112,r64 }
	{ Invalid; cmp4.ne.or.andcm	p36,p48,r97,r28; Invalid }
	{ (p33) break.m	0x23203; nop.f	0x80020; (p54) clrrrb }

l400000000007BAD0:
	{ nop.m	0x0; nop.i	0x0; br.cond.sptk.few	400000000007BA10 }
400000000007BAE0 09 30 44 1C 87 38 00 21 89 00 42 C0 01 12 01 84 .0D..8.!..B.....
400000000007BAF0 11 00 44 20 90 11 00 00 00 02 00 03 50 02 00 41 ..D ........P..A
400000000007BB00 0B 80 00 1C 10 10 00 00 00 02 00 C0 01 80 58 00 ..............X.
400000000007BB10 0B 70 38 00 12 20 E0 78 38 00 40 00 00 00 04 00 .p8.. .x8.@.....
400000000007BB20 09 00 00 00 01 00 E0 00 38 30 20 00 00 00 04 00 ........80 .....
400000000007BB30 11 00 00 00 01 00 70 00 38 0C 72 03 80 FB FF 48 ......p.8.r....H

l400000000007BB40:
	{ adds	r14,0xFFFFFFFFFFFFFFFF,r16; cmp4.lt	p07,p06,r16,r0; adds	r17,0x20,r34; }
	{ st4	[r14],r17; (p07) adds	r16,0x0,r0; adds	r17,0x1C,r34; }

l400000000007BB5C:
	{ (p14) cmp.lt	p34,p17,r0,r66; czx1.r	r68,r33; mov	pr,r32,0x0 }

l400000000007BB62:
	{ (p34) break.m	0x710E3; nop.i	0x20; (p01) addl	r0,1703984,r0 }

l400000000007BB68:
	{ Invalid; chk.s.i	r104,400000000027BE68; (p04) break.i	0x8081 }
	{ Invalid; Invalid; Invalid }
	{ (p02) break.m	0x840; (p16) break.m	0x1000; chk.s.i	r0,400000000017BC08 }
	{ Invalid; Invalid; (p60) clrrrb }
	{ (p02) break.m	0x406; (p04) nop }
	{ srlz.d; break.i	0x9430; nop }
	{ Invalid; Invalid; Invalid }
	{ (p33) nop; (p63) ld1.a	r47,[r2]; (p09) nop }
	{ Invalid; (p04) break.m	0x9840; break.i	0x8C81; }
	{ (p01) break.m	0x464; (p16) break.f	0x10000; (p56) break.b	0x8C80 }
	{ (p16) cmp4.gt.or.andcm	p00,p48,r0,r0; (p63) nop; (p53) mov	pr,0x6813E0F }

l400000000007BC10:
	{ addl	r46,-8020,r1; adds	r45,0x0,r0; addl	r47,5,r0; }
	{ ld8	r46,[r46]; nop.i	0x0; br.call.sptk.many	b0,400000000001AB60; }
	{ ld8	r14,[r37]; nop.m	0x0; adds	r1,0x0,r44 }
	{ adds	r45,0x0,r8; adds	r46,0x1,r32; add	r14,r14,r38; }
	{ ld8	r14,[r14]; adds	r14,0x10,r14; nop.i	0x0; }
	{ nop.m	0x0; ld4	r47,[r14]; nop.i	0x0; }
	{ nop.m	0x0; sxt4	r47,r47; br.call.sptk.many	b0,internal_warning; }
	{ ld8	r36,[r37]; adds	r1,0x0,r44; add	r36,r36,r38; }
	{ ld8	r35,[r36]; nop.i	0x0; br.cond.sptk.few	400000000007B750 }

l400000000007BCA0:
	{ adds	r16,0x1C,r34; nop.m	0x0; adds	r17,0x1,r14; }
	{ ld4	r19,[r16]; st4	[r17],r18; nop.i	0x0; }
	{ cmp4.lt	p07,p06,r14,r19; (p06) adds	r14,0xFFFFFFFFFFFFFFFF,r19; nop.i	0x0; }

l400000000007BCCC:
	{ Invalid; cmp.lt	p00,p00,r32,r0; (p32) mov	pr,r100,0xE246 }
	{ (p03) cmp.eq	p00,p01,r64,r33; (p16) deposit	r100,r68,r33,62,8; (p02) break.b	0x16220 }
	{ Invalid; (p34) nop; zxt1	r0,r64 }
	{ Invalid; (p17) nop; (p02) rfi }
	{ cmp.eq	p00,p19,r1,r0; mov	pr,r68,0xE400; Invalid }
	{ (p01) nop; nop; (p18) epc }
	{ invala; cmp.eq	p00,p00,r32,r0; (p32) mov	pr,r68,0xE246 }
	{ (p61) cmp.lt.unc	p63,p08,r63,r37; (p01) nop; (p02) br.wexit.sptk.many	400000000049BDBC }
	{ (p16) nop; zxt1	r73,r64; (p02) cmp.lt	p00,p16,r0,r64 }
	{ (p07) nop; Invalid; rfi; }
	{ cmp.lt	p00,p09,r1,r0; Invalid; Invalid }
	{ invala; cmp.eq	p00,p00,r32,r0; mov	pr,r67,0xE480 }
	{ Invalid; break.i	0x1000; break.b	0x1000 }
	{ (p45) cmp.eq.unc	p63,p09,r63,r36; zxt1	r72,r64; Invalid }
	{ (p07) invala; Invalid; mov	pr,r32,0x0 }
	{ (p08) nop; (p02) cmp.eq.unc	p10,p16,r8,r64; (p01) cmp.lt.unc	p08,p16,r8,r64 }
	{ (p18) nop; Invalid; Invalid; }
	{ Invalid; Invalid; break.i	0x1000 }
	{ (p06) nop; break.i	0x1000; break.b	0x1000 }
	{ cmp.lt	p00,p09,r1,r0; Invalid; break.i	0x1000 }

;; nohup_job: 400000000007BE00
nohup_job proc
	{ addl	r14,-20676,r1; nop.m	0x0; sxt4	r32,r32; }
	{ nop.m	0x0; adds	r14,0x1C,r14; nop.i	0x0; }
	{ nop.m	0x0; ld4	r14,[r14]; nop.i	0x0; }
	{ cmp4.eq	p06,p07,0x0,r14; addl	r14,7444,r1; (p06) br.ret	b0; }

l400000000007BE40:
	{ ld8	r14,[r14]; shladd	r32,r32,0x3,r14; nop.i	0x0; }
	{ ld8	r14,[r32]; adds	r15,0x18,r14; cmp.eq	p06,p07,0x0,r14; }
	{ (p07) ld4	r14,[r15]; (p07) or	r14,0x8,r14; nop.i	0x0; }

l400000000007BE66:
	{ Invalid; cmp4.eq	p00,p00,r0,r1; (p01) nop; }
	{ break.m	0x4000; (p34) nop; Invalid }

;; append_process: 400000000007BE80
append_process proc
	{ alloc	r37,ar.pfs,0x8,0x0,0x7; nop.m	0x0; mov	r36,b4 }
	{ adds	r38,0x0,r1; nop.m	0x0; sxt4	r35,r35; }
	{ addl	r39,32,r0; dep.z	r34,r34,8,8; br.call.sptk.many	b0,xmalloc; }
	{ adds	r1,0x0,r38; adds	r16,0x18,r8; adds	r14,0x0,r8 }
	{ adds	r18,0xC,r8; adds	r17,0x10,r8; addl	r15,7444,r1 }
	{ st8	[r32],r16; ld8	r15,[r15]; nop.i	0x0 }
	{ st8	[r14],r8,8; shladd	r35,r35,0x3,r15; addl	r15,-20676,r1 }
	{ nop.m	0x0; st4	[r33],r14; nop.i	0x0; }
	{ nop.m	0x0; ld8	r16,[r35]; nop.i	0x0 }
	{ st4	[r0],r17; adds	r15,0xC,r15; adds	r16,0x8,r16; }
	{ nop.m	0x0; ld4	r14,[r15]; nop.i	0x0 }
	{ st4	[r34],r18; ld8	r16,[r16]; nop.i	0x0; }
	{ adds	r14,0x1,r14; st4	[r14],r15; adds	r15,0x0,r16; }
	{ nop.m	0x0; ld8	r14,[r15]; nop.i	0x0; }
	{ nop.m	0x0; cmp.eq	p07,p06,r14,r16; (p07) br.cond.dpnt.few	400000000007BFA0; }

l400000000007BF70:
	{ nop.m	0x0; nop.m	0x0; nop.i	0x0 }

l400000000007BF80:
	{ adds	r15,0x0,r14; ld8	r14,[r15]; nop.i	0x0; }
	{ nop.m	0x0; cmp.eq	p07,p06,r14,r16; (p06) br.cond.dptk.few	400000000007BF80 }

l400000000007BFA0:
	{ ld8.a	r14,[r35]; st8	[r8],r15; mov.i	ar.pfs,r37; }
	{ ld8.c.clr	r14,[r35]; mov.spnt	b0,r36,400000000007BFB0; adds	r14,0x8,r14; }
	{ nop.m	0x0; ld8	r14,[r14]; nop.i	0x0; }
	{ st8	[r14],r8; nop.i	0x0; br.ret	b0; }
400000000007BFE0 08 00 00 00 01 00 00 00 00 02 00 00 00 00 04 00 ................
400000000007BFF0 08 00 00 00 01 00 00 00 00 02 00 00 00 00 04 00 ................

;; terminate_current_pipeline: 400000000007C000
terminate_current_pipeline proc
	{ alloc	r34,ar.pfs,0x6,0x0,0x4; addl	r32,7436,r1; nop.b	0x0 }
	{ addl	r15,5896,r1; mov	r33,b1; adds	r35,0x0,r1; }
	{ ld4	r14,[r32]; nop.m	0x0; addl	r37,15,r0; }
	{ cmp4.eq	p06,p07,0x0,r14; adds	r36,0x0,r14; (p06) br.cond.dpnt.few	400000000007C0A0; }

l400000000007C040:
	{ nop.m	0x0; ld4	r15,[r15]; nop.i	0x0; }
	{ cmp4.eq	p06,p07,r15,r14; nop.i	0x0; (p06) br.cond.dpnt.few	400000000007C0A0; }

l400000000007C060:
	{ nop.m	0x0; nop.i	0x0; br.call.sptk.many	b0,400000000001ACE0; }
	{ adds	r1,0x0,r35; ld4	r36,[r32]; addl	r37,18,r0 }
	{ nop.m	0x0; nop.m	0x0; br.call.sptk.many	b0,400000000001ACE0; }
	{ adds	r1,0x0,r35; nop.m	0x0; nop.i	0x0 }

l400000000007C0A0:
	{ nop.m	0x0; mov.i	ar.pfs,r34; nop.i	0x0; }
	{ nop.m	0x0; mov.spnt	b0,r33,400000000007C0B0; br.ret	b0; }

;; terminate_stopped_jobs: 400000000007C0C0
terminate_stopped_jobs proc
	{ alloc	r38,ar.pfs,0xA,0x0,0x8; addl	r35,-20676,r1; nop.b	0x0 }
	{ addl	r34,7444,r1; adds	r39,0x0,r1; mov	r37,b5; }
	{ nop.m	0x0; nop.m	0x0; adds	r32,0x0,r0 }
	{ adds	r33,0x0,r0; adds	r36,0x0,r34; adds	r35,0x1C,r35; }
	{ nop.m	0x0; ld4	r14,[r35]; nop.i	0x0; }
	{ nop.m	0x0; cmp4.lt	p06,p07,0x0,r14; (p07) br.cond.dpnt.few	400000000007C190; }

l400000000007C120:
	{ ld8	r14,[r34]; adds	r33,0x1,r33; add	r14,r14,r32; }
	{ nop.m	0x0; ld8	r14,[r14]; nop.i	0x0; }
	{ adds	r15,0x14,r14; cmp.eq	p06,p07,0x0,r14; (p06) br.cond.dpnt.few	400000000007C170; }

l400000000007C150:
	{ nop.m	0x0; ld4	r15,[r15]; nop.i	0x0; }
	{ nop.m	0x0; cmp4.eq	p07,p06,0x2,r15; (p07) br.cond.dpnt.few	400000000007C1B0 }

l400000000007C170:
	{ ld4	r14,[r35]; nop.m	0x0; adds	r32,0x8,r32; }
	{ nop.m	0x0; cmp4.lt	p06,p07,r33,r14; (p06) br.cond.dptk.few	400000000007C120 }

l400000000007C190:
	{ nop.m	0x0; mov.i	ar.pfs,r38; nop.i	0x0; }
	{ nop.m	0x0; mov.spnt	b0,r37,400000000007C1A0; br.ret	b0 }

l400000000007C1B0:
	{ adds	r14,0x10,r14; nop.m	0x0; addl	r41,15,r0; }
	{ ld4	r40,[r14]; nop.i	0x0; br.call.sptk.many	b0,400000000001ACE0; }
	{ ld8	r14,[r36]; adds	r1,0x0,r39; addl	r41,18,r0; }
	{ add	r14,r14,r32; nop.m	0x0; adds	r32,0x8,r32; }
	{ ld8	r14,[r14]; adds	r14,0x10,r14; nop.i	0x0; }
	{ ld4	r40,[r14]; nop.i	0x0; br.call.sptk.many	b0,400000000001ACE0; }
	{ ld4	r14,[r35]; nop.m	0x0; adds	r1,0x0,r39; }
	{ nop.m	0x0; cmp4.lt	p06,p07,r33,r14; (p06) br.cond.dptk.few	400000000007C120 }

l400000000007C230:
	{ nop.m	0x0; nop.i	0x0; br.cond.sptk.few	400000000007C190; }

;; hangup_all_jobs: 400000000007C240
hangup_all_jobs proc
	{ alloc	r38,ar.pfs,0xA,0x0,0x8; addl	r35,-20676,r1; nop.b	0x0 }
	{ addl	r34,7444,r1; adds	r39,0x0,r1; mov	r37,b5; }
	{ nop.m	0x0; nop.m	0x0; adds	r32,0x0,r0 }
	{ adds	r33,0x0,r0; adds	r36,0x0,r34; adds	r35,0x1C,r35; }
	{ nop.m	0x0; ld4	r14,[r35]; nop.i	0x0; }
	{ nop.m	0x0; cmp4.lt	p06,p07,0x0,r14; (p07) br.cond.dpnt.few	400000000007C310; }

l400000000007C2A0:
	{ ld8	r14,[r34]; adds	r33,0x1,r33; add	r14,r14,r32; }
	{ nop.m	0x0; ld8	r14,[r14]; nop.i	0x0; }
	{ adds	r15,0x18,r14; cmp.eq	p07,p06,0x0,r14; (p07) br.cond.dpnt.few	400000000007C2F0; }

l400000000007C2D0:
	{ nop.m	0x0; ld4	r15,[r15]; nop.i	0x0; }
	{ nop.m	0x0; tbit.z	p07,p06,r15,0x3; (p07) br.cond.dpnt.few	400000000007C330 }

l400000000007C2F0:
	{ ld4	r14,[r35]; nop.m	0x0; adds	r32,0x8,r32; }
	{ nop.m	0x0; cmp4.lt	p06,p07,r33,r14; (p06) br.cond.dptk.few	400000000007C2A0 }

l400000000007C310:
	{ nop.m	0x0; mov.i	ar.pfs,r38; nop.i	0x0; }
	{ nop.m	0x0; mov.spnt	b0,r37,400000000007C320; br.ret	b0 }

l400000000007C330:
	{ adds	r14,0x10,r14; nop.m	0x0; addl	r41,1,r0; }
	{ ld4	r40,[r14]; nop.i	0x0; br.call.sptk.many	b0,400000000001ACE0; }
	{ ld8	r14,[r36]; adds	r1,0x0,r39; add	r14,r14,r32; }
	{ ld8	r14,[r14]; adds	r15,0x14,r14; nop.i	0x0; }
	{ nop.m	0x0; ld4	r15,[r15]; nop.i	0x0; }
	{ nop.m	0x0; cmp4.eq	p07,p06,0x2,r15; (p06) br.cond.dptk.few	400000000007C2F0 }

l400000000007C390:
	{ adds	r14,0x10,r14; addl	r41,18,r0; adds	r32,0x8,r32; }
	{ ld4	r40,[r14]; nop.i	0x0; br.call.sptk.many	b0,400000000001ACE0; }
	{ ld4	r14,[r35]; nop.m	0x0; adds	r1,0x0,r39; }
	{ nop.m	0x0; cmp4.lt	p06,p07,r33,r14; (p06) br.cond.dptk.few	400000000007C2A0 }

l400000000007C3D0:
	{ nop.m	0x0; nop.i	0x0; br.cond.sptk.few	400000000007C310; }
400000000007C3E0 08 00 00 00 01 00 00 00 00 02 00 00 00 00 04 00 ................
400000000007C3F0 08 00 00 00 01 00 00 00 00 02 00 00 00 00 04 00 ................

;; kill_current_pipeline: 400000000007C400
kill_current_pipeline proc
	{ nop.m	0x0; addl	r14,7420,r1; nop.i	0x0; }
	{ st4	[r0],r14; nop.i	0x0; br.cond.sptk.many	start_pipeline; }
400000000007C420 0D 00 00 00 01 00 00 00 00 00 00 00 00 00 04 00 ................
400000000007C430 08 00 00 00 01 00 00 00 00 02 00 00 00 00 04 00 ................

;; get_job_by_pid: 400000000007C440
get_job_by_pid proc
	{ alloc	r36,ar.pfs,0x9,0x0,0x6; adds	r12,0xFFFFFFFFFFFFFF00,r12; mov	r35,b3 }
	{ cmp4.eq	p06,p07,0x0,r33; adds	r37,0x0,r1; (p07) br.cond.dpnt.few	400000000007C4B0; }

l400000000007C460:
	{ adds	r39,0x0,r0; nop.m	0x0; adds	r40,0x0,r0 }
	{ adds	r38,0x0,r32; nop.m	0x0; br.call.sptk.many	b0,4000000000076C40; }
	{ adds	r34,0x0,r8; nop.m	0x0; adds	r1,0x0,r37; }
	{ adds	r8,0x0,r34; mov.i	ar.pfs,r36; mov.spnt	b0,r35,400000000007C490 }
	{ nop.m	0x0; adds	r12,0x100,r12; br.ret	b0; }
