;;; Segment .text (400000000001C480)

;; dispose_function_def_contents: 400000000004C700
dispose_function_def_contents proc
	{ alloc	r34,ar.pfs,0x5,0x0,0x4; adds	r14,0x8,r32; mov	r33,b1 }
	{ nop.m	0x0; adds	r35,0x0,r1; nop.i	0x0; }
	{ ld8	r36,[r14]; nop.i	0x0; br.call.sptk.many	b0,dispose_word; }
	{ adds	r14,0x10,r32; adds	r1,0x0,r35; adds	r32,0x18,r32; }
	{ ld8	r36,[r14]; nop.i	0x0; br.call.sptk.many	b0,dispose_command; }
	{ ld8	r36,[r32]; nop.m	0x0; adds	r1,0x0,r35; }
	{ cmp.eq	p06,p07,0x0,r36; nop.i	0x0; (p06) br.cond.dpnt.few	400000000004C790; }

l400000000004C770:
	{ nop.m	0x0; nop.i	0x0; br.call.sptk.many	b0,400000000001A7E0; }
	{ adds	r1,0x0,r35; nop.m	0x0; nop.i	0x0 }

l400000000004C790:
	{ nop.m	0x0; mov.i	ar.pfs,r34; nop.i	0x0; }
	{ nop.m	0x0; mov.spnt	b0,r33,400000000004C7A0; br.ret	b0; }
400000000004C7B0 08 00 00 00 01 00 00 00 00 02 00 00 00 00 04 00 ................

;; dispose_function_def: 400000000004C7C0
dispose_function_def proc
	{ alloc	r34,ar.pfs,0x5,0x0,0x4; nop.m	0x0; mov	r33,b1 }
	{ adds	r35,0x0,r1; nop.m	0x0; adds	r36,0x0,r32; }
	{ nop.m	0x0; nop.i	0x0; br.call.sptk.many	b0,dispose_function_def_contents; }
	{ adds	r1,0x0,r35; adds	r36,0x0,r32; br.call.sptk.many	b0,400000000001A7E0; }
	{ adds	r1,0x0,r35; nop.m	0x0; mov.i	ar.pfs,r34; }
	{ nop.m	0x0; mov.spnt	b0,r33,400000000004C810; br.ret	b0; }
400000000004C820 00 30 00 00 01 00 70 00 00 02 00 00 01 00 04 00 .0....p.........
400000000004C830 00 30 00 00 01 00 70 00 00 02 00 00 01 00 04 00 .0....p.........
400000000004C840 08 58 41 1C 80 05 C0 00 33 7E 46 C0 00 10 1D E6 .XA.....3~F.....
400000000004C850 09 30 8C 00 E1 18 C0 02 04 00 42 E0 F1 1F 01 52 .0........B....R
400000000004C860 18 70 94 18 00 21 10 21 31 00 42 00 00 00 00 20 .p...!.!1.B.... 
400000000004C870 E1 10 01 00 00 21 D0 02 04 65 00 80 02 00 00 84 .....!...e......
400000000004C880 04 00 00 1C 80 91 88 88 88 88 08 C0 91 00 45 6C ..............El
400000000004C890 09 98 00 00 00 21 80 00 90 00 42 43 14 00 00 84 .....!....BC....
400000000004C8A0 08 40 38 00 E1 18 00 00 00 02 00 40 05 00 C4 00 .@8........@....
400000000004C8B0 D9 88 90 18 00 21 00 00 00 02 00 03 10 02 00 42 .....!.........B
400000000004C8C0 0D 00 00 00 01 00 70 00 18 10 77 00 00 00 04 00 ......p...w.....
400000000004C8D0 04 90 1C 00 E1 50 66 66 66 66 66 C0 71 D6 30 63 .....Pfffff.q.0c
400000000004C8E0 09 80 50 00 00 24 00 00 00 02 00 60 02 88 00 84 ..P..$.....`....
400000000004C8F0 03 30 38 00 E1 18 40 F9 43 7E 46 C0 21 19 01 80 .08...@.C~F.!...
400000000004C900 03 00 00 00 01 00 E0 58 38 74 29 C0 E1 78 14 80 .......X8t)..x..
400000000004C910 03 38 38 00 E1 18 F0 70 00 26 40 E0 F1 70 14 80 .88....p.&@..p..
400000000004C920 0B 78 3C 00 11 20 30 1A 3D 0A 40 E0 F1 77 00 52 .x<.. 0.=.@..w.R
400000000004C930 0F 00 00 00 01 00 00 00 00 02 00 E0 00 38 18 EE .............8..
400000000004C940 0B 90 1C 00 E1 10 00 00 00 02 00 40 52 90 F4 52 ...........@R..R
400000000004C950 0B 90 48 1E 05 20 F0 90 48 22 40 E0 00 90 18 E4 ..H.. ..H"@.....
400000000004C960 0B 78 3C 00 10 20 F0 70 3C 0A 40 C0 01 90 00 84 .x<.. .p<.@.....
400000000004C970 0B 78 C0 1E 00 21 00 00 00 02 00 E0 01 78 50 00 .x...!.......xP.
400000000004C980 11 F8 3F 26 81 17 00 00 00 02 80 03 A0 00 00 43 ..?&...........C
400000000004C990 08 00 00 00 01 00 00 00 00 02 00 00 00 00 04 00 ................
400000000004C9A0 01 38 38 00 E1 18 F0 F8 3B 00 29 00 02 A0 00 84 .88.....;.).....
400000000004C9B0 09 00 00 00 01 00 40 F9 43 7E 46 00 00 00 04 00 ......@.C~F.....
400000000004C9C0 0F 00 00 00 01 00 00 00 00 02 00 E0 00 38 18 EE .............8..
400000000004C9D0 0B 90 1C 00 E1 10 00 00 00 02 00 40 52 90 F4 52 ...........@R..R
400000000004C9E0 0B 90 48 1E 05 20 F0 90 48 22 40 E0 00 90 18 E4 ..H.. ..H"@.....
400000000004C9F0 0B 78 3C 00 10 20 F0 70 3C 0A 40 C0 01 90 00 84 .x<.. .p<.@.....
400000000004CA00 0B 78 C0 1E 00 21 00 00 00 02 00 E0 01 78 50 00 .x...!.......xP.
400000000004CA10 10 F8 3F 26 81 17 00 00 00 02 00 03 90 FF FF 4A ..?&...........J
400000000004CA20 11 70 00 40 00 21 60 00 3C 0E 73 03 D0 03 00 43 .p.@.!`.<.s....C
400000000004CA30 08 00 00 00 01 00 00 00 00 02 00 00 00 00 04 00 ................
400000000004CA40 09 80 04 20 00 21 10 78 38 00 2B 60 02 61 00 84 ... .!.x8.+`.a..
400000000004CA50 01 00 00 00 01 00 F0 00 40 2C 00 40 E2 00 15 80 ........@,.@....
400000000004CA60 0B 78 4C 1E 00 20 F0 00 3C 00 20 00 00 00 04 00 .xL.. ..<. .....
400000000004CA70 01 00 00 00 01 00 F0 00 3C 28 00 00 00 00 04 00 ........<(......
400000000004CA80 10 00 00 00 01 00 70 00 3C 0C 73 03 C0 FF FF 4A ......p.<.s....J
400000000004CA90 01 98 04 24 00 21 20 01 48 2C 00 C0 D1 06 00 90 ...$.! .H,......
400000000004CAA0 01 90 80 24 00 20 40 01 4C 2C 00 00 00 00 04 00 ...$. @.L,......
400000000004CAB0 08 00 38 24 80 11 00 00 00 02 00 00 00 00 04 00 ..8$............
400000000004CAC0 04 00 00 00 01 40 66 66 66 66 66 C0 71 D6 30 63 .....@fffff.q.0c
400000000004CAD0 09 38 8C 00 E1 18 00 00 00 02 00 00 42 01 00 90 .8..........B...
400000000004CAE0 01 30 38 00 E1 18 E0 F8 8F 00 29 40 F2 87 FC 8C .08.......)@....
400000000004CAF0 0F 00 00 00 01 00 00 00 00 02 00 E0 00 38 18 EE .............8..
400000000004CB00 0B 78 1C 00 E1 10 00 00 00 02 00 E0 51 78 F4 52 .x..........Qx.R
400000000004CB10 0B 78 3C 1C 05 20 E0 78 3C 22 40 E0 00 78 18 E4 .x<.. .x<"@..x..
400000000004CB20 0B 70 38 00 10 20 E0 18 39 0A 40 60 04 78 00 84 .p8.. ..9.@`.x..
400000000004CB30 0B 70 C0 1C 00 21 00 00 00 02 00 C0 01 70 50 00 .p...!.......pP.
400000000004CB40 11 F8 3B 22 81 17 00 00 00 02 80 03 A0 00 00 43 ..;"...........C
400000000004CB50 08 00 00 00 01 00 00 00 00 02 00 00 00 00 04 00 ................
400000000004CB60 01 38 8C 00 E1 18 E0 F8 8F 00 29 00 02 90 00 84 .8........).....
400000000004CB70 09 00 00 00 01 00 20 F9 43 7E 46 00 00 00 04 00 ...... .C~F.....
400000000004CB80 0F 00 00 00 01 00 00 00 00 02 00 E0 00 38 18 EE .............8..
400000000004CB90 0B 78 1C 00 E1 10 00 00 00 02 00 E0 51 78 F4 52 .x..........Qx.R
400000000004CBA0 0B 78 3C 1C 05 20 E0 78 3C 22 40 E0 00 78 18 E4 .x<.. .x<"@..x..
400000000004CBB0 0B 70 38 00 10 20 E0 18 39 0A 40 60 04 78 00 84 .p8.. ..9.@`.x..
400000000004CBC0 0B 70 C0 1C 00 21 00 00 00 02 00 C0 01 70 50 00 .p...!.......pP.
400000000004CBD0 10 F8 3B 22 81 17 00 00 00 02 00 03 90 FF FF 4A ..;"...........J
400000000004CBE0 00 00 00 00 01 00 F0 00 4C 2C 00 A0 04 98 00 84 ........L,......
400000000004CBF0 19 00 00 00 01 00 60 00 38 0E 73 00 00 00 00 20 ......`.8.s.... 
400000000004CC00 11 00 00 00 01 80 51 02 4C 00 42 03 80 00 00 43 ......Q.L.B....C
400000000004CC10 09 78 80 1E 00 20 00 00 00 02 00 00 00 00 04 00 .x... ..........
400000000004CC20 09 28 05 4A 00 21 10 70 3C 00 2B 20 02 61 00 84 .(.J.!.p<.+ .a..
400000000004CC30 0B 70 94 26 05 20 E0 70 40 00 40 00 00 00 04 00 .p.&. .p@.@.....
400000000004CC40 03 00 00 00 01 00 E0 00 38 2C 00 C0 11 71 00 80 ........8,...q..
400000000004CC50 0B 70 00 1C 00 10 00 00 00 02 00 C0 01 70 50 00 .p...........pP.
400000000004CC60 10 00 00 00 01 00 70 00 38 0C 73 03 C0 FF FF 4A ......p.8.s....J
400000000004CC70 01 00 00 00 01 00 40 01 94 2C 00 00 00 00 04 00 ......@..,......
400000000004CC80 11 70 80 28 00 20 60 00 84 0E 73 03 10 01 00 42 .p.(. `...s....B
400000000004CC90 08 80 B8 00 00 24 00 00 00 02 00 20 F5 0F FD 8C .....$..... ....
400000000004CCA0 09 78 04 4A 00 21 00 00 00 02 00 C0 00 08 1D C6 .x.J.!..........
400000000004CCB0 08 00 40 1C 80 11 00 49 01 10 40 C0 01 78 58 00 ..@....I..@..xX.
400000000004CCC0 E2 28 01 1E 00 21 00 00 00 02 00 00 02 82 04 80 .(...!..........
400000000004CCD0 F9 A0 00 1C 00 21 70 02 39 00 C0 03 C0 00 00 43 .....!p.9......C
400000000004CCE0 02 70 38 20 00 20 F0 A0 07 58 48 C0 E1 38 11 80 .p8 . ...XH..8..
400000000004CCF0 02 40 01 1E 18 10 00 00 00 02 00 00 E0 08 AA 00 .@..............
400000000004CD00 09 30 11 50 10 14 00 00 00 02 00 80 04 40 58 00 .0.P.........@X.
400000000004CD10 01 00 00 00 01 00 60 02 98 2C 00 C0 05 20 01 84 ......`..,... ..
400000000004CD20 11 78 01 4C 00 21 00 00 00 02 00 00 F8 AB 0E 50 .x.L.!.........P
400000000004CD30 08 40 C0 10 00 21 00 00 00 02 00 20 00 60 01 84 .@...!..... .`..
400000000004CD40 09 70 01 48 00 21 00 00 00 02 00 E0 05 30 01 84 .p.H.!.......0..
400000000004CD50 11 08 20 4E 80 15 00 00 00 02 00 00 B8 AC 0E 50 .. N...........P
400000000004CD60 10 00 00 00 01 00 10 00 B0 00 42 A0 A0 FF FF 48 ..........B....H
400000000004CD70 09 00 00 00 01 00 50 12 94 00 42 00 00 00 04 00 ......P...B.....
400000000004CD80 03 28 95 52 00 20 00 00 00 02 00 80 02 28 59 00 .(.R. .......(Y.
400000000004CD90 01 00 00 00 01 00 70 00 88 0C 28 C0 01 A2 00 80 ......p...(.....
400000000004CDA0 E2 28 05 4A 00 E1 F1 98 03 00 C8 83 02 28 59 00 .(.J.........(Y.
400000000004CDB0 E3 00 3C 1C 80 11 80 00 94 00 42 80 02 A2 00 80 ..<.......B.....
400000000004CDC0 03 00 00 28 80 11 00 58 01 55 00 00 D0 0A AA 00 ...(...X.U......
400000000004CDD0 00 00 00 00 01 00 00 50 05 80 03 00 00 00 04 00 .......P........
400000000004CDE0 18 60 80 18 00 21 00 00 00 02 00 80 08 00 84 00 .`...!..........
400000000004CDF0 08 90 00 00 00 21 00 00 00 02 00 C0 D1 06 00 90 .....!..........
400000000004CE00 03 A0 04 00 00 24 30 09 00 00 48 40 02 92 00 80 .....$0...H@....
400000000004CE10 11 00 38 24 80 11 00 00 00 02 00 00 B0 FC FF 48 ..8$...........H
400000000004CE20 08 00 00 00 01 00 00 00 00 02 00 00 00 00 04 00 ................
400000000004CE30 08 00 00 00 01 00 00 00 00 02 00 00 00 00 04 00 ................
400000000004CE40 18 18 19 0A 80 05 60 00 01 0E 61 00 00 00 00 20 ......`...a.... 
400000000004CE50 11 20 01 02 00 21 20 02 00 62 00 03 30 00 00 43 . ...! ..b..0..C
400000000004CE60 11 00 00 00 01 00 50 02 80 00 42 00 E8 F4 FC 58 ......P...B....X
400000000004CE70 08 08 00 48 00 21 00 00 00 02 00 00 00 00 04 00 ...H.!..........
400000000004CE80 11 30 84 00 87 30 50 02 84 00 42 03 30 00 00 43 .0...0P...B.0..C
400000000004CE90 11 00 00 00 01 00 00 00 00 02 00 00 B8 F4 FC 58 ...............X
400000000004CEA0 08 08 00 48 00 21 00 00 00 02 00 00 00 00 04 00 ...H.!..........
400000000004CEB0 01 00 00 00 01 00 00 18 01 55 00 00 00 00 04 00 .........U......
400000000004CEC0 11 00 00 00 01 00 00 10 05 80 03 80 08 00 84 00 ................
400000000004CED0 08 00 00 00 01 00 00 00 00 02 00 00 00 00 04 00 ................
400000000004CEE0 08 00 00 00 01 00 00 00 00 02 00 00 00 00 04 00 ................
400000000004CEF0 08 00 00 00 01 00 00 00 00 02 00 00 00 00 04 00 ................

;; close_fd_bitmap: 400000000004CF00
close_fd_bitmap proc
	{ alloc	r36,ar.pfs,0x7,0x0,0x6; mov	r35,b3; cmp.eq	p07,p06,0x0,r32 }
	{ adds	r37,0x0,r1; adds	r34,0x8,r32; (p07) br.cond.dpnt.few	400000000004CF80; }

l400000000004CF20:
	{ adds	r33,0x0,r0; ld4	r15,[r32]; nop.i	0x0; }
	{ nop.m	0x0; cmp4.lt	p07,p06,0x0,r15; (p06) br.cond.dpnt.few	400000000004CF80; }

l400000000004CF40:
	{ ld8	r14,[r34]; add	r14,r14,r33; nop.i	0x0; }
	{ ld1	r14,[r14]; nop.m	0x0; sxt1	r14,r14; }
	{ cmp4.eq	p06,p07,0x0,r14; adds	r14,0x1,r33; (p07) br.cond.dpnt.few	400000000004CFA0; }

l400000000004CF70:
	{ adds	r33,0x1,r33; cmp4.lt	p06,p07,r14,r15; (p06) br.cond.dptk.few	400000000004CF40 }

l400000000004CF80:
	{ nop.m	0x0; mov.i	ar.pfs,r36; nop.i	0x0; }
	{ nop.m	0x0; mov.spnt	b0,r35,400000000004CF90; br.ret	b0; }

l400000000004CFA0:
	{ adds	r38,0x0,r33; nop.i	0x0; br.call.sptk.many	b0,400000000001C340; }
	{ nop.m	0x0; ld8	r14,[r34]; adds	r1,0x0,r37 }
	{ ld4.a	r15,[r32]; add	r14,r14,r33; nop.i	0x0; }
	{ st1	[r0],r14; adds	r14,0x1,r33; adds	r33,0x1,r33; }
	{ nop.m	0x0; ld4.c.clr	r15,[r32]; nop.i	0x0; }
	{ nop.m	0x0; cmp4.lt	p06,p07,r14,r15; (p06) br.cond.dptk.few	400000000004CF40 }

l400000000004D000:
	{ nop.m	0x0; nop.i	0x0; br.cond.sptk.few	400000000004CF80; }
400000000004D010 08 00 00 00 01 00 00 00 00 02 00 00 00 00 04 00 ................
400000000004D020 08 00 00 00 01 00 00 00 00 02 00 00 00 00 04 00 ................
400000000004D030 08 00 00 00 01 00 00 00 00 02 00 00 00 00 04 00 ................
400000000004D040 08 18 21 0A 80 05 60 22 F7 CB 4F 40 04 00 C4 00 ..!...`"..O@....
400000000004D050 02 20 01 02 00 21 00 00 00 02 00 A0 04 00 00 84 . ...!..........
400000000004D060 19 38 15 00 00 24 60 02 98 30 20 00 08 DB FC 58 .8...$`..0 ....X
400000000004D070 08 08 00 48 00 21 50 02 20 00 42 00 00 00 04 00 ...H.!P. .B.....
400000000004D080 19 30 01 40 00 21 70 02 84 00 42 00 48 42 02 50 .0.@.!p...B.HB.P
400000000004D090 09 08 00 48 00 21 00 00 00 02 00 00 30 02 AA 00 ...H.!......0...
400000000004D0A0 11 00 00 00 01 00 00 10 05 80 03 80 08 00 84 00 ................
400000000004D0B0 08 00 00 00 01 00 00 00 00 02 00 00 00 00 04 00 ................

;; dispose_fd_bitmap: 400000000004D0C0
dispose_fd_bitmap proc
	{ alloc	r34,ar.pfs,0x5,0x0,0x4; adds	r14,0x8,r32; nop.b	0x0 }
	{ adds	r35,0x0,r1; nop.m	0x0; mov	r33,b1; }
	{ nop.m	0x0; ld8	r36,[r14]; nop.i	0x0; }
	{ cmp.eq	p06,p07,0x0,r36; nop.i	0x0; (p06) br.cond.dpnt.few	400000000004D120; }

l400000000004D100:
	{ nop.m	0x0; nop.i	0x0; br.call.sptk.many	b0,400000000001A7E0; }
	{ adds	r1,0x0,r35; nop.m	0x0; nop.i	0x0 }

l400000000004D120:
	{ adds	r36,0x0,r32; nop.i	0x0; br.call.sptk.many	b0,400000000001A7E0; }
	{ adds	r1,0x0,r35; nop.m	0x0; mov.i	ar.pfs,r34; }
	{ nop.m	0x0; mov.spnt	b0,r33,400000000004D140; br.ret	b0; }
400000000004D150 08 00 00 00 01 00 00 00 00 02 00 00 00 00 04 00 ................
400000000004D160 08 00 00 00 01 00 00 00 00 02 00 00 00 00 04 00 ................
400000000004D170 08 00 00 00 01 00 00 00 00 02 00 00 00 00 04 00 ................
400000000004D180 18 10 1D 08 80 05 60 00 80 0E 72 00 00 00 00 20 ......`...r.... 
400000000004D190 01 20 D1 FB E5 27 10 02 00 62 00 60 04 08 00 84 . ...'...b.`....
400000000004D1A0 C9 28 B1 FB E5 27 40 02 90 30 20 C0 04 00 00 84 .(...'@..0 .....
400000000004D1B0 09 00 00 00 01 C0 51 02 80 00 42 00 00 00 04 00 ......Q...B.....
400000000004D1C0 D1 28 01 4A 18 10 00 00 00 02 00 00 08 B2 01 50 .(.J...........P
400000000004D1D0 09 40 A0 10 00 21 10 00 8C 00 42 00 20 02 AA 00 .@...!....B. ...
400000000004D1E0 03 70 00 10 10 10 00 08 05 80 03 C0 E1 77 B0 88 .p...........w..
400000000004D1F0 11 00 38 10 90 11 00 00 00 02 00 80 08 00 84 00 ..8.............
400000000004D200 08 10 19 08 80 05 00 00 00 02 00 20 04 00 C4 00 ........... ....
400000000004D210 09 18 01 02 00 21 00 00 00 02 00 80 04 00 01 84 .....!..........
400000000004D220 11 28 05 00 00 24 00 00 00 02 00 00 28 44 09 50 .(...$......(D.P
400000000004D230 11 08 00 46 00 21 40 02 80 00 42 00 D8 EB FF 58 ...F.!@...B....X
400000000004D240 09 08 00 46 00 21 00 00 00 02 00 00 20 02 AA 00 ...F.!...... ...
400000000004D250 11 00 00 00 01 00 00 08 05 80 03 80 08 00 84 00 ................
400000000004D260 08 00 00 00 01 00 00 00 00 02 00 00 00 00 04 00 ................
400000000004D270 08 00 00 00 01 00 00 00 00 02 00 00 00 00 04 00 ................
400000000004D280 08 10 19 08 80 05 00 00 00 02 00 20 04 00 C4 00 ........... ....
400000000004D290 09 18 01 02 00 21 00 00 00 02 00 80 04 00 01 84 .....!..........
400000000004D2A0 11 28 01 00 00 21 00 00 00 02 00 00 C8 DB FC 58 .(...!.........X
400000000004D2B0 11 08 00 46 00 21 40 02 80 00 42 00 98 F0 FC 58 ...F.!@...B....X
400000000004D2C0 09 08 00 46 00 21 00 00 00 02 00 00 20 02 AA 00 ...F.!...... ...
400000000004D2D0 11 00 00 00 01 00 00 08 05 80 03 80 08 00 84 00 ................
400000000004D2E0 08 00 00 00 01 00 00 00 00 02 00 00 00 00 04 00 ................
400000000004D2F0 08 00 00 00 01 00 00 00 00 02 00 00 00 00 04 00 ................
400000000004D300 08 70 4D 22 80 05 40 62 07 72 48 00 06 00 CC 00 .pM"..@b.rH.....
400000000004D310 09 78 01 02 00 21 00 00 00 02 00 20 02 18 41 E6 .x...!..... ..A.
400000000004D320 09 00 00 00 01 00 00 00 00 02 00 A0 05 00 C4 00 ................
400000000004D330 10 50 01 48 10 10 00 00 00 02 00 08 90 02 00 42 .P.H...........B
400000000004D340 10 00 00 00 01 00 60 30 88 0E 28 03 80 02 00 42 ......`0..(....B
400000000004D350 09 70 F0 FB B2 27 50 62 F7 69 4F C0 44 EC CB 9E .p...'Pb.iO.D...
400000000004D360 09 70 00 1C 18 10 50 02 94 30 20 00 00 00 04 00 .p....P..0 .....
400000000004D370 08 00 00 00 01 00 60 70 80 0E 70 00 00 00 04 00 ......`p..p.....
400000000004D380 19 30 01 4C 18 10 00 00 00 02 00 03 20 05 00 43 .0.L........ ..C
400000000004D390 11 30 94 40 07 38 00 00 00 02 00 03 10 05 00 43 .0.@.8.........C
400000000004D3A0 11 38 98 40 06 38 00 00 00 02 80 03 00 05 00 43 .8.@.8.........C
400000000004D3B0 09 00 00 00 01 80 71 02 00 00 42 03 05 00 00 84 ......q...B.....
400000000004D3C0 0B 70 70 FB B2 27 E0 00 38 30 20 00 00 00 04 00 .pp..'..80 .....
400000000004D3D0 11 00 00 00 01 00 60 70 80 0E 70 03 50 02 00 43 ......`p..p.P..C
400000000004D3E0 E8 48 01 00 00 21 00 00 00 02 00 00 00 00 04 00 .H...!..........
400000000004D3F0 0B 30 E1 02 32 24 00 00 00 02 00 00 00 00 04 00 .0..2$..........
400000000004D400 09 00 00 00 01 00 E0 00 98 20 20 00 00 00 04 00 .........  .....
400000000004D410 10 00 00 00 01 00 60 00 38 0E 73 03 F0 02 00 42 ......`.8.s....B
400000000004D420 10 00 00 00 01 00 00 00 00 02 00 08 00 05 00 42 ...............B
400000000004D430 09 60 B1 FA B3 27 F0 60 04 6E 48 C0 81 0F D8 90 .`...'.`.nH.....
400000000004D440 09 00 00 00 01 00 C0 02 B0 30 20 00 00 00 04 00 .........0 .....
400000000004D450 11 38 B0 40 06 38 00 00 00 02 80 03 60 06 00 43 .8.@.8......`..C
400000000004D460 08 30 94 40 07 38 00 01 38 20 20 00 00 00 04 00 .0.@.8..8  .....
400000000004D470 0A 88 00 1E 10 90 51 0A 00 00 48 20 12 88 00 84 ......Q...H ....
400000000004D480 02 88 01 42 18 10 00 00 00 02 80 A3 04 00 00 84 ...B............
400000000004D490 0B 00 44 1E 90 11 50 82 94 1C 40 00 00 00 04 00 ..D...P...@.....
400000000004D4A0 0B 00 94 1C 90 11 E0 40 80 30 28 00 00 00 04 00 .......@.0(.....
400000000004D4B0 11 08 E0 41 19 16 60 70 04 80 03 00 68 00 80 10 ...A..`p....h...
400000000004D4C0 09 00 00 00 01 00 10 00 BC 00 42 A0 04 40 00 84 ..........B..@..
400000000004D4D0 08 00 00 00 01 00 00 00 00 02 00 00 00 00 04 00 ................
400000000004D4E0 0B 30 00 46 87 B9 31 0A 00 00 48 00 00 00 04 00 .0.F..1...H.....
400000000004D4F0 EB 18 01 00 00 21 90 4A 8D 18 40 00 00 00 04 00 .....!.J..@.....
400000000004D500 11 00 00 00 01 00 60 00 A4 0E F3 03 40 03 00 43 ......`.....@..C
400000000004D510 11 30 00 50 87 39 10 03 9C 00 42 03 90 00 00 43 .0.P.9....B....C
400000000004D520 03 70 00 48 10 10 60 00 9C 0E 72 40 E5 50 01 80 .p.H..`...r@.P..
400000000004D530 13 00 A8 48 90 91 01 20 00 80 21 00 D8 08 06 50 ...H... ..!....P
400000000004D540 08 00 00 00 01 00 10 00 BC 00 42 20 06 38 01 84 ..........B .8..
400000000004D550 19 00 00 00 01 00 00 00 00 02 00 00 38 BA 09 50 ............8..P
400000000004D560 09 08 00 5E 00 21 00 00 00 02 00 00 00 00 04 00 ...^.!..........
400000000004D570 02 88 11 FA E6 27 00 00 00 02 00 00 00 00 04 00 .....'..........
400000000004D580 19 88 01 62 18 10 00 00 00 02 00 00 08 48 06 50 ...b.........H.P
400000000004D590 08 08 00 5E 00 21 00 00 00 02 00 00 00 00 04 00 ...^.!..........
400000000004D5A0 03 40 00 4A 00 21 F0 87 C1 BF 05 00 E0 02 AA 00 .@.J.!..........
400000000004D5B0 10 00 00 00 01 00 00 68 05 80 03 80 08 00 84 00 .......h........
400000000004D5C0 08 28 B1 FB B4 27 00 00 00 02 00 C0 44 EC CB 9E .(...'......D...
400000000004D5D0 09 38 01 00 00 21 00 00 00 02 00 00 05 00 00 84 .8...!..........
400000000004D5E0 09 28 01 4A 18 10 60 02 98 30 20 00 00 00 04 00 .(.J..`..0 .....
400000000004D5F0 11 70 F0 FB B2 27 60 30 81 0E 70 03 30 00 00 43 .p...'`0..p.0..C
400000000004D600 09 00 00 00 01 00 E0 00 38 30 20 00 00 00 04 00 ........80 .....
400000000004D610 11 00 00 00 01 00 60 70 80 0E F0 03 B0 FD FF 4A ......`p.......J
400000000004D620 10 00 00 00 01 00 60 00 8C 0E 73 03 50 02 00 43 ......`...s.P..C
400000000004D630 09 58 91 03 37 24 00 00 00 02 00 20 86 00 00 90 .X..7$..... ....
400000000004D640 0B 00 00 00 01 00 20 03 AC 30 20 00 00 00 04 00 ...... ..0 .....
400000000004D650 09 00 00 00 01 00 60 00 C8 0E 72 00 00 00 04 00 ......`...r.....
400000000004D660 D3 48 05 00 00 A4 01 C8 FE FF 25 00 A8 CB 01 50 .H........%....P
400000000004D670 11 00 00 00 01 00 10 00 BC 00 42 08 60 00 00 42 ..........B.`..B
400000000004D680 01 00 00 00 01 00 60 B0 88 0E 28 20 46 E9 D3 9E ......`...( F...
400000000004D690 C9 90 F1 FB E5 27 10 03 C4 30 20 00 00 00 04 00 .....'...0 .....
400000000004D6A0 09 00 00 00 01 80 21 03 C8 30 20 00 00 00 04 00 ......!..0 .....
400000000004D6B0 11 00 00 00 01 C0 21 03 00 00 42 00 58 49 06 50 ......!...B.XI.P
400000000004D6C0 09 08 00 5E 00 21 00 00 00 02 00 00 00 00 04 00 ...^.!..........
400000000004D6D0 09 30 E1 02 32 24 00 00 AC 30 23 20 15 00 00 90 .0..2$...0# ....
400000000004D6E0 0B 00 00 00 01 00 E0 00 98 20 20 00 00 00 04 00 .........  .....
400000000004D6F0 11 00 00 00 01 00 60 00 38 0E F3 03 30 FD FF 4A ......`.8...0..J
400000000004D700 08 30 94 40 07 38 F0 60 04 6E 48 C0 81 0F D8 90 .0.@.8.`.nH.....
400000000004D710 0A 88 01 42 18 10 00 01 38 20 20 A3 14 00 00 90 ...B....8  .....
400000000004D720 0B 88 00 1E 10 D0 51 02 00 00 42 20 12 88 00 84 ......Q...B ....
400000000004D730 09 28 41 4A 0E 20 00 88 3C 20 23 00 00 00 04 00 .(AJ. ..< #.....
400000000004D740 0B 00 94 1C 90 11 E0 40 80 30 28 00 00 00 04 00 .......@.0(.....
400000000004D750 00 00 00 00 01 00 60 70 04 80 03 00 00 00 04 00 ......`p........
400000000004D760 19 08 E0 41 19 16 00 00 00 02 00 00 68 00 80 10 ...A........h...
400000000004D770 09 70 00 4C 10 10 10 00 BC 00 42 A0 04 40 00 84 .p.L......B..@..
400000000004D780 10 00 00 00 01 00 60 00 38 0E 73 03 60 FD FF 4A ......`.8.s.`..J
400000000004D790 10 00 00 00 01 00 00 00 00 02 00 08 80 FD FF 4A ...............J
400000000004D7A0 0B 70 B0 FA B3 27 E0 00 38 30 20 00 00 00 04 00 .p...'..80 .....
400000000004D7B0 10 00 00 00 01 00 70 70 80 0C 70 03 30 FD FF 4A ......pp..p.0..J
400000000004D7C0 09 00 00 00 01 00 B0 22 07 6E 48 00 00 00 04 00 .......".nH.....
400000000004D7D0 09 00 00 00 01 00 00 00 00 02 00 00 00 00 04 00 ................
400000000004D7E0 09 70 00 56 18 10 00 00 00 02 00 20 46 E9 9B 9F .p.V....... F...
400000000004D7F0 11 30 00 1C 07 39 00 00 00 02 00 03 F0 FC FF 4B .0...9.........K
400000000004D800 11 88 01 62 18 10 00 00 00 02 00 00 88 45 06 50 ...b.........E.P
400000000004D810 03 30 00 46 87 39 10 00 BC 00 42 63 14 00 00 90 .0.F.9....Bc....
400000000004D820 EB 18 01 00 00 21 90 4A 8D 18 40 00 00 00 04 00 .....!.J..@.....
400000000004D830 11 00 00 00 01 00 60 00 A4 0E 73 03 E0 FC FF 4A ......`...s....J
400000000004D840 09 00 00 00 01 00 10 63 F4 CD 4F 00 00 00 04 00 .......c..O.....
400000000004D850 11 88 01 62 18 10 00 00 00 02 00 00 F8 46 06 50 ...b.........F.P
400000000004D860 11 00 00 00 01 00 10 00 BC 00 42 00 B0 FC FF 48 ..........B....H
400000000004D870 09 00 00 00 01 00 10 63 F4 CD 4F 00 00 00 04 00 .......c..O.....
400000000004D880 11 88 01 62 18 10 00 00 00 02 00 00 48 48 06 50 ...b........HH.P
400000000004D890 11 00 00 00 01 00 10 00 BC 00 42 00 A0 FD FF 48 ..........B....H
400000000004D8A0 09 00 00 00 01 00 10 23 F4 CD 4F 00 00 00 04 00 .......#..O.....
400000000004D8B0 11 88 01 62 18 10 00 00 00 02 00 00 18 48 06 50 ...b.........H.P
400000000004D8C0 03 08 00 5E 00 21 20 23 00 00 48 20 C6 0E E4 90 ...^.! #..H ....
400000000004D8D0 11 00 00 00 01 00 00 00 00 02 00 00 F8 4A 06 50 .............J.P
400000000004D8E0 11 08 00 5E 00 21 10 13 02 00 48 00 28 23 06 50 ...^.!....H.(#.P
400000000004D8F0 10 08 00 5E 00 21 60 00 20 0E F3 03 A0 00 00 43 ...^.!`. ......C
400000000004D900 08 38 01 00 00 21 00 00 00 02 00 00 00 00 04 00 .8...!..........
400000000004D910 11 00 00 48 90 11 80 0A 00 00 48 00 E0 FC FF 48 ...H......H....H
400000000004D920 08 30 94 40 07 38 F0 60 04 6E 48 C0 81 0F D8 90 .0.@.8.`.nH.....
400000000004D930 0A 88 01 42 18 10 00 01 38 20 20 A3 14 00 00 90 ...B....8  .....
400000000004D940 0B 88 00 1E 10 D0 51 02 00 00 42 20 12 88 00 84 ......Q...B ....
400000000004D950 09 28 41 4A 0E 20 00 88 3C 20 23 00 00 00 04 00 .(AJ. ..< #.....
400000000004D960 0B 00 94 1C 90 11 E0 40 80 30 28 00 00 00 04 00 .......@.0(.....
400000000004D970 11 08 E0 41 19 16 60 70 04 80 03 00 68 00 80 10 ...A..`p....h...
400000000004D980 10 08 00 5E 00 21 50 02 20 00 42 00 90 FB FF 48 ...^.!P. .B....H
400000000004D990 11 88 09 01 00 24 00 00 00 02 00 00 F8 22 06 50 .....$.......".P
400000000004D9A0 11 08 00 5E 00 21 70 00 20 0C 73 03 60 FF FF 4A ...^.!p. .s.`..J
400000000004D9B0 09 70 F0 03 BD 24 00 00 00 02 00 00 15 00 00 90 .p...$..........
400000000004D9C0 0B 00 00 00 01 00 E0 80 38 08 42 00 00 00 04 00 ........8.B.....
400000000004D9D0 09 00 00 00 01 00 70 02 38 30 20 00 00 00 04 00 ......p.80 .....
400000000004D9E0 11 30 00 4E 07 39 10 03 9C 00 42 03 30 FF FF 49 .0.N.9....B.0..I
400000000004D9F0 11 00 00 00 01 00 00 00 00 02 00 00 D8 DC FC 58 ...............X
400000000004DA00 11 08 00 5E 00 21 10 0B 20 00 42 00 C8 B2 09 50 ...^.!.. .B....P
400000000004DA10 08 08 00 5E 00 21 00 00 00 02 00 40 06 38 01 84 ...^.!.....@.8..
400000000004DA20 19 88 01 10 00 21 00 00 00 02 00 00 68 D7 FC 58 .....!......h..X
400000000004DA30 09 08 00 5E 00 21 70 02 20 00 42 40 06 40 00 84 ...^.!p. .B@.@..
400000000004DA40 09 00 00 00 01 00 10 23 F7 65 4F 00 00 00 04 00 .......#.eO.....
400000000004DA50 11 88 01 62 18 10 00 00 00 02 00 00 B8 45 06 50 ...b.........E.P
400000000004DA60 03 08 00 5E 00 21 20 03 9C 00 42 20 C6 EC CF 9E ...^.! ...B ....
400000000004DA70 11 88 01 62 18 10 00 00 00 02 00 00 98 45 06 50 ...b.........E.P
400000000004DA80 11 08 00 5E 00 21 10 13 02 00 48 00 C8 06 06 50 ...^.!....H....P
400000000004DA90 08 00 00 00 01 00 10 00 BC 00 42 00 00 00 04 00 ..........B.....
400000000004DAA0 19 00 00 48 90 11 00 00 00 02 00 00 50 FB FF 48 ...H........P..H
400000000004DAB0 09 58 91 03 37 24 00 00 00 02 00 20 46 E9 9B 9F .X..7$..... F...
400000000004DAC0 0B 00 00 00 01 00 E0 00 AC 30 20 00 00 00 04 00 .........0 .....
400000000004DAD0 11 30 00 1C 07 39 00 00 00 02 00 03 50 00 00 43 .0...9......P..C
400000000004DAE0 11 88 01 62 18 10 00 00 00 02 00 00 E8 45 06 50 ...b.........E.P
400000000004DAF0 03 08 00 5E 00 21 20 03 00 00 42 20 46 E9 D7 9E ...^.! ...B F...
400000000004DB00 13 88 01 62 18 10 00 84 22 03 28 00 00 00 00 20 ...b....".(.... 
400000000004DB10 09 08 00 5E 00 21 00 00 00 02 00 00 00 00 04 00 ...^.!..........
400000000004DB20 08 30 94 58 07 38 E0 C0 07 6C 48 E0 C1 08 DC 90 .0.X.8...lH.....
400000000004DB30 0A 88 01 42 18 10 00 01 38 20 20 A3 14 00 00 90 ...B....8  .....
400000000004DB40 0B 88 00 1E 10 D0 51 02 00 00 42 20 12 88 00 84 ......Q...B ....
400000000004DB50 09 28 41 4A 0E 20 00 88 3C 20 23 00 00 00 04 00 .(AJ. ..< #.....
400000000004DB60 11 00 94 1C 90 11 00 00 00 02 00 00 68 A9 0B 50 ............h..P
400000000004DB70 09 70 00 4C 10 10 10 00 BC 00 42 A0 04 40 00 84 .p.L......B..@..
400000000004DB80 11 00 00 00 01 00 70 00 38 0C 73 03 60 FC FF 4A ......p.8.s.`..J
400000000004DB90 0B 30 00 46 87 B9 31 0A 00 00 48 00 00 00 04 00 .0.F..1...H.....
400000000004DBA0 EB 18 01 00 00 21 90 4A 8D 18 40 00 00 00 04 00 .....!.J..@.....
400000000004DBB0 10 00 00 00 01 00 60 00 A4 0E 73 03 60 F9 FF 4A ......`...s.`..J
400000000004DBC0 11 00 00 00 01 00 00 00 00 02 00 00 80 FC FF 48 ...............H
400000000004DBD0 08 00 00 00 01 00 00 00 00 02 00 00 00 00 04 00 ................
400000000004DBE0 08 00 00 00 01 00 00 00 00 02 00 00 00 00 04 00 ................
400000000004DBF0 08 00 00 00 01 00 00 00 00 02 00 00 00 00 04 00 ................
400000000004DC00 08 30 29 10 80 05 00 00 00 02 00 A0 04 00 C4 00 .0).............
400000000004DC10 09 38 01 02 00 21 00 00 00 02 00 00 05 00 01 84 .8...!..........
400000000004DC20 11 00 00 00 01 00 00 00 00 02 00 00 E8 B4 05 50 ...............P
400000000004DC30 08 08 00 4E 00 21 00 00 00 02 00 C0 00 40 1C E4 ...N.!.......@..
400000000004DC40 19 10 01 10 00 21 00 00 00 02 00 03 F0 02 00 43 .....!.........C
400000000004DC50 09 70 30 03 39 24 F0 E0 F4 CD 4F 00 05 10 01 84 .p0.9$....O.....
400000000004DC60 0B 00 00 00 01 00 E0 00 38 20 20 00 00 00 04 00 ........8  .....
400000000004DC70 11 30 00 1C 87 39 E0 60 06 8C C8 03 30 02 00 43 .0...9.`....0..C
400000000004DC80 09 00 00 00 01 00 F0 00 3C 30 20 00 00 00 04 00 ........<0 .....
400000000004DC90 09 00 3C 1C 98 11 00 00 00 02 00 C0 C1 09 D8 90 ..<.............
400000000004DCA0 09 00 00 00 01 00 00 00 00 02 00 00 00 00 04 00 ................
400000000004DCB0 11 00 00 1C 90 11 00 00 00 02 00 00 18 B1 FF 58 ...............X
400000000004DCC0 11 08 00 4E 00 21 80 0A 02 00 48 00 C8 20 06 50 ...N.!....H.. .P
400000000004DCD0 11 08 00 4E 00 21 70 00 20 0C 73 03 C0 00 00 42 ...N.!p. .s....B
400000000004DCE0 0B 18 B1 02 46 24 00 00 00 02 00 00 00 00 04 00 ....F$..........
400000000004DCF0 09 00 00 00 01 00 80 02 8C 30 20 00 00 00 04 00 .........0 .....
400000000004DD00 11 30 00 50 07 39 00 00 00 02 00 03 30 00 00 43 .0.P.9......0..C
400000000004DD10 11 00 00 00 01 00 00 00 00 02 00 00 D8 CA FC 58 ...............X
400000000004DD20 09 08 00 4E 00 21 00 00 00 02 00 00 00 00 04 00 ...N.!..........
400000000004DD30 0B 20 91 02 36 24 00 00 00 02 00 00 00 00 04 00 . ..6$..........
400000000004DD40 11 40 01 48 18 10 00 00 00 02 00 00 88 D9 FC 58 .@.H...........X
400000000004DD50 11 08 00 4E 00 21 80 0A 20 00 42 00 78 AF 09 50 ...N.!.. .B.x..P
400000000004DD60 08 08 00 4E 00 21 00 00 00 02 00 00 05 40 00 84 ...N.!.......@..
400000000004DD70 19 48 01 48 18 10 00 00 00 02 00 00 18 D4 FC 58 .H.H...........X
400000000004DD80 08 08 00 4E 00 21 00 40 8C 30 23 00 00 00 04 00 ...N.!.@.0#.....
400000000004DD90 11 00 00 00 01 00 00 00 00 02 00 00 38 0F 06 50 ............8..P
400000000004DDA0 0B 08 00 4E 00 21 E0 40 06 64 48 00 00 00 04 00 ...N.!.@.dH.....
400000000004DDB0 0B 00 00 00 01 00 E0 00 38 20 20 00 00 00 04 00 ........8  .....
400000000004DDC0 11 30 00 1C 87 39 00 00 00 02 00 03 20 00 00 43 .0...9...... ..C
400000000004DDD0 10 00 00 00 01 00 70 00 20 0C 73 03 90 00 00 42 ......p. .s....B
400000000004DDE0 09 70 20 44 00 21 00 00 00 02 00 20 05 08 01 84 .p D.!..... ....
400000000004DDF0 09 00 00 00 01 00 E0 00 38 30 20 00 00 00 04 00 ........80 .....
400000000004DE00 11 40 01 1C 18 10 00 00 00 02 00 00 88 82 02 50 .@.............P
400000000004DE10 08 08 00 4E 00 21 00 00 00 02 00 60 04 40 00 84 ...N.!.....`.@..
400000000004DE20 19 40 01 44 00 21 00 00 00 02 00 00 A8 DD FF 58 .@.D.!.........X
400000000004DE30 08 08 00 4E 00 21 00 00 00 02 00 00 00 00 04 00 ...N.!..........
400000000004DE40 09 40 00 46 00 21 00 00 00 02 00 00 60 02 AA 00 .@.F.!......`...
400000000004DE50 10 00 00 00 01 00 00 28 05 80 03 80 08 00 84 00 .......(........
400000000004DE60 09 30 00 42 07 39 80 02 88 00 42 60 04 00 00 84 .0.B.9....B`....
400000000004DE70 09 00 00 00 01 C0 E1 08 00 00 48 00 00 00 04 00 ..........H.....
400000000004DE80 F1 00 38 42 90 11 00 00 00 02 00 00 48 DD FF 58 ..8B........H..X
400000000004DE90 10 00 00 00 01 00 10 00 9C 00 42 00 B0 FF FF 48 ..........B....H
400000000004DEA0 11 40 01 10 00 21 00 00 00 02 00 00 E8 B4 FF 58 .@...!.........X
400000000004DEB0 02 08 00 4E 00 21 80 02 88 00 42 C0 C1 0C 18 91 ...N.!....B.....
400000000004DEC0 0A 78 70 FA E6 27 00 00 00 02 00 00 00 00 04 00 .xp..'..........
400000000004DED0 0B 78 00 1E 18 10 00 78 38 30 23 C0 C1 09 D8 90 .x.....x80#.....
400000000004DEE0 09 00 00 00 01 00 00 00 00 02 00 00 00 00 04 00 ................
400000000004DEF0 11 00 00 1C 90 11 00 00 00 02 00 00 D8 AE FF 58 ...............X
400000000004DF00 11 08 00 4E 00 21 80 0A 02 00 48 00 88 1E 06 50 ...N.!....H....P
400000000004DF10 10 08 00 4E 00 21 70 00 20 0C 73 03 80 FE FF 4A ...N.!p. .s....J
400000000004DF20 11 00 00 00 01 00 00 00 00 02 00 00 C0 FD FF 48 ...............H
400000000004DF30 09 30 00 42 07 39 30 02 00 00 42 00 60 02 AA 00 .0.B.90...B.`...
400000000004DF40 E9 70 04 00 00 24 80 00 8C 00 42 00 50 0A 00 07 .p...$....B.P...
400000000004DF50 F1 00 38 42 90 11 00 00 00 02 00 80 08 00 84 00 ..8B............
400000000004DF60 08 00 00 00 01 00 00 00 00 02 00 00 00 00 04 00 ................
400000000004DF70 08 00 00 00 01 00 00 00 00 02 00 00 00 00 04 00 ................
400000000004DF80 08 28 29 0E 80 05 00 00 00 02 00 80 04 00 C4 00 .().............
400000000004DF90 09 30 01 02 00 21 00 00 00 02 00 00 05 00 01 84 .0...!..........
400000000004DFA0 11 38 01 00 00 21 90 02 00 00 42 00 48 DF FC 58 .8...!....B.H..X
400000000004DFB0 08 30 FC 11 07 3B 00 00 00 02 00 60 14 40 00 84 .0...;.....`.@..
400000000004DFC0 09 08 01 10 00 21 00 00 00 02 00 20 00 30 01 84 .....!..... .0..
400000000004DFD0 C9 08 01 00 00 E1 71 1A 01 22 40 63 14 00 00 90 ......q.."@c....
400000000004DFE0 D1 38 11 00 00 24 00 00 00 02 00 00 E8 AC 09 50 .8...$.........P
400000000004DFF0 08 48 01 46 00 21 20 02 20 00 42 20 00 30 01 84 .H.F.! . .B .0..
400000000004E000 19 40 01 40 00 21 70 02 20 00 42 00 E8 DE FC 58 .@.@.!p. .B....X
400000000004E010 08 40 01 42 00 21 00 00 00 02 00 20 00 30 01 84 .@.B.!..... .0..
400000000004E020 19 38 01 44 00 21 00 00 00 02 00 00 E8 DB FC 58 .8.D.!.........X
400000000004E030 08 08 00 4C 00 21 00 00 00 02 00 20 04 40 00 84 ...L.!..... .@..
400000000004E040 19 38 01 44 00 21 00 00 00 02 00 00 A8 C7 FC 58 .8.D.!.........X
400000000004E050 09 40 00 42 00 21 10 00 98 00 42 00 50 02 AA 00 .@.B.!....B.P...
400000000004E060 11 00 00 00 01 00 00 20 05 80 03 80 08 00 84 00 ....... ........
400000000004E070 08 00 00 00 01 00 00 00 00 02 00 00 00 00 04 00 ................
400000000004E080 08 10 1D 08 80 05 00 00 00 02 00 20 04 00 C4 00 ........... ....
400000000004E090 09 18 01 02 00 21 00 00 00 02 00 A0 04 00 01 84 .....!..........
400000000004E0A0 11 20 09 00 00 24 60 02 00 00 42 00 28 C6 FC 58 . ...$`...B.(..X
400000000004E0B0 09 08 00 46 00 21 00 00 00 02 00 00 20 02 AA 00 ...F.!...... ...
400000000004E0C0 11 00 00 00 01 00 00 08 05 80 03 80 08 00 84 00 ................
400000000004E0D0 08 00 00 00 01 00 00 00 00 02 00 00 00 00 04 00 ................
400000000004E0E0 08 00 00 00 01 00 00 00 00 02 00 00 00 00 04 00 ................
400000000004E0F0 08 00 00 00 01 00 00 00 00 02 00 00 00 00 04 00 ................
400000000004E100 01 08 0D 06 80 05 00 02 00 62 00 40 04 08 00 84 .........b.@....
400000000004E110 11 00 00 00 01 00 00 00 00 02 00 00 38 6F 03 50 ............8o.P
400000000004E120 09 08 00 44 00 21 00 00 00 02 00 00 10 02 AA 00 ...D.!..........
400000000004E130 11 00 00 00 01 00 00 00 05 80 03 80 08 00 84 00 ................
400000000004E140 08 48 45 18 80 05 D0 02 80 20 20 60 05 00 CC 00 .HE......  `....
400000000004E150 09 00 00 00 01 00 A0 02 04 00 42 00 00 00 04 00 ..........B.....
400000000004E160 01 70 20 5A 2C 20 80 02 00 62 00 80 44 68 B1 80 .p Z, ...b..Dh..
400000000004E170 10 00 00 00 01 00 70 00 38 0C F3 03 70 00 00 42 ......p.8...p..B
400000000004E180 0B 78 60 40 00 21 F0 00 3C 30 20 00 00 00 04 00 .x`@.!..<0 .....
400000000004E190 0B 30 00 1E 07 F9 01 01 3C 20 20 00 00 00 04 00 .0......<  .....
400000000004E1A0 EB 80 20 20 2E E0 01 80 3C 20 23 E0 01 02 01 84 ..  ....< #.....
400000000004E1B0 0B 78 00 1E 18 10 60 00 3C 0E 72 00 00 00 04 00 .x....`.<.r.....
400000000004E1C0 E3 80 00 1E 10 10 00 00 00 02 80 03 82 80 B8 80 ................
400000000004E1D0 E8 00 40 1E 90 11 00 00 00 02 00 00 00 00 04 00 ..@.............
400000000004E1E0 09 18 21 40 00 21 00 00 00 02 00 C0 04 01 01 84 ..!@.!..........
400000000004E1F0 09 00 00 00 01 00 E0 02 8C 20 20 00 00 00 04 00 .........  .....
400000000004E200 11 38 18 5C 86 39 00 00 00 02 80 03 F0 06 00 43 .8.\.9.........C
400000000004E210 11 38 08 5C 86 39 00 00 00 02 80 03 10 07 00 43 .8.\.9.........C
400000000004E220 11 38 04 5C 86 39 00 00 00 02 80 03 70 07 00 43 .8.\.9......p..C
400000000004E230 11 38 0C 5C 86 39 00 00 00 02 80 03 E0 03 00 43 .8.\.9.........C
400000000004E240 11 38 10 5C 86 39 00 00 00 02 00 03 50 08 00 41 .8.\.9......P..A
400000000004E250 0B 78 00 4C 18 10 F0 00 3C 30 20 00 00 00 04 00 .x.L....<0 .....
400000000004E260 0B 80 04 1E 00 21 00 01 40 00 20 00 00 00 04 00 .....!..@. .....
400000000004E270 01 00 00 00 01 00 00 01 40 28 00 00 00 00 04 00 ........@(......
400000000004E280 10 00 00 00 01 00 60 E8 41 0E 73 03 10 05 00 43 ......`.A.s....C
400000000004E290 0B 88 00 1E 00 10 00 00 00 02 00 20 02 88 50 00 ........... ..P.
400000000004E2A0 11 00 00 00 01 00 70 E8 45 0C F3 03 60 05 00 43 ......p.E...`..C
400000000004E2B0 C8 08 01 00 00 21 00 00 00 02 00 00 00 00 04 00 .....!..........
400000000004E2C0 08 38 01 00 00 21 00 00 00 02 00 00 00 00 04 00 .8...!..........
400000000004E2D0 10 00 00 00 01 00 00 01 38 22 73 08 00 03 00 42 ........8"s....B
400000000004E2E0 09 28 11 02 37 24 F0 C0 80 00 42 A0 05 00 00 84 .(..7$....B.....
400000000004E2F0 09 70 00 4A 10 10 F0 00 3C 30 20 00 00 00 04 00 .p.J....<0 .....
400000000004E300 02 70 04 1C 00 21 F0 80 3C 00 42 00 00 00 04 00 .p...!..<.B.....
400000000004E310 19 00 38 4A 90 11 C0 02 3C 30 20 00 38 82 05 50 ..8J....<0 .8..P
400000000004E320 09 70 00 4A 10 10 10 00 A8 00 42 40 04 40 00 84 .p.J......B@.@..
400000000004E330 09 00 00 00 01 00 E0 F8 3B 7E 46 00 00 00 04 00 ........;~F.....
400000000004E340 08 00 38 4A 90 11 00 00 00 02 00 00 00 00 04 00 ..8J............
400000000004E350 28 72 10 02 37 24 60 00 88 0E 72 00 04 02 01 84 (r..7$`...r.....
400000000004E360 0A 90 00 4E 93 79 F4 00 38 20 20 43 C4 EE 97 9F ...N.y..8  C....
400000000004E370 EA 28 B1 FB E5 67 F4 08 3C 00 42 00 00 00 04 00 .(...g..<.B.....
400000000004E380 C9 10 01 44 18 D0 51 02 94 30 20 00 00 00 04 00 ...D..Q..0 .....
400000000004E390 29 02 3C 1C 90 11 E0 00 80 30 20 A3 04 10 01 84 ).<......0 .....
400000000004E3A0 09 00 00 00 01 00 E0 80 38 00 42 00 00 00 04 00 ........8.B.....
400000000004E3B0 10 60 01 1C 18 10 00 00 00 02 00 09 40 00 00 42 .`..........@..B
400000000004E3C0 0B 70 70 02 2F 24 00 00 00 02 00 00 00 00 04 00 .pp./$..........
400000000004E3D0 09 00 00 00 01 00 E0 00 38 20 20 00 00 00 04 00 ........8  .....
400000000004E3E0 03 38 7C 1C 86 31 00 00 00 02 80 23 24 00 00 90 .8|..1.....#$...
400000000004E3F0 11 68 01 42 00 21 00 00 00 02 00 00 58 81 05 50 .h.B.!......X..P
400000000004E400 09 08 00 54 00 21 10 02 20 00 42 C0 00 40 1C E4 ...T.!.. .B..@..
400000000004E410 29 72 10 02 37 24 00 00 00 02 00 23 C4 EE 97 9F )r..7$.....#....
400000000004E420 29 7A 00 1C 10 90 11 02 84 30 20 00 00 00 04 00 )z.......0 .....
400000000004E430 2B 7A FC 1F 3F 63 04 78 38 20 23 C0 C1 0C E4 90 +z..?c.x8 #.....
400000000004E440 0B 00 00 00 01 00 E0 00 38 20 20 00 00 00 04 00 ........8  .....
400000000004E450 10 00 00 00 01 00 60 00 38 0E F3 03 10 03 00 43 ......`.8......C
400000000004E460 10 00 00 00 01 00 00 00 00 02 00 09 F0 00 00 42 ...............B
400000000004E470 08 60 01 44 00 21 00 00 00 02 00 A0 05 08 01 84 .`.D.!..........
400000000004E480 19 70 0D 00 00 24 00 00 00 02 00 00 C8 C9 0D 50 .p...$.........P
400000000004E490 08 00 00 00 01 00 10 00 A8 00 42 60 04 40 00 84 ..........B`.@..
400000000004E4A0 11 30 94 44 07 38 C0 02 88 00 42 03 30 00 00 43 .0.D.8....B.0..C
400000000004E4B0 11 00 00 00 01 00 00 00 00 02 00 00 38 C3 FC 58 ............8..X
400000000004E4C0 08 08 00 54 00 21 00 00 00 02 00 00 00 00 04 00 ...T.!..........
400000000004E4D0 11 30 94 42 07 38 C0 02 84 00 42 03 30 00 00 43 .0.B.8....B.0..C
400000000004E4E0 11 00 00 00 01 00 00 00 00 02 00 00 08 C3 FC 58 ...............X
400000000004E4F0 08 08 00 54 00 21 00 00 00 02 00 00 00 00 04 00 ...T.!..........
400000000004E500 11 30 00 48 87 39 00 00 00 02 00 03 30 00 00 43 .0.H.9......0..C
400000000004E510 0B 30 00 46 87 B9 81 08 00 00 48 00 00 00 04 00 .0.F......H.....
400000000004E520 E3 40 00 00 00 21 00 00 00 02 00 60 04 40 00 84 .@...!.....`.@..
400000000004E530 03 40 00 46 00 21 F0 5F C1 BF 05 00 90 02 AA 00 .@.F.!._........
400000000004E540 10 00 00 00 01 00 00 40 05 80 03 80 08 00 84 00 .......@........
400000000004E550 08 18 C1 03 3B 24 E0 00 98 30 20 E0 11 00 00 90 ....;$...0 .....
400000000004E560 09 68 01 44 00 21 E0 02 84 00 42 E0 75 00 00 90 .h.D.!....B.u...
400000000004E570 0B 00 00 00 01 00 C0 02 38 30 20 00 00 00 04 00 ........80 .....
400000000004E580 08 00 00 00 01 00 60 02 8C 20 20 00 00 00 04 00 ......`..  .....
400000000004E590 19 00 3C 46 90 11 00 00 00 02 00 00 78 76 06 50 ..<F........xv.P
400000000004E5A0 09 30 00 10 87 39 00 30 8D 20 23 20 00 50 01 84 .0...9.0. # .P..
400000000004E5B0 CB 40 04 00 00 E4 81 00 00 00 42 00 00 00 04 00 .@........B.....
400000000004E5C0 10 00 00 00 01 00 30 02 20 00 42 00 E0 FE FF 48 ......0. .B....H
400000000004E5D0 09 70 60 40 00 21 00 00 00 02 00 A0 05 00 00 84 .p`@.!..........
400000000004E5E0 0B 70 00 1C 18 10 E0 80 38 00 42 00 00 00 04 00 .p......8.B.....
400000000004E5F0 11 60 01 1C 18 10 00 00 00 02 00 00 58 7F 05 50 .`..........X..P
400000000004E600 10 08 00 54 00 21 20 02 20 00 42 00 50 FD FF 48 ...T.! . .B.P..H
400000000004E610 11 00 00 00 01 00 60 00 38 0E 73 03 F0 03 00 42 ......`.8.s....B
400000000004E620 08 10 11 02 37 24 00 00 00 02 00 E0 81 01 01 84 ....7$..........
400000000004E630 09 68 01 00 00 21 00 00 00 02 00 C0 04 01 01 84 .h...!..........
400000000004E640 09 70 00 44 10 10 F0 00 3C 30 20 00 00 00 04 00 .p.D....<0 .....
400000000004E650 02 70 04 1C 00 21 F0 80 3C 00 42 00 00 00 04 00 .p...!..<.B.....
400000000004E660 19 00 38 44 90 11 C0 02 3C 30 20 00 E8 7E 05 50 ..8D....<0 ..~.P
400000000004E670 09 70 00 44 10 10 10 00 A8 00 42 20 04 40 00 84 .p.D......B .@..
400000000004E680 09 70 FC 1D 3F 23 00 00 00 02 00 C0 00 08 1D E4 .p..?#..........
400000000004E690 08 00 38 44 90 11 00 00 00 02 00 C0 C1 0C E4 90 ..8D............
400000000004E6A0 C9 08 B1 FB E5 27 00 00 00 02 80 A3 C4 EE 97 9F .....'..........
400000000004E6B0 09 00 00 00 01 80 11 02 84 30 20 00 00 00 04 00 .........0 .....
400000000004E6C0 EB 28 01 4A 18 10 E0 00 38 20 20 A3 04 08 01 84 .(.J....8  .....
400000000004E6D0 10 00 00 00 01 00 60 00 38 0E F3 03 90 01 00 43 ......`.8......C
400000000004E6E0 09 70 00 4C 18 10 00 00 00 02 00 A0 05 08 01 84 .p.L............
400000000004E6F0 11 60 01 1C 18 10 00 00 00 02 00 00 18 7D 06 50 .`...........}.P
400000000004E700 03 30 00 10 87 39 10 00 A8 00 42 03 11 00 00 84 .0...9....B.....
400000000004E710 E3 40 00 00 00 21 60 28 85 0E 70 20 01 40 20 50 .@...!`(..p .@ P
400000000004E720 0B 41 04 00 00 64 82 00 00 00 42 00 00 00 04 00 .A...d....B.....
400000000004E730 10 00 00 00 01 00 30 02 20 00 42 03 D0 FD FF 4B ......0. .B....K
400000000004E740 11 60 01 42 00 21 00 00 00 02 00 00 A8 C0 FC 58 .`.B.!.........X
400000000004E750 10 00 00 00 01 00 10 00 A8 00 42 00 B0 FD FF 48 ..........B....H
400000000004E760 08 60 01 46 10 10 D0 02 90 00 42 E0 05 10 01 84 .`.F......B.....
400000000004E770 19 80 01 42 00 21 E0 02 98 30 20 00 98 A7 FF 58 ...B.!...0 ....X
400000000004E780 10 00 00 00 01 00 10 00 A8 00 42 00 E0 FC FF 48 ..........B....H
400000000004E790 0B 88 08 1E 00 21 10 01 44 00 20 00 00 00 04 00 .....!..D. .....
400000000004E7A0 01 00 00 00 01 00 10 01 44 28 00 00 00 00 04 00 ........D(......
400000000004E7B0 10 00 00 00 01 00 60 00 44 0E F3 03 E0 FA FF 4A ......`.D......J
400000000004E7C0 03 78 00 1E 00 10 70 02 00 00 42 E0 01 78 50 00 .x....p...B..xP.
400000000004E7D0 02 30 F4 1E 87 39 80 08 3D 12 73 E4 11 00 00 90 .0...9..=.s.....
400000000004E7E0 CB 08 05 00 00 64 F2 00 00 00 C2 23 04 00 00 84 .....d.....#....
400000000004E7F0 10 00 00 00 01 00 10 7A 84 1C 40 00 E0 FA FF 48 .......z..@....H
400000000004E800 03 40 00 20 89 39 70 F0 43 0C 73 24 14 00 00 90 .@. .9p.C.s$....
400000000004E810 10 00 00 00 01 40 12 02 00 00 42 03 B0 FA FF 4A .....@....B....J
400000000004E820 0B 78 08 1E 00 21 F0 00 3C 00 20 00 00 00 04 00 .x...!..<. .....
400000000004E830 03 00 00 00 01 00 F0 00 3C 28 00 C0 00 78 1C E6 ........<(...x..
400000000004E840 11 00 00 00 01 80 71 0A 00 00 48 03 90 FA FF 4A ......q...H....J
400000000004E850 10 00 00 00 01 00 70 02 00 00 42 00 80 FA FF 48 ......p...B....H
400000000004E860 08 60 01 46 10 10 D0 02 90 00 42 E0 05 08 01 84 .`.F......B.....
400000000004E870 19 80 01 00 00 21 E0 02 98 30 20 00 98 A6 FF 58 .....!...0 ....X
400000000004E880 09 70 00 4C 18 10 10 00 A8 00 42 A0 05 08 01 84 .p.L......B.....
400000000004E890 11 60 01 1C 18 10 00 00 00 02 00 00 78 7B 06 50 .`..........x{.P
400000000004E8A0 03 30 00 10 87 39 10 00 A8 00 42 03 11 00 00 84 .0...9....B.....
400000000004E8B0 E3 40 00 00 00 21 60 28 85 0E 70 20 01 40 20 50 .@...!`(..p .@ P
400000000004E8C0 0B 41 04 00 00 64 82 00 00 00 42 00 00 00 04 00 .A...d....B.....
400000000004E8D0 10 00 00 00 01 00 30 02 20 00 C2 03 70 FE FF 4A ......0. ...p..J
400000000004E8E0 10 00 00 00 01 00 00 00 00 02 00 00 20 FC FF 48 ............ ..H
400000000004E8F0 09 00 00 00 01 00 00 C2 80 00 42 00 00 00 04 00 ..........B.....
400000000004E900 11 60 01 40 18 10 00 00 00 02 00 00 48 F8 FF 58 .`.@........H..X
400000000004E910 10 08 00 54 00 21 30 02 20 00 42 00 F0 FB FF 48 ...T.!0. .B....H
400000000004E920 09 00 00 00 01 00 E0 C0 80 00 42 00 00 00 04 00 ..........B.....
400000000004E930 11 60 01 1C 18 10 00 00 00 02 00 00 18 F8 FF 58 .`.............X
400000000004E940 08 00 00 00 01 00 10 00 A8 00 42 60 04 40 00 84 ..........B`.@..
400000000004E950 18 00 00 00 01 00 60 00 20 0E 73 03 B0 FB FF 4A ......`. .s....J
400000000004E960 09 00 00 00 01 00 00 02 81 00 42 00 00 00 04 00 ..........B.....
400000000004E970 11 60 01 40 18 10 00 00 00 02 00 00 D8 F7 FF 58 .`.@...........X
400000000004E980 10 08 00 54 00 21 30 02 20 00 42 00 80 FB FF 48 ...T.!0. .B....H
400000000004E990 09 00 00 00 01 00 E0 C0 80 00 42 00 00 00 04 00 ..........B.....
400000000004E9A0 11 60 01 1C 18 10 00 00 00 02 00 00 A8 F7 FF 58 .`.............X
400000000004E9B0 08 00 00 00 01 00 10 00 A8 00 42 60 04 40 00 84 ..........B`.@..
400000000004E9C0 18 00 00 00 01 00 70 00 20 0C 73 03 40 FB FF 4A ......p. .s.@..J
400000000004E9D0 09 00 00 00 01 00 00 02 81 00 42 00 00 00 04 00 ..........B.....
400000000004E9E0 11 60 01 40 18 10 00 00 00 02 00 00 68 F7 FF 58 .`.@........h..X
400000000004E9F0 10 08 00 54 00 21 30 02 20 00 42 00 10 FB FF 48 ...T.!0. .B....H
400000000004EA00 09 70 60 40 00 21 D0 02 00 00 42 C0 04 01 01 84 .p`@.!....B.....
400000000004EA10 0B 70 00 1C 18 10 E0 80 38 00 42 00 00 00 04 00 .p......8.B.....
400000000004EA20 11 60 01 1C 18 10 00 00 00 02 00 00 28 7B 05 50 .`..........({.P
400000000004EA30 02 08 00 54 00 21 10 02 20 00 42 C0 C1 0C E4 90 ...T.!.. .B.....
400000000004EA40 0A 30 00 42 07 39 00 00 00 02 00 23 C4 EE 97 9F .0.B.9.....#....
400000000004EA50 EA 28 B1 FB E5 A7 11 02 84 30 20 00 00 00 04 00 .(.......0 .....
400000000004EA60 EB 28 01 4A 18 10 E0 00 38 20 20 A3 04 08 01 84 .(.J....8  .....
400000000004EA70 10 00 00 00 01 00 60 00 38 0E 73 03 70 FC FF 4A ......`.8.s.p..J
400000000004EA80 10 00 00 00 01 00 00 00 00 02 00 00 E0 FD FF 48 ...............H
400000000004EA90 09 60 91 FA E6 27 D0 0A 00 00 48 E0 05 00 00 84 .`...'....H.....
400000000004EAA0 11 60 01 58 18 10 00 00 00 02 00 00 E8 2E 02 50 .`.X...........P
400000000004EAB0 11 08 00 54 00 21 C0 12 00 00 48 00 18 5A 06 50 ...T.!....H..Z.P
400000000004EAC0 0D 00 00 00 01 00 00 00 00 00 00 00 00 00 04 00 ................
400000000004EAD0 08 00 00 00 01 00 00 00 00 02 00 00 00 00 04 00 ................
400000000004EAE0 08 00 00 00 01 00 00 00 00 02 00 00 00 00 04 00 ................
400000000004EAF0 08 00 00 00 01 00 00 00 00 02 00 00 00 00 04 00 ................
400000000004EB00 18 18 1D 0A 80 05 70 F8 83 0C 77 00 00 00 00 20 ......p...w.... 
400000000004EB10 11 20 01 02 00 21 20 02 00 62 80 03 60 00 00 43 . ...! ..b..`..C
400000000004EB20 11 28 01 40 00 21 60 02 00 00 42 00 48 C3 FC 58 .(.@.!`...B.H..X
400000000004EB30 11 38 20 00 86 30 10 00 90 00 C2 03 90 01 00 43 .8 ..0.........C
400000000004EB40 10 00 00 00 01 00 70 00 80 0C 63 03 30 00 00 43 ......p...c.0..C
400000000004EB50 11 00 00 00 01 00 50 02 80 00 42 00 F8 D7 FC 58 ......P...B....X
400000000004EB60 08 08 00 48 00 21 00 00 00 02 00 00 00 00 04 00 ...H.!..........
400000000004EB70 08 38 FC 43 86 3B 00 00 00 02 00 A0 04 08 01 84 .8.C.;..........
400000000004EB80 19 30 05 00 00 24 00 00 00 02 80 03 60 00 00 43 .0...$......`..C
400000000004EB90 11 30 F8 43 87 3B 00 00 00 02 00 03 70 00 00 43 .0.C.;......p..C
400000000004EBA0 11 00 00 00 01 00 00 00 00 02 00 00 C8 C2 FC 58 ...............X
400000000004EBB0 11 38 20 00 86 30 10 00 90 00 C2 03 D0 00 00 43 .8 ..0.........C
400000000004EBC0 09 00 00 00 01 00 60 08 84 0E 63 00 00 00 04 00 ......`...c.....
400000000004EBD0 10 00 00 00 01 00 60 00 84 8E 73 03 80 00 00 43 ......`...s....C
400000000004EBE0 01 00 00 00 01 00 00 18 01 55 00 00 00 00 04 00 .........U......
400000000004EBF0 11 00 00 00 01 00 00 10 05 80 03 80 08 00 84 00 ................
400000000004EC00 11 28 05 00 00 24 60 12 00 00 48 00 68 C2 FC 58 .(...$`...H.h..X
400000000004EC10 10 08 00 48 00 21 70 40 00 0C 61 03 D0 FF FF 4A ...H.!p@..a....J
400000000004EC20 09 00 05 00 00 24 10 12 00 00 48 00 20 0A 00 07 .....$....H. ...
400000000004EC30 01 00 00 00 01 00 00 18 01 55 00 00 00 00 04 00 .........U......
400000000004EC40 11 10 08 00 80 05 00 00 00 02 00 00 08 E4 FF 48 ...............H
400000000004EC50 11 28 01 42 00 21 00 00 00 02 00 00 F8 D6 FC 58 .(.B.!.........X
400000000004EC60 09 08 00 48 00 21 00 00 00 02 00 00 30 02 AA 00 ...H.!......0...
400000000004EC70 11 00 00 00 01 00 00 10 05 80 03 80 08 00 84 00 ................
400000000004EC80 11 28 01 42 00 21 60 0A 00 00 48 00 C8 E3 FF 58 .(.B.!`...H....X
400000000004EC90 09 30 04 42 87 31 00 00 00 02 00 20 00 20 01 84 .0.B.1..... . ..
400000000004ECA0 10 00 00 00 01 00 60 00 84 8E F3 03 40 FF FF 4A ......`.....@..J
400000000004ECB0 10 00 00 00 01 00 00 00 00 02 00 00 A0 FF FF 48 ...............H
400000000004ECC0 11 28 01 40 00 21 60 02 00 00 42 00 88 E3 FF 58 .(.@.!`...B....X
400000000004ECD0 10 08 00 48 00 21 70 00 80 0C E3 03 80 FE FF 4A ...H.!p........J
400000000004ECE0 11 00 00 00 01 00 00 00 00 02 00 00 90 FE FF 48 ...............H
400000000004ECF0 08 00 00 00 01 00 00 00 00 02 00 00 00 00 04 00 ................
400000000004ED00 08 10 1D 08 80 05 00 00 00 02 00 20 04 00 C4 00 ........... ....
400000000004ED10 09 20 B1 FA E6 27 00 00 00 02 00 60 04 08 00 84 . ...'.....`....
400000000004ED20 11 20 01 48 18 10 50 02 00 00 42 00 C8 C7 FC 58 . .H..P...B....X
400000000004ED30 08 38 00 10 86 31 10 00 8C 00 42 00 00 00 04 00 .8...1....B.....
400000000004ED40 19 00 01 10 00 21 50 02 00 00 C2 03 30 00 00 43 .....!P.....0..C
400000000004ED50 11 30 00 10 87 39 00 10 01 55 80 03 60 00 00 43 .0...9...U..`..C
400000000004ED60 11 00 00 00 01 00 00 08 05 80 03 80 08 00 84 00 ................
400000000004ED70 11 20 01 10 00 21 00 00 00 02 00 00 F8 C0 FC 58 . ...!.........X
400000000004ED80 11 08 00 46 00 21 40 02 80 00 42 00 C8 D5 FC 58 ...F.!@...B....X
400000000004ED90 09 08 00 46 00 21 00 00 00 02 00 00 20 02 AA 00 ...F.!...... ...
400000000004EDA0 10 00 00 00 01 00 00 08 05 80 03 80 08 00 84 00 ................
400000000004EDB0 09 28 D1 FA E6 27 60 2A 00 00 48 80 04 00 00 84 .(...'`*..H.....
400000000004EDC0 11 28 01 4A 18 10 00 00 00 02 00 00 A8 BD FC 58 .(.J...........X
400000000004EDD0 11 08 00 46 00 21 00 02 20 00 42 00 78 CA FC 58 ...F.!.. .B.x..X
400000000004EDE0 08 00 00 00 01 00 10 00 8C 00 42 00 00 00 04 00 ..........B.....
400000000004EDF0 19 20 01 10 10 10 00 00 00 02 00 00 B8 C6 FC 58 . .............X
400000000004EE00 08 08 00 46 00 21 00 00 00 02 00 80 04 00 01 84 ...F.!..........
400000000004EE10 19 28 01 10 00 21 00 00 00 02 00 00 78 22 02 50 .(...!......x".P
400000000004EE20 09 08 00 46 00 21 00 00 00 02 00 00 20 02 AA 00 ...F.!...... ...
400000000004EE30 11 00 00 00 01 00 00 08 05 80 03 80 08 00 84 00 ................

;; new_fd_bitmap: 400000000004EE40
new_fd_bitmap proc
	{ alloc	r35,ar.pfs,0x8,0x0,0x5; mov	r34,b2; adds	r36,0x0,r1; }
	{ addl	r37,16,r0; nop.i	0x0; br.call.sptk.many	b0,xmalloc; }
	{ cmp4.eq	p06,p07,0x0,r32; adds	r33,0x0,r8; mov.i	ar.pfs,r35 }
	{ adds	r14,0x8,r8; st4	[r32],r8; adds	r1,0x0,r36; }
	{ (p06) st8	[r0],r14; adds	r8,0x0,r33; mov.spnt	b0,r34,400000000004EE80 }

l400000000004EE86:
	{ Invalid; nop; cmp.gt	p00,p00,r0,r0 }
	{ Invalid; (p34) mov	pr,0x84000; break.i	0x80000; }

l400000000004EE9C:
	{ nop.m	0x1080; break.m	0x1000; (p04) break.i	0x16400 }

l400000000004EEA0:
	{ nop.m	0x0; sxt4	r32,r32; nop.i	0x0; }
	{ adds	r37,0x0,r32; nop.i	0x0; br.call.sptk.many	b0,xmalloc; }
	{ adds	r14,0x8,r33; adds	r1,0x0,r36; nop.i	0x0 }
	{ adds	r37,0x0,r8; adds	r38,0x0,r0; adds	r39,0x0,r32; }
	{ st8	[r8],r14; nop.i	0x0; br.call.sptk.many	b0,400000000001B8C0; }
	{ adds	r8,0x0,r33; adds	r1,0x0,r36; mov.i	ar.pfs,r35; }
	{ nop.m	0x0; mov.spnt	b0,r34,400000000004EF00; br.ret	b0; }
400000000004EF10 08 00 00 00 01 00 00 00 00 02 00 00 00 00 04 00 ................
400000000004EF20 08 00 00 00 01 00 00 00 00 02 00 00 00 00 04 00 ................
400000000004EF30 08 00 00 00 01 00 00 00 00 02 00 00 00 00 04 00 ................

;; executing_line_number: 400000000004EF40
executing_line_number proc
	{ addl	r14,6488,r1; nop.m	0x0; nop.i	0x0; }
	{ nop.m	0x0; ld4	r14,[r14]; nop.i	0x0; }
	{ nop.m	0x0; cmp4.eq	p06,p07,0x0,r14; (p06) br.cond.dptk.few	400000000004F020 }

l400000000004EF70:
	{ addl	r14,7076,r1; ld4	r14,[r14]; nop.i	0x0; }
	{ nop.m	0x0; cmp4.eq	p07,p06,0x0,r14; (p06) br.cond.dptk.few	400000000004F020 }

l400000000004EF90:
	{ addl	r14,7148,r1; nop.m	0x0; nop.i	0x0; }
	{ nop.m	0x0; ld4	r14,[r14]; nop.i	0x0; }
	{ nop.m	0x0; cmp4.eq	p06,p07,0x0,r14; (p07) br.cond.dptk.few	400000000004F040 }

l400000000004EFC0:
	{ addl	r14,7084,r1; ld8	r14,[r14]; nop.i	0x0; }
	{ cmp.eq	p06,p07,0x0,r14; nop.i	0x0; (p06) br.cond.dpnt.few	400000000004F020; }

l400000000004EFE0:
	{ nop.m	0x0; ld4	r15,[r14]; nop.i	0x0; }
	{ cmp4.eq	p07,p06,0xB,r15; nop.i	0x0; (p07) br.cond.dpnt.few	400000000004F090; }

l400000000004F000:
	{ cmp4.eq	p07,p06,0xA,r15; nop.i	0x0; (p07) br.cond.dpnt.few	400000000004F090; }

l400000000004F010:
	{ nop.m	0x0; cmp4.eq	p07,p06,0xC,r15; (p07) br.cond.dpnt.few	400000000004F090; }

l400000000004F020:
	{ addl	r14,6648,r1; nop.m	0x0; nop.i	0x0; }
	{ ld4	r8,[r14]; nop.i	0x0; br.ret	b0 }

l400000000004F040:
	{ addl	r14,6512,r1; nop.m	0x0; nop.i	0x0; }
	{ nop.m	0x0; ld4	r14,[r14]; nop.i	0x0; }
	{ nop.m	0x0; cmp4.eq	p07,p06,0x0,r14; (p07) br.cond.dptk.few	400000000004EFC0 }

l400000000004F070:
	{ addl	r14,6648,r1; nop.m	0x0; nop.i	0x0; }
	{ ld4	r8,[r14]; nop.i	0x0; br.ret	b0 }

l400000000004F090:
	{ adds	r14,0x18,r14; ld8	r14,[r14]; nop.i	0x0; }
	{ nop.m	0x0; adds	r14,0x4,r14; nop.i	0x0; }
	{ ld4	r8,[r14]; nop.i	0x0; br.ret	b0; }

;; dispose_exec_redirects: 400000000004F0C0
dispose_exec_redirects proc
	{ alloc	r34,ar.pfs,0x5,0x0,0x4; addl	r32,7060,r1; mov	r33,b1 }
	{ adds	r35,0x0,r1; ld8	r14,[r32]; nop.i	0x0; }
	{ cmp.eq	p06,p07,0x0,r14; adds	r36,0x0,r14; (p06) br.cond.dpnt.few	400000000004F110; }

l400000000004F0F0:
	{ nop.m	0x0; nop.i	0x0; br.call.sptk.many	b0,dispose_redirects; }
	{ adds	r1,0x0,r35; st8	[r0],r32; nop.i	0x0 }

l400000000004F110:
	{ nop.m	0x0; mov.i	ar.pfs,r34; nop.i	0x0; }
	{ nop.m	0x0; mov.spnt	b0,r33,400000000004F120; br.ret	b0; }
400000000004F130 08 00 00 00 01 00 00 00 00 02 00 00 00 00 04 00 ................

;; getcoprocbypid: 400000000004F140
getcoprocbypid proc
	{ addl	r14,-21372,r1; nop.m	0x0; nop.i	0x0; }
	{ adds	r14,0x8,r14; ld4	r8,[r14]; nop.i	0x0; }
	{ cmp4.eq	p07,p06,r32,r8; (p07) addl	r8,-21372,r1; nop.i	0x0; }

l400000000004F16C:
	{ nop; break.i	0x1000; break.i	0x1000 }
	{ Invalid; mov	pr,r32,0x0; (p01) shladd	r0,r0,0x1,r64 }

l400000000004F18C:
	{ nop; break.m	0x1000; break.i	0x1000 }
400000000004F190 08 00 00 00 01 00 00 00 00 02 00 00 00 00 04 00 ................
400000000004F1A0 08 00 00 00 01 00 00 00 00 02 00 00 00 00 04 00 ................
400000000004F1B0 08 00 00 00 01 00 00 00 00 02 00 00 00 00 04 00 ................

;; getcoprocbyname: 400000000004F1C0
getcoprocbyname proc
	{ alloc	r34,ar.pfs,0x6,0x0,0x4; addl	r14,-21372,r1; mov	r33,b1 }
	{ adds	r35,0x0,r1; nop.m	0x0; adds	r37,0x0,r32; }
	{ nop.m	0x0; ld8	r14,[r14]; nop.i	0x0; }
	{ adds	r36,0x0,r14; cmp.eq	p06,p07,0x0,r14; (p06) br.cond.dpnt.few	400000000004F270; }

l400000000004F200:
	{ ld1	r15,[r32]; ld1	r14,[r14]; nop.i	0x0; }
	{ nop.m	0x0; sxt1	r14,r14; sxt1	r15,r15; }
	{ cmp4.eq	p07,p06,r14,r15; nop.i	0x0; (p06) br.cond.dpnt.few	400000000004F270; }

l400000000004F230:
	{ nop.m	0x0; nop.i	0x0; br.call.sptk.many	b0,400000000001A540; }
	{ adds	r1,0x0,r35; cmp4.eq	p07,p06,0x0,r8; mov.i	ar.pfs,r34; }
	{ (p07) addl	r8,-21372,r1; mov.spnt	b0,r33,400000000004F250; (p06) adds	r8,0x0,r0; }

l400000000004F256:
	{ chk.a.nc	r33,3FFFFFFFFF12F266; (p04) nop; break.i	0x80000 }

l400000000004F260:
	{ nop.m	0x0; nop.i	0x0; br.ret	b0; }

l400000000004F270:
	{ adds	r8,0x0,r0; nop.m	0x0; mov.i	ar.pfs,r34; }
	{ nop.m	0x0; mov.spnt	b0,r33,400000000004F280; br.ret	b0; }
400000000004F290 08 00 00 00 01 00 00 00 00 02 00 00 00 00 04 00 ................
400000000004F2A0 08 00 00 00 01 00 00 00 00 02 00 00 00 00 04 00 ................
400000000004F2B0 08 00 00 00 01 00 00 00 00 02 00 00 00 00 04 00 ................

;; coproc_init: 400000000004F2C0
coproc_init proc
	{ adds	r15,0x0,r32; addl	r14,-1,r0; adds	r20,0x10,r32 }
	{ adds	r19,0xC,r32; adds	r18,0x18,r32; adds	r17,0x14,r32; }
	{ adds	r16,0x20,r32; st8	[r15],r8,8; adds	r32,0x1C,r32 }
	{ st4	[r14],r20; st4	[r14],r15; nop.i	0x0 }
	{ st4	[r14],r19; st4	[r14],r18; nop.i	0x0 }
	{ st4	[r14],r17; nop.i	0x0; nop.i	0x0 }
	{ st4	[r0],r16; st4	[r0],r32; br.ret	b0; }
400000000004F330 08 00 00 00 01 00 00 00 00 02 00 00 00 00 04 00 ................

;; coproc_alloc: 400000000004F340
coproc_alloc proc
	{ alloc	r37,ar.pfs,0x9,0x0,0x7; addl	r34,-21372,r1; mov	r36,b4 }
	{ adds	r38,0x0,r1; nop.m	0x0; adds	r39,0x0,r32; }
	{ nop.m	0x0; nop.m	0x0; addl	r14,-1,r0; }
	{ adds	r35,0x0,r34; adds	r20,0x10,r34; adds	r19,0xC,r34 }
	{ adds	r18,0x18,r34; adds	r17,0x14,r34; adds	r16,0x20,r34; }
	{ adds	r15,0x1C,r34; st8	[r35],r8,8; nop.i	0x0 }
	{ st4	[r14],r20; st4	[r14],r35; nop.i	0x0 }
	{ st4	[r14],r19; st4	[r14],r18; nop.i	0x0 }
	{ st4	[r14],r17; st4	[r0],r16; nop.i	0x0 }
	{ st4	[r0],r15; nop.m	0x0; br.call.sptk.many	b0,400000000001B6C0; }
	{ adds	r1,0x0,r38; adds	r39,0x1,r8; br.call.sptk.many	b0,xmalloc; }
	{ adds	r1,0x0,r38; nop.m	0x0; adds	r39,0x0,r8 }
	{ adds	r40,0x0,r32; nop.m	0x0; br.call.sptk.many	b0,400000000001B180; }
	{ adds	r1,0x0,r38; st8	[r8],r34; nop.b	0x0 }
	{ st4	[r33],r35; adds	r8,0x0,r34; mov.i	ar.pfs,r37; }
	{ nop.m	0x0; mov.spnt	b0,r36,400000000004F430; br.ret	b0; }

;; coproc_close: 400000000004F440
;;   Called from:
;;     400000000004F56C (in coproc_closeall)
coproc_close proc
	{ alloc	r36,ar.pfs,0x7,0x0,0x6; adds	r34,0xC,r32; nop.b	0x0 }
	{ adds	r37,0x0,r1; mov	r35,b3; adds	r33,0x10,r32; }
	{ nop.m	0x0; ld4	r14,[r34]; nop.i	0x0; }
	{ cmp4.lt	p06,p07,r14,r0; adds	r38,0x0,r14; (p06) br.cond.dpnt.few	400000000004F4B0; }

l400000000004F480:
	{ nop.m	0x0; nop.i	0x0; br.call.sptk.many	b0,400000000001C340; }
	{ addl	r14,-1,r0; nop.m	0x0; adds	r1,0x0,r37; }
	{ st4	[r14],r34; nop.m	0x0; nop.i	0x0 }

l400000000004F4B0:
	{ nop.m	0x0; ld4	r14,[r33]; nop.i	0x0; }
	{ cmp4.lt	p06,p07,r14,r0; adds	r38,0x0,r14; (p06) br.cond.dpnt.few	400000000004F500; }

l400000000004F4D0:
	{ nop.m	0x0; nop.i	0x0; br.call.sptk.many	b0,400000000001C340; }
	{ addl	r14,-1,r0; nop.m	0x0; adds	r1,0x0,r37; }
	{ st4	[r14],r33; nop.m	0x0; nop.i	0x0 }

l400000000004F500:
	{ addl	r14,-1,r0; adds	r15,0x18,r32; nop.b	0x0 }
	{ adds	r32,0x14,r32; nop.m	0x0; mov.i	ar.pfs,r36; }
	{ nop.m	0x0; st4	[r14],r15; nop.b	0x0 }
	{ st4	[r14],r32; mov.spnt	b0,r35,400000000004F530; br.ret	b0; }

;; coproc_closeall: 400000000004F540
coproc_closeall proc
	{ alloc	r16,ar.pfs,0x1,0x0,0x1; nop.m	0x0; addl	r32,-21372,r1; }
	{ nop.m	0x0; nop.m	0x0; nop.i	0x0; }
	{ alloc	r2,ar.pfs,0x1,0x0,0x0; nop.i	0x0; br.cond.sptk.many	coproc_close; }
400000000004F570 0D 00 00 00 01 00 00 00 00 00 00 00 00 00 04 00 ................

;; coproc_rclose: 400000000004F580
coproc_rclose proc
	{ alloc	r35,ar.pfs,0x6,0x0,0x5; adds	r32,0xC,r32; mov	r34,b2 }
	{ adds	r36,0x0,r1; ld4	r37,[r32]; nop.i	0x0; }
	{ cmp4.lt	p06,p07,r37,r0; nop.i	0x0; (p06) br.cond.dpnt.few	400000000004F5C0; }

l400000000004F5B0:
	{ nop.m	0x0; cmp4.eq	p07,p06,r33,r37; (p07) br.cond.dpnt.few	400000000004F5E0 }

l400000000004F5C0:
	{ nop.m	0x0; mov.i	ar.pfs,r35; nop.i	0x0; }
	{ nop.m	0x0; mov.spnt	b0,r34,400000000004F5D0; br.ret	b0; }

l400000000004F5E0:
	{ nop.m	0x0; nop.i	0x0; br.call.sptk.many	b0,400000000001C340; }
	{ addl	r14,-1,r0; adds	r1,0x0,r36; mov.i	ar.pfs,r35; }
	{ st4	[r14],r32; mov.spnt	b0,r34,400000000004F600; br.ret	b0; }
400000000004F610 08 00 00 00 01 00 00 00 00 02 00 00 00 00 04 00 ................
400000000004F620 08 00 00 00 01 00 00 00 00 02 00 00 00 00 04 00 ................
400000000004F630 08 00 00 00 01 00 00 00 00 02 00 00 00 00 04 00 ................

;; coproc_wclose: 400000000004F640
coproc_wclose proc
	{ alloc	r35,ar.pfs,0x6,0x0,0x5; adds	r32,0x10,r32; mov	r34,b2 }
	{ adds	r36,0x0,r1; ld4	r37,[r32]; nop.i	0x0; }
	{ cmp4.lt	p06,p07,r37,r0; nop.i	0x0; (p06) br.cond.dpnt.few	400000000004F680; }

l400000000004F670:
	{ nop.m	0x0; cmp4.eq	p07,p06,r33,r37; (p07) br.cond.dpnt.few	400000000004F6A0 }

l400000000004F680:
	{ nop.m	0x0; mov.i	ar.pfs,r35; nop.i	0x0; }
	{ nop.m	0x0; mov.spnt	b0,r34,400000000004F690; br.ret	b0; }

l400000000004F6A0:
	{ nop.m	0x0; nop.i	0x0; br.call.sptk.many	b0,400000000001C340; }
	{ addl	r14,-1,r0; adds	r1,0x0,r36; mov.i	ar.pfs,r35; }
	{ st4	[r14],r32; mov.spnt	b0,r34,400000000004F6C0; br.ret	b0; }
400000000004F6D0 08 00 00 00 01 00 00 00 00 02 00 00 00 00 04 00 ................
400000000004F6E0 08 00 00 00 01 00 00 00 00 02 00 00 00 00 04 00 ................
400000000004F6F0 08 00 00 00 01 00 00 00 00 02 00 00 00 00 04 00 ................

;; coproc_fdsave: 400000000004F700
coproc_fdsave proc
	{ adds	r15,0xC,r32; adds	r14,0x10,r32; adds	r16,0x14,r32 }
	{ adds	r32,0x18,r32; ld4	r15,[r15]; nop.i	0x0 }
	{ ld4	r14,[r14]; nop.i	0x0; nop.i	0x0 }
	{ st4	[r15],r16; st4	[r14],r32; br.ret	b0; }

;; coproc_fdrestore: 400000000004F740
coproc_fdrestore proc
	{ adds	r15,0x14,r32; adds	r14,0x18,r32; adds	r16,0xC,r32 }
	{ adds	r32,0x10,r32; ld4	r15,[r15]; nop.i	0x0 }
	{ ld4	r14,[r14]; nop.i	0x0; nop.i	0x0 }
	{ st4	[r15],r16; st4	[r14],r32; br.ret	b0; }

;; coproc_pidchk: 400000000004F780
coproc_pidchk proc
	{ addl	r14,-21372,r1; nop.m	0x0; nop.i	0x0; }
	{ adds	r15,0x8,r14; ld4	r15,[r15]; nop.i	0x0; }
	{ cmp4.eq	p06,p07,r15,r32; (p06) adds	r15,0x1C,r14; (p06) adds	r14,0x20,r14; }

l400000000004F7AC:
	{ Invalid; (p02) mov	pr,r3,0x40C0; Invalid; }

l400000000004F7B0:
	{ (p06) ld4	r16,[r15]; (p06) st4	[r33],r14; nop.i	0x0; }

l400000000004F7B6:
	{ mf.a; addl	r0,49152,r1; (p01) nop; }

l400000000004F7BC:
	{ Invalid; (p34) mov	pr,r4,0x883E; zxt1	r0,r11 }

l400000000004F7C6:
	{ Invalid; nop; (p01) nop; }

l400000000004F7CC:
	{ Invalid; Invalid; add	r0,r32,r0 }

l400000000004F7D6:
	{ break.m	0x4000; (p34) nop; break.i	0x80000 }
400000000004F7E0 08 00 00 00 01 00 00 00 00 02 00 00 00 00 04 00 ................
400000000004F7F0 08 00 00 00 01 00 00 00 00 02 00 00 00 00 04 00 ................

;; coproc_setvars: 400000000004F800
;;   Called from:
;;     400000000004FCAC (in coproc_fdclose)
;;     400000000004FD6C (in coproc_checkfd)
coproc_setvars proc
	{ alloc	r38,ar.pfs,0xD,0x0,0x8; ld8	r14,[r32]; mov	r37,b5 }
	{ adds	r39,0x0,r1; adds	r34,0x0,r32; adds	r33,0x0,r32; }
	{ cmp.eq	p06,p07,0x0,r14; adds	r40,0x0,r14; (p06) br.cond.dpnt.few	400000000004FA30; }

l400000000004F830:
	{ nop.m	0x0; nop.i	0x0; br.call.sptk.many	b0,400000000001B6C0; }
	{ adds	r40,0x10,r8; nop.m	0x0; adds	r1,0x0,r39; }
	{ nop.m	0x0; sxt4	r40,r40; br.call.sptk.many	b0,xmalloc; }
	{ adds	r1,0x0,r39; nop.m	0x0; adds	r35,0x0,r8 }
	{ ld8	r40,[r32]; nop.m	0x0; br.call.sptk.many	b0,find_variable; }
	{ adds	r14,0x28,r8; nop.m	0x0; adds	r1,0x0,r39 }
	{ cmp.eq	p07,p06,0x0,r8; nop.m	0x0; (p07) br.cond.dpnt.few	400000000004FBD0; }

l400000000004F8A0:
	{ nop.m	0x0; ld4	r14,[r14]; nop.i	0x0; }
	{ nop.m	0x0; tbit.z	p07,p06,r14,0x2; (p07) br.cond.dpnt.few	400000000004FA50 }

l400000000004F8C0:
	{ adds	r14,0xC,r32; ld4	r40,[r14]; nop.i	0x0; }
	{ nop.m	0x0; sxt4	r40,r40; br.call.sptk.many	b0,itos; }
	{ adds	r41,0x0,r0; adds	r42,0x0,r8; adds	r43,0x0,r0 }
	{ ld8	r40,[r34],16; adds	r1,0x0,r39; adds	r36,0x0,r8; }
	{ nop.m	0x0; nop.i	0x0; br.call.sptk.many	b0,bind_array_variable; }
	{ adds	r1,0x0,r39; adds	r40,0x0,r36; br.call.sptk.many	b0,400000000001A7E0; }
	{ ld4	r40,[r34]; nop.m	0x0; adds	r1,0x0,r39; }
	{ nop.m	0x0; sxt4	r40,r40; br.call.sptk.many	b0,itos; }
	{ addl	r41,1,r0; adds	r42,0x0,r8; adds	r43,0x0,r0 }
	{ adds	r1,0x0,r39; ld8	r40,[r32]; adds	r34,0x0,r8; }
	{ nop.m	0x0; nop.i	0x0; br.call.sptk.many	b0,bind_array_variable; }
	{ adds	r1,0x0,r39; adds	r40,0x0,r34; br.call.sptk.many	b0,400000000001A7E0; }
	{ adds	r1,0x0,r39; ld8	r44,[r33],8; addl	r42,-1,r0 }
	{ addl	r41,1,r0; adds	r40,0x0,r35; addl	r43,-3268,r1; }
	{ ld8	r43,[r43]; nop.i	0x0; br.call.sptk.many	b0,400000000001C440; }
	{ ld4	r40,[r33]; nop.m	0x0; adds	r1,0x0,r39; }
	{ nop.m	0x0; sxt4	r40,r40; br.call.sptk.many	b0,itos; }
	{ adds	r42,0x0,r0; adds	r41,0x0,r8; adds	r1,0x0,r39 }
	{ adds	r33,0x0,r8; adds	r40,0x0,r35; br.call.sptk.many	b0,bind_variable; }
	{ adds	r1,0x0,r39; adds	r40,0x0,r33; br.call.sptk.many	b0,400000000001A7E0; }
	{ nop.m	0x0; adds	r1,0x0,r39; adds	r40,0x0,r35 }
	{ nop.m	0x0; nop.m	0x0; br.call.sptk.many	b0,400000000001A7E0; }
	{ adds	r1,0x0,r39; nop.m	0x0; nop.i	0x0 }

l400000000004FA30:
	{ nop.m	0x0; mov.i	ar.pfs,r38; nop.i	0x0; }
	{ nop.m	0x0; mov.spnt	b0,r37,400000000004FA40; br.ret	b0; }

l400000000004FA50:
	{ adds	r40,0x0,r8; nop.i	0x0; br.call.sptk.many	b0,convert_var_to_array; }
	{ adds	r14,0xC,r32; nop.m	0x0; adds	r1,0x0,r39; }
	{ nop.m	0x0; ld4	r40,[r14]; nop.i	0x0; }
	{ nop.m	0x0; sxt4	r40,r40; br.call.sptk.many	b0,itos; }
	{ adds	r41,0x0,r0; adds	r42,0x0,r8; adds	r43,0x0,r0 }
	{ ld8	r40,[r34],16; adds	r1,0x0,r39; adds	r36,0x0,r8; }
	{ nop.m	0x0; nop.i	0x0; br.call.sptk.many	b0,bind_array_variable; }
	{ adds	r1,0x0,r39; adds	r40,0x0,r36; br.call.sptk.many	b0,400000000001A7E0; }
	{ ld4	r40,[r34]; nop.m	0x0; adds	r1,0x0,r39; }
	{ nop.m	0x0; sxt4	r40,r40; br.call.sptk.many	b0,itos; }
	{ adds	r1,0x0,r39; adds	r34,0x0,r8; addl	r41,1,r0 }
	{ adds	r42,0x0,r8; ld8	r40,[r32]; adds	r43,0x0,r0; }
	{ nop.m	0x0; nop.i	0x0; br.call.sptk.many	b0,bind_array_variable; }
	{ adds	r1,0x0,r39; adds	r40,0x0,r34; br.call.sptk.many	b0,400000000001A7E0; }
	{ adds	r1,0x0,r39; ld8	r44,[r33],8; adds	r40,0x0,r35 }
	{ addl	r42,-1,r0; addl	r41,1,r0; addl	r43,-3268,r1; }
	{ ld8	r43,[r43]; nop.i	0x0; br.call.sptk.many	b0,400000000001C440; }
	{ ld4	r40,[r33]; nop.m	0x0; adds	r1,0x0,r39; }
	{ nop.m	0x0; sxt4	r40,r40; br.call.sptk.many	b0,itos; }
	{ adds	r42,0x0,r0; adds	r41,0x0,r8; adds	r1,0x0,r39 }
	{ adds	r33,0x0,r8; adds	r40,0x0,r35; br.call.sptk.many	b0,bind_variable; }
	{ adds	r1,0x0,r39; adds	r40,0x0,r33; br.call.sptk.many	b0,400000000001A7E0; }
	{ adds	r1,0x0,r39; adds	r40,0x0,r35; br.call.sptk.many	b0,400000000001A7E0; }
	{ nop.m	0x0; adds	r1,0x0,r39; br.cond.sptk.few	400000000004FA30 }

l400000000004FBD0:
	{ ld8	r40,[r32]; nop.i	0x0; br.call.sptk.many	b0,make_new_array_variable; }
	{ adds	r14,0x28,r8; nop.m	0x0; adds	r1,0x0,r39; }
	{ nop.m	0x0; ld4	r14,[r14]; nop.i	0x0; }
	{ nop.m	0x0; tbit.z	p07,p06,r14,0x2; (p06) br.cond.dptk.few	400000000004F8C0 }

l400000000004FC10:
	{ nop.m	0x0; nop.i	0x0; br.cond.sptk.few	400000000004FA50; }
400000000004FC20 08 00 00 00 01 00 00 00 00 02 00 00 00 00 04 00 ................
400000000004FC30 08 00 00 00 01 00 00 00 00 02 00 00 00 00 04 00 ................

;; coproc_fdclose: 400000000004FC40
coproc_fdclose proc
	{ alloc	r36,ar.pfs,0x8,0x0,0x6; mov	r35,b3; nop.b	0x0 }
	{ adds	r37,0x0,r1; adds	r38,0x0,r32; adds	r39,0x0,r33; }
	{ nop.m	0x0; nop.i	0x0; br.call.sptk.many	b0,coproc_rclose; }
	{ adds	r1,0x0,r37; nop.m	0x0; adds	r38,0x0,r32 }
	{ adds	r39,0x0,r33; nop.m	0x0; br.call.sptk.many	b0,coproc_wclose; }
	{ adds	r1,0x0,r37; mov.spnt	b0,r35,400000000004FC90; mov.i	ar.pfs,r36; }
	{ alloc	r2,ar.pfs,0x2,0x0,0x0; nop.i	0x0; br.cond.sptk.many	coproc_setvars; }
400000000004FCB0 0D 00 00 00 01 00 00 00 00 00 00 00 00 00 04 00 ................

;; coproc_checkfd: 400000000004FCC0
;;   Called from:
;;     400000000004FDAC (in coproc_fdchk)
coproc_checkfd proc
	{ adds	r14,0xC,r32; ld4	r15,[r14]; nop.i	0x0; }
	{ cmp4.lt	p06,p07,r15,r0; nop.i	0x0; (p06) br.cond.dpnt.few	400000000004FD00; }

l400000000004FCE0:
	{ cmp4.eq	p07,p06,r33,r15; (p07) addl	r15,-1,r0; (p07) addl	r16,-1,r0; }

l400000000004FCEC:
	{ Invalid; (p48) rfi; br.cond	b0 }

l400000000004FCF0:
	{ (p07) st4	[r15],r14; nop.i	0x0; (p07) br.cond.dpnt.few	400000000004FD10 }

l400000000004FCF6:
	{ chk.a.nc	f0,3FFFFFFFFF0504F6; nop; nop }

l400000000004FD00:
	{ adds	r16,0x0,r0; nop.m	0x0; nop.i	0x0 }

l400000000004FD10:
	{ adds	r15,0x10,r32; ld4	r14,[r15]; nop.i	0x0; }
	{ cmp4.lt	p06,p07,r14,r0; nop.i	0x0; (p06) br.cond.dpnt.few	400000000004FD50; }

l400000000004FD30:
	{ cmp4.eq	p07,p06,r14,r33; (p07) addl	r14,-1,r0; nop.i	0x0; }

l400000000004FD3C:
	{ Invalid; Invalid; mov	pr,r32,0x0 }

l400000000004FD46:
	{ chk.a.nc	f0,3FFFFFFFFF050546; nop; break.i	0x80000 }

l400000000004FD50:
	{ nop.m	0x0; cmp4.eq	p06,p07,0x0,r16; (p06) br.ret	b0; }

l400000000004FD60:
	{ alloc	r2,ar.pfs,0x2,0x0,0x0; nop.i	0x0; br.cond.sptk.many	coproc_setvars; }
400000000004FD70 0D 00 00 00 01 00 00 00 00 00 00 00 00 00 04 00 ................

;; coproc_fdchk: 400000000004FD80
coproc_fdchk proc
	{ alloc	r16,ar.pfs,0x2,0x0,0x2; adds	r33,0x0,r32; addl	r32,-21372,r1; }
	{ nop.m	0x0; nop.m	0x0; nop.i	0x0; }
	{ alloc	r2,ar.pfs,0x2,0x0,0x0; nop.i	0x0; br.cond.sptk.many	coproc_checkfd; }
400000000004FDB0 0D 00 00 00 01 00 00 00 00 00 00 00 00 00 04 00 ................

;; coproc_unsetvars: 400000000004FDC0
coproc_unsetvars proc
	{ alloc	r35,ar.pfs,0xA,0x0,0x5; ld8	r14,[r32]; mov	r34,b2 }
	{ nop.m	0x0; adds	r36,0x0,r1; nop.i	0x0; }
	{ adds	r37,0x0,r14; cmp.eq	p06,p07,0x0,r14; (p06) br.cond.dpnt.few	400000000004FEC0; }

l400000000004FDF0:
	{ nop.m	0x0; nop.i	0x0; br.call.sptk.many	b0,400000000001B6C0; }
	{ adds	r37,0x10,r8; nop.m	0x0; adds	r1,0x0,r36; }
	{ nop.m	0x0; sxt4	r37,r37; br.call.sptk.many	b0,xmalloc; }
	{ adds	r1,0x0,r36; addl	r38,1,r0; addl	r39,-1,r0 }
	{ ld8	r41,[r32]; adds	r33,0x0,r8; adds	r37,0x0,r8; }
	{ nop.m	0x0; addl	r40,-3268,r1; nop.i	0x0; }
	{ ld8	r40,[r40]; nop.i	0x0; br.call.sptk.many	b0,400000000001C440; }
	{ adds	r1,0x0,r36; adds	r37,0x0,r33; br.call.sptk.many	b0,unbind_variable; }
	{ nop.m	0x0; adds	r1,0x0,r36; nop.i	0x0 }
	{ ld8	r37,[r32]; nop.m	0x0; br.call.sptk.many	b0,unbind_variable; }
	{ nop.m	0x0; adds	r1,0x0,r36; adds	r37,0x0,r33 }
	{ nop.m	0x0; nop.m	0x0; br.call.sptk.many	b0,400000000001A7E0; }
	{ adds	r1,0x0,r36; nop.m	0x0; nop.i	0x0 }

l400000000004FEC0:
	{ nop.m	0x0; mov.i	ar.pfs,r35; nop.i	0x0; }
	{ nop.m	0x0; mov.spnt	b0,r34,400000000004FED0; br.ret	b0; }
400000000004FEE0 08 00 00 00 01 00 00 00 00 02 00 00 00 00 04 00 ................
400000000004FEF0 08 00 00 00 01 00 00 00 00 02 00 00 00 00 04 00 ................

;; coproc_dispose: 400000000004FF00
;;   Called from:
;;     400000000005008C (in coproc_reap)
;;     40000000000500EC (in coproc_flush)
coproc_dispose proc
	{ alloc	r34,ar.pfs,0x5,0x0,0x4; cmp.eq	p06,p07,0x0,r32; mov	r33,b1 }
	{ adds	r35,0x0,r1; adds	r36,0x0,r32; (p06) br.cond.dpnt.few	400000000004FFF0; }

l400000000004FF20:
	{ nop.m	0x0; nop.i	0x0; br.call.sptk.many	b0,coproc_unsetvars; }
	{ ld8	r36,[r32]; nop.m	0x0; adds	r1,0x0,r35; }
	{ cmp.eq	p06,p07,0x0,r36; nop.i	0x0; (p06) br.cond.dpnt.few	400000000004FF70; }

l400000000004FF50:
	{ nop.m	0x0; nop.i	0x0; br.call.sptk.many	b0,400000000001A7E0; }
	{ adds	r1,0x0,r35; nop.m	0x0; nop.i	0x0 }

l400000000004FF70:
	{ adds	r36,0x0,r32; nop.i	0x0; br.call.sptk.many	b0,coproc_close; }
	{ adds	r15,0x0,r32; addl	r14,-1,r0; adds	r20,0x10,r32 }
	{ adds	r19,0xC,r32; adds	r18,0x18,r32; adds	r17,0x14,r32; }
	{ adds	r16,0x20,r32; st8	[r15],r8,8; adds	r32,0x1C,r32 }
	{ adds	r1,0x0,r35; st4	[r14],r20; nop.i	0x0; }
	{ st4	[r14],r15; st4	[r14],r19; nop.i	0x0; }
	{ st4	[r14],r18; st4	[r14],r17; nop.i	0x0; }
	{ st4	[r0],r16; st4	[r0],r32; nop.i	0x0 }

l400000000004FFF0:
	{ nop.m	0x0; mov.i	ar.pfs,r34; nop.i	0x0; }
	{ nop.m	0x0; mov.spnt	b0,r33,4000000000050000; br.ret	b0; }
4000000000050010 08 00 00 00 01 00 00 00 00 02 00 00 00 00 04 00 ................
4000000000050020 08 00 00 00 01 00 00 00 00 02 00 00 00 00 04 00 ................
4000000000050030 08 00 00 00 01 00 00 00 00 02 00 00 00 00 04 00 ................

;; coproc_reap: 4000000000050040
coproc_reap proc
	{ alloc	r16,ar.pfs,0x1,0x0,0x1; nop.m	0x0; addl	r32,-21372,r1; }
	{ nop.m	0x0; adds	r14,0x1C,r32; nop.i	0x0; }
	{ nop.m	0x0; ld4	r14,[r14]; nop.i	0x0; }
	{ nop.m	0x0; tbit.z	p06,p07,r14,0x1; (p06) br.ret	b0; }

l4000000000050080:
	{ alloc	r2,ar.pfs,0x1,0x0,0x0; nop.i	0x0; br.cond.sptk.many	coproc_dispose; }
4000000000050090 0D 00 00 00 01 00 00 00 00 00 00 00 00 00 04 00 ................
40000000000500A0 08 00 00 00 01 00 00 00 00 02 00 00 00 00 04 00 ................
40000000000500B0 08 00 00 00 01 00 00 00 00 02 00 00 00 00 04 00 ................

;; coproc_flush: 40000000000500C0
coproc_flush proc
	{ alloc	r16,ar.pfs,0x1,0x0,0x1; nop.m	0x0; addl	r32,-21372,r1; }
	{ nop.m	0x0; nop.m	0x0; nop.i	0x0; }
	{ alloc	r2,ar.pfs,0x1,0x0,0x0; nop.i	0x0; br.cond.sptk.many	coproc_dispose; }
40000000000500F0 0D 00 00 00 01 00 00 00 00 00 00 00 00 00 04 00 ................

;; setup_async_signals: 4000000000050100
setup_async_signals proc
	{ alloc	r33,ar.pfs,0x5,0x0,0x3; addl	r14,5868,r1; mov	r32,b0 }
	{ adds	r34,0x0,r1; nop.m	0x0; mov.i	ar.pfs,r33; }
	{ nop.m	0x0; mov.spnt	b0,r32,4000000000050120; nop.i	0x0; }
	{ nop.m	0x0; ld4	r14,[r14]; nop.i	0x0; }
	{ cmp4.eq	p07,p06,0x0,r14; (p07) br.cond.dpnt.few	4000000000050150; br.ret	b0; }

l400000000005014C:
	{ shladd	r0,r33,0x2,r0; (p20) ldfs.nt1	f0,[r0]; zxt4	r0,r0 }

l4000000000050150:
	{ addl	r36,1,r0; addl	r35,2,r0; br.call.sptk.many	b0,set_signal_handler; }
	{ adds	r1,0x0,r34; addl	r35,2,r0; br.call.sptk.many	b0,set_signal_ignored; }
	{ adds	r1,0x0,r34; nop.m	0x0; addl	r36,1,r0 }
	{ addl	r35,3,r0; nop.m	0x0; br.call.sptk.many	b0,set_signal_handler; }
	{ adds	r1,0x0,r34; addl	r35,3,r0; br.call.sptk.many	b0,set_signal_ignored; }
	{ adds	r1,0x0,r34; nop.m	0x0; mov.i	ar.pfs,r33; }
	{ nop.m	0x0; mov.spnt	b0,r32,40000000000501B0; br.ret	b0; }

;; shell_execve: 40000000000501C0
shell_execve proc
	{ alloc	r42,ar.pfs,0x10,0x0,0xD; adds	r12,0xFFFFFFFFFFFFFFB0,r12; nop.b	0x0 }
	{ adds	r43,0x0,r1; mov	r41,b1; adds	r45,0x0,r32; }
	{ adds	r46,0x0,r33; adds	r47,0x0,r34; mov	r44,LC }
	{ nop.m	0x0; nop.m	0x0; br.call.sptk.many	b0,400000000001B760; }
	{ adds	r1,0x0,r43; nop.i	0x0; br.call.sptk.many	b0,400000000001B840; }
	{ adds	r1,0x0,r43; ld4	r35,[r8]; adds	r36,0x0,r8 }
	{ adds	r45,0x0,r32; addl	r14,7676,r1; nop.i	0x0; }
	{ nop.m	0x0; ld4.acq	r15,[r14]; nop.i	0x0; }
	{ cmp4.eq	p06,p07,0x0,r15; nop.i	0x0; (p07) br.cond.dpnt.few	4000000000050440; }

l4000000000050250:
	{ nop.m	0x0; cmp4.eq	p06,p07,0x8,r35; (p06) br.cond.dpnt.few	4000000000050470 }

l4000000000050260:
	{ nop.m	0x0; nop.i	0x0; br.call.sptk.many	b0,file_isdir; }
	{ adds	r1,0x0,r43; cmp4.eq	p06,p07,0x0,r8; (p07) br.cond.dptk.few	40000000000503C0 }

l4000000000050280:
	{ adds	r45,0x0,r32; nop.i	0x0; br.call.sptk.many	b0,executable_file; }
	{ cmp4.eq	p07,p06,0x0,r8; adds	r1,0x0,r43; (p07) br.cond.dpnt.few	4000000000050360; }

l40000000000502A0:
	{ nop.m	0x0; cmp4.eq	p07,p06,0xC,r35; nop.i	0x0; }
	{ nop.m	0x0; cmp4.eq.or.andcm	p07,p06,0x7,r35; (p07) br.cond.dptk.few	4000000000050360 }

l40000000000502C0:
	{ adds	r45,0x0,r32; adds	r46,0x0,r0; br.call.sptk.many	b0,400000000001B4E0; }
	{ cmp4.lt	p06,p07,r8,r0; adds	r1,0x0,r43; adds	r37,0x0,r8 }
	{ adds	r46,0x10,r12; addl	r47,80,r0; (p06) br.cond.dpnt.few	4000000000050360; }

l40000000000502F0:
	{ adds	r45,0x0,r8; nop.i	0x0; br.call.sptk.many	b0,400000000001A600; }
	{ adds	r1,0x0,r43; nop.m	0x0; adds	r38,0x0,r8 }
	{ adds	r45,0x0,r37; nop.m	0x0; br.call.sptk.many	b0,400000000001C340; }
	{ adds	r15,0x10,r12; nop.m	0x0; adds	r1,0x0,r43 }
	{ cmp4.lt	p07,p06,0x2,r38; nop.m	0x0; (p06) br.cond.spnt.few	4000000000050360; }

l4000000000050340:
	{ ld1	r14,[r15]; nop.m	0x0; sxt1	r14,r14; }
	{ nop.m	0x0; cmp4.eq	p07,p06,0x23,r14; (p07) br.cond.dpnt.few	4000000000050A00; }

l4000000000050360:
	{ st4	[r35],r36; adds	r45,0x0,r32; br.call.sptk.many	b0,file_error; }
	{ cmp4.eq	p06,p07,0x2,r35; nop.m	0x0; adds	r1,0x0,r43; }
	{ (p06) addl	r8,127,r0; nop.i	0x0; (p07) addl	r8,126,r0 }

l4000000000050386:
	{ chk.a.nc	f0,3FFFFFFFFF050B86; (p04) mov	pr,r0,0x40FC; break.i	0x80000 }

l4000000000050390:
	{ nop.m	0x0; mov.i	ar.pfs,r42; nop.i	0x0; }
	{ nop.m	0x0; mov.i	LC,r44; mov.spnt	b0,r41,40000000000503A0 }
	{ nop.m	0x0; adds	r12,0x50,r12; br.ret	b0 }

l40000000000503C0:
	{ addl	r46,-3260,r1; addl	r47,5,r0; adds	r45,0x0,r0; }
	{ ld8	r46,[r46]; nop.i	0x0; br.call.sptk.many	b0,400000000001AB60; }
	{ adds	r1,0x0,r43; nop.m	0x0; adds	r36,0x0,r8 }
	{ addl	r45,21,r0; nop.m	0x0; br.call.sptk.many	b0,400000000001B4A0; }
	{ adds	r1,0x0,r43; adds	r47,0x0,r8; nop.i	0x0 }
	{ adds	r45,0x0,r36; adds	r46,0x0,r32; br.call.sptk.many	b0,internal_error; }
	{ cmp4.eq	p06,p07,0x2,r35; adds	r1,0x0,r43; (p06) addl	r8,127,r0; }

l4000000000050430:
	{ nop.m	0x0; (p07) addl	r8,126,r0; br.cond.sptk.few	4000000000050390 }

l400000000005043C:
	{ (p59) nop; Invalid; break.i	0x1000 }

l4000000000050440:
	{ ld4.acq	r45,[r14]; nop.i	0x0; br.call.sptk.many	b0,termsig_handler; }
	{ nop.m	0x0; adds	r1,0x0,r43; adds	r45,0x0,r32 }
	{ nop.m	0x0; cmp4.eq	p06,p07,0x8,r35; (p07) br.cond.dptk.few	4000000000050260 }

l4000000000050470:
	{ adds	r46,0x0,r0; nop.i	0x0; br.call.sptk.many	b0,400000000001B4E0; }
	{ cmp4.lt	p06,p07,r8,r0; adds	r1,0x0,r43; adds	r35,0x0,r8 }
	{ adds	r45,0x0,r8; adds	r46,0x10,r12; (p06) br.cond.dpnt.few	40000000000505B0; }

l40000000000504A0:
	{ addl	r47,80,r0; nop.i	0x0; br.call.sptk.many	b0,400000000001A600; }
	{ adds	r1,0x0,r43; nop.m	0x0; adds	r36,0x0,r8 }
	{ adds	r45,0x0,r35; nop.m	0x0; br.call.sptk.many	b0,400000000001C340; }
	{ cmp4.eq	p06,p07,0x0,r36; nop.m	0x0; adds	r1,0x0,r43; }
	{ nop.m	0x0; (p06) adds	r8,0x0,r0; (p06) br.cond.dptk.few	4000000000050390 }

l40000000000504EC:
	{ (p53) cmp.eq.unc	p63,p08,r63,r37; czx1.l	r0,r97; Invalid }

l40000000000504F0:
	{ cmp4.lt	p07,p06,0x0,r36; nop.m	0x0; adds	r45,0x10,r12 }
	{ adds	r46,0x0,r36; nop.m	0x0; (p06) br.cond.spnt.few	40000000000505B0; }

l4000000000050510:
	{ nop.m	0x0; nop.i	0x0; br.call.sptk.many	b0,check_binary_file; }
	{ adds	r1,0x0,r43; cmp4.eq	p06,p07,0x0,r8; nop.i	0x0 }
	{ addl	r47,5,r0; adds	r45,0x0,r0; (p06) br.cond.spnt.few	40000000000505B0; }

l4000000000050540:
	{ nop.m	0x0; addl	r46,-3244,r1; nop.i	0x0; }
	{ ld8	r46,[r46]; nop.i	0x0; br.call.sptk.many	b0,400000000001AB60; }
	{ adds	r1,0x0,r43; nop.m	0x0; adds	r45,0x0,r8 }
	{ adds	r46,0x0,r32; nop.m	0x0; br.call.sptk.many	b0,internal_error; }
	{ addl	r8,126,r0; adds	r1,0x0,r43; mov.i	ar.pfs,r42; }
	{ nop.m	0x0; mov.i	LC,r44; mov.spnt	b0,r41,4000000000050590 }
	{ nop.m	0x0; adds	r12,0x50,r12; br.ret	b0; }

l40000000000505B0:
	{ nop.m	0x0; nop.i	0x0; br.call.sptk.many	b0,delete_all_aliases; }
	{ adds	r1,0x0,r43; addl	r14,9148,r1; nop.i	0x0; }
	{ nop.m	0x0; nop.m	0x0; nop.i	0x0; }
	{ st4	[r0],r14; nop.i	0x0; br.call.sptk.many	b0,without_job_control; }
	{ adds	r1,0x0,r43; nop.i	0x0; br.call.sptk.many	b0,set_sigchld_handler; }
	{ adds	r1,0x0,r43; nop.i	0x0; br.call.sptk.many	b0,init_job_stats; }
	{ adds	r1,0x0,r43; nop.i	0x0; br.call.sptk.many	b0,reset_shell_flags; }
	{ adds	r1,0x0,r43; nop.i	0x0; br.call.sptk.many	b0,reset_shell_options; }
	{ adds	r1,0x0,r43; nop.i	0x0; br.call.sptk.many	b0,reset_shopt_options; }
	{ adds	r1,0x0,r43; adds	r45,0x0,r0; addl	r14,7172,r1; }
	{ nop.m	0x0; ld8	r15,[r14]; nop.i	0x0; }
	{ adds	r16,0xC,r15; ld4	r16,[r16]; nop.i	0x0; }
	{ nop.m	0x0; tbit.z	p06,p07,r16,0x3; (p07) adds	r15,0x18,r15; }

l4000000000050680:
	{ nop.m	0x0; (p07) ld8	r15,[r15]; nop.i	0x0; }

l400000000005068C:
	{ Invalid; Invalid; break.i	0x1000 }

l4000000000050696:
	{ break.m	0x4000; (p32) nop; (p16) nop }
	{ Invalid; (p07) nop; break.i	0x80000 }
	{ break.m	0x4000; nop; (p32) nop }
	{ Invalid; (p07) nop; (p48) nop }
	{ break.m	0x4000; (p07) nop; nop }
	{ add	r0,r0,r1; (p07) nop; break.i	0x80000 }
	{ break.m	0x4000; nop; break.i	0x80000 }
	{ mf.a; (p07) nop; break.i	0x80000 }
	{ mf.a; nop; nop }
	{ chk.a.nc	f0,3FFFFFFFFF050F26; nop; break.i	0x80000 }

l4000000000050730:
	{ nop.m	0x0; nop.i	0x0; br.call.sptk.many	b0,set_sigint_handler; }
	{ adds	r1,0x0,r43; adds	r45,0x0,r33; br.call.sptk.many	b0,strvec_len; }
	{ adds	r1,0x0,r43; adds	r36,0x0,r8; adds	r40,0x1,r8 }
	{ adds	r45,0x0,r33; adds	r46,0x2,r8; br.call.sptk.many	b0,strvec_resize; }
	{ adds	r15,0xFFFFFFFFFFFFFFFF,r36; cmp4.eq	p07,p06,0x0,r36; adds	r16,0xFFFFFFFFFFFFFFF0,r8 }
	{ adds	r1,0x0,r43; adds	r35,0x0,r8; sxt4	r36,r36; }
	{ addp4	r15,r15,r0; nop.m	0x0; adds	r14,0xFFFFFFFFFFFFFFFF,r36 }
	{ shladd	r36,r36,0x3,r16; nop.m	0x0; (p07) br.cond.dpnt.few	40000000000507E0; }

l40000000000507B0:
	{ shladd	r15,r15,0x3,r0; shladd	r14,r14,0x3,r8; sub	r15,r36,r15 }

l40000000000507C0:
	{ ld8	r17,[r14],-8; adds	r16,0x10,r14; cmp.eq	p07,p06,r15,r14; }
	{ st8	[r17],r16; nop.i	0x0; (p06) br.cond.dptk.few	40000000000507C0 }

l40000000000507E0:
	{ addl	r16,6476,r1; adds	r14,0x0,r35; sxt4	r15,r40; }
	{ nop.m	0x0; nop.m	0x0; shladd	r15,r15,0x3,r35; }
	{ ld8	r16,[r16]; st8	[r14],r8,8; nop.i	0x0; }
	{ st8	[r32],r14; ld8.a	r14,[r35]; nop.i	0x0 }
	{ st8	[r0],r15; ld8.c.clr	r14,[r35]; nop.i	0x0; }
	{ ld1	r15,[r14]; nop.m	0x0; sxt1	r15,r15; }
	{ cmp4.eq	p06,p07,0x2D,r15; nop.i	0x0; (p06) br.cond.dpnt.few	4000000000050E10; }

l4000000000050850:
	{ addl	r14,7352,r1; nop.m	0x0; nop.i	0x0; }
	{ nop.m	0x0; ld4	r14,[r14]; nop.i	0x0; }
	{ nop.m	0x0; cmp4.eq	p06,p07,0x0,r14; (p07) br.cond.dpnt.few	4000000000050DF0 }

l4000000000050880:
	{ addl	r36,8860,r1; nop.m	0x0; addl	r37,8932,r1; }
	{ nop.m	0x0; nop.m	0x0; nop.i	0x0; }
	{ nop.m	0x0; ld8	r14,[r36]; nop.i	0x0; }
	{ cmp.eq	p06,p07,0x0,r14; nop.i	0x0; (p06) br.cond.dpnt.few	4000000000050960; }

l40000000000508C0:
	{ nop.m	0x0; ld4	r14,[r37]; nop.i	0x0; }
	{ cmp4.lt	p06,p07,0x1,r14; nop.i	0x0; (p07) br.cond.dpnt.few	4000000000050940; }

l40000000000508E0:
	{ nop.m	0x0; (p06) addl	r39,8,r0; (p06) addl	r38,1,r0; }

l40000000000508EC:
	{ Invalid; Invalid; Invalid }

l40000000000508F0:
	{ ld8	r14,[r36]; nop.m	0x0; adds	r38,0x1,r38; }
	{ add	r14,r14,r39; nop.m	0x0; adds	r39,0x8,r39; }
	{ ld8	r45,[r14]; nop.i	0x0; br.call.sptk.many	b0,400000000001A7E0; }
	{ ld4	r14,[r37]; nop.m	0x0; adds	r1,0x0,r43; }
	{ nop.m	0x0; cmp4.lt	p06,p07,r38,r14; (p06) br.cond.dptk.few	40000000000508F0 }

l4000000000050940:
	{ ld8	r45,[r36]; br.call.sptk.many	b0,400000000001A7E0; nop.b	0x0; }
	{ adds	r1,0x0,r43; nop.m	0x0; nop.i	0x0; }

l4000000000050960:
	{ nop.m	0x0; addl	r38,7084,r1; nop.i	0x0; }
	{ ld8	r45,[r38]; nop.i	0x0; br.call.sptk.many	b0,dispose_command; }
	{ adds	r1,0x0,r43; st8	[r0],r38; nop.i	0x0 }
	{ st4	[r40],r37; nop.i	0x0; addl	r14,8852,r1 }
	{ st8	[r35],r36; nop.m	0x0; nop.i	0x0; }
	{ st8	[r34],r14; nop.i	0x0; br.call.sptk.many	b0,unbind_args; }
	{ adds	r1,0x0,r43; addl	r46,1,r0; addl	r45,21828,r1; }
	{ nop.m	0x0; nop.i	0x0; br.call.sptk.many	b0,400000000001BBE0; }

l40000000000509E0:
	{ adds	r45,0x0,r0; nop.i	0x0; br.call.sptk.many	b0,unset_bash_input; }
	{ nop.m	0x0; adds	r1,0x0,r43; br.cond.sptk.few	4000000000050730 }

l4000000000050A00:
	{ adds	r14,0x11,r12; ld1	r14,[r14]; nop.i	0x0; }
	{ nop.m	0x0; sxt1	r14,r14; nop.i	0x0; }
	{ cmp4.eq	p07,p06,0x21,r14; nop.i	0x0; (p06) br.cond.dptk.few	4000000000050360; }

l4000000000050A30:
	{ (p07) adds	r14,0xFFFFFFFFFFFFFFFD,r38; (p07) adds	r15,0x12,r12; (p07) addl	r46,2,r0; }

l4000000000050A36:
	{ (p07) chk.a.clr	f18,3FFFFFFFFF0D0AF6; (p23) cmp4.eq.and	p02,p08,0x0,r0; (p33) nop; }

l4000000000050A3C:
	{ (p01) cmp4.eq.and	p00,p35,r0,r72; nop; }

l4000000000050A40:
	{ (p07) addp4	r14,r14,r0; nop.i	0x0; (p07) mov.i	LC,r14; }

l4000000000050A46:
	{ chk.a.nc	f0,3FFFFFFFFF051246; nop; break.i	0x80000 }

l4000000000050A50:
	{ nop.m	0x0; nop.m	0x0; nop.i	0x0 }

l4000000000050A60:
	{ nop.m	0x0; ld1	r14,[r15],1; nop.i	0x0; }
	{ nop.m	0x0; sxt1	r14,r14; cmp4.eq	p06,p07,0x20,r14; }
	{ cmp4.eq.or.andcm	p06,p07,0x9,r14; nop.i	0x0; (p07) br.cond.dpnt.few	4000000000050C30; }

l4000000000050A90:
	{ nop.m	0x0; adds	r46,0x1,r46; br.cloop.sptk.few	4000000000050A60; }

l4000000000050AA0:
	{ adds	r47,0x0,r46; nop.m	0x0; nop.i	0x0 }

l4000000000050AB0:
	{ adds	r45,0x10,r12; nop.i	0x0; br.call.sptk.many	b0,substring; }
	{ adds	r1,0x0,r43; nop.m	0x0; adds	r37,0x0,r8 }
	{ adds	r45,0x0,r8; nop.m	0x0; br.call.sptk.many	b0,400000000001B6C0; }
	{ nop.m	0x0; sxt4	r38,r8; nop.i	0x0 }
	{ st4	[r35],r36; adds	r1,0x0,r43; adds	r35,0xFFFFFFFFFFFFFFFF,r38; }
	{ add	r14,r37,r35; ld1	r14,[r14]; nop.i	0x0; }
	{ nop.m	0x0; sxt1	r14,r14; nop.i	0x0; }
	{ nop.m	0x0; cmp4.eq	p07,p06,0xD,r14; (p07) br.cond.dpnt.few	4000000000050BC0 }

l4000000000050B30:
	{ addl	r46,-3252,r1; adds	r45,0x0,r0; addl	r47,5,r0; }
	{ ld8	r46,[r46]; nop.i	0x0; br.call.sptk.many	b0,400000000001AB60; }
	{ cmp.eq	p07,p06,0x0,r37; adds	r45,0x0,r8; adds	r1,0x0,r43 }
	{ adds	r46,0x0,r32; adds	r47,0x0,r37; (p07) br.cond.dpnt.few	4000000000050DA0; }

l4000000000050B70:
	{ nop.m	0x0; nop.i	0x0; br.call.sptk.many	b0,sys_error; }
	{ adds	r1,0x0,r43; adds	r45,0x0,r37; br.call.sptk.many	b0,400000000001A7E0; }
	{ addl	r8,126,r0; adds	r1,0x0,r43; mov.i	ar.pfs,r42; }
	{ nop.m	0x0; mov.i	LC,r44; mov.spnt	b0,r41,4000000000050BA0 }
	{ nop.m	0x0; adds	r12,0x50,r12; br.ret	b0 }

l4000000000050BC0:
	{ adds	r46,0x2,r8; nop.m	0x0; adds	r45,0x0,r37; }
	{ nop.m	0x0; sxt4	r46,r46; br.call.sptk.many	b0,xrealloc; }
	{ addl	r14,94,r0; add	r35,r8,r35; nop.i	0x0 }
	{ add	r38,r8,r38; adds	r1,0x0,r43; adds	r37,0x0,r8; }
	{ st1	[r14],r35; nop.m	0x0; addl	r14,77,r0; }
	{ nop.m	0x0; st1	[r38],r1,1; nop.i	0x0; }
	{ st1	[r0],r38; nop.i	0x0; br.cond.sptk.few	4000000000050B30 }

l4000000000050C30:
	{ cmp4.lt	p07,p06,r46,r38; adds	r16,0x10,r12; sxt4	r15,r46 }
	{ adds	r47,0x0,r46; nop.m	0x0; (p06) br.cond.spnt.few	4000000000050AA0; }

l4000000000050C50:
	{ cmp4.eq	p06,p07,0xA,r14; sub	r14,r38,r46,0x1; nop.i	0x0 }
	{ add	r15,r16,r15,0x1; adds	r47,0x1,r47; (p06) br.cond.dpnt.few	4000000000050AA0; }

l4000000000050C70:
	{ addp4	r14,r14,r0; nop.m	0x0; mov.i	LC,r14; }
	{ nop.m	0x0; nop.i	0x0; br.cloop.sptk.few	4000000000050D20 }

l4000000000050C90:
	{ adds	r45,0x10,r12; nop.i	0x0; br.call.sptk.many	b0,substring; }
	{ adds	r1,0x0,r43; nop.m	0x0; adds	r37,0x0,r8 }
	{ adds	r45,0x0,r8; nop.m	0x0; br.call.sptk.many	b0,400000000001B6C0; }
	{ nop.m	0x0; sxt4	r38,r8; nop.i	0x0 }
	{ st4	[r35],r36; adds	r1,0x0,r43; adds	r35,0xFFFFFFFFFFFFFFFF,r38; }
	{ add	r14,r37,r35; ld1	r14,[r14]; nop.i	0x0; }
	{ nop.m	0x0; sxt1	r14,r14; nop.i	0x0; }
	{ nop.m	0x0; cmp4.eq	p07,p06,0xD,r14; (p06) br.cond.dptk.few	4000000000050B30 }

l4000000000050D10:
	{ nop.m	0x0; nop.i	0x0; br.cond.sptk.few	4000000000050BC0 }

l4000000000050D20:
	{ ld1	r14,[r15],1; nop.m	0x0; sxt1	r14,r14; }
	{ cmp4.eq	p07,p06,0x9,r14; nop.m	0x0; cmp4.eq	p09,p08,0x20,r14; }
	{ (p06) addl	r17,1,r0; nop.m	0x0; (p08) addl	r16,1,r0; }

l4000000000050D46:
	{ Invalid; (p08) cmp4.eq.and	p01,p08,0x0,r0; (p17) nop }

l4000000000050D50:
	{ (p07) adds	r17,0x0,r0; (p09) adds	r16,0x0,r0; and	r16,r16,r17; }

l4000000000050D56:
	{ Invalid; (p08) nop; (p32) nop }

l4000000000050D5C:
	{ (p08) cmp.lt	p17,p17,r12,r64; czx1.r	r0,r97; mov	pr,r32,0x0 }
	{ (p42) cmp.eq.unc	p63,p17,r127,r37; czx1.r	r66,r97; br.cond	b0 }

l4000000000050D70:
	{ cmp4.eq	p07,p06,0xA,r14; nop.i	0x0; (p07) br.cond.dpnt.few	4000000000050AB0; }

l4000000000050D80:
	{ nop.m	0x0; adds	r47,0x1,r47; br.cloop.sptk.few	4000000000050D20 }

l4000000000050D90:
	{ nop.m	0x0; nop.i	0x0; br.cond.sptk.few	4000000000050C90; }

l4000000000050DA0:
	{ addl	r47,-3348,r1; nop.m	0x0; adds	r46,0x0,r32; }
	{ ld8	r47,[r47]; nop.i	0x0; br.call.sptk.many	b0,sys_error; }
	{ addl	r8,126,r0; adds	r1,0x0,r43; mov.i	ar.pfs,r42; }
	{ nop.m	0x0; mov.i	LC,r44; mov.spnt	b0,r41,4000000000050DD0 }
	{ nop.m	0x0; adds	r12,0x50,r12; br.ret	b0; }

l4000000000050DF0:
	{ addl	r45,114,r0; addl	r46,43,r0; br.call.sptk.many	b0,change_flag; }
	{ nop.m	0x0; adds	r1,0x0,r43; br.cond.sptk.few	4000000000050880 }

l4000000000050E10:
	{ adds	r14,0x1,r14; st8	[r14],r35; addl	r14,7352,r1; }
	{ nop.m	0x0; ld4	r14,[r14]; nop.i	0x0; }
	{ nop.m	0x0; cmp4.eq	p06,p07,0x0,r14; (p06) br.cond.dptk.few	4000000000050880 }

l4000000000050E40:
	{ nop.m	0x0; nop.i	0x0; br.cond.sptk.few	4000000000050DF0; }
4000000000050E50 08 00 00 00 01 00 00 00 00 02 00 00 00 00 04 00 ................
4000000000050E60 08 00 00 00 01 00 00 00 00 02 00 00 00 00 04 00 ................
4000000000050E70 08 00 00 00 01 00 00 00 00 02 00 00 00 00 04 00 ................
4000000000050E80 08 18 BA 4C 80 05 C0 00 33 7E 46 A0 08 00 CC 00 ...L....3~F.....
4000000000050E90 09 C0 B1 03 37 24 B0 C3 05 6E 48 80 08 08 00 84 ....7$...nH.....
4000000000050EA0 08 00 00 00 01 00 00 00 00 02 00 40 08 00 C4 00 ...........@....
4000000000050EB0 0B 00 00 76 90 11 E0 00 E0 20 20 00 00 00 04 00 ...v.....  .....
4000000000050EC0 10 00 00 00 01 00 60 00 38 0E 73 03 40 00 00 42 ......`.8.s.@..B
4000000000050ED0 0B 70 C0 03 32 24 00 00 00 02 00 00 00 00 04 00 .p..2$..........
4000000000050EE0 09 00 00 00 01 00 E0 00 38 20 20 00 00 00 04 00 ........8  .....
4000000000050EF0 10 00 00 00 01 00 60 00 38 0E F3 03 50 0E 00 42 ......`.8...P..B
4000000000050F00 09 70 70 02 36 24 00 00 00 02 00 C0 08 00 01 84 .pp.6$..........
4000000000050F10 09 00 00 00 01 00 00 00 00 02 00 00 00 00 04 00 ................
4000000000050F20 11 00 00 1C 90 11 00 00 00 02 00 00 28 86 FF 58 ............(..X
4000000000050F30 11 08 00 88 00 21 60 0C 02 00 48 00 58 EE 05 50 .....!`...H.X..P
4000000000050F40 11 08 00 88 00 21 70 00 20 0C 73 03 40 00 00 42 .....!p. .s.@..B
4000000000050F50 0B 70 90 02 47 24 00 00 00 02 00 00 00 00 04 00 .p..G$..........
4000000000050F60 09 00 00 00 01 00 E0 00 38 20 20 00 00 00 04 00 ........8  .....
4000000000050F70 10 00 00 00 01 00 70 00 38 0C F3 03 F0 0C 00 42 ......p.8......B
4000000000050F80 11 00 00 00 01 00 00 00 00 02 00 00 48 DD 05 50 ............H..P
4000000000050F90 03 08 00 88 00 21 70 02 20 00 42 C0 81 0C C8 90 .....!p. .B.....
4000000000050FA0 0B 00 00 00 01 00 E0 00 38 20 20 00 00 00 04 00 ........8  .....
4000000000050FB0 11 00 00 00 01 00 60 00 38 0E 73 03 20 00 00 42 ......`.8.s. ..B
4000000000050FC0 11 00 00 00 01 00 70 00 20 0C 73 03 D0 14 00 43 ......p. .s....C
4000000000050FD0 08 80 21 40 00 21 10 43 06 5C 48 C0 04 0F B4 90 ..!@.!.C.\H.....
4000000000050FE0 09 38 FC 45 86 3B 90 F8 87 10 77 E0 F1 E7 FF 9F .8.E.;....w.....
4000000000050FF0 08 30 02 60 18 10 02 05 00 00 F0 24 0A 00 00 E0 .0.`.......$....
4000000000051000 02 00 00 00 01 00 00 00 00 02 00 40 01 30 2E E4 ...........@.0..
4000000000051010 0A 00 00 00 01 C0 E2 40 18 01 42 A5 06 00 00 84 .......@..B.....
4000000000051020 09 00 00 00 01 00 00 78 C4 20 23 00 00 00 04 00 .......x. #.....
4000000000051030 69 71 00 1C 18 10 80 02 98 20 20 00 00 00 04 00 iq.......  .....
4000000000051040 6B 71 20 1C 00 E1 E2 00 38 20 20 00 00 00 04 00 kq .....8  .....
4000000000051050 63 A9 09 1C 2C A0 E1 08 00 00 C8 C3 01 00 00 84 c...,...........
4000000000051060 10 48 01 1C 00 21 00 05 38 A2 F2 08 40 0A 00 42 .H...!..8...@..B
4000000000051070 10 00 00 00 01 00 00 00 00 02 00 04 20 00 00 43 ............ ..C
4000000000051080 10 00 00 00 01 00 00 00 00 02 80 03 00 19 00 43 ...............C
4000000000051090 09 00 00 00 01 00 50 62 05 8C 48 00 00 00 04 00 ......Pb..H.....
40000000000510A0 11 00 00 00 01 00 00 00 00 02 00 00 28 86 01 50 ............(..P
40000000000510B0 09 00 00 00 01 00 10 00 10 01 42 00 00 00 04 00 ..........B.....
40000000000510C0 11 30 02 4A 18 10 00 00 00 02 00 00 08 A6 FC 58 .0.J...........X
40000000000510D0 11 08 00 88 00 21 60 0C 20 00 42 00 F8 7B 09 50 .....!`. .B..{.P
40000000000510E0 08 08 00 88 00 21 00 00 00 02 00 C0 08 40 00 84 .....!.......@..
40000000000510F0 19 38 02 4A 18 10 00 00 00 02 00 00 98 A0 FC 58 .8.J...........X
4000000000051100 08 08 00 88 00 21 00 00 00 02 00 C0 08 40 00 84 .....!.......@..
4000000000051110 19 38 02 46 00 21 00 00 00 02 00 00 38 16 03 50 .8.F.!......8..P
4000000000051120 11 08 00 88 00 21 70 00 20 0C 73 03 C0 17 00 42 .....!p. .s....B
4000000000051130 08 70 00 40 10 10 90 22 06 8C 48 C0 00 18 1D E6 .p.@..."..H.....
4000000000051140 0A 30 02 48 00 21 E0 00 3A 5C 40 00 00 00 04 00 .0.H.!..:\@.....
4000000000051150 0B 00 00 00 01 00 00 70 80 20 A3 C8 81 00 00 90 .......p. ......
4000000000051160 0B 72 60 00 00 24 00 70 A4 20 23 00 00 00 04 00 .r`..$.p. #.....
4000000000051170 EB 70 00 52 10 D0 E1 08 38 5C 40 00 00 00 04 00 .p.R....8\@.....
4000000000051180 F1 00 38 52 90 11 60 00 90 0E 72 03 30 00 00 43 ..8R..`...r.0..C
4000000000051190 11 00 00 00 01 00 00 00 00 02 00 00 78 BD FF 58 ............x..X
40000000000511A0 08 08 00 88 00 21 00 00 00 02 00 00 00 00 04 00 .....!..........
40000000000511B0 08 30 02 42 00 21 00 00 00 02 00 E0 08 10 01 84 .0.B.!..........
40000000000511C0 19 90 05 00 00 24 00 00 00 02 00 00 48 D9 FF 58 .....$......H..X
40000000000511D0 11 08 00 88 00 21 00 00 00 02 00 00 78 E3 FF 58 .....!......x..X
40000000000511E0 08 70 00 40 10 10 00 00 00 02 00 20 00 20 02 84 .p.@....... . ..
40000000000511F0 09 00 A0 4C 90 11 60 04 C0 30 20 00 00 00 04 00 ...L..`..0 .....
4000000000051200 11 00 00 00 01 00 70 50 38 0C 28 03 D0 08 00 42 ......pP8.(....B
4000000000051210 08 98 91 03 36 24 60 00 18 0F 72 A0 04 30 02 84 ....6$`...r..0..
4000000000051220 09 48 01 00 00 21 80 02 00 00 42 A0 05 43 04 90 .H...!....B..C..
4000000000051230 04 00 90 66 98 11 01 00 00 00 00 80 05 00 00 60 ...f...........`
4000000000051240 19 00 00 00 01 00 00 00 00 02 00 03 00 01 00 43 ...............C
4000000000051250 04 00 00 00 01 40 00 00 00 00 00 60 05 43 04 60 .....@.....`.C.`
4000000000051260 09 38 01 00 00 21 F0 02 10 00 48 C0 85 30 02 84 .8...!....H..0..
4000000000051270 08 00 00 00 01 00 00 00 00 02 00 00 00 00 04 00 ................
4000000000051280 0B 30 21 4A 00 21 F0 00 98 30 20 00 00 00 04 00 .0!J.!...0 .....
4000000000051290 0B 70 20 1E 00 21 00 01 38 20 20 00 00 00 04 00 .p ..!..8  .....
40000000000512A0 11 00 00 00 01 00 60 20 40 0E 28 03 B0 0B 00 42 ......` @.(....B
40000000000512B0 11 00 00 00 01 00 70 00 9C 0C F2 03 F0 0A 00 43 ......p........C
40000000000512C0 09 00 00 00 01 00 70 00 A0 0C 73 00 00 00 04 00 ......p...s.....
40000000000512D0 EB 80 B4 20 0E A0 01 59 41 1C 40 C0 00 48 1D E6 ... ...YA.@..H..
40000000000512E0 10 00 40 1C 90 11 00 00 00 02 00 03 30 00 00 42 ..@.........0..B
40000000000512F0 03 78 00 1C 10 10 00 00 00 02 00 E0 C1 7A 38 80 .x...........z8.
4000000000051300 08 00 3C 1C 90 11 00 00 00 02 00 00 00 00 04 00 ..<.............
4000000000051310 09 00 00 00 01 00 50 02 94 30 20 00 00 00 04 00 ......P..0 .....
4000000000051320 10 00 00 00 01 00 70 00 94 0C 72 03 60 FF FF 4A ......p...r.`..J
4000000000051330 09 70 00 40 10 10 00 00 00 02 00 00 00 00 04 00 .p.@............
4000000000051340 00 00 00 00 01 00 60 30 38 0E 28 00 00 00 04 00 ......`08.(.....
4000000000051350 0B 30 02 60 18 D0 E1 20 04 6E 48 00 00 00 04 00 .0.`... .nH.....
4000000000051360 EB 78 00 1C 10 D0 F1 08 3C 00 42 00 00 00 04 00 .x......<.B.....
4000000000051370 F1 00 3C 1C 90 11 00 00 00 02 00 00 58 7D 05 50 ..<.........X}.P
4000000000051380 08 70 00 40 10 10 10 00 10 01 42 A0 04 40 00 84 .p.@......B..@..
4000000000051390 0B 00 00 66 98 11 00 00 00 02 00 C0 60 70 1C 50 ...f........`p.P
40000000000513A0 EB 70 10 02 37 E4 F1 00 38 20 20 00 00 00 04 00 .p..7...8  .....
40000000000513B0 09 00 00 00 01 C0 F1 F8 3F 7E 46 00 00 00 04 00 ........?~F.....
40000000000513C0 F0 00 3C 1C 90 11 70 00 94 0C F2 03 40 07 00 43 ..<...p.....@..C
40000000000513D0 09 00 00 00 01 00 60 64 F7 CD 4F 00 00 00 04 00 ......`d..O.....
40000000000513E0 11 30 02 8C 18 10 00 00 00 02 00 00 E8 0C 06 50 .0.............P
40000000000513F0 0B 08 00 88 00 21 E0 60 06 72 48 00 00 00 04 00 .....!.`.rH.....
4000000000051400 0B 00 00 00 01 00 E0 00 38 20 20 00 00 00 04 00 ........8  .....
4000000000051410 10 00 00 00 01 00 60 00 38 0E F3 03 40 13 00 43 ......`.8...@..C
4000000000051420 09 00 00 00 01 00 E0 00 80 20 20 00 00 00 04 00 .........  .....
4000000000051430 10 00 00 00 01 00 70 40 38 0C 28 03 20 0C 00 42 ......p@8.(. ..B
4000000000051440 09 70 E0 02 32 24 00 00 00 02 00 E0 84 28 01 84 .p..2$.......(..
4000000000051450 0B 00 00 00 01 00 E0 00 38 20 20 00 00 00 04 00 ........8  .....
4000000000051460 10 00 00 00 01 00 60 00 38 0E F3 03 70 16 00 43 ......`.8...p..C
4000000000051470 09 70 00 4E 18 10 60 02 00 00 42 20 08 00 00 84 .p.N..`...B ....
4000000000051480 11 30 02 1C 18 10 00 00 00 02 00 00 C8 1A 01 50 .0.............P
4000000000051490 09 08 00 88 00 21 40 03 20 00 42 E0 08 28 01 84 .....!@. .B..(..
40000000000514A0 02 60 F1 03 3B 24 60 A4 F7 67 4F 00 00 00 04 00 .`..;$`..gO.....
40000000000514B0 19 00 00 00 01 00 60 04 18 31 20 00 58 0B 06 50 ......`..1 .X..P
40000000000514C0 0B 08 00 88 00 21 E0 00 B0 60 21 00 00 00 04 00 .....!...`!.....
40000000000514D0 10 00 00 00 01 00 60 00 38 0E F3 03 30 12 00 43 ......`.8...0..C
40000000000514E0 0B 68 11 02 3C 24 00 00 00 02 00 00 00 00 04 00 .h..<$..........
40000000000514F0 09 00 00 00 01 00 E0 00 B4 60 21 00 00 00 04 00 .........`!.....
4000000000051500 10 00 00 00 01 00 60 00 38 0E F3 03 E0 11 00 43 ......`.8......C
4000000000051510 09 78 00 4A 00 21 00 00 00 02 00 00 00 00 04 00 .x.J.!..........
4000000000051520 09 00 00 00 01 00 E0 00 3C 30 20 00 00 00 04 00 ........<0 .....
4000000000051530 11 00 00 00 01 00 70 00 38 0C F2 03 30 00 00 43 ......p.8...0..C
4000000000051540 0B 78 00 1C 00 21 E0 00 3C 30 20 00 00 00 04 00 .x...!..<0 .....
4000000000051550 10 00 00 00 01 00 70 00 38 0C 72 03 F0 FF FF 4A ......p.8.r....J
4000000000051560 09 70 00 4E 18 10 00 00 00 02 00 E0 81 78 00 84 .p.N.........x..
4000000000051570 0B 78 00 1E 18 10 E0 00 38 30 20 00 00 00 04 00 .x......80 .....
4000000000051580 0B 00 02 1E 18 10 F0 00 38 00 20 00 00 00 04 00 ........8. .....
4000000000051590 01 00 00 00 01 00 F0 00 3C 28 00 00 00 00 04 00 ........<(......
40000000000515A0 10 00 00 00 01 00 70 28 3D 0C F3 03 D0 11 00 43 ......p(=......C
40000000000515B0 0B 80 B0 03 2D 24 00 00 00 02 00 00 00 00 04 00 ....-$..........
40000000000515C0 09 00 00 00 01 00 00 01 40 20 20 00 00 00 04 00 ........@  .....
40000000000515D0 10 00 00 00 01 00 60 00 40 0E 73 03 50 00 00 42 ......`.@.s.P..B
40000000000515E0 0B 80 8C 6A 0E 20 00 91 41 1C 40 00 00 00 04 00 ...j. ..A.@.....
40000000000515F0 10 00 00 00 01 00 60 00 40 0E F3 03 30 00 00 42 ......`.@...0..B
4000000000051600 09 00 00 00 01 00 00 01 94 30 20 00 00 00 04 00 .........0 .....
4000000000051610 10 00 00 00 01 00 70 00 40 0C F2 03 30 19 00 43 ......p.@...0..C
4000000000051620 09 A8 41 40 00 21 00 00 00 02 00 00 00 00 04 00 ..A@.!..........
4000000000051630 08 30 00 68 07 39 90 00 D0 10 72 60 C5 0C 18 91 .0.h.9....r`....
4000000000051640 09 80 31 03 41 24 20 01 C8 26 73 00 45 0C 04 91 ..1.A$ ..&s.E...
4000000000051650 08 F0 F1 03 3B 24 20 23 06 8C 48 20 46 0E C8 90 ....;$ #..H F...
4000000000051660 09 98 D1 03 32 24 00 00 00 02 00 E4 15 00 00 90 ....2$..........
4000000000051670 08 00 00 00 01 40 F2 02 00 00 42 C3 15 00 00 90 .....@....B.....
4000000000051680 09 B8 01 00 01 24 40 01 8C 2A 73 C0 06 61 00 84 .....$@..*s..a..
4000000000051690 E8 70 01 00 00 21 00 00 00 02 00 40 05 08 DC 90 .p...!.....@....
40000000000516A0 09 F8 01 00 08 24 D0 63 04 6E 48 80 87 62 00 84 .....$.c.nH..b..
40000000000516B0 08 00 00 00 01 00 00 00 00 02 00 40 87 0F D8 90 ...........@....
40000000000516C0 09 C8 91 18 00 21 00 00 00 02 00 00 00 00 04 00 .....!..........
40000000000516D0 08 00 00 00 01 00 00 00 00 02 00 00 00 00 04 00 ................
40000000000516E0 09 78 00 58 B0 10 00 70 AC 30 23 00 00 00 04 00 .x.X...p.0#.....
40000000000516F0 11 00 00 00 01 00 60 00 3C 0E F3 03 40 0A 00 43 ......`.<...@..C
4000000000051700 09 00 00 00 01 00 E0 00 B4 60 21 00 00 00 04 00 .........`!.....
4000000000051710 10 00 00 00 01 00 60 00 38 0E F3 03 D0 09 00 43 ......`.8......C
4000000000051720 0B 80 00 4C 11 39 E4 08 00 00 48 00 00 00 04 00 ...L.9....H.....
4000000000051730 2B 72 00 00 00 21 E0 70 B8 18 40 00 00 00 04 00 +r...!.p..@.....
4000000000051740 10 00 00 00 01 00 60 00 38 0E F3 03 80 09 00 43 ......`.8......C
4000000000051750 08 00 00 00 01 00 10 01 98 20 72 00 00 00 04 00 ......... r.....
4000000000051760 09 80 00 50 18 10 00 30 A1 30 23 00 00 00 04 00 ...P...0.0#.....
4000000000051770 09 72 04 00 00 24 00 80 C0 30 23 00 00 00 04 00 .r...$...0#.....
4000000000051780 2B 72 00 00 00 21 F0 78 39 1C 40 00 00 00 04 00 +r...!.x9.@.....
4000000000051790 11 00 00 00 01 00 60 00 3C 0E 73 03 B0 01 00 42 ......`.<.s....B
40000000000517A0 08 30 00 1C 87 39 00 00 00 02 00 C0 C8 08 DC 90 .0...9..........
40000000000517B0 19 38 12 00 00 24 00 00 00 02 00 03 70 00 00 43 .8...$......p..C
40000000000517C0 09 78 00 7A 10 10 E0 00 E8 20 20 00 00 00 04 00 .x.z.....  .....
40000000000517D0 08 00 00 00 01 00 00 78 F0 60 23 00 00 00 04 00 .......x.`#.....
40000000000517E0 19 00 38 72 B0 11 00 00 00 02 00 00 E8 0B 06 50 ..8r...........P
40000000000517F0 09 08 00 88 00 21 00 00 00 02 00 E0 48 00 00 90 .....!......H...
4000000000051800 11 00 00 00 01 00 60 C4 07 6C 48 00 C8 0B 06 50 ......`..lH....P
4000000000051810 08 08 00 88 00 21 00 00 00 02 00 00 00 00 04 00 .....!..........
4000000000051820 13 00 00 00 01 80 04 80 0C 80 21 00 A8 E1 05 50 ..........!....P
4000000000051830 03 70 00 64 10 10 10 00 10 01 42 C0 71 73 38 80 .p.d......B.qs8.
4000000000051840 10 00 38 64 90 11 00 00 00 02 00 0A 80 00 00 42 ..8d...........B
4000000000051850 0B 70 00 40 10 10 E0 F8 39 18 40 00 00 00 04 00 .p.@....9.@.....
4000000000051860 10 00 00 00 01 00 70 00 38 0C F3 03 40 00 00 42 ......p.8...@..B
4000000000051870 11 30 02 6A 18 10 00 00 00 02 00 00 98 FF 08 50 .0.j...........P
4000000000051880 11 08 00 88 00 21 70 00 20 0C F3 03 90 16 00 43 .....!p. ......C
4000000000051890 08 00 00 00 01 00 00 00 00 02 00 00 00 00 04 00 ................
40000000000518A0 11 00 00 00 01 00 00 00 00 02 00 00 68 E8 FF 58 ............h..X
40000000000518B0 08 08 00 88 00 21 00 00 00 02 00 00 00 00 04 00 .....!..........
40000000000518C0 08 78 00 54 10 10 60 04 94 00 42 00 09 30 01 84 .x.T..`...B..0..
40000000000518D0 09 48 02 68 00 21 A0 FC F3 FF 4F 60 F9 E7 FF 9F .H.h.!....O`....
40000000000518E0 08 70 00 40 10 10 F0 08 3C 00 42 80 09 18 01 84 .p.@....<.B.....
40000000000518F0 09 68 02 48 00 21 70 04 D4 B0 20 00 00 00 04 00 .h.H.!p... .....
4000000000051900 09 00 38 6C 90 11 00 78 A8 20 23 00 00 00 04 00 ..8l...x. #.....
4000000000051910 11 38 02 6A 18 11 00 00 00 02 00 00 78 9B 00 50 .8.j........x..P
4000000000051920 02 70 00 54 10 10 10 00 10 01 42 C0 F1 77 FC 8C .p.T......B..w..
4000000000051930 0A 00 00 00 01 00 00 70 A8 20 23 00 00 00 04 00 .......p. #.....
4000000000051940 09 00 00 00 01 00 E0 00 C4 20 20 00 00 00 04 00 .........  .....
4000000000051950 11 30 00 1C 87 39 00 00 00 02 00 03 20 08 00 43 .0...9...... ..C
4000000000051960 09 00 00 00 01 00 E0 00 CC 20 20 00 00 00 04 00 .........  .....
4000000000051970 11 30 00 1C 87 39 00 00 00 02 00 03 00 08 00 43 .0...9.........C
4000000000051980 09 00 00 00 01 00 E0 00 9C 30 20 00 00 00 04 00 .........0 .....
4000000000051990 11 30 00 1C 07 39 00 00 00 02 00 03 E0 07 00 43 .0...9.........C
40000000000519A0 09 00 00 00 01 00 90 02 38 30 20 00 00 00 04 00 ........80 .....
40000000000519B0 11 30 02 52 00 21 00 00 00 02 00 00 98 B8 08 50 .0.R.!.........P
40000000000519C0 03 30 00 10 07 39 10 00 10 01 C2 C3 08 40 00 84 .0...9.......@..
40000000000519D0 D1 30 02 52 00 21 00 00 00 02 00 00 38 EF FE 58 .0.R.!......8..X
40000000000519E0 11 08 00 88 00 21 60 00 20 0E 73 03 90 07 00 43 .....!`. .s....C
40000000000519F0 09 00 00 00 01 00 60 A4 F4 CF 4F 00 00 00 04 00 ......`...O.....
4000000000051A00 11 30 02 8C 18 10 00 00 00 02 00 00 48 11 FF 58 .0..........H..X
4000000000051A10 08 38 02 4A 00 21 00 00 00 02 00 20 00 20 02 84 .8.J.!..... . ..
4000000000051A20 19 30 02 10 00 21 00 00 00 02 00 00 28 12 FF 58 .0...!......(..X
4000000000051A30 08 08 00 88 00 21 70 42 20 00 42 A0 04 40 00 84 .....!pB .B..@..
4000000000051A40 19 30 02 10 00 21 70 04 00 00 42 00 48 6A FF 58 .0...!p...B.Hj.X
4000000000051A50 08 00 00 00 01 00 E0 00 9C 30 20 20 00 20 02 84 .........0  . ..
4000000000051A60 0B 78 00 58 B0 10 60 00 3C 0E 73 00 00 00 04 00 .x.X..`.<.s.....
4000000000051A70 09 00 00 00 01 00 E0 00 38 30 20 00 00 00 04 00 ........80 .....
4000000000051A80 10 00 38 56 98 11 00 00 00 02 00 03 80 FC FF 4A ..8V...........J
4000000000051A90 10 00 00 00 01 00 00 00 00 02 00 00 A0 06 00 40 ...............@
4000000000051AA0 10 00 00 00 01 00 90 00 8C 10 73 04 E0 F5 FF 4A ..........s....J
4000000000051AB0 09 70 00 40 10 10 00 00 00 02 00 40 06 00 00 84 .p.@.......@....
4000000000051AC0 10 00 00 00 01 00 70 50 38 0C A8 03 50 F7 FF 4A ......pP8...P..J
4000000000051AD0 11 00 00 00 01 00 00 00 00 02 00 00 F8 D6 01 50 ...............P
4000000000051AE0 09 28 01 10 00 21 00 00 00 02 00 20 00 20 02 84 .(...!..... . ..
4000000000051AF0 10 00 00 00 01 00 70 00 94 0C 72 03 E0 F8 FF 4A ......p...r....J
4000000000051B00 08 70 30 03 46 24 00 82 80 00 42 00 02 90 45 E6 .p0.F$....B...E.
4000000000051B10 0A 78 00 00 00 21 00 00 00 02 80 68 04 00 00 84 .x...!.....h....
4000000000051B20 0B 28 01 40 18 10 60 00 94 0E 72 00 00 00 04 00 .(.@..`...r.....
4000000000051B30 11 00 00 1C 98 11 E0 00 94 00 42 03 50 00 00 43 ..........B.P..C
4000000000051B40 09 80 40 1C 00 21 E0 00 38 30 20 00 00 00 04 00 ..@..!..80 .....
4000000000051B50 03 80 00 20 10 10 70 00 38 0C 72 00 12 80 B0 80 ... ..p.8.r.....
4000000000051B60 11 00 00 00 01 00 F0 78 40 00 40 03 E0 FF FF 4A .......x@.@....J
4000000000051B70 11 00 00 00 01 00 70 00 3C 0C 73 03 20 00 00 43 ......p.<.s. ..C
4000000000051B80 10 00 00 00 01 00 60 00 8C 0E 73 03 B0 12 00 43 ......`...s....C
4000000000051B90 11 30 02 00 00 21 70 04 8C 00 42 00 B8 0B 03 50 .0...!p...B....P
4000000000051BA0 11 38 00 10 86 39 10 00 10 01 42 03 D0 11 00 43 .8...9....B....C
4000000000051BB0 11 00 00 00 01 00 00 00 00 02 00 00 58 DE 05 50 ............X..P
4000000000051BC0 08 30 FE F9 FF 27 00 00 00 02 00 E0 F8 E7 FF 9F .0...'..........
4000000000051BD0 19 08 00 88 00 21 00 00 00 02 00 00 38 CF FF 58 .....!......8..X
4000000000051BE0 11 08 00 88 00 21 00 00 00 02 00 00 68 D9 FF 58 .....!......h..X
4000000000051BF0 08 38 00 46 86 39 10 00 10 01 42 C0 08 28 01 84 .8.F.9....B..(..
4000000000051C00 0B 38 06 00 00 E4 E1 20 06 8C 48 E3 11 00 00 90 .8..... ..H.....
4000000000051C10 CB 70 10 03 46 24 00 00 00 02 00 00 00 00 04 00 .p..F$..........
4000000000051C20 0B 00 00 00 01 C0 01 00 38 20 23 00 00 00 04 00 ........8 #.....
4000000000051C30 D1 00 3C 1C 90 11 00 00 00 02 00 00 18 FA 08 50 ..<............P
4000000000051C40 10 08 00 88 00 21 70 00 20 0C 73 03 90 0A 00 42 .....!p. .s....B
4000000000051C50 11 00 00 00 01 00 60 04 00 00 42 00 38 99 FC 58 ......`...B.8..X
4000000000051C60 0B 28 B1 02 46 24 00 00 00 02 00 00 00 00 04 00 .(..F$..........
4000000000051C70 09 00 00 00 01 00 60 04 94 30 20 00 00 00 04 00 ......`..0 .....
4000000000051C80 11 30 00 8C 07 39 00 00 00 02 00 03 30 00 00 43 .0...9......0..C
4000000000051C90 11 00 00 00 01 00 00 00 00 02 00 00 58 8B FC 58 ............X..X
4000000000051CA0 09 08 00 88 00 21 00 00 00 02 00 00 00 00 04 00 .....!..........
4000000000051CB0 0B 30 91 02 36 24 00 00 00 02 00 00 00 00 04 00 .0..6$..........
4000000000051CC0 0B 30 02 4C 18 10 60 00 18 0F 72 00 00 00 04 00 .0.L..`...r.....
4000000000051CD0 D1 40 00 00 00 21 00 00 00 02 00 03 60 00 00 43 .@...!......`..C
4000000000051CE0 11 00 00 00 01 00 00 00 00 02 00 00 E8 99 FC 58 ...............X
4000000000051CF0 11 08 00 88 00 21 60 0C 20 00 42 00 D8 6F 09 50 .....!`. .B..o.P
4000000000051D00 08 08 00 88 00 21 00 00 00 02 00 C0 08 40 00 84 .....!.......@..
4000000000051D10 19 38 02 4C 18 10 00 00 00 02 00 00 78 94 FC 58 .8.L........x..X
4000000000051D20 08 08 00 88 00 21 00 00 00 02 00 00 00 00 04 00 .....!..........
4000000000051D30 11 00 20 4A 98 11 00 00 00 02 00 00 50 F2 FF 48 .. J........P..H
4000000000051D40 0B 70 70 03 41 24 00 00 00 02 00 00 00 00 04 00 .pp.A$..........
4000000000051D50 09 00 00 00 01 00 E0 00 38 20 20 00 00 00 04 00 ........8  .....
4000000000051D60 0B 38 00 1C 86 F9 E1 C0 07 66 C8 03 C2 0B DC 90 .8.......f......
4000000000051D70 09 00 00 00 01 C0 01 01 40 20 20 00 00 00 04 00 ........@  .....
4000000000051D80 EB 78 00 1C 10 D0 F1 78 40 0A 40 00 00 00 04 00 .x.....x@.@.....
4000000000051D90 F0 00 3C 1C 90 11 00 00 00 02 00 00 70 F1 FF 48 ..<.........p..H
4000000000051DA0 09 70 00 5C 18 10 00 00 00 02 00 E0 08 00 00 84 .p.\............
4000000000051DB0 11 30 02 1C 18 10 00 00 00 02 00 00 98 E6 09 50 .0.............P
4000000000051DC0 08 70 40 10 00 21 10 00 10 01 42 00 00 00 04 00 .p@..!....B.....
4000000000051DD0 19 38 01 10 00 21 70 00 20 0C F2 03 60 F5 FF 4B .8...!p. ...`..K
4000000000051DE0 09 00 00 00 01 00 E0 00 38 20 20 00 00 00 04 00 ........8  .....
4000000000051DF0 11 00 00 00 01 00 70 40 38 0C A8 03 40 F5 FF 4B ......p@8...@..K
4000000000051E00 09 80 00 5C 18 10 F0 00 98 30 20 00 00 00 04 00 ...\.....0 .....
4000000000051E10 09 80 20 20 00 21 00 00 00 02 00 C0 81 78 00 84 ..  .!.......x..
4000000000051E20 0B 78 00 20 10 10 F0 78 3D 1C 40 00 00 00 04 00 .x. ...x=.@.....
4000000000051E30 09 00 00 00 01 00 00 78 40 20 23 00 00 00 04 00 .......x@ #.....
4000000000051E40 10 80 00 1C 10 10 00 00 00 02 00 00 80 F4 FF 48 ...............H
4000000000051E50 0B 70 00 1E 18 10 F0 00 38 00 20 00 00 00 04 00 .p......8. .....
4000000000051E60 01 00 00 00 01 00 F0 00 3C 28 00 00 00 00 04 00 ........<(......
4000000000051E70 10 00 00 00 01 00 70 68 3D 0C 73 03 A0 F4 FF 4A ......ph=.s....J
4000000000051E80 09 50 05 1C 00 21 00 00 00 02 00 E0 18 04 00 90 .P...!..........
4000000000051E90 11 30 02 54 00 21 00 00 00 02 00 00 F8 97 FC 58 .0.T.!.........X
4000000000051EA0 11 38 00 10 06 39 10 00 10 01 C2 03 F0 00 00 43 .8...9.........C
4000000000051EB0 11 70 00 5C 18 10 60 00 9C 0E 72 03 10 01 00 43 .p.\..`...r....C
4000000000051EC0 09 00 00 00 01 00 E0 40 38 00 42 00 00 00 04 00 .......@8.B.....
4000000000051ED0 09 70 00 1C 10 10 00 00 00 02 00 00 00 00 04 00 .p..............
4000000000051EE0 09 00 00 00 01 00 E0 78 39 18 40 00 00 00 04 00 .......x9.@.....
4000000000051EF0 10 00 00 00 01 00 60 00 38 0E 73 03 20 F4 FF 4A ......`.8.s. ..J
4000000000051F00 09 70 00 4C 18 10 00 00 00 02 00 E0 18 04 00 90 .p.L............
4000000000051F10 0B 30 01 1C 18 10 60 0A 98 00 42 00 00 00 04 00 .0....`...B.....
4000000000051F20 11 30 02 4C 00 21 00 00 00 02 00 00 68 97 FC 58 .0.L.!......h..X
4000000000051F30 08 38 00 10 06 39 00 00 00 02 00 20 00 20 02 84 .8...9..... . ..
4000000000051F40 09 30 02 4C 00 21 00 00 00 02 00 E0 78 06 00 90 .0.L.!......x...
4000000000051F50 D1 40 05 00 00 24 00 00 00 02 00 00 38 97 FC 58 .@...$......8..X
4000000000051F60 09 28 01 4A 18 10 70 00 20 0C 72 20 00 20 02 84 .(.J..p. .r . ..
4000000000051F70 D0 48 05 00 00 24 70 00 94 0C 72 03 10 F3 FF 4A .H...$p...r....J
4000000000051F80 10 00 00 00 01 00 00 00 00 02 00 00 B0 F3 FF 48 ...............H
4000000000051F90 11 30 02 54 00 21 70 3C 03 00 48 00 F8 96 FC 58 .0.T.!p<..H....X
4000000000051FA0 11 30 00 10 07 39 10 00 10 01 42 03 70 F3 FF 4B .0...9....B.p..K
4000000000051FB0 11 70 00 5C 18 10 60 00 9C 0E F2 03 10 FF FF 4A .p.\..`........J
4000000000051FC0 11 30 02 1C 18 10 70 04 00 00 42 00 88 E4 09 50 .0....p...B....P
4000000000051FD0 08 70 40 10 00 21 10 00 10 01 42 00 00 00 04 00 .p@..!....B.....
4000000000051FE0 19 38 01 10 00 21 70 00 20 0C F2 03 50 F3 FF 4B .8...!p. ...P..K
4000000000051FF0 09 00 00 00 01 00 E0 00 38 20 20 00 00 00 04 00 ........8  .....
4000000000052000 11 00 00 00 01 00 70 40 38 0C A8 03 30 F3 FF 4B ......p@8...0..K
4000000000052010 0B 78 00 5C 18 10 F0 40 3C 00 42 00 00 00 04 00 .x.\...@<.B.....
4000000000052020 09 00 00 00 01 00 00 01 3C 20 20 00 00 00 04 00 ........<  .....
4000000000052030 02 80 BC 20 0E 20 00 00 00 02 00 C0 01 80 00 84 ... . ..........
4000000000052040 18 00 00 00 01 00 00 80 3C 20 23 00 A0 FE FF 48 ........< #....H
4000000000052050 08 60 F1 03 3B 24 60 A4 F7 67 4F E0 08 28 01 84 .`..;$`..gO..(..
4000000000052060 09 A0 01 00 00 21 60 02 00 00 42 20 08 00 00 84 .....!`...B ....
4000000000052070 08 00 00 00 01 00 00 00 00 02 00 E0 84 28 01 84 .............(..
4000000000052080 19 30 02 8C 18 10 00 00 00 02 00 00 88 FF 05 50 .0.............P
4000000000052090 0B 08 00 88 00 21 E0 00 B0 60 21 00 00 00 04 00 .....!...`!.....
40000000000520A0 10 00 00 00 01 00 60 00 38 0E 73 03 40 F4 FF 4A ......`.8.s.@..J
40000000000520B0 10 00 00 00 01 00 00 00 00 02 00 00 50 06 00 40 ............P..@
40000000000520C0 11 30 02 56 18 10 00 00 00 02 00 00 48 E5 09 50 .0.V........H..P
40000000000520D0 11 08 00 88 00 21 60 02 20 00 42 00 80 F6 FF 48 .....!`. .B....H
40000000000520E0 11 80 00 4C 11 39 00 00 00 02 00 00 28 24 06 50 ...L.9......($.P
40000000000520F0 03 72 04 00 00 24 10 00 10 01 C2 C8 01 00 00 84 .r...$..........
4000000000052100 09 00 00 00 01 00 E0 70 B8 18 40 00 00 00 04 00 .......p..@.....
4000000000052110 10 00 00 00 01 00 60 00 38 0E 73 03 40 F6 FF 4A ......`.8.s.@..J
4000000000052120 10 00 00 00 01 00 00 00 00 02 00 00 A0 FF FF 48 ...............H
4000000000052130 11 30 02 7C B0 10 00 00 00 02 00 00 58 2B 06 50 .0.|........X+.P
4000000000052140 09 70 00 5A B0 10 00 00 00 02 00 20 00 20 02 84 .p.Z....... . ..
4000000000052150 10 00 00 00 01 00 60 00 38 0E 73 03 D0 F5 FF 4A ......`.8.s....J
4000000000052160 10 00 00 00 01 00 00 00 00 02 00 00 80 FF FF 48 ...............H
4000000000052170 09 40 B1 02 46 24 00 00 00 02 00 20 45 0C 18 91 .@..F$..... E...
4000000000052180 09 00 00 00 01 00 00 00 00 02 00 00 00 00 04 00 ................
4000000000052190 11 30 02 50 18 10 00 00 00 02 00 00 38 95 FC 58 .0.P........8..X
40000000000521A0 11 08 00 88 00 21 60 0C 20 00 42 00 28 6B 09 50 .....!`. .B.(k.P
40000000000521B0 08 08 00 88 00 21 70 04 A0 30 20 C0 08 40 00 84 .....!p..0 ..@..
40000000000521C0 19 00 00 00 01 00 00 00 00 02 00 00 C8 8F FC 58 ...............X
40000000000521D0 08 70 00 52 10 10 00 00 00 02 00 20 00 20 02 84 .p.R....... . ..
40000000000521E0 09 40 01 10 00 21 C0 02 80 20 20 00 00 00 04 00 .@...!...  .....
40000000000521F0 11 00 00 00 01 00 70 20 38 0C A8 03 F0 02 00 42 ......p 8......B
4000000000052200 01 00 00 00 01 00 60 60 B0 0E 28 00 00 00 04 00 ......``..(.....
4000000000052210 11 00 00 00 01 80 D1 02 00 00 42 03 50 00 00 42 ..........B.P..B
4000000000052220 11 68 01 00 00 21 00 00 00 02 00 00 A8 17 04 50 .h...!.........P
4000000000052230 11 08 00 88 00 21 60 00 20 0E E3 03 90 02 00 43 .....!`. ......C
4000000000052240 0B 70 00 40 10 10 E0 F8 39 58 44 00 00 00 04 00 .p.@....9XD.....
4000000000052250 08 60 01 1C 00 21 00 70 80 20 23 00 00 00 04 00 .`...!.p. #.....
4000000000052260 08 70 E0 02 39 24 F0 00 9C 30 20 00 00 00 04 00 .p..9$...0 .....
4000000000052270 0B 70 01 6A 18 10 00 00 00 02 00 00 00 00 04 00 .p.j............
4000000000052280 0B 38 01 1E 18 10 E0 00 38 20 20 00 00 00 04 00 .8......8  .....
4000000000052290 10 00 00 00 01 00 60 00 38 0E 73 03 90 02 00 42 ......`.8.s....B
40000000000522A0 11 30 02 4E 00 21 70 7C 01 00 48 00 28 53 0E 50 .0.N.!p|..H.(S.P
40000000000522B0 08 08 00 88 00 21 60 00 20 0E 72 00 00 00 04 00 .....!`. .r.....
40000000000522C0 19 40 16 00 00 24 60 04 00 00 42 03 60 02 00 43 .@...$`...B.`..C
40000000000522D0 09 00 00 00 01 00 70 E4 F4 CF 4F 00 00 00 04 00 ......p...O.....
40000000000522E0 11 38 02 8E 18 10 00 00 00 02 00 00 88 88 FC 58 .8.............X
40000000000522F0 08 08 00 88 00 21 00 00 00 02 00 E0 08 38 01 84 .....!.......8..
4000000000052300 19 30 02 10 00 21 00 00 00 02 00 00 88 ED 01 50 .0...!.........P
4000000000052310 09 08 00 88 00 21 70 00 B4 0C 73 E0 11 00 00 90 .....!p...s.....
4000000000052320 08 70 50 03 46 E4 71 0A 00 00 C8 43 05 00 00 84 .pP.F.q....C....
4000000000052330 EB 80 00 00 11 38 00 00 00 02 00 00 00 00 04 00 .....8..........
4000000000052340 10 00 3C 1C 90 11 00 00 00 02 00 03 90 03 00 42 ..<............B
4000000000052350 11 30 FE F9 FF 27 70 FC F3 FF 4F 00 F8 AA FF 58 .0...'p...O....X
4000000000052360 09 70 00 70 10 10 00 00 00 02 00 20 00 20 02 84 .p.p....... . ..
4000000000052370 10 00 00 00 01 00 70 00 38 0C F3 03 60 08 00 43 ......p.8...`..C
4000000000052380 31 32 02 54 00 21 00 00 00 02 80 08 68 84 FC 5A 12.T.!......h..Z
4000000000052390 28 0A 00 88 00 21 00 00 00 02 00 C0 08 00 02 84 (....!..........
40000000000523A0 19 80 00 4C 11 39 00 00 00 02 00 00 E8 AD FF 58 ...L.9.........X
40000000000523B0 08 30 00 50 07 39 00 00 00 02 00 20 00 20 02 84 .0.P.9..... . ..
40000000000523C0 19 30 02 50 00 21 00 00 00 02 00 03 30 00 00 43 .0.P.!......0..C
40000000000523D0 11 00 00 00 01 00 00 00 00 02 00 00 18 84 FC 58 ...............X
40000000000523E0 08 08 00 88 00 21 00 00 00 02 00 00 00 00 04 00 .....!..........
40000000000523F0 11 30 02 4A 00 21 00 00 00 02 00 00 D8 97 FF 58 .0.J.!.........X
4000000000052400 29 72 A0 18 00 21 00 00 00 02 00 20 00 20 02 84 )r...!..... . ..
4000000000052410 29 82 00 1C B0 50 E4 20 31 00 42 C0 C8 EE 9B 9F )....P. 1.B.....
4000000000052420 08 00 00 00 01 40 F4 00 38 60 A1 C8 C1 08 DC 90 .....@..8`......
4000000000052430 0B 30 02 8C 18 50 04 80 38 20 A3 C8 81 0F D8 90 .0...P..8 ......
4000000000052440 31 02 3C 1C 90 11 00 00 00 02 00 00 48 F9 05 50 1.<.........H..P
4000000000052450 08 08 00 88 00 21 00 00 AC 30 23 00 00 00 04 00 .....!...0#.....
4000000000052460 03 40 00 4E 00 21 F0 2F C2 BF 05 00 30 04 AA 00 .@.N.!./....0...
4000000000052470 00 00 00 00 01 00 00 10 06 80 03 00 00 00 04 00 ................
4000000000052480 18 60 80 18 00 21 00 00 00 02 00 80 08 00 84 00 .`...!..........
4000000000052490 0B 38 01 00 00 21 80 00 9C 00 42 E0 5F 84 7F 0B .8...!....B._...
40000000000524A0 02 00 00 00 01 00 00 18 02 55 00 00 20 0C 00 07 .........U.. ...
40000000000524B0 18 00 00 00 01 00 C0 00 31 00 42 80 08 00 84 00 ........1.B.....
40000000000524C0 09 60 01 40 10 10 00 00 00 02 00 00 00 00 04 00 .`.@............
40000000000524D0 08 00 00 00 01 00 00 00 00 02 00 00 00 00 04 00 ................
40000000000524E0 08 70 E0 02 39 24 F0 00 9C 30 20 A0 05 64 B1 80 .p..9$...0 ..d..
40000000000524F0 0B 70 01 6A 18 10 00 00 00 02 00 00 00 00 04 00 .p.j............
4000000000052500 0B 38 01 1E 18 10 E0 00 38 20 20 00 00 00 04 00 .8......8  .....
4000000000052510 10 00 00 00 01 00 60 00 38 0E F3 03 90 FD FF 4A ......`.8......J
4000000000052520 11 30 02 4E 00 21 00 00 00 02 00 00 28 AD 08 50 .0.N.!......(..P
4000000000052530 08 08 00 88 00 21 00 00 00 02 00 00 02 40 44 E4 .....!.......@D.
4000000000052540 19 50 01 10 00 21 00 00 00 02 80 08 88 71 01 52 .P...!.......q.R
4000000000052550 31 0A 00 88 00 61 64 04 A8 00 C2 08 F8 42 01 52 1....ad......B.R
4000000000052560 30 0A 00 88 00 21 60 00 B4 0E 73 03 90 06 00 43 0....!`...s....C
4000000000052570 11 00 00 00 01 00 00 00 00 02 00 00 58 1C 06 50 ............X..P
4000000000052580 11 08 00 88 00 21 00 00 00 02 00 00 88 D4 05 50 .....!.........P
4000000000052590 11 08 00 88 00 21 70 00 8C 0C F3 03 60 00 00 42 .....!p.....`..B
40000000000525A0 10 00 00 00 01 00 70 A0 B0 0C A8 03 30 00 00 42 ......p.....0..B
40000000000525B0 11 30 02 5C 00 21 00 00 00 02 00 00 58 F2 08 50 .0.\.!......X..P
40000000000525C0 10 08 00 88 00 21 70 00 20 0C F3 03 30 0B 00 43 .....!p. ...0..C
40000000000525D0 11 00 00 00 01 00 00 00 00 02 00 00 38 DB FF 58 ............8..X
40000000000525E0 08 08 00 88 00 21 00 00 00 02 00 00 00 00 04 00 .....!..........
40000000000525F0 11 30 00 48 07 39 60 04 90 00 42 03 30 00 00 43 .0.H.9`...B.0..C
4000000000052600 11 00 00 00 01 00 00 00 00 02 00 00 08 A9 FF 58 ...............X
4000000000052610 09 08 00 88 00 21 00 00 00 02 00 00 00 00 04 00 .....!..........
4000000000052620 08 30 D1 03 32 24 00 00 00 02 00 C0 F8 E7 FF 9F .0..2$..........
4000000000052630 09 38 FE F9 FF 27 00 00 00 02 00 00 02 18 45 E6 .8...'........E.
4000000000052640 11 00 00 00 01 00 00 00 00 02 00 00 C8 C4 FF 58 ...............X
4000000000052650 08 30 00 5C 07 39 E0 40 00 00 48 00 00 00 04 00 .0.\.9.@..H.....
4000000000052660 09 08 00 88 00 21 60 04 B8 00 42 E0 18 00 00 90 .....!`...B.....
4000000000052670 08 40 01 4C 10 10 00 70 A4 20 23 00 00 00 04 00 .@.L...p. #.....
4000000000052680 39 02 00 4C 90 11 00 00 00 02 00 03 30 06 00 43 9..L........0..C
4000000000052690 11 00 00 00 01 00 00 00 00 02 00 00 B8 EF 08 50 ...............P
40000000000526A0 10 08 00 88 00 21 60 00 20 0E 73 03 10 06 00 40 .....!`. .s....@
40000000000526B0 11 00 00 00 01 00 00 00 00 02 00 00 58 14 04 50 ............X..P
40000000000526C0 08 08 00 88 00 21 00 00 00 02 00 00 00 00 04 00 .....!..........
40000000000526D0 11 00 00 00 01 00 60 0C 00 00 48 00 B8 8E FC 58 ......`...H....X
40000000000526E0 11 00 00 00 01 00 00 00 00 02 00 00 28 1E 06 50 ............(..P
40000000000526F0 10 08 00 88 00 21 F0 00 94 00 42 00 30 EE FF 48 .....!....B.0..H
4000000000052700 11 30 02 58 B0 10 00 00 00 02 00 00 88 25 06 50 .0.X.........%.P
4000000000052710 0B 08 00 88 00 21 D0 22 04 78 48 00 00 00 04 00 .....!.".xH.....
4000000000052720 0B 00 00 00 01 00 E0 00 B4 60 21 00 00 00 04 00 .........`!.....
4000000000052730 10 00 00 00 01 00 60 00 38 0E 73 03 E0 ED FF 4A ......`.8.s....J
4000000000052740 10 00 00 00 01 00 00 00 00 02 00 00 A0 FF FF 48 ...............H
4000000000052750 11 30 02 4A 00 21 70 0C 00 00 48 00 38 5D FF 58 .0.J.!p...H.8].X
4000000000052760 10 00 00 00 01 00 10 00 10 01 42 00 C0 EC FF 48 ..........B....H
4000000000052770 11 00 00 00 01 00 70 00 C8 0C 73 03 40 EE FF 4A ......p...s.@..J
4000000000052780 08 38 11 03 41 24 60 00 8C 0E 73 00 00 00 04 00 .8..A$`...s.....
4000000000052790 09 58 31 03 46 24 F0 60 06 82 48 00 02 30 45 E4 .X1.F$.`..H..0E.
40000000000527A0 08 00 00 00 01 00 00 00 00 02 00 63 44 EE 9B 9F ...........cD...
40000000000527B0 02 00 00 00 01 00 00 00 00 02 80 63 C4 ED 9B 9F ...........c....
40000000000527C0 0A 00 00 00 01 80 31 02 8C 30 20 00 00 00 04 00 ......1..0 .....
40000000000527D0 0A 70 00 4E 18 D0 31 02 8C 30 20 00 00 00 04 00 .p.N..1..0 .....
40000000000527E0 0A 00 38 1E 98 11 00 00 00 02 00 C0 08 18 01 84 ..8.............
40000000000527F0 19 00 00 00 01 00 00 18 AD 30 23 00 D8 DE 09 50 .........0#....P
4000000000052800 09 00 20 4E 98 11 00 00 00 02 00 C0 08 28 01 84 .. N.........(..
4000000000052810 0A 70 20 10 18 14 00 00 00 02 00 C0 E0 08 00 07 .p .............
4000000000052820 19 08 00 10 18 10 00 00 00 02 00 00 68 00 80 10 ............h...
4000000000052830 08 08 00 88 00 21 00 00 00 02 00 E0 04 40 00 84 .....!.......@..
4000000000052840 19 30 02 80 00 21 00 00 00 02 00 00 48 A9 FF 58 .0...!......H..X
4000000000052850 08 08 00 88 00 21 00 00 00 02 00 00 00 00 04 00 .....!..........
4000000000052860 11 30 02 4A 00 21 00 00 00 02 00 00 68 93 FF 58 .0.J.!......h..X
4000000000052870 29 72 A0 18 00 21 00 00 00 02 00 20 00 20 02 84 )r...!..... . ..
4000000000052880 29 82 00 1C B0 50 E4 20 31 00 42 C0 C8 EE 9B 9F )....P. 1.B.....
4000000000052890 08 00 00 00 01 40 F4 00 38 60 A1 C8 C1 08 DC 90 .....@..8`......
40000000000528A0 0B 30 02 8C 18 50 04 80 38 20 A3 C8 81 0F D8 90 .0...P..8 ......
40000000000528B0 31 02 3C 1C 90 11 00 00 00 02 00 00 D8 F4 05 50 1.<............P
40000000000528C0 08 00 00 00 01 00 10 00 10 01 42 00 00 00 04 00 ..........B.....
40000000000528D0 18 00 00 56 98 11 00 00 00 02 00 00 90 FB FF 48 ...V...........H
40000000000528E0 09 30 00 52 87 39 60 04 84 00 42 E0 08 10 01 84 .0.R.9`...B.....
40000000000528F0 EB 70 50 03 46 24 00 00 00 02 00 00 00 00 04 00 .pP.F$..........
4000000000052900 F1 38 01 1C 10 10 00 00 00 02 00 00 48 A5 FF 58 .8..........H..X
4000000000052910 11 08 00 88 00 21 00 00 00 02 00 00 F8 11 04 50 .....!.........P
4000000000052920 08 00 00 00 01 00 10 00 10 01 42 C0 08 00 00 84 ..........B.....
4000000000052930 19 00 00 00 01 00 00 00 00 02 00 00 58 A8 FF 58 ............X..X
4000000000052940 08 08 00 88 00 21 00 00 00 02 00 00 00 00 04 00 .....!..........
4000000000052950 03 40 00 4E 00 21 F0 2F C2 BF 05 00 30 04 AA 00 .@.N.!./....0...
4000000000052960 00 00 00 00 01 00 00 10 06 80 03 00 00 00 04 00 ................
4000000000052970 18 60 80 18 00 21 00 00 00 02 00 80 08 00 84 00 .`...!..........
4000000000052980 11 70 20 8C 00 21 00 00 00 02 00 05 70 00 00 43 .p ..!......p..C
4000000000052990 09 00 00 00 01 00 E0 00 38 30 20 00 00 00 04 00 ........80 .....
40000000000529A0 11 30 00 1C 07 39 00 00 00 02 00 03 50 00 00 43 .0...9......P..C
40000000000529B0 09 00 00 00 01 00 E0 00 38 30 20 00 00 00 04 00 ........80 .....
40000000000529C0 11 30 00 1C 07 39 00 00 00 02 00 03 30 00 00 43 .0...9......0..C
40000000000529D0 0B 70 00 1C 00 10 00 00 00 02 00 C0 01 70 50 00 .p...........pP.
40000000000529E0 10 00 00 00 01 00 60 28 39 0E 73 03 D0 F0 FF 4B ......`(9.s....K
40000000000529F0 09 00 00 00 01 00 50 62 05 8C 48 00 00 00 04 00 ......Pb..H.....
4000000000052A00 11 00 00 00 01 00 00 00 00 02 00 00 C8 6C 01 50 .............l.P
4000000000052A10 09 00 00 00 01 00 10 00 10 01 42 00 00 00 04 00 ..........B.....
4000000000052A20 11 30 02 4A 18 10 00 00 00 02 00 00 A8 8C FC 58 .0.J...........X
4000000000052A30 11 08 00 88 00 21 60 0C 20 00 42 00 98 62 09 50 .....!`. .B..b.P
4000000000052A40 08 08 00 88 00 21 00 00 00 02 00 C0 08 40 00 84 .....!.......@..
4000000000052A50 19 38 02 4A 18 10 00 00 00 02 00 00 38 87 FC 58 .8.J........8..X
4000000000052A60 08 08 00 88 00 21 00 00 00 02 00 C0 08 40 00 84 .....!.......@..
4000000000052A70 19 38 02 46 00 21 00 00 00 02 00 00 D8 FC 02 50 .8.F.!.........P
4000000000052A80 10 08 00 88 00 21 60 00 20 0E 73 03 B0 E6 FF 4A .....!`. .s....J
4000000000052A90 11 30 02 42 00 21 70 04 88 00 42 00 B8 A3 FF 58 .0.B.!p...B....X
4000000000052AA0 11 08 00 88 00 21 00 00 00 02 00 00 68 10 04 50 .....!......h..P
4000000000052AB0 11 08 00 88 00 21 60 04 00 00 42 00 D8 A6 FF 58 .....!`...B....X
4000000000052AC0 10 00 00 00 01 00 10 00 10 01 42 00 90 FE FF 48 ..........B....H
4000000000052AD0 09 00 00 00 01 00 E0 00 9C 30 20 00 00 00 04 00 .........0 .....
4000000000052AE0 11 30 02 1C 18 10 00 00 00 02 00 00 A8 DC 09 50 .0.............P
4000000000052AF0 08 08 00 88 00 21 00 00 00 02 00 E0 00 40 18 E4 .....!.......@..
4000000000052B00 19 30 01 10 00 21 00 00 00 02 80 03 70 E9 FF 4B .0...!......p..K
4000000000052B10 0B 70 C0 03 32 24 00 00 00 02 00 00 00 00 04 00 .p..2$..........
4000000000052B20 09 00 00 00 01 00 E0 00 38 20 20 00 00 00 04 00 ........8  .....
4000000000052B30 10 00 00 00 01 00 60 00 38 0E F3 03 40 00 00 42 ......`.8...@..B
4000000000052B40 0B 70 90 03 46 24 00 00 00 02 00 00 00 00 04 00 .p..F$..........
4000000000052B50 09 00 00 00 01 00 E0 00 38 20 20 00 00 00 04 00 ........8  .....
4000000000052B60 10 00 00 00 01 00 60 00 38 0E F3 03 00 0F 00 41 ......`.8......A
4000000000052B70 08 60 F1 03 3B 24 60 A4 F7 67 4F E0 08 28 01 84 .`..;$`..gO..(..
4000000000052B80 02 A0 01 00 00 21 10 0C 00 00 48 00 00 00 04 00 .....!....H.....
4000000000052B90 19 00 00 00 01 00 60 04 18 31 20 00 78 F4 05 50 ......`..1 .x..P
4000000000052BA0 0B 08 00 88 00 21 E0 00 B0 60 21 00 00 00 04 00 .....!...`!.....
4000000000052BB0 10 00 00 00 01 00 60 00 38 0E 73 03 30 E9 FF 4A ......`.8.s.0..J
4000000000052BC0 10 00 00 00 01 00 00 00 00 02 00 00 40 FB FF 48 ............@..H
4000000000052BD0 11 00 00 00 01 00 00 00 00 02 00 00 38 0F 04 50 ............8..P
4000000000052BE0 10 00 00 00 01 00 10 00 10 01 42 00 A0 F7 FF 48 ..........B....H
4000000000052BF0 11 30 02 50 00 21 00 00 00 02 00 00 D8 8A FC 58 .0.P.!.........X
4000000000052C00 11 08 00 88 00 21 60 0C 20 00 42 00 C8 60 09 50 .....!`. .B..`.P
4000000000052C10 08 08 00 88 00 21 00 00 00 02 00 C0 08 40 00 84 .....!.......@..
4000000000052C20 19 38 02 50 00 21 00 00 00 02 00 00 68 85 FC 58 .8.P.!......h..X
4000000000052C30 08 08 00 88 00 21 00 00 00 02 00 C0 08 40 00 84 .....!.......@..
4000000000052C40 19 38 02 46 00 21 00 00 00 02 00 00 08 FB 02 50 .8.F.!.........P
4000000000052C50 08 30 00 10 87 39 10 00 10 01 42 00 00 00 04 00 .0...9....B.....
4000000000052C60 19 30 FE F9 FF 27 70 FC F3 FF 4F 03 10 F9 FF 4B .0...'p...O....K
4000000000052C70 F1 38 01 00 00 21 00 00 00 02 00 00 D8 A1 FF 58 .8...!.........X
4000000000052C80 09 70 00 70 10 10 00 00 00 02 00 20 00 20 02 84 .p.p....... . ..
4000000000052C90 10 00 00 00 01 00 70 00 38 0C 73 03 F0 F6 FF 4A ......p.8.s....J
4000000000052CA0 11 00 00 00 01 00 00 00 00 02 00 00 30 FF FF 48 ............0..H
4000000000052CB0 08 38 00 54 06 39 00 00 00 02 00 C0 48 EA 9F 9F .8.T.9......H...
4000000000052CC0 39 02 A0 4C 90 11 00 00 00 02 00 03 10 0D 00 41 9..L...........A
4000000000052CD0 11 30 02 8C 18 10 00 00 00 02 00 00 78 02 01 50 .0..........x..P
4000000000052CE0 08 08 00 88 00 21 00 00 00 02 00 E0 00 40 18 E4 .....!.......@..
4000000000052CF0 19 30 01 10 00 21 00 00 00 02 80 03 C0 09 00 43 .0...!.........C
4000000000052D00 09 00 00 00 01 00 60 24 F5 CF 4F 00 00 00 04 00 ......`$..O.....
4000000000052D10 11 30 02 8C 18 10 00 00 00 02 00 00 38 FE FE 58 .0..........8..X
4000000000052D20 08 08 00 88 00 21 00 00 00 02 00 C0 08 40 00 84 .....!.......@..
4000000000052D30 19 38 02 4A 00 21 00 00 00 02 00 00 18 FF FE 58 .8.J.!.........X
4000000000052D40 08 08 00 88 00 21 00 00 00 02 00 C0 08 30 01 84 .....!.......0..
4000000000052D50 19 38 02 10 00 21 00 00 00 02 00 00 38 86 00 50 .8...!......8..P
4000000000052D60 11 08 00 88 00 21 60 04 20 00 42 00 28 88 FC 58 .....!`. .B.(..X
4000000000052D70 08 30 FE F9 FF 27 00 00 00 02 00 E0 F8 E7 FF 9F .0...'..........
4000000000052D80 19 38 01 00 00 21 00 00 00 02 00 00 C8 A0 FF 58 .8...!.........X
4000000000052D90 11 00 00 00 01 00 10 00 10 01 42 00 78 0D 04 50 ..........B.x..P
4000000000052DA0 08 08 00 88 00 21 00 00 00 02 00 00 00 00 04 00 .....!..........
4000000000052DB0 31 32 02 4E 00 21 00 00 00 02 80 08 D8 87 FC 59 12.N.!.........Y
4000000000052DC0 11 30 02 00 00 21 00 00 00 02 00 00 C8 A3 FF 58 .0...!.........X
4000000000052DD0 08 00 00 00 01 00 10 00 10 01 42 C0 08 38 01 84 ..........B..8..
4000000000052DE0 19 00 00 00 01 00 00 00 00 02 00 00 A8 C1 01 50 ...............P
4000000000052DF0 08 08 00 88 00 21 00 00 00 02 00 00 00 00 04 00 .....!..........
4000000000052E00 03 40 00 4E 00 21 F0 2F C2 BF 05 00 30 04 AA 00 .@.N.!./....0...
4000000000052E10 00 00 00 00 01 00 00 10 06 80 03 00 00 00 04 00 ................
4000000000052E20 19 60 80 18 00 21 00 00 00 02 00 80 08 00 84 00 .`...!..........
4000000000052E30 08 38 0E 00 00 24 00 00 00 02 00 C0 08 28 01 84 .8...$.......(..
4000000000052E40 19 28 71 02 37 24 00 00 00 02 00 00 08 E8 08 50 .(q.7$.........P
4000000000052E50 08 30 02 4A 18 10 00 00 00 02 00 C0 04 40 00 84 .0.J.........@..
4000000000052E60 19 08 00 88 00 21 00 00 00 02 00 00 A8 A3 FF 58 .....!.........X
4000000000052E70 08 00 00 00 01 00 70 00 98 0C 73 20 00 20 02 84 ......p...s . ..
4000000000052E80 09 00 00 00 01 00 00 00 94 30 23 00 00 00 04 00 .........0#.....
4000000000052E90 D1 38 05 00 00 24 00 00 00 02 00 03 20 FF FF 4B .8...$...... ..K
4000000000052EA0 09 00 00 00 01 00 E0 00 C4 20 20 00 00 00 04 00 .........  .....
4000000000052EB0 0B 30 FC 1D 87 FB E1 A0 06 8C 48 E3 04 00 00 84 .0........H.....
4000000000052EC0 0B 00 00 00 01 C0 71 02 38 20 20 00 00 00 04 00 ......q.8  .....
4000000000052ED0 31 32 02 4E 00 21 00 00 00 02 80 08 B8 86 FC 59 12.N.!.........Y
4000000000052EE0 11 30 02 00 00 21 00 00 00 02 00 00 A8 A2 FF 58 .0...!.........X
4000000000052EF0 11 08 00 88 00 21 60 04 9C 00 42 00 98 C0 01 50 .....!`...B....P
4000000000052F00 10 00 00 00 01 00 10 00 10 01 42 00 00 FF FF 48 ..........B....H
4000000000052F10 11 00 00 00 01 00 00 00 00 02 00 00 F8 BD FF 58 ...............X
4000000000052F20 11 08 00 88 00 21 00 00 00 02 00 00 E8 D1 FF 58 .....!.........X
4000000000052F30 10 00 00 00 01 00 10 00 10 01 42 00 90 E9 FF 48 ..........B....H
4000000000052F40 10 00 00 00 01 00 60 00 3C 0E 73 03 E0 E6 FF 4A ......`.<.s....J
4000000000052F50 0B A8 41 40 00 21 F0 00 D4 30 20 00 00 00 04 00 ..A@.!...0 .....
4000000000052F60 10 00 00 00 01 00 70 00 3C 0C 72 03 D0 E6 FF 4A ......p.<.r....J
4000000000052F70 09 00 00 00 01 00 60 A4 F7 CD 4F 00 00 00 04 00 ......`...O.....
4000000000052F80 11 30 02 8C 18 10 00 00 00 02 00 00 48 01 01 50 .0..........H..P
4000000000052F90 08 08 00 88 00 21 00 00 00 02 00 E0 00 40 18 E4 .....!.......@..
4000000000052FA0 19 30 02 10 00 21 00 00 00 02 80 03 90 00 00 43 .0...!.........C
4000000000052FB0 0B 70 00 10 00 10 00 00 00 02 00 C0 01 70 50 00 .p...........pP.
4000000000052FC0 11 38 94 1D 86 39 00 00 00 02 80 03 00 0C 00 43 .8...9.........C
4000000000052FD0 10 00 00 00 01 00 70 98 3B 0C F3 03 A0 0B 00 43 ......p.;......C
4000000000052FE0 08 38 66 00 00 24 00 00 00 02 00 00 00 00 04 00 .8f..$..........
4000000000052FF0 09 00 00 00 01 00 E0 00 9C 30 20 00 00 00 04 00 .........0 .....
4000000000053000 11 30 02 1C 18 10 00 00 00 02 00 00 88 C6 09 50 .0.............P
4000000000053010 08 00 00 00 01 00 10 00 10 01 42 00 05 40 00 84 ..........B..@..
4000000000053020 19 00 00 00 01 00 70 F8 23 0C 77 03 70 0A 00 42 ......p.#.w.p..B
4000000000053030 08 70 00 4E 18 10 60 00 D0 0E 72 20 01 A0 21 E4 .p.N..`...r ..!.
4000000000053040 09 58 31 03 46 24 00 63 06 82 48 40 02 90 4D E6 .X1.F$.c..H@..M.
4000000000053050 08 40 11 03 41 24 E0 E3 07 76 48 40 46 0C 18 91 .@..A$...vH@F...
4000000000053060 09 88 91 03 32 24 30 A3 07 64 48 E4 15 00 00 90 ....2$0..dH.....
4000000000053070 08 70 00 1C 18 50 F2 02 00 00 42 C3 15 00 00 90 .p...P....B.....
4000000000053080 09 B8 01 00 01 24 40 01 8C 2A 73 C0 06 61 00 84 .....$@..*s..a..
4000000000053090 08 00 00 00 01 C0 E1 02 00 00 42 40 05 08 DC 90 ..........B@....
40000000000530A0 09 F8 01 00 08 24 D0 63 04 6E 48 80 87 62 00 84 .....$.c.nH..b..
40000000000530B0 08 00 00 00 01 00 A0 C3 07 6C 48 20 47 62 00 84 .........lH Gb..
40000000000530C0 0A 00 00 00 01 00 00 00 00 02 00 00 00 00 04 00 ................
40000000000530D0 02 00 00 00 01 00 00 00 00 02 00 00 00 00 04 00 ................
40000000000530E0 18 00 00 00 01 00 00 00 00 02 00 00 00 E6 FF 48 ...............H
40000000000530F0 11 00 00 00 01 00 00 00 00 02 00 00 18 BC FF 58 ...............X
4000000000053100 11 08 00 88 00 21 00 00 00 02 00 00 08 D0 FF 58 .....!.........X
4000000000053110 10 00 00 00 01 00 10 00 10 01 42 00 E0 F4 FF 48 ..........B....H
4000000000053120 08 00 00 00 01 00 D0 02 80 20 20 00 00 00 04 00 .........  .....
4000000000053130 19 38 01 6A 18 10 00 00 00 02 00 00 D8 08 04 50 .8.j...........P
4000000000053140 08 08 00 88 00 21 00 00 00 02 00 C0 05 40 00 84 .....!.......@..
4000000000053150 19 30 82 18 00 21 00 00 00 02 00 00 38 07 04 50 .0...!......8..P
4000000000053160 08 30 02 4E 00 21 70 1C 00 00 48 00 00 00 04 00 .0.N.!p...H.....
4000000000053170 19 60 01 10 00 21 10 00 10 01 42 00 D8 E4 08 50 .`...!....B....P
4000000000053180 11 08 00 88 00 21 60 00 20 0E F3 03 20 04 00 43 .....!`. ... ..C
4000000000053190 09 78 91 FB B3 27 90 E2 04 6E 48 00 02 30 45 E4 .x...'...nH..0E.
40000000000531A0 09 78 01 5E 18 10 A0 02 A4 30 20 00 00 00 04 00 .x.^.....0 .....
40000000000531B0 11 38 BC 4C 06 38 20 01 A8 26 F2 03 60 06 00 43 .8.L.8 ..&..`..C
40000000000531C0 11 00 00 00 01 00 00 00 00 02 00 00 08 BF FF 58 ...............X
40000000000531D0 0B 08 00 88 00 E1 64 64 F4 CF 4F 00 00 00 04 00 ......dd..O.....
40000000000531E0 71 32 02 8C 18 10 00 00 00 02 80 09 E8 EE 05 52 q2.............R
40000000000531F0 63 0A 00 88 00 E1 74 04 A8 00 C2 C9 48 EC A7 9F c.....t.....H...
4000000000053200 71 32 02 8C 18 10 00 00 00 02 80 09 08 EE 05 52 q2.............R
4000000000053210 28 42 02 5A 00 61 74 04 94 00 C2 28 09 00 00 84 (B.Z.at....(....
4000000000053220 69 0A 00 88 00 21 00 00 A4 30 A3 C8 08 30 01 84 i....!...0...0..
4000000000053230 11 00 00 00 01 00 00 00 00 02 80 08 D8 A0 FF 5A ...............Z
4000000000053240 08 42 02 5A 00 21 74 04 94 00 42 28 09 20 01 84 .B.Z.!t...B(. ..
4000000000053250 09 52 02 00 00 21 B4 04 00 00 42 C8 08 A0 01 84 .R...!....B.....
4000000000053260 11 00 00 00 01 00 00 00 00 02 00 08 28 6A 00 53 ............(j.S
4000000000053270 03 08 00 88 00 21 70 02 20 00 42 A0 C5 EE BF 9E .....!p. .B.....
4000000000053280 09 00 00 00 01 00 D0 02 B4 30 20 00 00 00 04 00 .........0 .....
4000000000053290 11 30 02 5A 18 10 00 00 00 02 00 00 F8 73 FC 58 .0.Z.........s.X
40000000000532A0 08 00 00 00 01 00 10 00 10 01 42 00 00 00 04 00 ..........B.....
40000000000532B0 19 30 02 5A 18 10 00 00 00 02 00 00 D8 1E 0E 50 .0.Z...........P
40000000000532C0 08 00 00 00 01 00 10 00 10 01 42 00 00 00 04 00 ..........B.....
40000000000532D0 19 30 02 5A 18 10 00 00 00 02 00 00 98 76 FC 58 .0.Z.........v.X
40000000000532E0 11 08 00 88 00 21 60 00 20 0E F3 03 F0 01 00 43 .....!`. ......C
40000000000532F0 0B 70 B0 FB B4 27 E0 00 38 30 20 00 00 00 04 00 .p...'..80 .....
4000000000053300 11 00 00 00 01 00 70 70 98 0C F0 03 10 02 00 43 ......pp.......C
4000000000053310 11 38 00 54 06 39 60 64 F4 CF CF 03 40 00 00 43 .8.T.9`d....@..C
4000000000053320 08 00 00 00 01 00 00 50 A5 30 23 00 00 00 04 00 .......P.0#.....
4000000000053330 19 30 02 8C 18 10 00 00 00 02 00 00 58 EA 05 50 .0..........X..P
4000000000053340 08 08 00 88 00 21 00 00 00 02 00 00 00 00 04 00 .....!..........
4000000000053350 09 30 02 52 18 10 00 00 00 02 00 00 00 00 04 00 .0.R............
4000000000053360 11 30 00 8C 07 39 00 00 00 02 00 03 30 00 00 43 .0...9......0..C
4000000000053370 11 00 00 00 01 00 00 00 00 02 00 00 98 9E FF 58 ...............X
4000000000053380 08 08 00 88 00 21 00 00 A4 30 23 00 00 00 04 00 .....!...0#.....
4000000000053390 11 00 00 00 01 00 00 00 00 02 00 00 78 06 04 50 ............x..P
40000000000533A0 10 08 00 88 00 21 70 70 21 0C E1 03 00 01 00 43 .....!pp!......C
40000000000533B0 11 30 02 58 00 21 00 00 00 02 00 00 38 74 FC 58 .0.X.!......8t.X
40000000000533C0 11 08 00 88 00 21 E0 00 00 04 48 08 F0 03 00 43 .....!....H....C
40000000000533D0 11 38 38 4E 86 30 E0 C0 05 64 C8 03 B0 05 00 43 .88N.0...d.....C
40000000000533E0 0B 00 00 00 01 00 E0 00 38 20 20 00 00 00 04 00 ........8  .....
40000000000533F0 11 00 00 00 01 00 60 00 38 0E 73 03 70 00 00 42 ......`.8.s.p..B
4000000000053400 10 00 00 00 01 00 60 00 04 0F 73 03 60 00 00 42 ......`...s.`..B
4000000000053410 0B 70 90 03 37 24 00 00 00 02 00 00 00 00 04 00 .p..7$..........
4000000000053420 09 00 00 00 01 00 E0 00 38 30 20 00 00 00 04 00 ........80 .....
4000000000053430 11 30 00 1C 07 39 00 00 00 02 00 03 30 00 00 43 .0...9......0..C
4000000000053440 11 00 00 00 01 00 00 00 00 02 00 00 88 83 01 50 ...............P
4000000000053450 08 08 00 88 00 21 00 00 00 02 00 00 00 00 04 00 .....!..........
4000000000053460 11 00 00 00 01 00 60 04 9C 00 42 00 28 BB 01 50 ......`...B.(..P
4000000000053470 08 08 00 88 00 21 00 00 00 02 00 00 00 00 04 00 .....!..........
4000000000053480 11 30 02 80 00 21 00 00 00 02 00 00 08 9D FF 58 .0...!.........X
4000000000053490 10 00 00 00 01 00 10 00 10 01 42 00 D0 F3 FF 48 ..........B....H
40000000000534A0 09 70 80 18 00 21 00 00 00 02 00 C0 08 60 01 84 .p...!.......`..
40000000000534B0 11 38 02 1C 10 10 00 00 00 02 00 00 58 07 04 50 .8..........X..P
40000000000534C0 10 00 00 00 01 00 10 00 10 01 42 00 F0 FE FF 48 ..........B....H
40000000000534D0 11 30 02 5A 18 10 00 00 00 02 00 00 38 89 FC 58 .0.Z........8..X
40000000000534E0 0B 08 00 88 00 21 E0 60 F7 69 4F 00 00 00 04 00 .....!.`.iO.....
40000000000534F0 09 00 00 00 01 00 E0 00 38 30 20 00 00 00 04 00 ........80 .....
4000000000053500 10 00 00 00 01 00 70 70 98 0C 70 03 10 FE FF 4A ......pp..p....J
4000000000053510 09 00 00 00 01 00 E0 00 A0 30 20 00 00 00 04 00 .........0 .....
4000000000053520 10 00 00 00 01 00 70 78 39 0C 70 03 F0 FD FF 4A ......px9.p....J
4000000000053530 13 30 02 54 00 A1 04 80 02 80 21 00 D8 88 FF 58 .0.T......!....X
4000000000053540 0B 08 00 88 00 21 E0 A0 04 6E 48 C0 C8 E8 9F 9F .....!...nH.....
4000000000053550 08 00 00 00 01 00 F0 00 38 30 20 00 00 00 04 00 ........80 .....
4000000000053560 09 00 00 1C 98 11 60 04 18 31 20 00 00 00 04 00 ......`..1 .....
4000000000053570 11 00 3C 52 98 11 00 00 00 02 00 00 18 E8 05 50 ..<R...........P
4000000000053580 08 00 00 00 01 00 10 00 10 01 42 00 00 00 04 00 ..........B.....
4000000000053590 19 30 02 52 18 10 00 00 00 02 00 00 D0 FD FF 48 .0.R...........H
40000000000535A0 09 00 00 00 01 00 70 E2 04 6E 48 00 00 00 04 00 ......p..nH.....
40000000000535B0 11 30 02 4E 18 10 00 00 00 02 00 00 58 9C FF 58 .0.N........X..X
40000000000535C0 08 08 00 88 00 21 00 00 9C 30 23 E0 24 00 00 90 .....!...0#.$...
40000000000535D0 19 00 00 00 01 00 00 00 00 02 00 00 F8 BA FF 58 ...............X
40000000000535E0 08 08 00 88 00 21 00 00 00 02 00 C0 08 60 01 84 .....!.......`..
40000000000535F0 19 38 9D 00 08 20 00 00 00 02 00 00 F8 71 FC 58 .8... .......q.X
4000000000053600 11 08 00 88 00 21 00 00 00 02 80 08 70 03 00 43 .....!......p..C
4000000000053610 09 70 B0 FB E9 27 00 00 00 02 00 00 02 30 45 E4 .p...'.......0E.
4000000000053620 03 70 00 1C 18 10 00 00 00 02 00 C0 71 72 44 80 .p..........qrD.
4000000000053630 08 38 01 1C 10 10 00 00 00 02 00 00 00 00 04 00 .8..............
4000000000053640 10 00 00 00 01 00 60 00 04 0F 73 03 20 FE FF 4A ......`...s. ..J
4000000000053650 09 70 E0 02 32 24 00 00 00 02 00 E0 11 00 00 90 .p..2$..........
4000000000053660 09 00 00 00 01 00 00 78 EC 20 23 00 00 00 04 00 .......x. #.....
4000000000053670 09 00 00 00 01 00 E0 00 38 20 20 00 00 00 04 00 ........8  .....
4000000000053680 10 00 00 00 01 00 70 00 38 0C 73 03 90 FD FF 4A ......p.8.s....J
4000000000053690 11 30 02 4E 00 21 00 00 00 02 00 00 F8 B8 01 50 .0.N.!.........P
40000000000536A0 10 00 00 00 01 00 10 00 10 01 42 00 E0 FD FF 48 ..........B....H
40000000000536B0 11 30 02 4E 00 21 00 00 00 02 00 00 D8 F8 0D 50 .0.N.!.........P
40000000000536C0 08 08 00 88 00 21 60 00 20 0E 73 00 00 00 04 00 .....!`. .s.....
40000000000536D0 19 40 16 00 00 24 60 04 00 00 C2 03 60 00 00 43 .@...$`.....`..C
40000000000536E0 09 00 00 00 01 00 70 64 F5 CF 4F 00 00 00 04 00 ......pd..O.....
40000000000536F0 11 38 02 8E 18 10 00 00 00 02 00 00 78 74 FC 58 .8..........xt.X
4000000000053700 08 08 00 88 00 21 00 00 00 02 00 C0 08 40 00 84 .....!.......@..
4000000000053710 19 38 02 4E 00 21 00 00 00 02 00 00 78 D9 01 50 .8.N.!......x..P
4000000000053720 11 08 00 88 00 21 60 FC 03 00 48 00 68 7E FC 58 .....!`...H.h~.X
4000000000053730 08 30 02 4E 00 21 00 00 00 02 00 E0 08 00 00 84 .0.N.!..........
4000000000053740 19 40 02 00 00 21 00 00 00 02 00 00 48 F4 0D 50 .@...!......H..P
4000000000053750 08 08 00 88 00 21 00 00 00 02 00 00 59 00 00 90 .....!......Y...
4000000000053760 03 38 01 10 00 21 60 04 00 00 42 E0 C8 EA 9F 9F .8...!`...B.....
4000000000053770 11 38 02 8E 18 10 00 00 00 02 00 00 F8 73 FC 58 .8...........s.X
4000000000053780 08 08 00 88 00 21 00 00 00 02 00 C0 08 40 00 84 .....!.......@..
4000000000053790 19 38 02 4E 00 21 00 00 00 02 00 00 F8 D8 01 50 .8.N.!.........P
40000000000537A0 10 08 00 88 00 21 60 FC 03 00 48 00 E8 7D FC 58 .....!`...H..}.X
40000000000537B0 0B 70 08 00 02 24 60 70 9C 0E 71 C0 01 00 08 90 .p...$`p..q.....
40000000000537C0 D1 38 09 00 00 24 00 00 00 02 00 03 A0 FC FF 4B .8...$.........K
40000000000537D0 10 00 00 00 01 00 60 70 9C 0E E1 03 90 FC FF 4A ......`p.......J
40000000000537E0 09 38 05 00 00 24 00 00 00 02 00 00 00 00 04 00 .8...$..........
40000000000537F0 11 30 02 4E 00 21 00 00 00 02 00 00 98 B7 01 50 .0.N.!.........P
4000000000053800 10 00 00 00 01 00 10 00 10 01 42 00 80 FC FF 48 ..........B....H
4000000000053810 11 30 02 54 00 21 00 01 98 22 72 00 F8 85 FF 58 .0.T.!..."r....X
4000000000053820 0B 08 00 88 00 21 E0 A0 04 6E 48 00 00 00 04 00 .....!...nH.....
4000000000053830 09 50 01 1C 18 10 00 00 38 30 23 00 00 00 04 00 .P......80#.....
4000000000053840 0B 90 00 54 13 F9 64 64 F4 CF 4F 00 00 00 04 00 ...T..dd..O.....
4000000000053850 71 32 02 8C 18 10 00 00 00 02 80 09 78 E8 05 52 q2..........x..R
4000000000053860 63 0A 00 88 00 E1 74 04 A8 00 C2 C9 48 EC A7 9F c.....t.....H...
4000000000053870 71 32 02 8C 18 10 00 00 00 02 80 09 98 E7 05 52 q2.............R
4000000000053880 28 42 02 5A 00 61 74 04 94 00 C2 28 09 00 00 84 (B.Z.at....(....
4000000000053890 69 0A 00 88 00 21 00 00 A4 30 A3 C8 08 30 01 84 i....!...0...0..
40000000000538A0 11 00 00 00 01 00 00 00 00 02 80 08 68 9A FF 5A ............h..Z
40000000000538B0 08 42 02 5A 00 21 74 04 94 00 42 28 09 20 01 84 .B.Z.!t...B(. ..
40000000000538C0 09 52 02 00 00 21 B4 04 00 00 42 C8 08 A0 01 84 .R...!....B.....
40000000000538D0 11 00 00 00 01 00 00 00 00 02 00 08 B8 63 00 53 .............c.S
40000000000538E0 03 08 00 88 00 21 70 02 20 00 42 A0 C5 EE BF 9E .....!p. .B.....
40000000000538F0 09 00 00 00 01 00 D0 02 B4 30 20 00 00 00 04 00 .........0 .....
4000000000053900 11 30 02 5A 18 10 00 00 00 02 00 00 88 6D FC 58 .0.Z.........m.X
4000000000053910 08 00 00 00 01 00 10 00 10 01 42 00 00 00 04 00 ..........B.....
4000000000053920 19 30 02 5A 18 10 00 00 00 02 00 00 68 18 0E 50 .0.Z........h..P
4000000000053930 08 00 00 00 01 00 10 00 10 01 42 00 00 00 04 00 ..........B.....
4000000000053940 19 30 02 5A 18 10 00 00 00 02 00 00 28 70 FC 58 .0.Z........(p.X
4000000000053950 10 08 00 88 00 21 60 00 20 0E 73 03 A0 F9 FF 4A .....!`. .s....J
4000000000053960 10 00 00 00 01 00 00 00 00 02 00 00 70 FB FF 48 ............p..H
4000000000053970 11 80 00 4C 11 39 70 0A 00 00 48 00 80 FE FF 48 ...L.9p...H....H
4000000000053980 0B 38 FD 4F 3D 23 60 20 9C 0E 6B 00 00 00 04 00 .8.O=#` ..k.....
4000000000053990 11 00 00 00 01 80 71 02 00 00 42 03 B0 FC FF 48 ......q...B....H
40000000000539A0 09 70 B0 FB E9 27 00 00 00 02 00 E0 74 02 20 80 .p...'......t. .
40000000000539B0 0B 70 00 1C 18 10 E0 38 39 22 40 00 00 00 04 00 .p.....89"@.....
40000000000539C0 10 38 01 1C 10 10 00 00 00 02 00 00 80 FC FF 48 .8.............H
40000000000539D0 08 48 02 00 00 21 60 04 94 00 42 00 00 00 04 00 .H...!`...B.....
40000000000539E0 19 38 02 00 00 21 80 04 00 00 42 00 28 CE 0D 50 .8...!....B.(..P
40000000000539F0 09 08 00 88 00 21 70 04 20 00 42 C0 08 50 01 84 .....!p. .B..P..
4000000000053A00 0B 70 30 03 37 24 00 00 00 02 00 00 00 00 04 00 .p0.7$..........
4000000000053A10 11 40 02 1C 18 10 00 00 00 02 00 00 B8 C7 FF 58 .@.............X
4000000000053A20 11 08 00 88 00 21 60 04 20 00 42 00 68 7B FC 58 .....!`. .B.h{.X
4000000000053A30 09 00 00 00 01 00 F0 A0 04 6E 48 00 00 00 04 00 .........nH.....
4000000000053A40 09 30 02 1E 18 10 00 00 3C 30 23 00 00 00 04 00 .0......<0#.....
4000000000053A50 10 00 18 53 98 11 00 00 00 02 00 00 10 F9 FF 48 ...S...........H
4000000000053A60 09 70 50 03 46 24 F0 08 00 00 48 C0 48 00 00 90 .pP.F$....H.H...
4000000000053A70 09 00 00 00 01 00 00 00 00 02 00 00 00 00 04 00 ................
4000000000053A80 10 00 3C 1C 90 11 00 00 00 02 00 00 48 0A 06 50 ..<.........H..P
4000000000053A90 02 28 11 03 41 24 60 64 F7 CD 4F 00 00 00 04 00 .(..A$`d..O.....
4000000000053AA0 19 00 00 00 01 00 60 04 18 31 20 00 A8 E4 05 50 ......`..1 ....P
4000000000053AB0 0A 08 00 88 00 21 00 61 06 8C 48 C0 41 EE 9B 9F .....!.a..H.A...
4000000000053AC0 09 00 00 00 01 00 F0 00 94 30 20 00 00 00 04 00 .........0 .....
4000000000053AD0 09 00 00 00 01 00 E0 00 38 30 20 00 00 00 04 00 ........80 .....
4000000000053AE0 0B 30 02 1C 00 21 00 70 40 30 23 C0 C1 0C 04 91 .0...!.p@0#.....
4000000000053AF0 09 00 00 00 01 00 00 00 00 02 00 00 00 00 04 00 ................
4000000000053B00 11 00 3C 1C 98 11 00 00 00 02 00 00 C8 CB 09 50 ..<............P
4000000000053B10 08 00 00 00 01 00 10 00 10 01 42 C0 08 40 01 84 ..........B..@..
4000000000053B20 19 00 20 4A 98 11 70 0C 00 00 48 00 E8 E1 02 50 .. J..p...H....P
4000000000053B30 03 38 20 00 86 30 10 00 10 01 42 E3 04 40 00 84 .8 ..0....B..@..
4000000000053B40 EB 38 05 00 00 24 80 00 9C 00 42 E0 5F 84 7F 0B .8...$....B._...
4000000000053B50 02 00 00 00 01 00 00 18 02 55 00 00 20 0C 00 07 .........U.. ...
4000000000053B60 18 00 00 00 01 00 C0 00 31 00 42 80 08 00 84 00 ........1.B.....
4000000000053B70 09 00 00 00 01 00 70 24 F4 CF 4F 00 00 00 04 00 ......p$..O.....
4000000000053B80 11 38 02 8E 18 10 00 00 00 02 00 00 C8 69 FC 58 .8...........i.X
4000000000053B90 09 38 00 10 86 39 00 00 00 02 00 20 00 20 02 84 .8...9..... . ..
4000000000053BA0 10 00 00 00 01 C0 71 D4 00 00 C8 03 50 F4 FF 4A ......q.....P..J
4000000000053BB0 11 00 00 00 01 00 00 00 00 02 00 00 30 F4 FF 48 ............0..H
4000000000053BC0 09 00 00 00 01 00 70 E4 F7 CD 4F 00 00 00 04 00 ......p...O.....
4000000000053BD0 11 38 02 8E 18 10 00 00 00 02 00 00 78 69 FC 58 .8..........xi.X
4000000000053BE0 09 30 00 10 87 39 00 00 00 02 00 20 00 20 02 84 .0...9..... . ..
4000000000053BF0 10 00 00 00 01 80 71 E4 00 00 48 03 00 F4 FF 4A ......q...H....J
4000000000053C00 11 00 00 00 01 00 00 00 00 02 00 00 E0 F3 FF 48 ...............H
4000000000053C10 08 00 00 00 01 00 00 00 00 02 00 00 00 00 04 00 ................
4000000000053C20 08 00 00 00 01 00 00 00 00 02 00 00 00 00 04 00 ................
4000000000053C30 08 00 00 00 01 00 00 00 00 02 00 00 00 00 04 00 ................

;; execute_command_internal: 4000000000053C40
execute_command_internal proc
	{ alloc	r85,ar.pfs,0x40,0x0,0x39; adds	r12,0xFFFFFFFFFFFFFFD0,r12; nop.b	0x0 }
	{ addl	r41,8360,r1; addl	r45,8356,r1; mov	r87,pr; }
	{ nop.m	0x0; nop.m	0x0; mov	r88,LC }
	{ addl	r47,7676,r1; addl	r48,7684,r1; adds	r86,0x0,r1; }
	{ nop.m	0x0; mov	r84,b4; nop.i	0x0; }
	{ nop.m	0x0; ld4	r14,[r41]; nop.i	0x0; }
	{ cmp4.eq	p07,p06,0x0,r14; nop.i	0x0; (p06) br.cond.dpnt.few	40000000000542E0; }

l4000000000053CB0:
	{ nop.m	0x0; ld4	r14,[r45]; nop.i	0x0; }
	{ cmp4.eq	p06,p07,0x0,r14; addl	r14,7392,r1; (p07) br.cond.dpnt.few	40000000000542E0; }

l4000000000053CD0:
	{ cmp.eq	p06,p07,0x0,r32; nop.i	0x0; (p06) br.cond.dpnt.few	4000000000054430; }

l4000000000053CE0:
	{ nop.m	0x0; ld4	r14,[r14]; nop.i	0x0; }
	{ cmp4.eq	p07,p06,0x0,r14; nop.i	0x0; (p06) br.cond.dpnt.few	4000000000054430; }

l4000000000053D00:
	{ nop.m	0x0; ld4.acq	r14,[r47]; nop.i	0x0; }
	{ cmp4.eq	p06,p07,0x0,r14; nop.i	0x0; (p07) br.cond.dpnt.few	40000000000544E0; }

l4000000000053D20:
	{ nop.m	0x0; ld4.acq	r14,[r48]; nop.i	0x0; }
	{ nop.m	0x0; cmp4.eq	p06,p07,0x0,r14; (p07) br.cond.dpnt.few	4000000000054460 }

l4000000000053D40:
	{ addl	r38,7404,r1; nop.m	0x0; adds	r37,0x4,r32; }
	{ nop.m	0x0; nop.i	0x0; br.call.sptk.many	b0,run_pending_traps; }
	{ adds	r1,0x0,r86; ld4	r15,[r37]; nop.i	0x0; }
	{ nop.m	0x0; addl	r51,7084,r1; extr.u	r14,r15,2,1 }
	{ ld4	r16,[r38]; st8	[r32],r51; cmp4.eq	p06,p07,0x0,r16 }
	{ adds	r39,0x0,r14; adds	r53,0x0,r14; (p06) br.cond.dptk.few	4000000000053DC0; }

l4000000000053DA0:
	{ cmp4.eq	p06,p07,0x0,r14; nop.i	0x0; (p07) or	r15,0x8,r15; }

l4000000000053DB0:
	{ (p07) st4	[r15],r37; nop.m	0x0; nop.i	0x0 }

l4000000000053DB6:
	{ break.m	0x4000; break.i	0x104000; cmp.lt	p00,p00,r0,r32 }

l4000000000053DC0:
	{ nop.m	0x0; movl	r16,0x40FFFFFFFF }

l4000000000053DC2:
	{ Invalid; (p01) cmp.eq	p00,p00,0x0,r0; Invalid }

l4000000000053DC6:
	{ Invalid; Invalid; Invalid }
	{ (p07) fwb; mov	pr,0x8004000; (p48) nop }
	{ break.m	0x8; (p08) nop; (p48) nop }
	{ chk.a.nc	f0,3FFFFFFFFF0545F6; nop; break.i	0x80000 }
	{ (p07) fwb; nop; (p48) nop }
	{ chk.a.nc	f0,3FFFFFFFFF054616; nop; (p32) nop }
	{ chk.a.nc	r0,3FFFFFFFFF054626; nop; (p48) nop }
	{ Invalid; (p21) nop; break.i	0x80000 }
	{ (p03) chk.a.clr	r0,3FFFFFFFFFD16F46; nop; break.b	0x80000 }
	{ (p03) chk.a.clr	r12,3FFFFFFFFFB17736; Invalid; (p16) nop }
	{ (p08) add	r0,r14,r22; (p08) nop; nop }
	{ Invalid; nop; break.i	0x80000 }
	{ (p04) chk.s	f16,4000000000CD7E86; nop; break.b	0x80000 }
	{ Invalid; nop; break.b	0x80000 }
	{ (p36) chk.s.m	r35,4000000000E38E96; nop; break.i	0x80000 }
	{ (p04) chk.s	f33,4000000000D186B6; nop; break.i	0x80000 }
	{ (p04) nop; nop; break.b	0x80000 }
	{ break.m	0x4000; nop; break.i	0x80000 }
	{ chk.a.nc	r0,3FFFFFFFFF0546E6; Invalid; (p48) nop }
	{ (p07) add	r0,r14,r22; (p07) nop; (p32) nop }
	{ Invalid; nop; break.i	0x80000 }
	{ (p03) chk.a.clr	f0,3FFFFFFFFFCD6FF6; nop; nop.b	0x2020A }
	{ (p44) fwb; nop; nop }
	{ chk.a.nc	f0,3FFFFFFFFF054736; nop; break.i	0x80000 }
	{ break.m	0x4000; (p32) nop; (p16) nop }
	{ (p44) fwb; nop; (p32) brp.ret.sptk	b6,4000000000053F86 }
	{ break.m	0x4000; nop; break.i	0x80000 }
	{ mf.a; nop; (p32) nop }
	{ break.m	0x4000; (p32) nop; (p16) nop }
	{ (p03) chk.a.clr	f0,3FFFFFFFFFD17816; nop; nop }
	{ (p44) fwb; nop; Invalid }
	{ (p30) chk.a.clr	r0,3FFFFFFFFF0D3FB6; (p30) nop; Invalid; }
	{ Invalid; (p32) nop; (p16) nop; }
	{ break.m	0x4000; (p30) nop; (p16) nop }
	{ break.m	0x4000; (p32) nop; break.i	0x80000 }
	{ Invalid; nop; break.b	0x80000 }
	{ mf.a; adds	r0,0x0,r1; (p17) nop }
	{ addp4	r0,0xFFFFFFFFFFFFE000,r1; (p30) nop; nop }
	{ (p44) fwb; nop; Invalid }
	{ Invalid; (p31) nop; add	r0,r0,r0; }
	{ Invalid; (p32) nop; (p16) nop; }
	{ add	r0,r0,r1; nop; (p48) nop }
	{ break.m	0x4000; (p32) nop; (p48) nop }
	{ Invalid; Invalid; (p01) nop }
	{ chk.a.nc	f0,3FFFFFFFFF054886; (p20) nop; break.i	0x80000 }
	{ Invalid; nop; break.i	0x80000 }
	{ (p03) chk.a.clr	r0,3FFFFFFFFFD17486; nop; brp.sptk	40000000000548E6 }
	{ Invalid; Invalid; Invalid }
	{ nop; (p32) nop; break.i	0x80000 }
	{ (p07) nop; nop; break.i	0x80000 }
	{ Invalid; mov	pr,0x4000; break.b	0x80000 }
	{ (p07) nop; (p03) nop; (p32) nop }
	{ (p20) chk.a.clr	f0,3FFFFFFFFF0D41E6; nop; break.i	0x80000 }
	{ Invalid; nop; break.b	0x80000 }
	{ (p03) chk.a.clr	f0,3FFFFFFFFFD17A16; nop; break.i	0x80000 }
	{ (p45) fwb; nop; break.b	0x80000 }
	{ (p03) chk.a.clr	f12,3FFFFFFFFFB17EF6; nop; (p16) nop }
	{ Invalid; nop; (p32) nop.b	0x36 }
	{ Invalid; (p21) nop; break.i	0x80000 }
	{ break.m	0x4000; nop; (p16) nop }
	{ break.m	0x4000; (p32) nop; (p16) nop }
	{ break.m	0x4000; nop; (p32) nop }
	{ chk.a.nc	r0,3FFFFFFFFF0549A6; nop; (p32) nop }
	{ Invalid; (p32) nop; break.b	0x80000 }
	{ Invalid; (p44) nop; break.b	0x80000 }
	{ break.m	0x4000; (p32) nop; (p16) nop }
	{ break.m	0x4000; nop; (p20) nop }
	{ nop; (p32) nop; (p20) nop }
	{ (p03) chk.a.clr	f0,3FFFFFFFFFD17DE6; nop; break.i	0x80000 }
	{ (p03) chk.a.clr	r0,3FFFFFFFFFD17D66; nop; break.i	0x80000 }
	{ Invalid; adds	r0,0x0,r1; (p33) nop }
	{ chk.a.nc	f0,3FFFFFFFFF054A36; (p21) nop; (p32) nop }
	{ Invalid; nop; break.i	0x80000 }
	{ (p03) chk.a.clr	r1,3FFFFFFFFFB17B36; nop; break.i	0x80000 }
	{ Invalid; (p32) nop; (p16) nop.b	0x56000 }
	{ break.m	0x4000; nop; nop }
	{ break.m	0x4000; (p32) nop; (p16) nop }
	{ mf.a; nop; nop }
	{ break.m	0x4000; Invalid; break.i	0x80000 }
	{ (p63) rum	0x17F857; Invalid; break.b	0x80000 }
	{ break.m	0xAA0D8; nop; break.i	0x80000 }
	{ Invalid; (p34) nop; (p32) nop }

l40000000000542E0:
	{ addl	r14,9044,r1; nop.m	0x0; nop.i	0x0; }
	{ ld4	r8,[r14]; mov	pr,r87,0xFFFFFFFFFFFFFFFE; mov.i	ar.pfs,r85; }
	{ nop.m	0x0; mov.i	LC,r88; mov.spnt	b0,r84,4000000000054300 }
	{ nop.m	0x0; adds	r12,0x30,r12; br.ret	b0 }
4000000000054320 08 50 05 00 00 24 00 00 00 02 00 00 00 00 04 00 .P...$..........
4000000000054330 09 A0 E1 03 33 24 80 A2 05 6E 48 20 0B 00 01 84 ....3$...nH ....
4000000000054340 0B 00 00 00 01 00 E0 00 D0 20 20 00 00 00 04 00 .........  .....
4000000000054350 11 00 38 50 90 11 00 00 00 02 00 00 78 6D FF 58 ..8P........xm.X
4000000000054360 11 08 00 AC 00 21 90 05 20 00 42 00 68 73 FC 58 .....!.. .B.hs.X
4000000000054370 11 08 00 AC 00 21 90 0D 20 00 42 00 58 49 09 50 .....!.. .B.XI.P
4000000000054380 08 08 00 AC 00 21 00 00 00 02 00 E0 04 40 00 84 .....!.......@..
4000000000054390 19 C8 02 40 00 21 00 00 00 02 00 00 38 6D FF 58 ...@.!......8m.X
40000000000543A0 08 C8 02 4E 00 21 00 00 00 02 00 20 00 B0 02 84 ...N.!..... ....
40000000000543B0 19 D0 02 10 00 21 00 00 00 02 00 00 D8 6D FC 58 .....!.......m.X
40000000000543C0 08 08 00 AC 00 21 00 00 00 02 00 20 0B 40 00 84 .....!..... .@..
40000000000543D0 19 D0 02 42 00 21 00 00 00 02 00 00 78 E3 02 50 ...B.!......x..P
40000000000543E0 08 38 00 10 86 39 10 00 58 01 42 E0 04 40 00 84 .8...9..X.B..@..
40000000000543F0 19 C8 02 44 00 21 A0 05 8C 00 C2 03 30 57 00 41 ...D.!......0W.A
4000000000054400 11 00 00 00 01 00 00 00 00 02 00 00 48 8A FF 58 ............H..X
4000000000054410 11 08 00 AC 00 21 00 00 00 02 00 00 F8 F6 03 50 .....!.........P
4000000000054420 11 08 00 AC 00 21 70 F8 8F 0C F7 03 90 01 00 43 .....!p........C

l4000000000054430:
	{ adds	r8,0x0,r0; mov	pr,r87,0xFFFFFFFFFFFFFFFE; mov.i	ar.pfs,r85; }
	{ nop.m	0x0; mov.i	LC,r88; mov.spnt	b0,r84,4000000000054440 }
	{ nop.m	0x0; adds	r12,0x30,r12; br.ret	b0; }

l4000000000054460:
	{ adds	r37,0x4,r32; nop.i	0x0; br.call.sptk.many	b0,throw_to_top_level; }
	{ adds	r1,0x0,r86; addl	r38,7404,r1; nop.i	0x0; }
	{ nop.m	0x0; nop.i	0x0; br.call.sptk.many	b0,run_pending_traps; }
	{ adds	r1,0x0,r86; ld4	r15,[r37]; nop.i	0x0; }
	{ nop.m	0x0; addl	r51,7084,r1; extr.u	r14,r15,2,1 }
	{ ld4	r16,[r38]; st8	[r32],r51; cmp4.eq	p06,p07,0x0,r16 }
	{ adds	r39,0x0,r14; adds	r53,0x0,r14; (p06) br.cond.dptk.few	4000000000053DC0 }

l40000000000544D0:
	{ nop.m	0x0; nop.i	0x0; br.cond.sptk.few	4000000000053DA0 }

l40000000000544E0:
	{ ld4.acq	r89,[r47]; nop.i	0x0; br.call.sptk.many	b0,termsig_handler; }
	{ adds	r1,0x0,r86; addl	r48,7684,r1; nop.i	0x0; }
	{ nop.m	0x0; ld4.acq	r14,[r48]; nop.i	0x0; }
	{ nop.m	0x0; cmp4.eq	p06,p07,0x0,r14; (p06) br.cond.dptk.few	4000000000053D40 }

l4000000000054520:
	{ nop.m	0x0; nop.i	0x0; br.cond.sptk.few	4000000000054460 }
4000000000054530 11 00 00 00 01 00 80 70 3C 12 28 04 B0 F9 FF 4A .......p<.(....J
4000000000054540 10 00 00 00 01 00 60 00 84 0E 73 03 30 08 00 42 ......`...s.0..B
4000000000054550 08 78 08 1E 2E 20 90 05 80 00 42 40 1B 00 00 90 .x... ....B@....
4000000000054560 09 D8 02 44 00 21 C0 05 8C 00 42 A0 0B 20 01 84 ...D.!....B.. ..
4000000000054570 11 00 3C 4A 90 11 00 00 00 02 00 00 D8 F6 FF 58 ..<J...........X
4000000000054580 03 08 00 AC 00 21 F0 BF C2 BF 05 00 50 05 AA 00 .....!......P...
4000000000054590 02 00 00 00 01 00 00 C0 06 55 00 00 40 0D 00 07 .........U..@...
40000000000545A0 19 00 00 00 01 00 C0 80 31 00 42 80 08 00 84 00 ........1.B.....
40000000000545B0 11 C8 02 42 00 21 A0 05 00 00 42 00 58 EE 02 50 ...B.!....B.X..P
40000000000545C0 11 08 00 AC 00 21 70 00 84 0C F3 03 10 01 00 43 .....!p........C
40000000000545D0 0B 70 D0 03 32 24 00 00 00 02 00 00 00 00 04 00 .p..2$..........
40000000000545E0 09 00 00 00 01 00 E0 00 38 20 20 00 00 00 04 00 ........8  .....
40000000000545F0 10 00 00 00 01 00 60 00 38 0E F3 03 B0 00 00 43 ......`.8......C
4000000000054600 11 00 00 00 01 00 00 00 00 02 00 00 88 AA 05 50 ...............P
4000000000054610 08 00 00 00 01 00 10 00 58 01 42 00 01 00 00 84 ........X.B.....
4000000000054620 03 00 00 00 01 00 F0 BF C2 BF 05 00 50 05 AA 00 ............P...
4000000000054630 02 00 00 00 01 00 00 C0 06 55 00 00 40 0D 00 07 .........U..@...
4000000000054640 19 00 00 00 01 00 C0 80 31 00 42 80 08 00 84 00 ........1.B.....
4000000000054650 08 C8 02 40 00 21 A0 05 84 00 42 60 0B 10 01 84 ...@.!....B`....
4000000000054660 19 E0 02 46 00 21 D0 05 90 00 42 00 68 74 00 50 ...F.!....B.ht.P
4000000000054670 03 08 00 AC 00 21 F0 BF C2 BF 05 00 50 05 AA 00 .....!......P...
4000000000054680 02 00 00 00 01 00 00 C0 06 55 00 00 40 0D 00 07 .........U..@...
4000000000054690 19 00 00 00 01 00 C0 80 31 00 42 80 08 00 84 00 ........1.B.....
40000000000546A0 11 C8 02 4E 00 21 00 00 00 02 00 00 E8 7E 02 50 ...N.!.......~.P
40000000000546B0 11 08 00 AC 00 21 00 00 00 02 00 00 D8 A9 05 50 .....!.........P
40000000000546C0 10 08 00 AC 00 21 80 00 00 00 42 00 60 FF FF 48 .....!....B.`..H
40000000000546D0 11 C8 0A 01 00 24 00 00 00 02 00 00 38 B5 05 50 .....$......8..P
40000000000546E0 08 00 00 00 01 00 60 00 20 0E 73 20 00 B0 02 84 ......`. .s ....
40000000000546F0 19 00 00 00 01 00 00 00 00 02 80 03 60 01 00 43 ............`..C
4000000000054700 C8 60 01 00 00 21 00 00 00 02 00 00 00 00 04 00 .`...!..........
4000000000054710 03 70 00 4A 10 10 90 05 9C 00 42 E0 41 70 00 52 .p.J......B.Ap.R
4000000000054720 08 38 01 1E 00 21 D0 02 3C 00 42 60 65 70 00 52 .8...!..<.B`ep.R
4000000000054730 19 00 00 00 01 00 00 00 00 02 00 00 18 B7 02 50 ...............P
4000000000054740 08 00 00 00 01 00 10 00 58 01 42 A0 04 40 00 84 ........X.B..@..
4000000000054750 19 00 00 00 01 00 60 00 9C 0E 73 03 30 00 00 42 ......`...s.0..B
4000000000054760 09 00 00 00 01 00 60 00 20 0E 73 00 00 00 04 00 ......`. .s.....
4000000000054770 C2 28 05 00 00 24 00 00 00 02 80 A3 04 00 00 84 .(...$..........
4000000000054780 01 48 51 03 46 24 B0 02 AC 20 00 C0 00 60 1D E6 .HQ.F$... ...`..
4000000000054790 09 00 00 00 01 00 00 00 00 02 00 00 00 00 04 00 ................
40000000000547A0 10 00 94 52 90 11 00 00 00 02 00 03 40 00 00 42 ...R........@..B
40000000000547B0 03 00 00 00 01 00 E0 00 9C 20 00 C0 E1 58 39 80 ......... ...X9.
40000000000547C0 11 00 00 00 01 00 70 00 38 0C 73 03 20 00 00 42 ......p.8.s. ..B
40000000000547D0 10 00 00 00 01 00 60 00 94 0E F3 03 C0 00 00 43 ......`........C
40000000000547E0 0B 70 04 56 2F 20 E0 50 39 18 40 00 00 00 04 00 .p.V/ .P9.@.....
40000000000547F0 11 30 00 1C 87 39 00 00 00 02 00 03 B0 FA FF 4B .0...9.........K
4000000000054800 11 38 00 5A 86 39 00 00 00 02 00 03 A0 FA FF 4B .8.Z.9.........K
4000000000054810 09 00 00 00 01 00 E0 00 98 20 20 00 00 00 04 00 .........  .....
4000000000054820 11 30 00 1C 87 39 00 00 00 02 00 03 80 FA FF 4B .0...9.........K
4000000000054830 11 30 00 4A 87 39 00 00 00 02 80 03 90 09 00 41 .0.J.9.........A
4000000000054840 10 40 00 52 10 10 00 00 00 02 00 00 70 FA FF 48 .@.R........p..H
4000000000054850 11 C8 0A 01 00 24 00 00 00 02 00 00 38 B4 05 50 .....$......8..P
4000000000054860 03 30 00 10 87 39 10 00 58 01 42 03 11 00 00 90 .0...9..X.B.....
4000000000054870 09 00 00 00 01 C0 81 00 00 00 42 00 00 00 04 00 ..........B.....
4000000000054880 10 00 00 00 01 00 C0 52 21 18 40 00 90 FE FF 48 .......R!.@....H
4000000000054890 08 00 00 00 01 00 E0 00 D0 20 20 E0 C4 62 00 84 .........  ..b..
40000000000548A0 0A 78 00 50 10 10 00 70 9C 60 23 00 00 00 04 00 .x.P...p.`#.....
40000000000548B0 19 00 3C 68 90 11 00 00 00 02 00 00 58 A6 05 50 ..<h........X..P
40000000000548C0 09 70 00 4E B0 10 00 00 00 02 00 20 00 B0 02 84 .p.N....... ....
40000000000548D0 10 00 38 68 90 11 00 00 00 02 00 00 10 FF FF 48 ..8h...........H
40000000000548E0 09 00 00 00 01 00 E0 80 80 00 42 00 00 00 04 00 ..........B.....
40000000000548F0 10 C8 02 1C 18 10 00 00 00 02 00 00 90 F6 FF 48 ...............H
4000000000054900 11 00 00 00 01 00 00 00 00 02 00 00 08 FC 05 50 ...............P
4000000000054910 11 00 00 00 01 00 10 00 58 01 42 00 20 F8 FF 48 ........X.B. ..H
4000000000054920 0B 70 F0 03 3B 24 00 00 00 02 00 00 00 00 04 00 .p..;$..........
4000000000054930 11 C8 02 1C B0 10 00 00 00 02 00 00 58 03 06 50 ............X..P
4000000000054940 09 78 00 60 B0 10 00 00 00 02 00 20 00 B0 02 84 .x.`....... ....
4000000000054950 10 00 00 00 01 00 60 00 3C 0E 73 03 E0 F7 FF 4A ......`.<.s....J
4000000000054960 10 00 00 00 01 00 00 00 00 02 00 00 A0 FF FF 48 ...............H
4000000000054970 09 C8 12 FB E7 27 00 00 00 02 00 00 02 40 45 E6 .....'.......@E.
4000000000054980 11 C8 02 B2 18 10 00 00 00 02 00 00 48 D7 05 50 ............H..P
4000000000054990 11 08 00 AC 00 21 60 00 F4 0E 73 03 20 F7 FF 49 .....!`...s. ..I
40000000000549A0 09 C8 12 FB E9 27 00 00 00 02 00 40 0B E0 01 84 .....'.....@....
40000000000549B0 11 C8 02 B2 18 10 00 00 00 02 00 00 58 D6 05 50 ............X..P
40000000000549C0 03 08 00 AC 00 61 A4 05 FC 00 C2 28 CB EE CF 9E .....a.....(....
40000000000549D0 31 CA 02 B2 18 10 00 00 00 02 80 08 38 D6 05 52 1...........8..R
40000000000549E0 08 00 00 00 01 00 E0 00 94 20 A0 28 00 B0 02 84 ......... .(....
40000000000549F0 09 00 00 00 01 00 F0 00 BC 60 21 00 00 00 04 00 .........`!.....
4000000000054A00 01 00 00 00 01 00 E0 30 38 00 29 C0 00 78 1C E6 .......08.)..x..
4000000000054A10 10 50 01 1C 00 21 80 02 38 00 42 03 00 F7 FF 4A .P...!..8.B....J
4000000000054A20 10 00 00 00 01 00 00 00 00 02 00 00 00 FF FF 48 ...............H
4000000000054A30 09 00 00 00 01 00 90 25 F6 CF 4F 00 00 00 04 00 .......%..O.....
4000000000054A40 11 C8 02 B2 18 10 00 00 00 02 00 00 48 D3 05 50 ............H..P
4000000000054A50 11 00 00 00 01 00 10 00 58 01 42 00 C0 F7 FF 48 ........X.B....H
4000000000054A60 09 28 11 FA 59 27 00 00 00 02 00 20 CB EB 9F 9F .(..Y'..... ....
4000000000054A70 0B 00 00 00 01 00 E0 40 94 00 42 00 00 00 04 00 .......@..B.....
4000000000054A80 09 00 00 00 01 00 A0 05 38 20 20 00 00 00 04 00 ........8  .....
4000000000054A90 11 30 FC B5 87 3B 00 00 00 02 00 03 40 00 00 43 .0...;......@..C
4000000000054AA0 08 00 00 00 01 00 90 05 64 31 20 00 00 00 04 00 ........d1 .....
4000000000054AB0 19 D8 02 4A 18 10 00 00 00 02 00 00 D8 C6 01 50 ...J...........P
4000000000054AC0 08 08 00 AC 00 21 00 00 00 02 00 00 00 00 04 00 .....!..........
4000000000054AD0 08 78 00 4A 00 21 40 81 94 00 42 60 C2 28 01 84 .x.J.!@...B`.(..
4000000000054AE0 09 90 60 4A 00 21 10 A1 94 00 42 C0 F1 E7 FF 9F ..`J.!....B.....
4000000000054AF0 08 40 00 1E 98 15 00 70 50 20 23 00 02 2A 01 84 .@.....pP #..*..
4000000000054B00 09 28 71 4A 00 21 80 C2 30 00 42 20 0B 00 01 84 .(qJ.!..0.B ....
4000000000054B10 09 00 38 26 90 11 00 70 48 20 23 C0 04 61 00 84 ..8&...pH #..a..
4000000000054B20 09 00 38 22 90 11 00 70 3C 20 23 C0 C1 09 D8 90 ..8"...p< #.....
4000000000054B30 08 00 00 00 01 00 00 00 00 02 00 00 00 00 04 00 ................
4000000000054B40 09 00 00 20 90 11 00 00 94 20 23 00 00 00 04 00 ... ..... #.....
4000000000054B50 11 00 00 1C 90 11 00 00 00 02 00 00 78 65 FF 58 ............xe.X
4000000000054B60 08 C8 02 50 00 21 00 00 00 02 00 A0 04 40 00 84 ...P.!.......@..
4000000000054B70 19 08 00 AC 00 21 00 00 00 02 00 00 58 BB FE 58 .....!......X..X
4000000000054B80 11 08 00 AC 00 21 90 85 30 00 42 00 48 BB FE 58 .....!..0.B.H..X
4000000000054B90 11 C8 02 4A 00 21 10 00 58 01 42 00 38 6B FC 58 ...J.!..X.B.8k.X
4000000000054BA0 11 08 00 AC 00 21 90 0D 20 00 42 00 28 41 09 50 .....!.. .B.(A.P
4000000000054BB0 08 D0 02 4A 00 21 00 00 00 02 00 20 00 B0 02 84 ...J.!..... ....
4000000000054BC0 19 C8 02 10 00 21 00 00 00 02 00 00 C8 65 FC 58 .....!.......e.X
4000000000054BD0 08 D0 06 00 00 24 00 00 00 02 00 20 00 B0 02 84 .....$..... ....
4000000000054BE0 19 C8 02 10 00 21 00 00 00 02 00 00 68 DB 02 50 .....!......h..P
4000000000054BF0 08 70 70 18 00 21 70 00 20 0C 73 00 00 00 04 00 .pp..!p. .s.....
4000000000054C00 19 08 00 AC 00 21 70 02 20 00 C2 03 80 4B 00 41 .....!p. ....K.A
4000000000054C10 11 C8 02 1C 10 10 00 C2 80 00 42 00 38 77 FC 58 ..........B.8w.X
4000000000054C20 11 C8 12 4C 10 14 10 00 58 01 42 00 28 77 FC 58 ...L....X.B.(w.X
4000000000054C30 09 70 00 40 18 10 10 00 58 01 42 40 0B 38 01 84 .p.@....X.B@.8..
4000000000054C40 09 00 00 00 01 00 E0 40 38 00 42 00 00 00 04 00 .......@8.B.....
4000000000054C50 11 C8 02 1C 18 10 00 00 00 02 00 00 F8 A6 FF 58 ...............X
4000000000054C60 08 70 00 50 10 10 00 61 20 00 42 00 05 41 00 84 .p.P...a .B..A..
4000000000054C70 09 08 00 AC 00 21 50 02 20 00 42 40 2B 00 00 90 .....!P. .B@+...
4000000000054C80 08 78 00 4C 10 10 00 00 00 02 00 20 0B 70 00 84 .x.L....... .p..
4000000000054C90 09 00 38 20 90 11 00 00 00 02 00 60 1B 00 00 90 ..8 .......`....
4000000000054CA0 11 00 3C 50 90 11 00 00 00 02 00 00 48 6B FC 58 ..<P........Hk.X
4000000000054CB0 08 D8 06 00 00 24 A0 15 00 00 48 00 00 00 04 00 .....$....H.....
4000000000054CC0 19 08 00 AC 00 21 90 05 A0 20 20 00 28 6B FC 58 .....!...  .(k.X
4000000000054CD0 11 08 00 AC 00 21 90 05 94 00 42 00 38 AB FF 58 .....!....B.8..X
4000000000054CE0 08 C8 02 44 00 21 00 00 00 02 00 40 0B 18 01 84 ...D.!.....@....
4000000000054CF0 19 08 00 AC 00 21 00 00 00 02 00 00 58 81 FF 58 .....!......X..X
4000000000054D00 11 08 00 AC 00 21 00 00 00 02 00 00 08 EE 03 50 .....!.........P
4000000000054D10 08 08 00 AC 00 21 00 00 00 02 00 20 1B 00 00 90 .....!..... ....
4000000000054D20 19 D0 02 00 00 21 00 00 00 02 00 00 E8 E6 02 50 .....!.........P
4000000000054D30 0B 08 00 AC 00 21 E0 A0 07 64 48 00 00 00 04 00 .....!...dH.....
4000000000054D40 0B 00 00 00 01 00 E0 00 38 20 20 00 00 00 04 00 ........8  .....
4000000000054D50 10 00 00 00 01 00 60 00 38 0E 73 03 B0 F8 FF 4A ......`.8.s....J
4000000000054D60 10 00 00 00 01 00 00 00 00 02 00 00 40 F9 FF 48 ............@..H
4000000000054D70 08 C8 02 40 00 21 A0 05 00 00 42 60 0B 10 01 84 ...@.!....B`....
4000000000054D80 19 E0 02 46 00 21 D0 05 90 00 42 00 08 7D 00 50 ...F.!....B..}.P
4000000000054D90 09 08 00 AC 00 21 00 00 CC 30 23 E0 7F 85 7F 0B .....!...0#.....
4000000000054DA0 01 00 00 00 01 00 00 A8 02 55 00 00 00 00 04 00 .........U......
4000000000054DB0 02 00 00 00 01 00 00 C0 06 55 00 00 40 0D 00 07 .........U..@...
4000000000054DC0 18 00 00 00 01 00 C0 80 31 00 42 80 08 00 84 00 ........1.B.....
4000000000054DD0 09 70 90 FB E9 27 00 00 00 02 00 60 BB 05 20 80 .p...'.....`.. .
4000000000054DE0 0B 70 00 1C 18 10 E0 D8 3A 24 40 00 00 00 04 00 .p......:$@.....
4000000000054DF0 0B 78 00 1C 18 10 E0 70 3C 00 40 00 00 00 04 00 .x.....p<.@.....
4000000000054E00 11 00 00 00 01 00 60 70 04 80 03 00 60 00 80 00 ......`p....`...
4000000000054E10 11 C8 0A 01 00 24 00 00 00 02 00 00 F8 AD 05 50 .....$.........P
4000000000054E20 11 30 00 10 87 39 10 00 58 01 C2 03 80 1F 00 43 .0...9..X......C
4000000000054E30 08 00 00 00 01 80 D1 02 00 00 42 83 05 50 41 00 ..........B..PA.
4000000000054E40 08 30 00 50 87 39 80 C2 80 00 42 80 86 0F CC 90 .0.P.9....B.....
4000000000054E50 09 58 B1 18 00 21 00 61 07 6E 48 20 42 E9 A3 9F .X...!.a.nH B...
4000000000054E60 E9 70 00 50 18 10 00 00 00 02 00 00 00 00 04 00 .p.P............
4000000000054E70 09 48 01 50 58 10 00 00 00 02 00 00 00 00 04 00 .H.PX...........
4000000000054E80 E9 78 00 1C 10 10 10 01 44 30 20 00 00 00 04 00 .x......D0 .....
4000000000054E90 E9 78 20 1E 2E 20 00 01 40 20 20 00 00 00 04 00 .x .. ..@  .....
4000000000054EA0 E8 00 3C 1C 90 11 F0 00 D0 20 20 C0 41 48 01 84 ..<......  .AH..
4000000000054EB0 08 48 3D 13 40 01 00 00 00 02 00 00 00 00 04 00 .H=.@...........
4000000000054EC0 01 40 D1 02 37 24 60 00 40 0E 73 00 00 00 04 00 .@..7$`.@.s.....
4000000000054ED0 08 00 3C 56 B0 11 00 78 A0 20 23 E0 C1 0C 18 91 ..<V...x. #.....
4000000000054EE0 09 00 00 00 01 00 E0 00 38 20 20 00 00 00 04 00 ........8  .....
4000000000054EF0 09 00 00 00 01 00 00 70 D0 20 23 00 00 00 04 00 .......p. #.....
4000000000054F00 10 00 44 1E 98 11 00 00 00 02 00 03 60 00 00 42 ..D.........`..B
4000000000054F10 0B 78 C0 03 32 24 00 00 00 02 00 00 00 00 04 00 .x..2$..........
4000000000054F20 0B 78 00 1E 10 10 60 00 3C 0E 73 00 00 00 04 00 .x....`.<.s.....
4000000000054F30 EB 78 F0 02 37 E4 F1 00 3C 20 20 00 00 00 04 00 .x..7...<  .....
4000000000054F40 09 00 00 00 01 C0 E1 70 3C 0A 40 00 00 00 04 00 .......p<.@.....
4000000000054F50 E8 00 38 68 90 11 00 00 00 02 00 00 00 00 04 00 ..8h............
4000000000054F60 09 70 70 02 36 24 00 00 00 02 00 20 0B 48 01 84 .pp.6$..... .H..
4000000000054F70 09 00 00 00 01 00 00 00 00 02 00 00 00 00 04 00 ................
4000000000054F80 11 00 00 1C 90 11 00 00 00 02 00 00 08 3F FF 58 .............?.X
4000000000054F90 11 08 00 AC 00 21 90 0D 02 00 48 00 F8 AD 05 50 .....!....H....P
4000000000054FA0 11 08 00 AC 00 21 70 00 20 0C 73 03 C0 00 00 42 .....!p. .s....B
4000000000054FB0 0B 28 B1 02 46 24 00 00 00 02 00 00 00 00 04 00 .(..F$..........
4000000000054FC0 09 00 00 00 01 00 90 05 94 30 20 00 00 00 04 00 .........0 .....
4000000000054FD0 11 30 00 B2 07 39 00 00 00 02 00 03 30 00 00 43 .0...9......0..C
4000000000054FE0 11 00 00 00 01 00 00 00 00 02 00 00 08 58 FC 58 .............X.X
4000000000054FF0 09 08 00 AC 00 21 00 00 00 02 00 00 00 00 04 00 .....!..........
4000000000055000 0B 50 91 02 36 24 00 00 00 02 00 00 00 00 04 00 .P..6$..........
4000000000055010 11 C8 02 54 18 10 00 00 00 02 00 00 B8 66 FC 58 ...T.........f.X
4000000000055020 11 08 00 AC 00 21 90 0D 20 00 42 00 A8 3C 09 50 .....!.. .B..<.P
4000000000055030 08 08 00 AC 00 21 00 00 00 02 00 20 0B 40 00 84 .....!..... .@..
4000000000055040 19 D0 02 54 18 10 00 00 00 02 00 00 48 61 FC 58 ...T........Ha.X
4000000000055050 08 08 00 AC 00 21 00 40 94 30 23 00 00 00 04 00 .....!.@.0#.....
4000000000055060 11 00 00 00 01 00 00 00 00 02 00 00 68 9C 05 50 ............h..P
4000000000055070 0B 08 00 AC 00 21 E0 40 06 64 48 00 00 00 04 00 .....!.@.dH.....
4000000000055080 0B 00 00 00 01 00 E0 00 38 20 20 00 00 00 04 00 ........8  .....
4000000000055090 11 30 00 1C 87 39 00 00 00 02 00 03 20 00 00 43 .0...9...... ..C
40000000000550A0 10 00 00 00 01 00 70 00 20 0C 73 03 B0 1D 00 43 ......p. .s....C
40000000000550B0 09 C8 02 52 00 21 00 00 00 02 00 20 45 0D 18 91 ...R.!..... E...
40000000000550C0 11 00 00 00 01 00 00 00 00 02 00 00 88 90 FF 58 ...............X
40000000000550D0 09 08 00 AC 00 21 00 00 00 02 00 40 05 40 00 84 .....!.....@.@..
40000000000550E0 08 00 20 52 90 11 00 00 00 02 00 00 00 00 04 00 .. R............
40000000000550F0 09 28 E1 03 33 24 E0 00 AC 60 21 C0 00 68 1D E6 .(..3$...`!..h..
4000000000055100 08 00 00 00 01 00 00 00 00 02 00 00 00 00 04 00 ................
4000000000055110 11 00 38 68 90 91 71 02 9C 20 00 03 50 00 00 42 ..8h..q.. ..P..B
4000000000055120 09 38 00 54 86 39 00 00 00 02 00 E0 04 38 41 00 .8.T.9.......8A.
4000000000055130 C3 80 04 00 00 24 F0 08 9C 5E C0 03 02 00 00 84 .....$...^......
4000000000055140 09 00 00 00 01 00 F0 78 40 18 40 00 00 00 04 00 .......x@.@.....
4000000000055150 10 00 00 00 01 00 60 00 3C 0E F3 03 80 22 00 43 ......`.<....".C
4000000000055160 09 00 00 00 01 00 70 3A B1 1C 40 00 00 00 04 00 ......p:..@.....
4000000000055170 10 00 00 00 01 00 70 00 9C 0C 73 03 30 F0 FF 4A ......p...s.0..J
4000000000055180 09 00 00 00 01 00 E0 00 98 20 20 00 00 00 04 00 .........  .....
4000000000055190 11 00 00 00 01 00 60 00 38 0E 73 03 10 F0 FF 4A ......`.8.s....J
40000000000551A0 10 00 00 00 01 00 60 00 A8 0E 73 03 F0 04 00 40 ......`...s....@
40000000000551B0 08 00 A8 52 90 11 00 00 00 02 00 00 00 00 04 00 ...R............
40000000000551C0 11 00 00 00 01 00 00 00 00 02 00 00 C8 9E 05 50 ...............P
40000000000551D0 11 08 00 AC 00 21 90 25 00 00 48 00 F8 F2 05 50 .....!.%..H....P
40000000000551E0 11 C8 0A 01 00 24 00 00 00 02 00 00 28 AA 05 50 .....$......(..P
40000000000551F0 11 30 00 10 87 39 10 00 58 01 C2 03 70 1B 00 43 .0...9..X...p..C
4000000000055200 08 00 00 00 01 80 01 03 00 00 42 83 05 50 41 00 ..........B..PA.
4000000000055210 08 30 00 50 87 39 80 C2 80 00 42 80 86 0F CC 90 .0.P.9....B.....
4000000000055220 09 80 30 03 46 24 10 E1 F4 CD 4F 60 C5 62 00 84 ..0.F$....O`.b..
4000000000055230 E9 70 00 50 18 10 00 00 00 02 00 00 00 00 04 00 .p.P............
4000000000055240 09 48 01 50 58 10 00 00 00 02 00 00 00 00 04 00 .H.PX...........
4000000000055250 E9 78 00 1C 10 10 E0 02 D0 20 20 00 00 00 04 00 .x.......  .....
4000000000055260 E8 78 20 1E 2E 20 10 01 44 30 20 00 00 00 04 00 .x .. ..D0 .....
4000000000055270 0A 00 B8 56 B0 D1 01 78 38 20 23 E0 C1 0E DC 90 ...V...x8 #.....
4000000000055280 08 70 10 52 00 21 90 A2 24 80 02 00 00 00 04 00 .p.R.!..$.......
4000000000055290 09 40 D1 02 37 24 00 00 00 02 00 00 00 00 04 00 .@..7$..........
40000000000552A0 08 00 00 00 01 00 00 70 A1 20 23 00 00 00 04 00 .......p. #.....
40000000000552B0 09 70 00 1C 10 10 00 88 40 30 23 00 00 00 04 00 .p......@0#.....
40000000000552C0 0B 00 38 68 90 11 F0 00 3C 20 20 00 00 00 04 00 ..8h....<  .....
40000000000552D0 10 00 00 00 01 00 60 00 3C 0E 73 03 60 00 00 42 ......`.<.s.`..B
40000000000552E0 0B 78 C0 03 32 24 00 00 00 02 00 00 00 00 04 00 .x..2$..........
40000000000552F0 0B 78 00 1E 10 10 60 00 3C 0E 73 00 00 00 04 00 .x....`.<.s.....
4000000000055300 EB 78 F0 02 37 E4 F1 00 3C 20 20 00 00 00 04 00 .x..7...<  .....
4000000000055310 09 00 00 00 01 C0 E1 70 3C 0A 40 00 00 00 04 00 .......p<.@.....
4000000000055320 E8 00 38 68 90 11 00 00 00 02 00 00 00 00 04 00 ..8h............
4000000000055330 09 70 70 02 36 24 00 00 00 02 00 20 85 48 01 84 .pp.6$..... .H..
4000000000055340 09 00 00 00 01 00 90 05 A4 30 20 00 00 00 04 00 .........0 .....
4000000000055350 11 00 00 1C 90 11 00 00 00 02 00 00 78 3A FF 58 ............x:.X
4000000000055360 11 08 00 AC 00 21 90 0D 02 00 48 00 28 AA 05 50 .....!....H.(..P
4000000000055370 11 08 00 AC 00 21 70 00 20 0C 73 03 C0 00 00 42 .....!p. .s....B
4000000000055380 0B 28 B1 02 46 24 00 00 00 02 00 00 00 00 04 00 .(..F$..........
4000000000055390 09 00 00 00 01 00 90 05 94 30 20 00 00 00 04 00 .........0 .....
40000000000553A0 11 30 00 B2 07 39 00 00 00 02 00 03 30 00 00 43 .0...9......0..C
40000000000553B0 11 00 00 00 01 00 00 00 00 02 00 00 38 54 FC 58 ............8T.X
40000000000553C0 09 08 00 AC 00 21 00 00 00 02 00 00 00 00 04 00 .....!..........
40000000000553D0 0B 50 91 02 36 24 00 00 00 02 00 00 00 00 04 00 .P..6$..........
40000000000553E0 11 C8 02 54 18 10 00 00 00 02 00 00 E8 62 FC 58 ...T.........b.X
40000000000553F0 11 08 00 AC 00 21 90 0D 20 00 42 00 D8 38 09 50 .....!.. .B..8.P
4000000000055400 08 08 00 AC 00 21 00 00 00 02 00 20 0B 40 00 84 .....!..... .@..
4000000000055410 19 D0 02 54 18 10 00 00 00 02 00 00 78 5D FC 58 ...T........x].X
4000000000055420 08 08 00 AC 00 21 00 40 94 30 23 00 00 00 04 00 .....!.@.0#.....
4000000000055430 11 00 00 00 01 00 00 00 00 02 00 00 98 98 05 50 ...............P
4000000000055440 0B 08 00 AC 00 21 E0 40 06 64 48 00 00 00 04 00 .....!.@.dH.....
4000000000055450 0B 00 00 00 01 00 E0 00 38 20 20 00 00 00 04 00 ........8  .....
4000000000055460 11 30 00 1C 87 39 00 00 00 02 00 03 30 00 00 43 .0...9......0..C
4000000000055470 09 00 00 00 01 00 70 00 20 0C 73 00 00 00 04 00 ......p. .s.....
4000000000055480 10 00 00 00 01 80 A1 02 00 00 42 03 70 01 00 43 ..........B.p..C
4000000000055490 11 C8 02 52 18 10 00 00 00 02 00 00 78 3C 05 50 ...R........x<.P
40000000000554A0 03 08 00 AC 00 21 90 02 20 00 42 C0 C1 0C E4 90 .....!.. .B.....
40000000000554B0 0B 00 00 00 01 00 E0 00 38 20 20 00 00 00 04 00 ........8  .....
40000000000554C0 11 00 00 00 01 00 60 00 38 0E F3 03 B0 1B 00 43 ......`.8......C
40000000000554D0 11 30 00 52 07 39 F0 42 A4 00 42 03 B0 31 00 43 .0.R.9.B..B..1.C
40000000000554E0 09 70 00 52 18 10 00 00 00 02 00 20 0B 48 01 84 .p.R....... .H..
40000000000554F0 11 30 00 1C 07 39 00 00 00 02 00 03 E0 2C 00 43 .0...9.......,.C
4000000000055500 11 00 00 00 01 00 00 00 00 02 00 00 48 97 03 50 ............H..P
4000000000055510 09 00 00 00 01 00 10 00 58 01 42 A0 05 40 00 84 ........X.B..@..
4000000000055520 09 28 A1 18 00 21 00 00 00 02 00 20 0B 68 01 84 .(...!..... .h..
4000000000055530 11 D0 02 4A 00 21 00 00 00 02 00 00 58 0B 02 50 ...J.!......X..P
4000000000055540 08 00 00 00 01 00 E0 00 BC 30 20 20 00 B0 02 84 .........0  ....
4000000000055550 09 50 01 10 00 21 00 70 D1 20 23 20 0B 68 01 84 .P...!.p. # .h..
4000000000055560 09 00 00 00 01 00 E0 00 38 30 20 00 00 00 04 00 ........80 .....
4000000000055570 11 30 38 5A 07 38 00 00 00 02 00 03 30 00 00 43 .08Z.8......0..C
4000000000055580 11 00 00 00 01 00 00 00 00 02 00 00 68 52 FC 58 ............hR.X
4000000000055590 08 08 00 AC 00 21 00 00 00 02 00 00 00 00 04 00 .....!..........
40000000000555A0 11 C8 02 52 00 21 00 00 00 02 00 00 28 66 FF 58 ...R.!......(f.X
40000000000555B0 09 70 00 4A 10 10 00 00 00 02 00 20 00 B0 02 84 .p.J....... ....
40000000000555C0 11 30 00 1C 87 39 00 00 00 02 00 03 20 18 00 43 .0...9...... ..C
40000000000555D0 09 00 00 00 01 00 60 00 A8 0E 72 00 00 00 04 00 ......`...r.....
40000000000555E0 C2 50 05 00 00 24 00 00 00 02 80 43 05 00 00 84 .P...$.....C....
40000000000555F0 09 70 00 56 B0 10 50 C2 07 66 48 C0 00 80 1D E6 .p.V..P..fH.....
4000000000055600 08 00 00 00 01 00 00 00 00 02 00 00 00 00 04 00 ................
4000000000055610 18 00 38 68 90 11 00 00 00 02 80 03 50 22 00 42 ..8h........P".B
4000000000055620 09 48 51 03 46 24 00 00 00 02 00 E0 04 38 41 00 .HQ.F$.......8A.
4000000000055630 08 00 00 00 01 00 00 00 00 02 00 00 00 00 04 00 ................
4000000000055640 09 00 00 00 01 00 70 3A B1 1C 40 00 00 00 04 00 ......p:..@.....
4000000000055650 10 00 00 00 01 00 70 00 9C 0C 73 03 50 EB FF 4A ......p...s.P..J
4000000000055660 09 00 00 00 01 00 E0 00 98 20 20 00 00 00 04 00 .........  .....
4000000000055670 11 00 00 00 01 00 60 00 38 0E 73 03 30 EB FF 4A ......`.8.s.0..J
4000000000055680 10 00 00 00 01 00 60 00 A8 0E F3 03 F0 44 00 41 ......`......D.A
4000000000055690 11 00 00 00 01 00 A0 02 00 00 42 00 10 EB FF 48 ..........B....H
40000000000556A0 11 30 00 42 87 39 00 00 00 02 80 03 90 2A 00 43 .0.B.9.......*.C
40000000000556B0 11 30 00 50 87 39 80 C2 80 00 42 03 60 00 00 42 .0.P.9....B.`..B
40000000000556C0 0B 70 00 50 18 10 E0 40 38 00 42 00 00 00 04 00 .p.P...@8.B.....
40000000000556D0 0B 70 00 1C 18 10 60 00 38 0E 72 00 00 00 04 00 .p....`.8.r.....
40000000000556E0 EB 70 10 1C 00 E1 F1 00 38 20 20 00 00 00 04 00 .p......8  .....
40000000000556F0 09 00 00 00 01 C0 F1 40 3C 5C 40 00 00 00 04 00 .......@<\@.....
4000000000055700 E8 00 3C 1C 90 11 00 00 00 02 00 00 00 00 04 00 ..<.............
4000000000055710 08 70 00 50 18 10 90 A2 06 8C 48 40 0B 00 00 84 .p.P......H@....
4000000000055720 09 D8 02 44 00 21 C0 05 8C 00 42 A0 0B 20 01 84 ...D.!....B.. ..
4000000000055730 09 70 20 1C 00 21 00 00 00 02 00 00 00 00 04 00 .p ..!..........
4000000000055740 11 C8 02 1C 18 10 00 00 00 02 00 00 08 E5 FF 58 ...............X
4000000000055750 11 08 00 AC 00 21 A0 02 20 00 42 00 50 EA FF 48 .....!.. .B.P..H
4000000000055760 08 30 00 50 87 39 00 00 00 02 00 00 85 01 01 84 .0.P.9..........
4000000000055770 09 48 51 03 46 24 00 00 00 02 00 40 0B 00 00 84 .HQ.F$.....@....
4000000000055780 E9 70 00 50 18 10 00 00 00 02 00 00 00 00 04 00 .p.P............
4000000000055790 0B C8 02 50 58 D0 F1 00 38 20 20 00 00 00 04 00 ...PX...8  .....
40000000000557A0 EB 78 20 1E 2E E0 01 78 38 20 23 00 00 00 04 00 .x ....x8 #.....
40000000000557B0 11 C8 02 50 18 11 00 00 00 02 00 00 58 90 00 50 ...P........X..P
40000000000557C0 11 08 00 AC 00 21 A0 02 20 00 42 00 E0 E9 FF 48 .....!.. .B....H
40000000000557D0 09 30 00 50 87 39 80 C2 80 00 42 80 86 0F CC 90 .0.P.9....B.....
40000000000557E0 E9 70 00 50 18 10 60 02 A0 B0 20 00 00 00 04 00 .p.P..`... .....
40000000000557F0 09 00 00 00 01 00 00 00 00 02 00 20 0B 30 01 84 ........... .0..
4000000000055800 09 00 00 00 01 C0 F1 00 38 20 20 00 00 00 04 00 ........8  .....
4000000000055810 E9 78 20 1E 2E 20 10 03 D0 20 20 00 00 00 04 00 .x .. ...  .....
4000000000055820 E9 00 3C 1C 90 11 F0 E0 04 6C 48 C0 41 30 01 84 ..<......lH.A0..
4000000000055830 08 00 00 00 01 00 60 DA 21 80 02 00 00 00 04 00 ......`.!.......
4000000000055840 09 00 00 00 01 00 00 00 00 02 00 00 00 00 04 00 ................
4000000000055850 0A 70 00 1C 10 10 00 70 D0 20 23 00 00 00 04 00 .p.....p. #.....
4000000000055860 19 00 00 1E 90 11 00 00 00 02 00 00 E8 33 FF 58 .............3.X
4000000000055870 0B 08 00 AC 00 21 E0 60 06 72 48 00 00 00 04 00 .....!.`.rH.....
4000000000055880 0B 00 00 00 01 00 E0 00 38 20 20 00 00 00 04 00 ........8  .....
4000000000055890 10 00 00 00 01 00 60 00 38 0E F3 03 A0 15 00 43 ......`.8......C
40000000000558A0 11 C8 06 01 00 24 00 00 00 02 00 00 E8 A4 05 50 .....$.........P
40000000000558B0 11 08 00 AC 00 21 70 00 20 0C 73 03 F0 00 00 42 .....!p. .s....B
40000000000558C0 0B 70 90 02 47 24 00 00 00 02 00 00 00 00 04 00 .p..G$..........
40000000000558D0 09 00 00 00 01 00 E0 00 38 20 20 00 00 00 04 00 ........8  .....
40000000000558E0 10 00 00 00 01 00 70 00 38 0C 73 03 C0 00 00 42 ......p.8.s....B
40000000000558F0 0B 28 B1 02 46 24 00 00 00 02 00 00 00 00 04 00 .(..F$..........
4000000000055900 09 00 00 00 01 00 90 05 94 30 20 00 00 00 04 00 .........0 .....
4000000000055910 11 30 00 B2 07 39 00 00 00 02 00 03 30 00 00 43 .0...9......0..C
4000000000055920 11 00 00 00 01 00 00 00 00 02 00 00 C8 4E FC 58 .............N.X
4000000000055930 09 08 00 AC 00 21 00 00 00 02 00 00 00 00 04 00 .....!..........
4000000000055940 0B 38 91 02 36 24 00 00 00 02 00 00 00 00 04 00 .8..6$..........
4000000000055950 11 C8 02 4E 18 10 00 00 00 02 00 00 78 5D FC 58 ...N........x].X
4000000000055960 11 08 00 AC 00 21 90 0D 20 00 42 00 68 33 09 50 .....!.. .B.h3.P
4000000000055970 08 08 00 AC 00 21 00 00 00 02 00 20 0B 40 00 84 .....!..... .@..
4000000000055980 19 D0 02 4E 18 10 00 00 00 02 00 00 08 58 FC 58 ...N.........X.X
4000000000055990 08 08 00 AC 00 21 00 40 94 30 23 00 00 00 04 00 .....!.@.0#.....
40000000000559A0 11 00 00 00 01 00 00 00 00 02 00 00 28 93 05 50 ............(..P
40000000000559B0 0B 08 00 AC 00 21 E0 40 06 64 48 00 00 00 04 00 .....!.@.dH.....
40000000000559C0 0B 00 00 00 01 00 E0 00 38 20 20 00 00 00 04 00 ........8  .....
40000000000559D0 11 30 00 1C 87 39 00 00 00 02 00 03 20 00 00 43 .0...9...... ..C
40000000000559E0 10 00 00 00 01 00 60 00 20 0E F3 03 60 16 00 43 ......`. ...`..C
40000000000559F0 09 70 20 4C 00 21 00 00 00 02 00 40 0B 00 00 84 .p L.!.....@....
4000000000055A00 11 C8 02 1C 18 10 00 00 00 02 00 00 08 14 05 50 ...............P
4000000000055A10 08 30 00 10 07 39 10 00 58 01 42 00 00 00 04 00 .0...9..X.B.....
4000000000055A20 19 28 01 10 00 21 90 05 20 00 42 03 40 2D 00 43 .(...!.. .B.@-.C
4000000000055A30 11 00 00 00 01 00 00 00 00 02 00 00 18 92 03 50 ...............P
4000000000055A40 08 00 00 00 01 00 10 00 58 01 42 60 05 40 00 84 ........X.B`.@..
4000000000055A50 11 C8 02 4A 00 21 A0 02 00 00 42 00 78 61 FF 58 ...J.!....B.xa.X
4000000000055A60 09 08 00 AC 00 21 50 82 98 20 28 00 00 00 04 00 .....!P.. (.....
4000000000055A70 09 C8 12 FA E8 27 00 00 00 02 00 A0 84 28 B1 80 .....'.......(..
4000000000055A80 11 C8 02 B2 18 10 20 01 94 26 73 00 48 C6 05 50 ...... ..&s.H..P
4000000000055A90 03 08 00 AC 00 21 A0 05 AC 00 42 20 4B EE CB 9E .....!....B K...
4000000000055AA0 11 C8 02 B2 18 10 00 00 00 02 00 00 68 C5 05 50 ............h..P
4000000000055AB0 09 08 00 AC 00 21 90 02 98 30 20 00 00 00 04 00 .....!...0 .....
4000000000055AC0 08 70 F1 03 3B 24 D0 82 07 76 48 00 00 00 04 00 .p..;$...vH.....
4000000000055AD0 19 30 00 52 07 39 C0 E2 07 6C 48 03 70 02 00 43 .0.R.9...lH.p..C
4000000000055AE0 09 00 00 00 01 00 00 00 00 02 00 00 00 00 04 00 ................
4000000000055AF0 08 00 00 00 01 00 00 00 00 02 00 00 00 00 04 00 ................
4000000000055B00 09 00 00 00 01 00 E0 00 BC 60 21 00 00 00 04 00 .........`!.....
4000000000055B10 11 30 00 1C 87 39 00 00 00 02 80 03 F0 14 00 43 .0...9.........C
4000000000055B20 09 00 00 00 01 00 E0 00 C0 60 21 00 00 00 04 00 .........`!.....
4000000000055B30 10 00 00 00 01 00 60 00 38 0E F3 03 80 14 00 43 ......`.8......C
4000000000055B40 0B 70 20 52 00 21 50 02 38 30 20 00 00 00 04 00 .p R.!P.80 .....
4000000000055B50 11 00 00 00 01 00 60 00 94 0E 72 03 D0 01 00 43 ......`...r....C
4000000000055B60 09 78 20 4A 00 21 00 00 00 02 00 40 0B 00 00 84 .x J.!.....@....
4000000000055B70 11 C8 02 1E 18 10 00 00 00 02 00 00 98 13 05 50 ...............P
4000000000055B80 08 78 20 10 00 21 10 00 58 01 42 00 00 00 04 00 .x ..!..X.B.....
4000000000055B90 19 30 01 10 00 21 60 00 20 0E 72 03 70 00 00 43 .0...!`. .r.p..C
4000000000055BA0 09 00 00 00 01 00 F0 00 3C 30 20 00 00 00 04 00 ........<0 .....
4000000000055BB0 11 30 00 1E 07 39 00 00 00 02 00 03 50 00 00 43 .0...9......P..C
4000000000055BC0 09 00 00 00 01 00 90 05 3C 30 20 00 00 00 04 00 ........<0 .....
4000000000055BD0 11 30 00 B2 07 39 00 00 00 02 00 03 30 00 00 43 .0...9......0..C
4000000000055BE0 0B 80 00 B2 00 10 00 00 00 02 00 00 02 80 50 00 ..............P.
4000000000055BF0 10 00 00 00 01 00 60 00 40 0E F3 03 A0 13 00 43 ......`.@......C
4000000000055C00 11 C8 06 00 00 24 00 00 00 02 00 00 C8 30 09 50 .....$.......0.P
4000000000055C10 08 08 00 AC 00 21 00 00 00 02 00 E0 04 40 00 84 .....!.......@..
4000000000055C20 09 00 00 10 80 11 00 00 00 02 00 00 00 00 04 00 ................
4000000000055C30 08 78 00 58 10 10 A0 05 AC 00 42 20 0B 38 01 84 .x.X......B .8..
4000000000055C40 0B 80 00 5A 10 10 60 00 40 0E 73 00 01 78 24 E6 ...Z..`.@.s..x$.
4000000000055C50 09 79 00 00 00 21 00 00 00 02 00 63 0B 00 00 84 .y...!.....c....
4000000000055C60 29 79 40 00 00 24 00 00 00 02 80 63 0B 02 00 90 )y@..$.....c....
4000000000055C70 11 D8 6E 1F 0E 20 00 00 00 02 00 00 D8 BF 0C 50 ..n.. .........P
4000000000055C80 08 08 00 AC 00 21 00 00 00 02 00 00 05 40 00 84 .....!.......@..
4000000000055C90 19 C8 02 4E 00 21 00 00 00 02 00 00 58 4B FC 58 ...N.!......XK.X
4000000000055CA0 11 08 00 AC 00 21 90 05 98 00 42 00 28 5F FF 58 .....!....B.(_.X
4000000000055CB0 11 08 00 AC 00 21 60 08 A0 0E F3 03 A0 12 00 43 .....!`........C
4000000000055CC0 09 00 00 00 01 00 F0 00 BC 60 21 00 00 00 04 00 .........`!.....
4000000000055CD0 11 30 00 1E 87 39 00 00 00 02 80 03 E0 11 00 43 .0...9.........C
4000000000055CE0 09 00 00 00 01 00 F0 00 C0 60 21 00 00 00 04 00 .........`!.....
4000000000055CF0 10 00 00 00 01 00 60 00 3C 0E F3 03 80 11 00 43 ......`.<......C
4000000000055D00 09 00 00 00 01 00 50 02 94 30 20 00 00 00 04 00 ......P..0 .....
4000000000055D10 10 00 00 00 01 00 70 00 94 0C 72 03 50 FE FF 4A ......p...r.P..J
4000000000055D20 09 00 00 00 01 00 90 02 A4 30 20 00 00 00 04 00 .........0 .....
4000000000055D30 10 00 00 00 01 00 70 00 A4 0C 72 03 D0 FD FF 4A ......p...r....J
4000000000055D40 09 48 51 03 46 24 00 00 00 02 00 20 0B 58 01 84 .HQ.F$..... .X..
4000000000055D50 11 00 00 00 01 00 00 00 00 02 00 00 98 4A FC 58 .............J.X
4000000000055D60 0B 08 00 AC 00 21 90 25 F4 D1 4F 00 00 00 04 00 .....!.%..O.....
4000000000055D70 11 C8 02 B2 18 10 00 00 00 02 00 00 18 C0 05 50 ...............P
4000000000055D80 08 00 00 00 01 00 10 00 58 01 42 00 00 00 04 00 ........X.B.....
4000000000055D90 18 00 C4 68 90 11 00 00 00 02 00 00 10 E4 FF 48 ...h...........H
4000000000055DA0 09 40 61 40 00 21 F0 00 94 20 20 00 00 00 04 00 .@a@.!...  .....
4000000000055DB0 03 70 00 50 18 10 70 32 3C 00 29 00 82 71 00 84 .p.P..p2<.)..q..
4000000000055DC0 09 00 00 00 01 00 B0 05 40 20 20 00 00 00 04 00 ........@  .....
4000000000055DD0 11 30 F0 B7 87 39 00 00 00 02 00 03 20 24 00 43 .0...9...... $.C
4000000000055DE0 11 00 00 00 01 00 60 E0 6F 0F 63 03 E0 1A 00 42 ......`.o.c....B
4000000000055DF0 11 30 98 B6 87 39 00 00 00 02 00 03 10 26 00 43 .0...9.......&.C
4000000000055E00 10 00 00 00 01 00 60 D8 6D 0F 73 03 90 12 00 43 ......`.m.s....C
4000000000055E10 09 C8 32 FA E8 27 A0 15 00 00 48 80 0B 00 00 84 ..2..'....H.....
4000000000055E20 11 C8 02 B2 18 10 00 00 00 02 00 00 68 BB 01 50 ............h..P
4000000000055E30 10 08 00 AC 00 21 90 15 00 00 48 00 98 E6 05 50 .....!....H....P
4000000000055E40 09 30 00 50 87 39 80 C2 80 00 42 40 1B 00 00 90 .0.P.9....B@....
4000000000055E50 E9 70 00 50 18 10 60 02 A0 B0 20 00 00 00 04 00 .p.P..`... .....
4000000000055E60 0B 38 21 4C 00 E1 F1 00 38 20 20 00 00 00 04 00 .8!L....8  .....
4000000000055E70 EB 78 20 1E 2E E0 01 78 38 20 23 00 00 00 04 00 .x ....x8 #.....
4000000000055E80 08 00 00 00 01 00 60 C2 1E 80 02 00 00 00 04 00 ......`.........
4000000000055E90 08 00 00 00 01 00 00 00 00 02 00 00 00 00 04 00 ................
4000000000055EA0 19 C8 02 4E 18 10 00 00 00 02 00 00 28 99 FE 58 ...N........(..X
4000000000055EB0 10 08 00 AC 00 21 60 00 20 0E F3 03 00 0C 00 43 .....!`. ......C
4000000000055EC0 09 50 05 00 00 24 00 00 00 02 00 00 00 00 04 00 .P...$..........
4000000000055ED0 09 00 00 00 01 00 90 A2 06 8C 48 00 00 00 04 00 ..........H.....
4000000000055EE0 10 00 00 00 01 00 00 00 00 02 00 00 C0 E2 FF 48 ...............H
4000000000055EF0 08 30 00 50 87 39 00 00 00 02 00 00 85 01 01 84 .0.P.9..........
4000000000055F00 09 A0 E1 03 33 24 00 00 00 02 00 40 1B 00 00 90 ....3$.....@....
4000000000055F10 E9 70 00 50 18 10 00 00 00 02 00 00 00 00 04 00 .p.P............
4000000000055F20 0A 30 01 50 58 D0 F1 00 38 20 20 A0 84 30 01 84 .0.PX...8  ..0..
4000000000055F30 0B C8 01 68 10 D0 F1 40 3C 5C 40 00 00 00 04 00 ...h...@<\@.....
4000000000055F40 EA 00 3C 1C 90 11 60 72 1E 80 02 00 00 00 04 00 ..<...`r........
4000000000055F50 08 00 00 00 01 00 00 00 00 02 00 00 00 00 04 00 ................
4000000000055F60 19 C8 02 4A 18 10 00 00 00 02 00 00 68 98 FE 58 ...J........h..X
4000000000055F70 11 08 00 AC 00 21 70 00 20 0C 73 03 80 1B 00 43 .....!p. .s....C
4000000000055F80 0B 70 E0 02 32 24 00 00 00 02 00 00 00 00 04 00 .p..2$..........
4000000000055F90 09 00 00 00 01 00 E0 00 38 20 20 00 00 00 04 00 ........8  .....
4000000000055FA0 10 00 00 00 01 00 60 00 38 0E 73 03 20 FF FF 4B ......`.8.s. ..K
4000000000055FB0 0B 70 C0 03 32 24 00 00 00 02 00 00 00 00 04 00 .p..2$..........
4000000000055FC0 09 00 00 00 01 00 E0 00 38 20 20 00 00 00 04 00 ........8  .....
4000000000055FD0 10 00 00 00 01 00 70 00 38 0C 73 03 F0 FE FF 48 ......p.8.s....H
4000000000055FE0 09 70 50 03 46 24 F0 10 00 00 48 20 4B 00 00 90 .pP.F$....H K...
4000000000055FF0 09 00 00 00 01 00 00 00 00 02 00 00 00 00 04 00 ................
4000000000056000 10 00 3C 1C 90 11 00 00 00 02 00 00 C8 E4 05 50 ..<............P
4000000000056010 08 30 00 50 87 39 80 C2 80 00 42 00 00 00 04 00 .0.P.9....B.....
4000000000056020 09 08 B2 02 41 24 40 C3 07 66 48 00 C2 E9 9B 9F ....A$@..fH.....
4000000000056030 E9 70 00 50 18 10 00 00 00 02 00 00 00 00 04 00 .p.P............
4000000000056040 09 00 00 00 01 00 00 01 40 30 20 00 00 00 04 00 ........@0 .....
4000000000056050 E2 78 00 1C 10 10 00 00 00 02 80 E3 81 78 B8 80 .x...........x..
4000000000056060 0A 30 01 68 10 D0 01 78 38 20 23 00 00 00 04 00 .0.h...x8 #.....
4000000000056070 0B 70 00 82 10 10 80 02 A0 30 20 E0 11 70 00 84 .p.......0 ..p..
4000000000056080 09 70 00 50 10 10 00 78 04 21 23 00 00 00 04 00 .p.P...x.!#.....
4000000000056090 03 00 00 00 01 00 60 30 38 0E A8 C3 01 42 01 84 ......`08....B..
40000000000560A0 EB 70 00 1C 18 D0 E1 20 38 00 42 00 00 00 04 00 .p..... 8.B.....
40000000000560B0 EB 78 00 1C 10 D0 F1 40 3C 5C 40 00 00 00 04 00 .x.....@<\@.....
40000000000560C0 E9 00 3C 1C 90 11 E0 20 A0 00 42 E0 C1 0C 18 91 ..<.... ..B.....
40000000000560D0 08 00 00 00 01 00 70 02 38 20 20 C0 C1 0E DC 90 ......p.8  .....
40000000000560E0 09 00 00 00 01 00 00 00 00 02 00 00 00 00 04 00 ................
40000000000560F0 09 00 00 00 01 00 00 38 D1 20 23 00 00 00 04 00 .......8. #.....
4000000000056100 0B 00 40 1E 98 11 E0 00 38 20 20 00 00 00 04 00 ..@.....8  .....
4000000000056110 10 00 00 00 01 00 60 00 38 0E 73 03 60 00 00 42 ......`.8.s.`..B
4000000000056120 0B 70 C0 03 32 24 00 00 00 02 00 00 00 00 04 00 .p..2$..........
4000000000056130 0B 70 00 1C 10 10 60 00 38 0E 73 00 00 00 04 00 .p....`.8.s.....
4000000000056140 EB 70 F0 02 37 E4 F1 00 38 20 A0 C3 81 0F CC 90 .p..7...8 ......
4000000000056150 09 00 00 00 01 C0 F1 38 3D 0A 40 00 00 00 04 00 .......8=.@.....
4000000000056160 E8 00 3C 1C 90 11 00 00 00 02 00 00 00 00 04 00 ..<.............
4000000000056170 08 70 20 50 00 21 50 42 31 00 42 C0 05 41 01 84 .p P.!PB1.B..A..
4000000000056180 09 B0 81 50 00 21 A0 02 00 00 42 00 85 41 01 84 ...P.!....B..A..
4000000000056190 11 C8 02 1C 18 10 A0 05 94 00 42 00 78 7A FF 58 ..........B.xz.X
40000000000561A0 09 08 00 AC 00 21 E0 00 94 20 20 00 00 00 04 00 .....!...  .....
40000000000561B0 08 60 C1 03 32 24 20 E3 07 76 48 00 00 00 04 00 .`..2$ ..vH.....
40000000000561C0 19 88 91 02 41 24 70 00 38 0C F3 03 E0 16 00 43 ....A$p.8......C
40000000000561D0 09 00 00 00 01 00 00 00 00 02 00 00 00 00 04 00 ................
40000000000561E0 08 00 00 00 01 00 00 00 00 02 00 00 00 00 04 00 ................
40000000000561F0 08 C8 02 5C 18 10 00 00 00 02 00 40 0B 28 01 84 ...\.......@.(..
4000000000056200 19 00 9C 68 90 11 00 00 00 02 00 00 08 7A FF 58 ...h.........z.X
4000000000056210 08 70 00 4A 10 10 00 00 00 02 00 20 00 B0 02 84 .p.J....... ....
4000000000056220 09 00 98 68 90 11 00 00 00 02 00 60 05 40 00 84 ...h.......`.@..
4000000000056230 11 38 00 1C 86 39 00 00 00 02 80 03 70 01 00 43 .8...9......p..C
4000000000056240 09 00 00 00 01 00 E0 00 B0 20 20 00 00 00 04 00 .........  .....
4000000000056250 11 00 00 00 01 00 70 00 38 0C F3 03 A0 01 00 43 ......p.8......C
4000000000056260 11 30 00 56 07 39 00 00 00 02 00 03 50 01 00 43 .0.V.9......P..C
4000000000056270 09 00 00 00 01 00 E0 00 BC 60 21 00 00 00 04 00 .........`!.....
4000000000056280 11 30 00 1C 87 39 00 00 00 02 80 03 90 01 00 43 .0...9.........C
4000000000056290 09 00 00 00 01 00 E0 00 C0 60 21 00 00 00 04 00 .........`!.....
40000000000562A0 10 00 00 00 01 00 60 00 38 0E F3 03 10 02 00 43 ......`.8......C
40000000000562B0 11 C8 02 6C 18 10 00 00 00 02 00 00 D8 82 00 50 ...l...........P
40000000000562C0 09 70 00 5E B0 10 10 00 58 01 42 40 05 40 00 84 .p.^....X.B@.@..
40000000000562D0 10 00 00 00 01 00 60 00 38 0E F3 03 A0 01 00 43 ......`.8......C
40000000000562E0 09 00 00 00 01 00 E0 00 C0 60 21 00 00 00 04 00 .........`!.....
40000000000562F0 10 00 00 00 01 00 60 00 38 0E F3 03 60 01 00 43 ......`.8...`..C
4000000000056300 09 00 00 00 01 00 E0 00 A4 20 20 00 00 00 04 00 .........  .....
4000000000056310 11 30 00 1C 87 39 00 00 00 02 80 03 80 24 00 43 .0...9.......$.C
4000000000056320 09 00 00 00 01 00 E0 00 B4 20 20 00 00 00 04 00 .........  .....
4000000000056330 11 38 00 1C 86 39 E0 F8 3B 7E C6 03 20 00 00 43 .8...9..;~.. ..C
4000000000056340 10 00 38 62 90 11 60 00 38 0E F3 03 70 00 00 43 ..8b..`.8...p..C
4000000000056350 08 00 9C 68 90 11 90 05 A0 30 20 40 0B 28 01 84 ...h.....0 @.(..
4000000000056360 19 00 00 00 01 00 00 00 00 02 00 00 A8 78 FF 58 .............x.X
4000000000056370 08 00 00 00 01 00 E0 00 94 20 20 20 00 B0 02 84 .........   ....
4000000000056380 09 00 00 00 01 00 00 30 D1 20 23 00 00 00 04 00 .......0. #.....
4000000000056390 10 00 00 00 01 00 60 00 38 0E F3 03 60 FE FF 4A ......`.8...`..J
40000000000563A0 08 50 05 00 00 24 00 00 00 02 00 00 00 00 04 00 .P...$..........
40000000000563B0 08 00 00 00 01 00 E0 00 04 21 20 20 45 0D 18 91 .........!  E...
40000000000563C0 09 00 00 00 01 00 00 30 D1 20 23 00 00 00 04 00 .......0. #.....
40000000000563D0 09 70 FC 1D 3F 23 00 00 00 02 00 00 00 00 04 00 .p..?#..........
40000000000563E0 10 00 38 82 90 11 00 00 00 02 00 00 C0 DD FF 48 ..8............H
40000000000563F0 11 00 00 00 01 00 00 00 00 02 00 00 18 87 02 50 ...............P
4000000000056400 10 00 00 00 01 00 10 00 58 01 42 00 60 FE FF 48 ........X.B.`..H
4000000000056410 11 C8 02 64 B0 10 00 00 00 02 00 00 78 E8 05 50 ...d........x..P
4000000000056420 09 70 00 60 B0 10 00 00 00 02 00 20 00 B0 02 84 .p.`....... ....
4000000000056430 10 00 00 00 01 00 60 00 38 0E 73 03 80 FE FF 4A ......`.8.s....J
4000000000056440 10 00 00 00 01 00 00 00 00 02 00 00 70 00 00 40 ............p..@
4000000000056450 11 00 00 00 01 00 00 00 00 02 00 00 B8 E0 05 50 ...............P
4000000000056460 10 00 00 00 01 00 10 00 58 01 42 00 A0 FE FF 48 ........X.B....H
4000000000056470 11 C8 02 64 B0 10 00 00 00 02 00 00 18 E8 05 50 ...d...........P
4000000000056480 09 70 00 60 B0 10 00 00 00 02 00 20 00 B0 02 84 .p.`....... ....
4000000000056490 10 00 00 00 01 00 60 00 38 0E 73 03 70 FE FF 4A ......`.8.s.p..J
40000000000564A0 10 00 00 00 01 00 00 00 00 02 00 00 B0 FF FF 48 ...............H
40000000000564B0 11 00 00 00 01 00 00 00 00 02 00 00 58 E0 05 50 ............X..P
40000000000564C0 08 00 00 00 01 00 10 00 58 01 42 00 00 00 04 00 ........X.B.....
40000000000564D0 19 C8 02 6C 18 10 00 00 00 02 00 00 B8 80 00 50 ...l...........P
40000000000564E0 09 70 00 5E B0 10 10 00 58 01 42 40 05 40 00 84 .p.^....X.B@.@..
40000000000564F0 10 00 00 00 01 00 60 00 38 0E 73 03 F0 FD FF 4A ......`.8.s....J
4000000000056500 11 00 00 00 01 00 00 00 00 02 00 00 70 FF FF 48 ............p..H
4000000000056510 08 30 00 50 87 39 00 00 00 02 00 00 85 01 01 84 .0.P.9..........
4000000000056520 09 48 51 03 46 24 00 00 00 02 00 40 1B 00 00 90 .HQ.F$.....@....
4000000000056530 E9 70 00 50 18 10 00 00 00 02 00 00 00 00 04 00 .p.P............
4000000000056540 0B C8 02 50 58 D0 F1 00 38 20 20 00 00 00 04 00 ...PX...8  .....
4000000000056550 EB 78 20 1E 2E E0 01 78 38 20 23 00 00 00 04 00 .x ....x8 #.....
4000000000056560 11 C8 02 50 18 11 00 00 00 02 00 00 A8 82 00 50 ...P...........P
4000000000056570 11 08 00 AC 00 21 A0 02 20 00 42 00 30 DC FF 48 .....!.. .B.0..H
4000000000056580 09 70 60 40 00 21 00 00 00 02 00 A0 84 0B C8 90 .p`@.!..........
4000000000056590 09 70 00 1C 18 10 00 00 00 02 00 00 00 00 04 00 .p..............
40000000000565A0 09 78 20 1C 00 21 00 00 00 02 00 C0 01 71 00 84 .x ..!.......q..
40000000000565B0 09 30 01 1E 18 10 70 02 38 30 20 00 00 00 04 00 .0....p.80 .....
40000000000565C0 11 D0 02 4A 10 10 90 05 98 00 42 00 08 92 FE 58 ...J......B....X
40000000000565D0 11 08 00 AC 00 21 70 00 20 0C 73 03 40 14 00 43 .....!p. .s.@..C
40000000000565E0 09 00 00 00 01 00 E0 00 94 20 20 00 00 00 04 00 .........  .....
40000000000565F0 10 00 00 00 01 00 70 00 38 0C 73 03 C0 F9 FF 4A ......p.8.s....J
4000000000056600 10 00 00 00 01 00 A0 0A 00 00 48 00 D0 F8 FF 48 ..........H....H
4000000000056610 08 A0 E1 03 33 24 E0 A2 07 5A 48 00 00 00 04 00 ....3$...ZH.....
4000000000056620 09 58 B1 18 00 21 90 82 31 00 42 20 2B 04 00 90 .X...!..1.B +...
4000000000056630 09 00 00 00 01 00 00 00 00 02 00 00 00 00 04 00 ................
4000000000056640 09 78 00 68 10 10 E0 00 B8 20 20 00 00 00 04 00 .x.h.....  .....
4000000000056650 08 00 00 00 01 00 00 78 AC 60 23 00 00 00 04 00 .......x.`#.....
4000000000056660 19 00 38 52 B0 11 00 00 00 02 00 00 A8 95 05 50 ..8R...........P
4000000000056670 11 30 00 10 87 39 10 00 58 01 C2 03 80 07 00 43 .0...9..X......C
4000000000056680 08 00 00 00 01 80 D1 02 00 00 42 83 05 50 41 00 ..........B..PA.
4000000000056690 11 30 00 50 87 39 80 C2 80 00 42 03 40 00 00 42 .0.P.9....B.@..B
40000000000566A0 0B 70 00 50 18 10 60 00 38 0E 72 00 00 00 04 00 .p.P..`.8.r.....
40000000000566B0 E3 78 00 1C 10 10 00 00 00 02 80 E3 81 78 B8 80 .x...........x..
40000000000566C0 E8 00 3C 1C 90 11 00 00 00 02 00 00 00 00 04 00 ..<.............
40000000000566D0 08 70 00 4A 10 10 A0 05 88 00 42 60 0B 18 01 84 .p.J......B`....
40000000000566E0 09 E0 02 42 00 21 90 05 A0 B0 20 A0 0B 20 01 84 ...B.!.... .. ..
40000000000566F0 01 00 00 00 01 00 60 A0 38 0E 28 00 00 00 04 00 ......`.8.(.....
4000000000056700 E9 70 00 50 18 10 00 00 00 02 80 03 02 00 20 90 .p.P.......... .
4000000000056710 09 00 00 00 01 C0 F1 00 38 20 20 00 00 00 04 00 ........8  .....
4000000000056720 EA 78 40 1E 0E E0 01 78 38 20 23 C0 41 C8 02 84 .x@....x8 #.A...
4000000000056730 08 C8 46 0D 40 01 00 00 00 02 00 00 00 00 04 00 ..F.@...........
4000000000056740 01 00 00 00 01 00 80 A2 05 6E 48 00 00 00 04 00 .........nH.....
4000000000056750 0A 70 00 1C 10 10 00 70 D0 20 23 00 00 00 04 00 .p.....p. #.....
4000000000056760 19 00 38 50 90 11 00 00 00 02 00 00 28 A7 FF 58 ..8P........(..X
4000000000056770 09 70 00 56 B0 10 10 00 58 01 42 40 05 40 00 84 .p.V....X.B@.@..
4000000000056780 11 00 38 68 90 11 00 00 00 02 00 00 C8 50 01 50 ..8h.........P.P
4000000000056790 0B 08 00 AC 00 21 E0 E0 07 72 48 00 00 00 04 00 .....!...rH.....
40000000000567A0 0B 00 00 00 01 00 E0 00 38 20 20 00 00 00 04 00 ........8  .....
40000000000567B0 11 00 00 00 01 00 60 00 38 0E 73 03 20 00 00 42 ......`.8.s. ..B
40000000000567C0 11 00 00 00 01 00 70 F8 8F 0C F7 03 C0 0C 00 43 ......p........C
40000000000567D0 10 00 00 00 01 00 60 00 B4 0E F3 03 70 0E 00 42 ......`.....p..B
40000000000567E0 09 48 51 03 46 24 00 00 00 02 00 E0 04 38 41 00 .HQ.F$.......8A.
40000000000567F0 08 00 00 00 01 00 00 00 00 02 00 00 00 00 04 00 ................
4000000000056800 09 00 00 00 01 00 70 3A B1 1C 40 00 00 00 04 00 ......p:..@.....
4000000000056810 10 00 00 00 01 00 70 00 9C 0C 73 03 90 D9 FF 4A ......p...s....J
4000000000056820 0B 70 E0 02 32 24 00 00 00 02 00 00 00 00 04 00 .p..2$..........
4000000000056830 09 00 00 00 01 00 E0 00 38 20 20 00 00 00 04 00 ........8  .....
4000000000056840 10 00 00 00 01 00 60 00 38 0E 73 03 60 00 00 42 ......`.8.s.`..B
4000000000056850 0B 70 D0 03 32 24 00 00 00 02 00 00 00 00 04 00 .p..2$..........
4000000000056860 09 00 00 00 01 00 E0 00 38 20 20 00 00 00 04 00 ........8  .....
4000000000056870 10 00 00 00 01 00 70 00 38 0C 73 03 30 00 00 42 ......p.8.s.0..B
4000000000056880 0B 70 E0 02 37 24 E0 00 38 20 20 00 00 00 04 00 .p..7$..8  .....
4000000000056890 10 00 00 00 01 00 70 00 38 0C 73 03 20 E9 FF 49 ......p.8.s. ..I
40000000000568A0 09 00 00 00 01 00 E0 00 98 20 20 00 00 00 04 00 .........  .....
40000000000568B0 11 00 00 00 01 00 60 00 38 0E 73 03 F0 D8 FF 4A ......`.8.s....J
40000000000568C0 09 40 FC 45 89 3B 00 00 00 02 00 C0 F0 1F 1D EE .@.E.;..........
40000000000568D0 C9 18 05 00 00 24 00 00 00 02 00 44 14 00 00 90 .....$.....D....
40000000000568E0 E3 18 01 00 00 61 22 02 00 00 42 40 24 1A 31 80 .....a"...B@$.1.
40000000000568F0 11 00 00 00 01 00 60 00 88 0E 73 03 B0 D8 FF 4A ......`...s....J
4000000000056900 11 38 00 54 86 39 00 00 00 02 00 03 B0 E8 FF 49 .8.T.9.........I
4000000000056910 10 00 00 00 01 00 A0 02 00 00 42 00 90 D8 FF 48 ..........B....H
4000000000056920 09 30 00 50 87 39 80 C2 80 00 42 C0 84 0F CC 90 .0.P.9....B.....
4000000000056930 E9 70 00 50 18 10 50 02 A0 B0 20 00 00 00 04 00 .p.P..P... .....
4000000000056940 0B 00 00 00 01 C0 F1 00 38 20 20 00 00 00 04 00 ........8  .....
4000000000056950 E9 78 20 1E 2E 20 70 02 98 20 20 00 00 00 04 00 .x .. p..  .....
4000000000056960 08 00 00 00 01 C0 01 78 38 20 23 C0 81 28 01 84 .......x8 #..(..
4000000000056970 09 28 BD 0C 40 01 00 00 00 02 00 00 00 00 04 00 .(..@...........
4000000000056980 01 C8 02 1C 18 10 00 00 00 02 00 00 00 00 04 00 ................
4000000000056990 0B 70 10 B2 00 21 F0 00 38 20 20 00 00 00 04 00 .p...!..8  .....
40000000000569A0 09 00 00 00 01 00 F0 40 3C 5C 40 00 00 00 04 00 .......@<\@.....
40000000000569B0 11 00 3C 1C 90 11 00 00 00 02 00 00 D8 7B 00 50 ..<..........{.P
40000000000569C0 08 70 00 5E B0 10 00 00 00 02 00 20 00 B0 02 84 .p.^....... ....
40000000000569D0 09 00 9C 4C 90 11 00 00 00 02 00 E0 00 40 18 E6 ...L.........@..
40000000000569E0 10 00 00 00 01 00 00 00 00 02 00 03 50 0D 00 42 ............P..B
40000000000569F0 11 30 00 1C 87 39 00 00 00 02 80 03 30 0B 00 43 .0...9......0..C
4000000000056A00 09 00 00 00 01 00 E0 00 C0 60 21 00 00 00 04 00 .........`!.....
4000000000056A10 10 00 00 00 01 00 60 00 38 0E F3 03 20 0A 00 43 ......`.8... ..C
4000000000056A20 0B 70 40 4A 00 21 90 05 38 30 20 00 00 00 04 00 .p@J.!..80 .....
4000000000056A30 10 00 00 00 01 00 60 00 64 0F 72 03 50 00 00 43 ......`.d.r.P..C
4000000000056A40 0B 70 00 4A 10 10 00 00 00 02 00 C0 60 70 1C 50 .p.J........`p.P
4000000000056A50 EB 70 10 B2 00 E1 F1 00 38 20 20 00 00 00 04 00 .p......8  .....
4000000000056A60 09 00 00 00 01 C0 F1 40 3C 5C 40 00 00 00 04 00 .......@<\@.....
4000000000056A70 E8 00 3C 1C 90 11 00 00 00 02 00 00 00 00 04 00 ..<.............
4000000000056A80 09 00 00 00 01 00 90 A2 06 8C 48 00 00 00 04 00 ..........H.....
4000000000056A90 11 00 00 00 01 00 00 00 00 02 00 00 F8 7A 00 50 .............z.P
4000000000056AA0 11 08 00 AC 00 21 A0 02 20 00 42 00 00 D7 FF 48 .....!.. .B....H
4000000000056AB0 08 A0 E1 03 33 24 00 00 00 02 00 E0 C1 09 D8 90 ....3$..........
4000000000056AC0 09 58 12 4C 00 21 00 00 00 02 00 20 0B 30 01 84 .X.L.!..... .0..
4000000000056AD0 09 00 00 00 01 00 00 00 00 02 00 00 00 00 04 00 ................
4000000000056AE0 0A 70 00 96 10 10 40 04 D0 20 20 00 00 00 04 00 .p....@..  .....
4000000000056AF0 19 00 00 1E 90 11 00 70 D0 20 23 00 98 1F FF 58 .......p. #....X
4000000000056B00 0B 08 00 AC 00 21 E0 60 06 72 48 00 00 00 04 00 .....!.`.rH.....
4000000000056B10 0B 00 00 00 01 00 E0 00 38 20 20 00 00 00 04 00 ........8  .....
4000000000056B20 10 00 00 00 01 00 60 00 38 0E F3 03 90 08 00 43 ......`.8......C
4000000000056B30 11 C8 06 01 00 24 00 00 00 02 00 00 58 92 05 50 .....$......X..P
4000000000056B40 11 08 00 AC 00 21 70 00 20 0C 73 03 F0 00 00 42 .....!p. .s....B
4000000000056B50 0B 70 90 02 47 24 00 00 00 02 00 00 00 00 04 00 .p..G$..........
4000000000056B60 09 00 00 00 01 00 E0 00 38 20 20 00 00 00 04 00 ........8  .....
4000000000056B70 10 00 00 00 01 00 70 00 38 0C 73 03 C0 00 00 42 ......p.8.s....B
4000000000056B80 0B 28 B1 02 46 24 00 00 00 02 00 00 00 00 04 00 .(..F$..........
4000000000056B90 09 00 00 00 01 00 90 05 94 30 20 00 00 00 04 00 .........0 .....
4000000000056BA0 11 30 00 B2 07 39 00 00 00 02 00 03 30 00 00 43 .0...9......0..C
4000000000056BB0 11 00 00 00 01 00 00 00 00 02 00 00 38 3C FC 58 ............8<.X
4000000000056BC0 09 08 00 AC 00 21 00 00 00 02 00 00 00 00 04 00 .....!..........
4000000000056BD0 0B 40 91 02 36 24 00 00 00 02 00 00 00 00 04 00 .@..6$..........
4000000000056BE0 11 C8 02 50 18 10 00 00 00 02 00 00 E8 4A FC 58 ...P.........J.X
4000000000056BF0 11 08 00 AC 00 21 90 0D 20 00 42 00 D8 20 09 50 .....!.. .B.. .P
4000000000056C00 08 08 00 AC 00 21 00 00 00 02 00 20 0B 40 00 84 .....!..... .@..
4000000000056C10 19 D0 02 50 18 10 00 00 00 02 00 00 78 45 FC 58 ...P........xE.X
4000000000056C20 08 08 00 AC 00 21 00 40 94 30 23 00 00 00 04 00 .....!.@.0#.....
4000000000056C30 11 00 00 00 01 00 00 00 00 02 00 00 98 80 05 50 ...............P
4000000000056C40 0B 08 00 AC 00 21 E0 40 06 64 48 00 00 00 04 00 .....!.@.dH.....
4000000000056C50 0B 00 00 00 01 00 E0 00 38 20 20 00 00 00 04 00 ........8  .....
4000000000056C60 11 30 00 1C 87 39 00 00 00 02 00 03 20 00 00 43 .0...9...... ..C
4000000000056C70 10 00 00 00 01 00 70 00 20 0C 73 03 E0 03 00 43 ......p. .s....C
4000000000056C80 09 08 B2 02 41 24 F0 00 9C 30 20 00 02 31 01 84 ....A$...0 ..1..
4000000000056C90 09 00 00 00 01 00 90 05 40 30 20 00 00 00 04 00 ........@0 .....
4000000000056CA0 0B 98 02 1E 18 10 E0 00 04 21 20 00 00 00 04 00 .........! .....
4000000000056CB0 09 00 00 00 01 00 E0 08 38 00 42 00 00 00 04 00 ........8.B.....
4000000000056CC0 11 00 38 82 90 11 00 00 00 02 00 00 48 24 05 50 ..8.........H$.P
4000000000056CD0 08 08 00 AC 00 21 00 00 00 02 00 C0 06 40 00 84 .....!.......@..
4000000000056CE0 19 C8 02 10 00 21 00 00 00 02 00 00 E8 21 08 50 .....!.......!.P
4000000000056CF0 09 30 00 6C 07 39 10 00 58 01 42 40 07 40 00 84 .0.l.9..X.B@.@..
4000000000056D00 C9 40 02 00 00 38 00 00 00 02 80 23 09 00 00 E0 .@...8.....#....
4000000000056D10 13 40 00 10 C9 79 02 18 0E 80 21 03 30 00 00 43 .@...y....!.0..C
4000000000056D20 11 00 00 00 01 00 90 05 D8 00 42 00 A8 4E FF 58 ..........B..N.X
4000000000056D30 09 08 00 AC 00 21 00 00 00 02 00 00 00 00 04 00 .....!..........
4000000000056D40 09 48 51 03 46 24 00 20 D2 20 23 40 05 00 00 84 .HQ.F$. . #@....
4000000000056D50 10 00 00 00 01 00 00 00 00 02 00 00 50 D4 FF 48 ............P..H
4000000000056D60 11 C8 0A 01 00 24 C0 02 A8 20 00 00 28 8F 05 50 .....$... ..(..P
4000000000056D70 09 30 00 10 87 39 E0 08 B0 5E 40 20 00 B0 02 84 .0...9...^@ ....
4000000000056D80 CB 40 04 00 00 E4 81 00 00 00 42 00 00 00 04 00 .@........B.....
4000000000056D90 10 00 00 00 01 00 00 73 20 18 40 00 80 E4 FF 48 .......s .@....H
4000000000056DA0 11 C8 0A 01 00 24 C0 02 A8 20 00 00 E8 8E 05 50 .....$... .....P
4000000000056DB0 09 30 00 10 87 39 E0 08 B0 5E 40 20 00 B0 02 84 .0...9...^@ ....
4000000000056DC0 CB 40 04 00 00 E4 81 00 00 00 42 00 00 00 04 00 .@........B.....
4000000000056DD0 10 00 00 00 01 00 D0 72 20 18 40 00 70 E0 FF 48 .......r .@.p..H
4000000000056DE0 11 00 00 00 01 00 A0 0A 00 00 48 00 10 E8 FF 48 ..........H....H
4000000000056DF0 11 C8 0A 01 00 24 C0 02 A8 20 00 00 98 8E 05 50 .....$... .....P
4000000000056E00 09 30 00 10 87 39 E0 08 B0 5E 40 20 00 B0 02 84 .0...9...^@ ....
4000000000056E10 CB 40 04 00 00 E4 81 00 00 00 42 00 00 00 04 00 .@........B.....
4000000000056E20 10 00 00 00 01 00 D0 72 20 18 40 00 70 F8 FF 48 .......r .@.p..H
4000000000056E30 11 C8 02 4C 00 21 00 00 00 02 00 00 98 1E FF 58 ...L.!.........X
4000000000056E40 11 00 00 00 01 00 10 00 58 01 42 00 60 EA FF 48 ........X.B.`..H
4000000000056E50 09 48 51 03 46 24 00 00 00 02 00 40 05 00 00 84 .HQ.F$.....@....
4000000000056E60 10 00 00 00 01 00 00 00 00 02 00 00 90 E2 FF 48 ...............H
4000000000056E70 11 00 00 00 01 00 00 00 00 02 00 00 98 D6 05 50 ...............P
4000000000056E80 09 28 01 4A 18 10 00 00 00 02 00 20 00 B0 02 84 .(.J....... ....
4000000000056E90 10 00 00 00 01 00 70 00 94 0C 72 03 D0 EC FF 4A ......p...r....J
4000000000056EA0 10 00 00 00 01 00 00 00 00 02 00 00 80 EE FF 48 ...............H
4000000000056EB0 11 C8 02 5C B0 10 00 00 00 02 00 00 D8 DD 05 50 ...\...........P
4000000000056EC0 09 78 00 60 B0 10 00 00 00 02 00 20 00 B0 02 84 .x.`....... ....
4000000000056ED0 10 00 00 00 01 00 60 00 3C 0E 73 03 30 EE FF 4A ......`.<.s.0..J
4000000000056EE0 10 00 00 00 01 00 00 00 00 02 00 00 90 FF FF 48 ...............H
4000000000056EF0 11 00 00 00 01 00 00 00 00 02 00 00 98 76 00 50 .............v.P
4000000000056F00 09 70 60 52 00 21 10 00 58 01 42 40 05 40 00 84 .p`R.!..X.B@.@..
4000000000056F10 09 00 00 00 01 00 E0 00 38 20 20 00 00 00 04 00 ........8  .....
4000000000056F20 11 00 00 00 01 00 60 00 38 0E 28 03 E0 06 00 43 ......`.8.(....C
4000000000056F30 09 00 00 00 01 00 90 02 A4 30 20 00 00 00 04 00 .........0 .....
4000000000056F40 10 00 00 00 01 00 70 00 A4 0C F2 03 00 EE FF 4B ......p........K
4000000000056F50 0B 70 40 52 00 21 90 05 38 30 20 00 00 00 04 00 .p@R.!..80 .....
4000000000056F60 71 72 10 B2 00 21 60 00 64 0F 72 03 90 FF FF 4B qr...!`.d.r....K
4000000000056F70 6B 7A 00 1C 10 D0 F4 40 3C 5C 40 00 00 00 04 00 kz.....@<\@.....
4000000000056F80 70 02 3C 1C 90 11 00 00 00 02 00 00 70 FF FF 48 p.<.........p..H
4000000000056F90 11 D0 06 00 00 24 00 00 00 02 00 00 B8 BB 05 50 .....$.........P
4000000000056FA0 10 08 00 AC 00 21 70 02 20 00 42 00 90 EC FF 48 .....!p. .B....H
4000000000056FB0 11 00 00 00 01 00 00 00 00 02 00 00 58 D5 05 50 ............X..P
4000000000056FC0 09 70 20 52 00 21 00 00 00 02 00 20 00 B0 02 84 .p R.!..... ....
4000000000056FD0 09 00 00 00 01 00 50 02 38 30 20 00 00 00 04 00 ......P.80 .....
4000000000056FE0 10 00 00 00 01 00 60 00 94 0E F2 03 80 EB FF 4A ......`........J
4000000000056FF0 10 00 00 00 01 00 00 00 00 02 00 00 30 ED FF 48 ............0..H
4000000000057000 11 C8 02 5C B0 10 00 00 00 02 00 00 88 DC 05 50 ...\...........P
4000000000057010 09 70 00 60 B0 10 00 00 00 02 00 20 00 B0 02 84 .p.`....... ....
4000000000057020 10 00 00 00 01 00 60 00 38 0E 73 03 20 EB FF 4A ......`.8.s. ..J
4000000000057030 10 00 00 00 01 00 00 00 00 02 00 00 80 FF FF 48 ...............H
4000000000057040 08 00 C4 68 90 11 00 00 00 02 00 00 00 00 04 00 ...h............
4000000000057050 09 48 51 03 46 24 00 00 00 02 00 40 05 00 00 84 .HQ.F$.....@....
4000000000057060 10 00 00 00 01 00 00 00 00 02 00 00 40 D1 FF 48 ............@..H
4000000000057070 11 C8 02 10 00 21 00 00 00 02 00 00 18 23 FF 58 .....!.......#.X
4000000000057080 10 00 00 00 01 00 10 00 58 01 42 00 50 E4 FF 48 ........X.B.P..H
4000000000057090 10 00 00 00 01 00 70 00 9C 0C F3 03 80 00 00 42 ......p........B
40000000000570A0 09 78 20 1C 00 21 00 00 00 02 00 C0 01 71 00 84 .x ..!.......q..
40000000000570B0 09 78 00 1E 18 10 E0 00 38 30 20 00 00 00 04 00 .x......80 .....
40000000000570C0 0B 30 00 1E 07 F9 F1 20 3C 00 42 00 00 00 04 00 .0..... <.B.....
40000000000570D0 EB 80 00 1E 10 D0 01 41 40 5C 40 00 00 00 04 00 .......A@\@.....
40000000000570E0 E3 00 40 1E 90 11 60 00 38 0E F2 C3 41 70 00 84 ..@...`.8...Ap..
40000000000570F0 E3 78 00 1C 10 10 00 00 00 02 80 E3 81 78 B8 80 .x...........x..
4000000000057100 E8 00 3C 1C 90 11 00 00 00 02 00 00 00 00 04 00 ..<.............
4000000000057110 09 28 21 02 37 24 F0 00 BC 60 21 00 00 00 04 00 .(!.7$...`!.....
4000000000057120 03 70 00 4A 10 10 60 00 3C 0E 73 C0 11 70 00 84 .p.J..`.<.s..p..
4000000000057130 11 00 38 4A 90 11 00 00 00 02 80 03 30 02 00 43 ..8J........0..C
4000000000057140 09 00 00 00 01 00 E0 00 C0 60 21 00 00 00 04 00 .........`!.....
4000000000057150 10 00 00 00 01 00 60 00 38 0E F3 03 B0 01 00 43 ......`.8......C
4000000000057160 0B 70 00 50 18 10 E0 40 38 00 42 00 00 00 04 00 .p.P...@8.B.....
4000000000057170 11 C8 02 1C 18 10 00 00 00 02 00 00 18 74 00 50 .............t.P
4000000000057180 09 70 00 5E B0 10 00 00 00 02 00 20 00 B0 02 84 .p.^....... ....
4000000000057190 10 00 00 00 01 00 60 00 38 0E F3 03 20 01 00 43 ......`.8... ..C
40000000000571A0 09 00 00 00 01 00 E0 00 C0 60 21 00 00 00 04 00 .........`!.....
40000000000571B0 10 00 00 00 01 00 60 00 38 0E F3 03 80 00 00 43 ......`.8......C
40000000000571C0 08 70 00 50 18 10 90 A2 06 8C 48 40 0B 08 01 84 .p.P......H@....
40000000000571D0 09 D8 02 44 00 21 C0 05 8C 00 42 A0 0B 20 01 84 ...D.!....B.. ..
40000000000571E0 09 70 40 1C 00 21 00 00 00 02 00 00 00 00 04 00 .p@..!..........
40000000000571F0 11 C8 02 1C 18 10 00 00 00 02 00 00 58 CA FF 58 ............X..X
4000000000057200 09 70 00 4A 10 10 10 00 58 01 42 40 05 40 00 84 .p.J....X.B@.@..
4000000000057210 09 00 00 00 01 00 E0 F8 3B 7E 46 00 00 00 04 00 ........;~F.....
4000000000057220 10 00 38 4A 90 11 00 00 00 02 00 00 80 CF FF 48 ..8J...........H
4000000000057230 11 00 00 00 01 00 00 00 00 02 00 00 D8 D2 05 50 ...............P
4000000000057240 08 08 00 AC 00 21 E0 00 A0 30 20 40 0B 08 01 84 .....!...0 @....
4000000000057250 09 D8 02 44 00 21 C0 05 8C 00 42 A0 0B 20 01 84 ...D.!....B.. ..
4000000000057260 02 70 40 1C 00 21 90 A2 06 8C 48 00 00 00 04 00 .p@..!....H.....
4000000000057270 19 C8 02 1C 18 10 00 00 00 02 00 00 D8 C9 FF 58 ...............X
4000000000057280 09 70 00 4A 10 10 10 00 58 01 42 40 05 40 00 84 .p.J....X.B@.@..
4000000000057290 09 00 00 00 01 00 E0 F8 3B 7E 46 00 00 00 04 00 ........;~F.....
40000000000572A0 10 00 38 4A 90 11 00 00 00 02 00 00 00 CF FF 48 ..8J...........H
40000000000572B0 0B 70 F0 03 3B 24 00 00 00 02 00 00 00 00 04 00 .p..;$..........
40000000000572C0 11 C8 02 1C B0 10 00 00 00 02 00 00 C8 D9 05 50 ...............P
40000000000572D0 09 70 00 60 B0 10 00 00 00 02 00 20 00 B0 02 84 .p.`....... ....
40000000000572E0 10 00 00 00 01 00 60 00 38 0E 73 03 E0 FE FF 4A ......`.8.s....J
40000000000572F0 10 00 00 00 01 00 00 00 00 02 00 00 40 FF FF 48 ............@..H
4000000000057300 11 00 00 00 01 00 00 00 00 02 00 00 08 D2 05 50 ...............P
4000000000057310 03 70 00 50 18 10 10 00 58 01 42 C0 81 70 00 84 .p.P....X.B..p..
4000000000057320 11 C8 02 1C 18 10 00 00 00 02 00 00 68 72 00 50 ............hr.P
4000000000057330 09 70 00 5E B0 10 00 00 00 02 00 20 00 B0 02 84 .p.^....... ....
4000000000057340 10 00 00 00 01 00 60 00 38 0E 73 03 60 FE FF 4A ......`.8.s.`..J
4000000000057350 10 00 00 00 01 00 00 00 00 02 00 00 60 FF FF 48 ............`..H
4000000000057360 0B 70 F0 03 3B 24 00 00 00 02 00 00 00 00 04 00 .p..;$..........
4000000000057370 11 C8 02 1C B0 10 00 00 00 02 00 00 18 D9 05 50 ...............P
4000000000057380 09 70 00 60 B0 10 00 00 00 02 00 20 00 B0 02 84 .p.`....... ....
4000000000057390 10 00 00 00 01 00 60 00 38 0E 73 03 D0 FD FF 4A ......`.8.s....J
40000000000573A0 10 00 00 00 01 00 00 00 00 02 00 00 60 FF FF 48 ............`..H
40000000000573B0 11 C8 02 4C 00 21 00 00 00 02 00 00 98 17 FF 58 ...L.!.........X
40000000000573C0 10 00 00 00 01 00 10 00 58 01 42 00 70 F7 FF 48 ........X.B.p..H
40000000000573D0 08 78 00 50 10 10 00 70 AC 60 23 00 00 00 04 00 .x.P...p.`#.....
40000000000573E0 09 00 A8 52 90 11 00 00 00 02 00 E0 74 62 39 80 ...R........tb9.
40000000000573F0 11 00 3C 4A 90 11 00 00 00 02 00 00 18 7B 05 50 ..<J.........{.P
4000000000057400 09 70 00 56 B0 10 10 00 58 01 42 E0 00 38 19 E6 .p.V....X.B..8..
4000000000057410 10 00 38 4A 90 11 00 00 00 02 00 03 90 CD FF 4A ..8J...........J
4000000000057420 10 00 00 00 01 00 00 00 00 02 00 00 60 DD FF 48 ............`..H
4000000000057430 11 00 00 00 01 00 00 00 00 02 00 00 D8 D0 05 50 ...............P
4000000000057440 09 70 40 4A 00 21 00 00 00 02 00 20 00 B0 02 84 .p@J.!..... ....
4000000000057450 09 00 00 00 01 00 90 05 38 30 20 00 00 00 04 00 ........80 .....
4000000000057460 10 00 00 00 01 00 60 00 64 0F F2 03 E0 F5 FF 4A ......`.d......J
4000000000057470 10 00 00 00 01 00 00 00 00 02 00 00 10 F6 FF 48 ...............H
4000000000057480 08 00 00 00 01 00 E0 00 A4 60 21 A0 44 0F B4 90 .........`!.D...
4000000000057490 0A 78 00 5C 10 10 00 00 00 02 00 C0 E0 78 1C E2 .x.\.........x..
40000000000574A0 19 00 00 00 01 00 00 00 00 02 00 03 30 F3 FF 4B ............0..K
40000000000574B0 11 C8 02 42 00 21 A0 05 00 00 42 00 58 BF 02 50 ...B.!....B.X..P
40000000000574C0 11 08 00 AC 00 21 60 00 84 0E 73 03 90 26 00 43 .....!`...s..&.C
40000000000574D0 0B 70 D0 03 32 24 00 00 00 02 00 00 00 00 04 00 .p..2$..........
40000000000574E0 09 00 00 00 01 00 E0 00 38 20 20 00 00 00 04 00 ........8  .....
40000000000574F0 10 00 00 00 01 00 60 00 38 0E 73 03 E0 F2 FF 4A ......`.8.s....J
4000000000057500 11 C8 02 4A 10 10 00 00 00 02 00 00 88 50 02 50 ...J.........P.P
4000000000057510 11 00 00 00 01 00 10 00 58 01 42 00 C0 F2 FF 48 ........X.B....H
4000000000057520 0B 70 F0 03 3B 24 00 00 00 02 00 00 00 00 04 00 .p..;$..........
4000000000057530 11 C8 02 1C B0 10 00 00 00 02 00 00 58 D7 05 50 ............X..P
4000000000057540 09 70 00 60 B0 10 00 00 00 02 00 20 00 B0 02 84 .p.`....... ....
4000000000057550 10 00 00 00 01 00 60 00 38 0E 73 03 D0 F4 FF 4A ......`.8.s....J
4000000000057560 10 00 00 00 01 00 00 00 00 02 00 00 D0 FE FF 48 ...............H
4000000000057570 09 00 00 00 01 00 50 E2 04 6E 48 00 00 00 04 00 ......P..nH.....
4000000000057580 11 C8 02 4A 18 10 00 00 00 02 00 00 88 5C FF 58 ...J.........\.X
4000000000057590 08 00 00 00 01 00 10 00 58 01 42 00 00 00 04 00 ........X.B.....
40000000000575A0 19 00 00 4A 98 11 00 00 00 02 00 00 28 7B FF 58 ...J........({.X
40000000000575B0 09 08 00 AC 00 21 F0 08 00 00 48 00 11 00 00 90 .....!....H.....
40000000000575C0 0B 70 50 03 46 24 00 00 00 02 00 00 00 00 04 00 .pP.F$..........
40000000000575D0 03 00 3C 1C 90 11 F0 BF C2 BF 05 00 50 05 AA 00 ..<.........P...
40000000000575E0 02 00 00 00 01 00 00 C0 06 55 00 00 40 0D 00 07 .........U..@...
40000000000575F0 18 00 00 00 01 00 C0 80 31 00 42 80 08 00 84 00 ........1.B.....
4000000000057600 11 00 00 00 01 00 60 10 38 0E 28 03 40 E7 FF 4B ......`.8.(.@..K
4000000000057610 09 00 00 00 01 00 90 02 A4 30 20 00 00 00 04 00 .........0 .....
4000000000057620 10 00 00 00 01 00 70 00 A4 0C 72 03 E0 E4 FF 4A ......p...r....J
4000000000057630 11 00 00 00 01 00 00 00 00 02 00 00 10 E7 FF 48 ...............H
4000000000057640 09 30 FC 45 87 3B 00 00 00 02 00 E0 04 38 41 00 .0.E.;.......8A.
4000000000057650 C3 78 04 00 00 24 E0 08 9C 5E C0 E3 01 00 00 84 .x...$...^......
4000000000057660 09 00 00 00 01 00 E0 70 3C 18 40 00 00 00 04 00 .......p<.@.....
4000000000057670 11 00 00 00 01 00 60 00 38 0E 73 03 50 00 00 42 ......`.8.s.P..B
4000000000057680 09 38 00 54 86 39 00 00 00 02 00 00 F1 1F 25 EE .8.T.9........%.
4000000000057690 C9 78 04 00 00 24 00 00 00 02 00 C4 11 00 00 90 .x...$..........
40000000000576A0 E3 78 00 00 00 61 E2 00 00 00 42 C0 E1 78 30 80 .x...a....B..x0.
40000000000576B0 10 00 00 00 01 00 60 00 38 0E F3 03 30 00 00 43 ......`.8...0..C
40000000000576C0 09 00 00 00 01 00 90 A2 06 8C 48 00 00 00 04 00 ..........H.....
40000000000576D0 11 00 00 00 01 00 00 00 00 02 00 00 30 F1 FF 48 ............0..H
40000000000576E0 09 48 51 03 46 24 E0 00 A0 20 20 00 00 00 04 00 .HQ.F$...  .....
40000000000576F0 09 00 00 00 01 00 00 70 D0 20 23 00 00 00 04 00 .......p. #.....
4000000000057700 11 00 A8 52 90 11 00 00 00 02 00 00 08 78 05 50 ...R.........x.P
4000000000057710 09 70 00 56 B0 10 00 00 00 02 00 20 00 B0 02 84 .p.V....... ....
4000000000057720 10 00 38 68 90 11 00 00 00 02 00 00 E0 F0 FF 48 ..8h...........H
4000000000057730 11 30 00 1C 87 39 00 00 00 02 80 03 E0 00 00 43 .0...9.........C
4000000000057740 09 00 00 00 01 00 E0 00 C0 60 21 00 00 00 04 00 .........`!.....
4000000000057750 10 00 00 00 01 00 60 00 38 0E F3 03 70 00 00 43 ......`.8...p..C
4000000000057760 0B 70 60 4A 00 21 90 05 38 30 20 00 00 00 04 00 .p`J.!..80 .....
4000000000057770 10 00 00 00 01 00 60 00 64 0F 72 03 10 F3 FF 4B ......`.d.r....K
4000000000057780 0B 70 00 4A 10 10 00 00 00 02 00 C0 60 70 1C 50 .p.J........`p.P
4000000000057790 EB 70 10 B2 00 E1 F1 00 38 20 20 00 00 00 04 00 .p......8  .....
40000000000577A0 09 00 00 00 01 C0 F1 40 3C 5C 40 00 00 00 04 00 .......@<\@.....
40000000000577B0 F0 00 3C 1C 90 11 00 00 00 02 00 00 D0 F2 FF 48 ..<............H
40000000000577C0 11 00 00 00 01 00 00 00 00 02 00 00 48 CD 05 50 ............H..P
40000000000577D0 09 70 60 4A 00 21 00 00 00 02 00 20 00 B0 02 84 .p`J.!..... ....
40000000000577E0 09 00 00 00 01 00 90 05 38 30 20 00 00 00 04 00 ........80 .....
40000000000577F0 10 00 00 00 01 00 60 00 64 0F F2 03 90 FF FF 4A ......`.d......J
4000000000057800 10 00 00 00 01 00 00 00 00 02 00 00 80 F2 FF 48 ...............H
4000000000057810 0B 70 F0 03 3B 24 00 00 00 02 00 00 00 00 04 00 .p..;$..........
4000000000057820 11 C8 02 1C B0 10 00 00 00 02 00 00 68 D4 05 50 ............h..P
4000000000057830 09 70 00 60 B0 10 00 00 00 02 00 20 00 B0 02 84 .p.`....... ....
4000000000057840 10 00 00 00 01 00 60 00 38 0E 73 03 20 FF FF 4A ......`.8.s. ..J
4000000000057850 10 00 00 00 01 00 00 00 00 02 00 00 70 FF FF 48 ............p..H
4000000000057860 01 00 00 00 01 00 70 02 9C 20 00 20 45 0D 18 91 ......p.. . E...
4000000000057870 03 78 04 4E 2F 20 00 00 00 02 00 E0 A1 7A 30 80 .x.N/ .......z0.
4000000000057880 11 30 00 1E 87 39 00 00 00 02 80 03 30 0E 00 43 .0...9......0..C
4000000000057890 11 00 00 00 01 00 00 00 00 02 00 00 B0 DD FF 48 ...............H
40000000000578A0 09 48 51 03 46 24 00 30 D1 20 23 40 15 00 00 90 .HQ.F$.0. #@....
40000000000578B0 10 00 00 00 01 00 00 00 00 02 00 00 F0 C8 FF 48 ...............H
40000000000578C0 09 00 00 00 01 00 00 01 6F 7B 46 00 00 00 04 00 ........o{F.....
40000000000578D0 11 00 00 00 01 00 60 08 40 0E 6B 03 40 E5 FF 4A ......`.@.k.@..J
40000000000578E0 11 70 20 1C 00 21 60 00 84 0E F3 03 30 0E 00 43 .p ..!`.....0..C
40000000000578F0 09 28 21 02 37 24 90 05 38 30 20 00 00 00 04 00 .(!.7$..80 .....
4000000000057900 09 30 00 B2 07 39 F0 00 94 20 20 00 00 00 04 00 .0...9...  .....
4000000000057910 09 78 04 1E 00 21 00 00 00 02 80 C3 41 C8 02 84 .x...!......A...
4000000000057920 09 00 3C 4A 90 D1 F1 00 38 20 20 00 00 00 04 00 ..<J....8  .....
4000000000057930 09 00 00 00 01 C0 F1 40 3C 5C 40 00 00 00 04 00 .......@<\@.....
4000000000057940 F1 00 3C 1C 90 11 00 00 00 02 00 00 48 6C 00 50 ..<.........Hl.P
4000000000057950 09 70 00 5E B0 10 10 00 58 01 42 40 05 40 00 84 .p.^....X.B@.@..
4000000000057960 11 30 00 1C 87 39 00 00 00 02 80 03 00 21 00 43 .0...9.......!.C
4000000000057970 09 00 00 00 01 00 E0 00 C0 60 21 00 00 00 04 00 .........`!.....
4000000000057980 10 00 00 00 01 00 60 00 38 0E F3 03 C0 20 00 43 ......`.8.... .C
4000000000057990 03 70 00 50 18 10 00 01 01 04 48 E0 81 71 00 84 .p.P......H..q..
40000000000579A0 09 00 00 00 01 00 F0 00 3C 20 20 00 00 00 04 00 ........<  .....
40000000000579B0 11 38 40 1E 86 38 00 00 00 02 80 03 50 20 00 43 .8@..8......P .C
40000000000579C0 09 00 00 00 01 00 00 09 01 04 48 00 00 00 04 00 ..........H.....
40000000000579D0 10 00 00 00 01 00 70 80 3C 0C F1 03 90 1F 00 43 ......p.<......C
40000000000579E0 09 70 00 4A 10 10 00 00 00 02 00 20 45 0D 18 91 .p.J....... E...
40000000000579F0 09 70 FC 1D 3F 23 00 00 00 02 00 00 00 00 04 00 .p..?#..........
4000000000057A00 10 00 38 4A 90 11 00 00 00 02 00 00 A0 C7 FF 48 ..8J...........H
4000000000057A10 11 C8 02 4C 18 10 00 00 00 02 00 00 38 B5 00 50 ...L........8..P
4000000000057A20 08 70 A0 10 00 21 10 00 58 01 42 C0 00 40 1C E4 .p...!..X.B..@..
4000000000057A30 19 80 08 00 80 24 50 02 20 00 42 03 60 07 00 43 .....$P. .B.`..C
4000000000057A40 0B 78 00 1C 18 10 F0 78 40 18 40 00 00 00 04 00 .x.....x@.@.....
4000000000057A50 10 00 00 00 01 00 60 00 3C 0E 72 03 40 07 00 42 ......`.<.r.@..B
4000000000057A60 09 00 00 00 01 00 E0 00 38 20 20 00 00 00 04 00 ........8  .....
4000000000057A70 10 00 00 00 01 00 60 10 38 0E 28 03 50 E4 FF 4A ......`.8.(.P..J
4000000000057A80 08 D0 72 FA E8 27 00 00 00 02 00 60 5B 00 00 90 ..r..'.....`[...
4000000000057A90 09 C8 02 00 00 21 00 00 00 02 00 40 15 00 00 90 .....!.....@....
4000000000057AA0 11 D0 02 B4 18 10 00 00 00 02 00 00 C8 30 FC 58 .............0.X
4000000000057AB0 08 00 00 00 01 00 10 00 58 01 42 20 0B 40 00 84 ........X.B .@..
4000000000057AC0 0B D0 02 4A 18 10 90 A2 06 8C 48 00 00 00 04 00 ...J......H.....
4000000000057AD0 11 00 00 00 01 00 00 00 00 02 00 00 B8 95 01 50 ...............P
4000000000057AE0 11 00 00 00 01 00 10 00 58 01 42 00 C0 C6 FF 48 ........X.B....H
4000000000057AF0 08 08 B2 02 41 24 F0 00 94 30 20 00 02 31 01 84 ....A$...0 ..1..
4000000000057B00 09 60 11 4C 00 21 70 13 00 00 49 C0 86 31 01 84 .`.L.!p...I..1..
4000000000057B10 09 00 00 00 01 00 90 05 40 30 20 00 00 00 04 00 ........@0 .....
4000000000057B20 0B C0 01 1E 18 10 E0 00 04 21 20 00 00 00 04 00 .........! .....
4000000000057B30 09 00 00 00 01 00 E0 08 38 00 42 00 00 00 04 00 ........8.B.....
4000000000057B40 11 00 38 82 90 11 00 00 00 02 00 00 C8 15 05 50 ..8............P
4000000000057B50 09 08 00 AC 00 21 00 00 00 02 00 E0 04 40 00 84 .....!.......@..
4000000000057B60 09 C8 32 FB E7 27 00 00 00 02 00 A0 04 38 01 84 ..2..'.......8..
4000000000057B70 11 C8 02 B2 18 10 00 00 00 02 00 00 58 A5 05 50 ............X..P
4000000000057B80 03 08 00 AC 00 21 A0 05 9C 00 42 20 4B EF CF 9E .....!....B K...
4000000000057B90 11 C8 02 B2 18 10 00 00 00 02 00 00 78 A4 05 50 ............x..P
4000000000057BA0 02 70 00 4C 10 10 10 00 58 01 42 C0 60 70 1C 50 .p.L....X.B.`p.P
4000000000057BB0 09 70 71 02 36 24 B0 62 06 72 48 00 85 0C C8 90 .pq.6$.b.rH.....
4000000000057BC0 E8 70 60 4C 00 21 20 E4 07 76 48 00 48 0A 1C 91 .p`L.! ..vH.H...
4000000000057BD0 09 D8 B1 02 46 24 A0 23 05 6C 48 40 C6 0C 18 91 ....F$.#.lH@....
4000000000057BE0 E9 70 00 1C 18 10 10 83 07 64 48 60 48 0A 04 91 .p.......dH`H...
4000000000057BF0 EB 70 10 1C 00 E1 F1 00 38 20 20 00 00 00 04 00 .p......8  .....
4000000000057C00 09 00 00 00 01 C0 F1 40 3C 5C 40 00 00 00 04 00 .......@<\@.....
4000000000057C10 F1 00 3C 1C 90 11 60 00 9C 0E 72 03 A0 1E 00 43 ..<...`...r....C
4000000000057C20 09 00 00 00 01 00 00 00 00 02 00 00 00 00 04 00 ................
4000000000057C30 09 00 00 00 01 00 00 00 00 02 00 00 00 00 04 00 ................
4000000000057C40 09 00 00 00 01 00 00 00 00 02 00 00 00 00 04 00 ................
4000000000057C50 09 00 00 00 01 00 00 00 00 02 00 00 00 00 04 00 ................
4000000000057C60 08 00 00 00 01 00 00 00 00 02 00 00 00 00 04 00 ................
4000000000057C70 09 00 00 00 01 00 E0 00 BC 60 21 00 00 00 04 00 .........`!.....
4000000000057C80 11 30 00 1C 87 39 00 00 00 02 80 03 D0 03 00 43 .0...9.........C
4000000000057C90 09 00 00 00 01 00 E0 00 C0 60 21 00 00 00 04 00 .........`!.....
4000000000057CA0 10 00 00 00 01 00 60 00 38 0E F3 03 40 03 00 43 ......`.8...@..C
4000000000057CB0 09 70 00 58 10 10 00 00 B8 20 23 20 0B 30 01 84 .p.X..... # .0..
4000000000057CC0 11 00 38 68 90 11 00 00 00 02 00 00 08 0C FF 58 ..8h...........X
4000000000057CD0 09 70 00 56 10 10 00 00 00 02 00 20 00 B0 02 84 .p.V....... ....
4000000000057CE0 10 00 00 00 01 00 60 00 38 0E F3 03 E0 02 00 43 ......`.8......C
4000000000057CF0 11 C8 06 01 00 24 00 00 00 02 00 00 98 80 05 50 .....$.........P
4000000000057D00 10 08 00 AC 00 21 70 00 20 0C 73 03 C0 00 00 42 .....!p. .s....B
4000000000057D10 09 00 00 00 01 00 E0 00 00 21 20 00 00 00 04 00 .........! .....
4000000000057D20 10 00 00 00 01 00 70 00 38 0C 73 03 A0 00 00 42 ......p.8.s....B
4000000000057D30 09 00 00 00 01 00 90 05 EC 30 20 00 00 00 04 00 .........0 .....
4000000000057D40 11 30 00 B2 07 39 00 00 00 02 00 03 30 00 00 43 .0...9......0..C
4000000000057D50 11 00 00 00 01 00 00 00 00 02 00 00 98 2A FC 58 .............*.X
4000000000057D60 08 08 00 AC 00 21 00 00 00 02 00 00 00 00 04 00 .....!..........
4000000000057D70 11 C8 02 74 18 10 00 00 00 02 00 00 58 39 FC 58 ...t........X9.X
4000000000057D80 11 08 00 AC 00 21 90 0D 20 00 42 00 48 0F 09 50 .....!.. .B.H..P
4000000000057D90 08 08 00 AC 00 21 00 00 00 02 00 20 0B 40 00 84 .....!..... .@..
4000000000057DA0 19 D0 02 74 18 10 00 00 00 02 00 00 E8 33 FC 58 ...t.........3.X
4000000000057DB0 08 08 00 AC 00 21 00 40 EC 30 23 00 00 00 04 00 .....!.@.0#.....
4000000000057DC0 11 00 00 00 01 00 00 00 00 02 00 00 08 6F 05 50 .............o.P
4000000000057DD0 09 70 00 50 10 10 10 00 58 01 42 40 05 40 00 84 .p.P....X.B@.@..
4000000000057DE0 11 30 00 1C 87 39 00 00 00 02 00 03 20 00 00 43 .0...9...... ..C
4000000000057DF0 10 00 00 00 01 00 70 00 20 0C 73 03 40 01 00 42 ......p. .s.@..B
4000000000057E00 08 70 20 4A 00 21 90 05 E0 00 42 60 0B 00 00 84 .p J.!....B`....
4000000000057E10 0B 00 00 64 98 11 E0 00 38 30 20 00 00 00 04 00 ...d....80 .....
4000000000057E20 11 D0 02 1C 18 10 00 00 00 02 00 00 A8 05 01 50 ...............P
4000000000057E30 09 40 A0 10 00 21 00 00 00 02 00 20 00 B0 02 84 .@...!..... ....
4000000000057E40 0B 78 00 10 18 10 F0 78 DC 18 40 00 00 00 04 00 .x.....x..@.....
4000000000057E50 11 30 00 1E 07 39 00 00 00 02 80 03 20 0A 00 43 .0...9...... ..C
4000000000057E60 11 C8 02 6C 18 10 00 00 00 02 00 00 28 67 00 50 ...l........(g.P
4000000000057E70 09 70 00 62 10 10 10 00 58 01 42 40 05 40 00 84 .p.b....X.B@.@..
4000000000057E80 11 38 00 1C 86 39 00 00 00 02 80 03 70 02 00 43 .8...9......p..C
4000000000057E90 09 00 00 00 01 00 E0 00 BC 60 21 00 00 00 04 00 .........`!.....
4000000000057EA0 10 00 00 00 01 00 60 00 38 0E F3 03 10 02 00 43 ......`.8......C
4000000000057EB0 09 00 00 00 01 00 E0 00 C0 60 21 00 00 00 04 00 .........`!.....
4000000000057EC0 10 00 00 00 01 00 60 00 38 0E F3 03 D0 01 00 43 ......`.8......C
4000000000057ED0 09 00 00 00 01 00 E0 00 A4 20 20 00 00 00 04 00 .........  .....
4000000000057EE0 11 30 00 1C 87 39 00 00 00 02 80 03 00 09 00 43 .0...9.........C
4000000000057EF0 09 00 00 00 01 00 E0 00 B4 20 20 00 00 00 04 00 .........  .....
4000000000057F00 10 00 00 00 01 00 60 00 38 0E 73 03 30 00 00 42 ......`.8.s.0..B
4000000000057F10 09 00 00 00 01 00 E0 F8 3B 7E 46 00 00 00 04 00 ........;~F.....
4000000000057F20 10 00 38 86 90 11 70 00 38 0C 73 03 30 00 00 43 ..8...p.8.s.0..C
4000000000057F30 09 00 00 00 01 00 50 02 94 30 20 00 00 00 04 00 ......P..0 .....
4000000000057F40 10 00 00 00 01 00 70 00 94 0C 72 03 30 FD FF 4A ......p...r.0..J
4000000000057F50 08 70 00 82 10 10 00 00 00 02 00 20 45 0D 18 91 .p......... E...
4000000000057F60 09 C8 02 4E 00 21 00 C8 D1 20 23 00 00 00 04 00 ...N.!... #.....
4000000000057F70 09 70 FC 1D 3F 23 00 00 00 02 00 00 00 00 04 00 .p..?#..........
4000000000057F80 11 00 38 82 90 11 00 00 00 02 00 00 48 3C FF 58 ..8.........H<.X
4000000000057F90 0B 08 00 AC 00 21 90 65 F6 CF 4F 00 00 00 04 00 .....!.e..O.....
4000000000057FA0 11 C8 02 B2 18 10 00 00 00 02 00 00 E8 9D 05 50 ...............P
4000000000057FB0 10 00 00 00 01 00 10 00 58 01 42 00 F0 C1 FF 48 ........X.B....H
4000000000057FC0 11 C8 02 4C 00 21 00 00 00 02 00 00 C8 09 FF 58 ...L.!.........X
4000000000057FD0 10 00 00 00 01 00 10 00 58 01 42 00 20 FD FF 48 ........X.B. ..H
4000000000057FE0 11 00 00 00 01 00 00 00 00 02 00 00 28 C5 05 50 ............(..P
4000000000057FF0 08 70 00 58 10 10 00 00 00 02 00 20 00 B0 02 84 .p.X....... ....
4000000000058000 09 00 00 5C 90 11 00 00 00 02 00 20 0B 30 01 84 ...\....... .0..
4000000000058010 11 00 38 68 90 11 00 00 00 02 00 00 B8 08 FF 58 ..8h...........X
4000000000058020 09 70 00 56 10 10 00 00 00 02 00 20 00 B0 02 84 .p.V....... ....
4000000000058030 10 00 00 00 01 00 60 00 38 0E 73 03 C0 FC FF 4A ......`.8.s....J
4000000000058040 10 00 00 00 01 00 00 00 00 02 00 00 80 FF FF 48 ...............H
4000000000058050 11 C8 02 84 B0 10 00 00 00 02 00 00 38 CC 05 50 ............8..P
4000000000058060 09 70 00 60 B0 10 00 00 00 02 00 20 00 B0 02 84 .p.`....... ....
4000000000058070 10 00 00 00 01 00 60 00 38 0E 73 03 40 FC FF 4A ......`.8.s.@..J
4000000000058080 10 00 00 00 01 00 00 00 00 02 00 00 60 FF FF 48 ............`..H
4000000000058090 11 00 00 00 01 00 00 00 00 02 00 00 78 C4 05 50 ............x..P
40000000000580A0 10 00 00 00 01 00 10 00 58 01 42 00 30 FE FF 48 ........X.B.0..H
40000000000580B0 11 C8 02 84 B0 10 00 00 00 02 00 00 D8 CB 05 50 ...............P
40000000000580C0 09 70 00 60 B0 10 00 00 00 02 00 20 00 B0 02 84 .p.`....... ....
40000000000580D0 10 00 00 00 01 00 60 00 38 0E 73 03 00 FE FF 4A ......`.8.s....J
40000000000580E0 10 00 00 00 01 00 00 00 00 02 00 00 B0 FF FF 48 ...............H
40000000000580F0 11 00 00 00 01 00 00 00 00 02 00 00 18 6A 02 50 .............j.P
4000000000058100 09 70 00 5E B0 10 00 00 00 02 00 20 00 B0 02 84 .p.^....... ....
4000000000058110 10 00 00 00 01 00 60 00 38 0E 73 03 A0 FD FF 4A ......`.8.s....J
4000000000058120 10 00 00 00 01 00 00 00 00 02 00 00 90 FF FF 48 ...............H
4000000000058130 08 70 00 4A 10 10 90 A2 06 8C 48 20 0B 00 01 84 .p.J......H ....
4000000000058140 09 D0 06 00 00 24 B0 05 88 00 42 80 0B 18 01 84 .....$....B.....
4000000000058150 08 00 00 00 01 00 E0 10 38 5C 40 A0 0B 20 01 84 ........8\@.. ..
4000000000058160 09 00 00 00 01 00 00 00 00 02 00 00 00 00 04 00 ................
4000000000058170 11 00 38 4A 90 11 00 00 00 02 00 00 D8 BA FF 58 ..8J...........X
4000000000058180 11 08 00 AC 00 21 A0 02 20 00 42 00 20 C0 FF 48 .....!.. .B. ..H
4000000000058190 08 C8 02 4C 18 10 00 00 00 02 00 40 0B 38 01 84 ...L.......@.8..
40000000000581A0 19 50 01 00 00 21 00 00 00 02 00 00 68 C6 00 50 .P...!......h..P
40000000000581B0 0B 08 00 AC 00 21 90 A2 06 8C 48 00 00 00 04 00 .....!....H.....
40000000000581C0 11 00 00 00 01 00 00 00 00 02 00 00 E0 BF FF 48 ...............H
40000000000581D0 0B 78 21 52 00 21 E0 00 BC 30 20 00 00 00 04 00 .x!R.!...0 .....
40000000000581E0 10 68 01 1C 18 10 00 00 00 02 00 00 40 D3 FF 48 .h..........@..H
40000000000581F0 11 C8 0A 01 00 24 00 00 00 02 00 00 18 7A 05 50 .....$.......z.P
4000000000058200 11 08 00 AC 00 21 60 00 20 0E F3 03 C0 00 00 43 .....!`. ......C
4000000000058210 08 70 E0 03 33 24 50 02 94 20 20 20 0B 00 01 84 .p..3$P..   ....
4000000000058220 09 D0 02 42 00 21 B0 05 88 00 42 80 0B 18 01 84 ...B.!....B.....
4000000000058230 01 00 00 00 01 00 70 22 94 00 29 A0 0B 20 01 84 ......p"..).. ..
4000000000058240 01 00 00 00 01 00 50 32 94 00 29 E0 04 38 41 00 ......P2..)..8A.
4000000000058250 09 78 00 1C 10 10 00 00 00 02 00 C0 41 0B DC 90 .x..........A...
4000000000058260 11 00 3C 1C 90 11 00 00 00 02 00 00 28 58 00 50 ..<.........(X.P
4000000000058270 09 00 00 00 01 00 10 00 58 01 42 40 05 40 00 84 ........X.B@.@..
4000000000058280 01 00 00 00 01 00 50 02 94 20 00 20 45 0D 18 91 ......P.. . E...
4000000000058290 09 38 95 4E 0E 20 00 00 00 02 00 00 00 00 04 00 .8.N. ..........
40000000000582A0 10 00 00 00 01 00 70 00 9C 0C F3 03 E0 CE FF 4A ......p........J
40000000000582B0 10 00 00 00 01 00 00 00 00 02 00 00 F0 BE FF 48 ...............H
40000000000582C0 11 C8 0A 01 00 24 00 00 00 02 00 00 C8 79 05 50 .....$.......y.P
40000000000582D0 11 08 00 AC 00 21 70 00 20 0C 73 03 40 FF FF 4A .....!p. .s.@..J
40000000000582E0 08 48 01 4A 10 10 50 C2 07 66 48 00 45 0B DC 90 .H.J..P..fH.E...
40000000000582F0 09 C8 02 40 00 21 A0 05 84 00 42 60 0B 10 01 84 ...@.!....B`....
4000000000058300 18 00 00 00 01 00 C0 05 8C 00 42 00 00 00 00 20 ..........B.... 
4000000000058310 03 E8 02 48 00 21 70 22 A4 00 29 E0 04 38 41 00 ...H.!p"..)..8A.
4000000000058320 09 00 00 00 01 00 E0 00 94 20 20 00 00 00 04 00 .........  .....
4000000000058330 11 00 38 50 90 11 00 00 00 02 00 00 58 57 00 50 ..8P........XW.P
4000000000058340 00 00 00 00 01 00 70 30 A4 0C 28 00 00 00 04 00 ......p0..(.....
4000000000058350 19 08 00 AC 00 21 A0 02 20 00 42 03 80 DB FF 49 .....!.. .B....I
4000000000058360 03 38 00 10 86 39 E0 08 9C 5E 40 E3 11 00 00 90 .8...9...^@.....
4000000000058370 EB 78 00 00 00 21 E0 70 3C 18 40 00 00 00 04 00 .x...!.p<.@.....
4000000000058380 09 00 00 00 01 00 60 00 38 0E 73 00 00 00 04 00 ......`.8.s.....
4000000000058390 11 00 00 00 01 80 51 02 00 00 42 03 F0 FE FF 4A ......Q...B....J
40000000000583A0 08 48 51 03 46 24 E0 00 94 20 20 E0 84 62 00 84 .HQ.F$...  ..b..
40000000000583B0 0A 78 00 50 10 10 00 00 00 02 00 00 00 00 04 00 .x.P............
40000000000583C0 09 00 38 4E B0 11 00 78 94 20 23 00 00 00 04 00 ..8N...x. #.....
40000000000583D0 11 00 20 52 90 11 00 00 00 02 00 00 38 6B 05 50 .. R........8k.P
40000000000583E0 09 70 00 4E B0 10 00 00 00 02 00 20 00 B0 02 84 .p.N....... ....
40000000000583F0 10 00 38 4A 90 11 00 00 00 02 00 00 90 CD FF 48 ..8J...........H
4000000000058400 09 70 20 1C 00 21 00 00 00 02 00 40 02 38 4D E6 .p ..!.....@.8M.
4000000000058410 0B C8 02 1C 18 10 60 00 64 0F 72 A0 44 C8 02 84 ......`.d.r.D...
4000000000058420 09 00 00 00 01 80 91 A2 06 8C 48 00 00 00 04 00 ..........H.....
4000000000058430 11 00 00 00 01 00 00 00 00 02 00 03 60 D2 FF 4B ............`..K
4000000000058440 69 72 00 4A 10 10 F0 20 06 8C 48 00 02 00 10 90 ir.J... ..H.....
4000000000058450 69 72 20 1C 2E 20 00 00 00 02 00 00 00 00 04 00 ir .. ..........
4000000000058460 6A 02 38 4A 90 11 E0 00 94 20 20 00 00 00 04 00 j.8J.....  .....
4000000000058470 0B 78 00 1E 10 10 00 81 38 1C 40 E0 00 78 18 E6 .x......8.@..x..
4000000000058480 10 00 40 4A 90 11 00 00 00 02 00 03 40 00 00 42 ..@J........@..B
4000000000058490 0B 78 B0 03 2D 24 00 00 00 02 00 00 00 00 04 00 .x..-$..........
40000000000584A0 09 00 00 00 01 00 F0 00 3C 20 20 00 00 00 04 00 ........<  .....
40000000000584B0 10 00 00 00 01 00 70 00 3C 0C 73 03 50 00 00 42 ......p.<.s.P..B
40000000000584C0 0B 78 60 03 46 24 00 00 00 02 00 00 00 00 04 00 .x`.F$..........
40000000000584D0 0B 78 00 1E 10 10 70 00 3C 0C 73 00 00 00 04 00 .x....p.<.s.....
40000000000584E0 E3 78 00 00 0C 24 00 00 00 02 80 C3 F1 70 38 80 .x...$.......p8.
40000000000584F0 E8 00 38 4A 90 11 00 00 00 02 00 00 00 00 04 00 ..8J............
4000000000058500 08 D0 06 00 00 24 B0 05 88 00 42 00 00 00 04 00 .....$....B.....
4000000000058510 19 E0 02 46 00 21 D0 05 90 00 42 00 38 B7 FF 58 ...F.!....B.8..X
4000000000058520 09 70 00 5E B0 10 10 00 58 01 42 40 05 40 00 84 .p.^....X.B@.@..
4000000000058530 11 30 00 1C 87 39 00 00 00 02 80 03 00 01 00 43 .0...9.........C
4000000000058540 09 00 00 00 01 00 E0 00 C0 60 21 00 00 00 04 00 .........`!.....
4000000000058550 10 00 00 00 01 00 60 00 38 0E F3 03 C0 00 00 43 ......`.8......C
4000000000058560 0B 70 00 4A 10 10 00 00 00 02 00 C0 40 71 1C 50 .p.J........@q.P
4000000000058570 EB 78 FC F9 F7 E7 E1 78 38 18 40 00 00 00 04 00 .x.....x8.@.....
4000000000058580 E9 00 38 4A 90 11 E0 00 A0 30 20 00 00 00 04 00 ..8J.....0 .....
4000000000058590 0B 70 40 1C 00 21 90 05 38 30 20 00 00 00 04 00 .p@..!..80 .....
40000000000585A0 11 30 00 B2 07 39 00 00 00 02 00 03 30 D9 FF 4B .0...9......0..K
40000000000585B0 68 72 10 B2 00 21 A0 05 84 00 42 00 00 00 04 00 hr...!....B.....
40000000000585C0 09 D8 02 44 00 21 C0 05 8C 00 42 A0 0B 20 01 84 ...D.!....B.. ..
40000000000585D0 6B 7A 00 1C 10 D0 F4 40 3C 5C 40 00 00 00 04 00 kz.....@<\@.....
40000000000585E0 71 02 3C 1C 90 11 00 00 00 02 00 00 68 B6 FF 58 q.<.........h..X
40000000000585F0 03 08 00 AC 00 21 A0 02 20 00 42 20 45 0D 18 91 .....!.. .B E...
4000000000058600 10 00 00 00 01 00 00 00 00 02 00 00 A0 BB FF 48 ...............H
4000000000058610 11 00 00 00 01 00 00 00 00 02 00 00 F8 BE 05 50 ...............P
4000000000058620 11 00 00 00 01 00 10 00 58 01 42 00 40 FF FF 48 ........X.B.@..H
4000000000058630 0B 70 F0 03 3B 24 00 00 00 02 00 00 00 00 04 00 .p..;$..........
4000000000058640 11 C8 02 1C B0 10 00 00 00 02 00 00 48 C6 05 50 ............H..P
4000000000058650 09 70 00 60 B0 10 00 00 00 02 00 20 00 B0 02 84 .p.`....... ....
4000000000058660 10 00 00 00 01 00 60 00 38 0E 73 03 00 FF FF 4A ......`.8.s....J
4000000000058670 10 00 00 00 01 00 00 00 00 02 00 00 A0 FF FF 48 ...............H
4000000000058680 0B 50 01 00 00 21 60 00 A8 0E 72 00 00 00 04 00 .P...!`...r.....
4000000000058690 09 00 00 00 01 80 A1 0A 00 00 48 00 00 00 04 00 ..........H.....
40000000000586A0 10 00 00 00 01 C0 A1 02 00 00 42 00 50 CF FF 48 ..........B.P..H
40000000000586B0 08 48 51 03 46 24 F0 00 A0 20 20 00 00 00 04 00 .HQ.F$...  .....
40000000000586C0 09 00 38 56 B0 11 00 00 00 02 00 C0 11 00 00 90 ..8V............
40000000000586D0 09 00 00 00 01 00 00 78 94 20 23 00 00 00 04 00 .......x. #.....
40000000000586E0 11 00 38 52 90 11 00 00 00 02 00 00 28 68 05 50 ..8R........(h.P
40000000000586F0 09 70 00 56 B0 10 00 00 00 02 00 20 00 B0 02 84 .p.V....... ....
4000000000058700 10 00 38 4A 90 11 00 00 00 02 00 00 40 CF FF 48 ..8J........@..H
4000000000058710 08 78 08 1E 2E 20 90 A2 06 8C 48 20 0B 00 01 84 .x... ....H ....
4000000000058720 09 D0 06 00 00 24 B0 05 88 00 42 80 0B 18 01 84 .....$....B.....
4000000000058730 08 E8 02 48 00 21 00 78 94 20 23 00 00 00 04 00 ...H.!.x. #.....
4000000000058740 19 00 00 00 01 00 00 00 00 02 00 00 08 B5 FF 58 ...............X
4000000000058750 10 08 00 AC 00 21 A0 02 20 00 42 00 50 BA FF 48 .....!.. .B.P..H
4000000000058760 11 C8 06 00 00 24 00 00 00 02 00 00 68 05 09 50 .....$......h..P
4000000000058770 08 00 00 00 01 00 10 00 58 01 42 00 00 00 04 00 ........X.B.....
4000000000058780 19 00 00 10 80 11 B0 02 20 00 42 00 D0 D2 FF 48 ........ .B....H
4000000000058790 08 78 A0 02 41 24 E0 F8 3B 7E 46 20 45 0D 18 91 .x..A$..;~F E...
40000000000587A0 0A 00 98 68 90 11 00 00 00 02 00 00 00 00 04 00 ...h............
40000000000587B0 0A 00 00 00 01 00 00 70 3C 20 23 00 00 00 04 00 .......p< #.....
40000000000587C0 0B 70 00 82 10 10 E0 F8 3B 7E 46 00 00 00 04 00 .p......;~F.....
40000000000587D0 10 00 38 82 90 11 00 00 00 02 00 00 D0 B9 FF 48 ..8............H
40000000000587E0 08 78 A0 02 41 24 E0 F8 3B 7E 46 20 45 0D 18 91 .x..A$..;~F E...
40000000000587F0 09 C8 02 4E 00 21 00 C8 D1 20 23 00 00 00 04 00 ...N.!... #.....
4000000000058800 09 00 00 00 01 00 00 00 00 02 00 00 00 00 04 00 ................
4000000000058810 09 00 38 1E 90 11 E0 00 04 21 20 00 00 00 04 00 ..8......! .....
4000000000058820 09 00 00 00 01 00 E0 F8 3B 7E 46 00 00 00 04 00 ........;~F.....
4000000000058830 11 00 38 82 90 11 00 00 00 02 00 00 98 33 FF 58 ..8..........3.X
4000000000058840 0B 08 00 AC 00 21 90 65 F6 CF 4F 00 00 00 04 00 .....!.e..O.....
4000000000058850 11 C8 02 B2 18 10 00 00 00 02 00 00 38 95 05 50 ............8..P
4000000000058860 10 00 00 00 01 00 10 00 58 01 42 00 40 B9 FF 48 ........X.B.@..H
4000000000058870 09 70 00 10 10 10 00 C8 D1 20 23 00 00 00 04 00 .p....... #.....
4000000000058880 00 00 00 00 01 00 60 10 38 0E 28 C0 01 0F C8 90 ......`.8.(.....
4000000000058890 19 00 00 00 01 00 00 00 00 02 00 03 50 00 00 43 ............P..C
40000000000588A0 0B 00 00 00 01 00 E0 00 38 20 20 00 00 00 04 00 ........8  .....
40000000000588B0 11 38 00 1C 86 39 E0 C0 05 64 48 03 30 00 00 43 .8...9...dH.0..C
40000000000588C0 0B 00 00 00 01 00 E0 00 38 20 20 00 00 00 04 00 ........8  .....
40000000000588D0 10 00 00 00 01 00 60 00 38 0E F3 03 90 0F 00 41 ......`.8......A
40000000000588E0 09 48 51 03 46 24 90 05 9C 00 42 40 15 00 00 90 .HQ.F$....B@....
40000000000588F0 11 00 00 00 01 00 00 00 00 02 00 00 D8 32 FF 58 .............2.X
4000000000058900 0B 08 00 AC 00 21 90 65 F6 CF 4F 00 00 00 04 00 .....!.e..O.....
4000000000058910 11 C8 02 B2 18 10 00 00 00 02 00 00 78 94 05 50 ............x..P
4000000000058920 03 70 00 82 10 10 10 00 58 01 42 C0 F1 77 FC 8C .p......X.B..w..
4000000000058930 10 00 38 82 90 11 00 00 00 02 00 00 70 B8 FF 48 ..8.........p..H
4000000000058940 08 C8 52 FB E7 27 A0 FC 10 1A 4A 00 79 06 1C 90 ..R..'....J.y...
4000000000058950 09 38 3E 00 4E 24 70 0A 00 00 48 20 93 D0 61 C6 .8>.N$p...H ..a.
4000000000058960 08 C8 02 B2 18 10 10 45 00 00 48 E0 32 D6 59 C6 .......E..H.2.Y.
4000000000058970 19 A8 20 75 94 30 30 39 EA 24 61 00 58 97 05 50 .. u.009.$a.X..P
4000000000058980 08 08 00 AC 00 21 A0 05 D8 00 42 A0 08 D0 59 00 .....!....B...Y.
4000000000058990 09 30 82 18 00 21 F0 14 00 00 49 A0 89 31 01 84 .0...!....I..1..
40000000000589A0 09 00 00 00 01 00 90 A5 F7 67 4F 00 00 00 04 00 .........gO.....
40000000000589B0 11 C8 02 B2 18 10 00 00 00 02 00 00 58 96 05 50 ............X..P
40000000000589C0 02 70 00 4C 10 10 10 00 58 01 42 C0 60 70 1C 50 .p.L....X.B.`p.P
40000000000589D0 09 70 11 03 37 24 B0 22 F7 59 4F 60 C8 0F EC 90 .p..7$.".YO`....
40000000000589E0 E8 70 60 4C 00 21 00 65 F7 5F 4F C0 09 0F C8 90 .p`L.!.e._O.....
40000000000589F0 09 60 92 02 41 24 B0 02 AC 30 20 20 09 0C DC 90 .`..A$...0  ....
4000000000058A00 08 00 00 00 01 C0 E1 00 38 30 20 40 06 70 01 84 ........80 @.p..
4000000000058A10 0A 00 00 00 01 C0 E1 20 38 00 42 00 00 00 04 00 ....... 8.B.....
4000000000058A20 09 80 02 A0 18 10 00 00 00 02 00 00 00 00 04 00 ................
4000000000058A30 E9 78 00 1C 10 10 00 00 00 02 00 00 00 00 04 00 .x..............
4000000000058A40 EB 78 20 1E 2E E0 01 78 38 20 23 C0 A0 D4 1D C2 .x ....x8 #.....
4000000000058A50 C2 90 1A 00 00 24 00 00 00 02 80 43 5A 00 00 90 .....$.....CZ...
4000000000058A60 02 70 00 96 10 10 90 E5 F6 CF 4F 00 00 00 04 00 .p........O.....
4000000000058A70 19 00 38 68 90 11 90 05 64 31 20 00 58 A6 00 50 ..8h....d1 .X..P
4000000000058A80 08 08 00 AC 00 21 20 04 20 00 42 C0 00 40 1C E4 .....! . .B..@..
4000000000058A90 0B 70 00 5E B0 90 21 A4 F5 CF 4F 00 00 00 04 00 .p.^..!...O.....
4000000000058AA0 D0 10 02 84 18 10 60 00 38 0E F3 03 F0 04 00 43 ......`.8......C
4000000000058AB0 09 00 00 00 01 00 E0 00 C0 60 21 00 00 00 04 00 .........`!.....
4000000000058AC0 10 00 00 00 01 00 60 00 38 0E F3 03 B0 04 00 43 ......`.8......C
4000000000058AD0 09 00 00 00 01 00 90 25 F7 CF 4F 00 00 00 04 00 .......%..O.....
4000000000058AE0 11 C8 02 B2 18 10 00 00 00 02 00 00 E8 A5 00 50 ...............P
4000000000058AF0 11 08 00 AC 00 21 60 00 20 0E 72 03 30 00 00 43 .....!`. .r.0..C
4000000000058B00 0B 70 00 10 00 10 00 00 00 02 00 C0 01 70 50 00 .p...........pP.
4000000000058B10 10 00 00 00 01 00 60 00 38 0E F3 03 C0 04 00 43 ......`.8......C
4000000000058B20 08 40 40 01 00 24 00 88 BA 20 23 A0 04 B0 01 84 .@@..$... #.....
4000000000058B30 0B 30 01 00 00 21 00 40 24 21 23 00 00 00 04 00 .0...!.@$!#.....
4000000000058B40 0B 70 20 4A 00 21 E0 00 38 30 20 00 00 00 04 00 .p J.!..80 .....
4000000000058B50 11 C8 02 1C 18 10 00 00 00 02 00 00 38 54 FF 58 ............8T.X
4000000000058B60 09 28 01 4A 18 10 70 30 21 0C 61 20 00 B0 02 84 .(.J..p0!.a ....
4000000000058B70 F0 30 01 10 00 21 70 00 94 0C 72 03 D0 FF FF 4A .0...!p...r....J
4000000000058B80 11 00 00 00 01 00 96 0B 00 00 48 0C 40 00 00 42 ..........H.@..B
4000000000058B90 11 00 00 00 01 80 95 13 00 00 48 0B 30 00 00 42 ..........H.0..B
4000000000058BA0 11 00 00 00 01 00 95 1B 00 00 48 0A 20 00 00 42 ..........H. ..B
4000000000058BB0 43 CA 11 00 00 24 00 00 00 02 80 29 07 90 02 84 C....$.....)....
4000000000058BC0 09 D8 11 72 00 21 00 00 00 02 00 E0 00 38 19 E6 ...r.!.......8..
4000000000058BD0 10 00 00 00 01 00 B0 DB 99 00 40 03 40 04 00 43 ..........@.@..C
4000000000058BE0 08 00 00 00 01 00 90 05 08 01 42 00 00 00 04 00 ..........B.....
4000000000058BF0 19 D0 02 56 18 10 00 00 00 02 00 00 78 36 FC 58 ...V........x6.X
4000000000058C00 08 00 00 00 01 00 10 00 58 01 42 00 00 00 04 00 ........X.B.....
4000000000058C10 19 C8 02 56 18 10 00 00 00 02 00 00 78 1A FC 58 ...V........x..X
4000000000058C20 09 70 00 5E B0 10 00 00 00 02 00 20 00 B0 02 84 .p.^....... ....
4000000000058C30 11 38 00 1C 86 39 00 00 00 02 00 03 80 07 00 43 .8...9.........C
4000000000058C40 09 00 00 00 01 00 E0 00 C0 60 21 00 00 00 04 00 .........`!.....
4000000000058C50 10 00 00 00 01 00 60 00 38 0E F3 03 40 07 00 43 ......`.8...@..C
4000000000058C60 11 C8 02 00 00 21 00 00 00 02 00 00 28 BA 0A 50 .....!......(..P
4000000000058C70 11 08 00 AC 00 21 60 00 20 0E F3 03 B0 09 00 43 .....!`. ......C
4000000000058C80 09 00 00 00 01 00 90 E5 F7 CF 4F 00 00 00 04 00 ..........O.....
4000000000058C90 11 C8 02 B2 18 10 00 00 00 02 00 00 38 A4 00 50 ............8..P
4000000000058CA0 03 70 00 10 00 10 10 00 58 01 42 C0 01 70 50 00 .p......X.B..pP.
4000000000058CB0 10 00 00 00 01 00 60 00 38 0E 73 03 60 03 00 42 ......`.8.s.`..B
4000000000058CC0 11 C8 02 10 00 21 A0 05 18 01 42 00 C8 67 FE 58 .....!....B..g.X
4000000000058CD0 11 08 00 AC 00 21 60 00 20 0E 73 03 50 07 00 43 .....!`. .s.P..C
4000000000058CE0 09 00 00 00 01 00 E0 00 18 31 20 00 00 00 04 00 .........1 .....
4000000000058CF0 11 38 00 1C 06 31 00 00 00 02 00 03 30 07 00 43 .8...1......0..C
4000000000058D00 11 30 14 1D 07 30 00 00 00 02 00 03 20 07 00 43 .0...0...... ..C
4000000000058D10 E3 78 FC 1D 3F E3 E1 00 D8 00 C2 03 F0 08 AA 00 .x..?...........
4000000000058D20 10 00 00 00 01 00 00 00 00 02 00 A0 40 06 00 40 ............@..@
4000000000058D30 0B 70 20 1C 00 21 E0 00 38 30 20 00 00 00 04 00 .p ..!..80 .....
4000000000058D40 09 28 01 1C 18 10 E0 00 BC 60 21 00 00 00 04 00 .(.......`!.....
4000000000058D50 10 00 00 00 01 00 60 00 38 0E F3 03 20 07 00 43 ......`.8... ..C
4000000000058D60 09 00 00 00 01 00 E0 00 C0 60 21 00 00 00 04 00 .........`!.....
4000000000058D70 11 00 00 00 01 00 60 00 38 0E F3 03 E0 06 00 43 ......`.8......C
4000000000058D80 08 30 00 4A 07 39 90 05 4C 01 42 00 00 00 04 00 .0.J.9..L.B.....
4000000000058D90 19 D0 02 4A 00 21 B0 05 00 00 42 03 E0 08 00 43 ...J.!....B....C
4000000000058DA0 11 00 00 00 01 00 00 00 00 02 00 00 28 F6 00 50 ............(..P
4000000000058DB0 09 40 A0 10 00 21 00 00 00 02 00 20 00 B0 02 84 .@...!..... ....
4000000000058DC0 0B 70 00 10 18 10 E0 70 3C 19 40 00 00 00 04 00 .p.....p<.@.....
4000000000058DD0 11 30 00 1C 07 39 00 00 00 02 80 03 C0 0A 00 43 .0...9.........C
4000000000058DE0 11 C8 02 9A 18 10 00 00 00 02 00 00 A8 57 00 50 .............W.P
4000000000058DF0 09 70 00 9C 10 10 10 00 58 01 42 40 05 40 00 84 .p......X.B@.@..
4000000000058E00 11 38 00 1C 86 39 00 00 00 02 80 03 F0 06 00 43 .8...9.........C
4000000000058E10 09 00 00 00 01 00 E0 00 BC 60 21 00 00 00 04 00 .........`!.....
4000000000058E20 10 00 00 00 01 00 60 00 38 0E F3 03 90 06 00 43 ......`.8......C
4000000000058E30 09 00 00 00 01 00 E0 00 C0 60 21 00 00 00 04 00 .........`!.....
4000000000058E40 10 00 00 00 01 00 60 00 38 0E F3 03 F0 06 00 43 ......`.8......C
4000000000058E50 09 00 00 00 01 00 E0 00 A4 20 20 00 00 00 04 00 .........  .....
4000000000058E60 11 30 00 1C 87 39 00 00 00 02 80 03 90 08 00 43 .0...9.........C
4000000000058E70 09 00 00 00 01 00 E0 00 B4 20 20 00 00 00 04 00 .........  .....
4000000000058E80 11 38 00 1C 86 39 E0 F8 3B 7E C6 03 20 00 00 43 .8...9..;~.. ..C
4000000000058E90 10 00 38 98 90 11 70 00 38 0C 73 03 F0 07 00 43 ..8...p.8.s....C
4000000000058EA0 09 00 00 00 01 00 90 E5 F7 CF 4F 00 00 00 04 00 ..........O.....
4000000000058EB0 11 C8 02 B2 18 10 00 00 00 02 00 00 18 A2 00 50 ...............P
4000000000058EC0 09 38 00 10 06 39 00 00 00 02 00 20 00 B0 02 84 .8...9..... ....
4000000000058ED0 F1 38 01 00 00 21 90 E5 F6 CF CF 03 90 FB FF 4B .8...!.........K
4000000000058EE0 09 38 01 10 00 10 E0 00 2C 21 20 00 00 00 04 00 .8......,! .....
4000000000058EF0 00 00 00 00 01 00 70 02 9C 28 00 00 00 00 04 00 ......p..(......
4000000000058F00 09 00 38 68 90 11 90 05 64 31 20 00 00 00 04 00 ..8h....d1 .....
4000000000058F10 0B 30 00 4E 87 B9 71 0A 00 00 48 00 00 00 04 00 .0.N..q...H.....
4000000000058F20 F1 38 01 00 00 21 00 00 00 02 00 00 A8 A1 00 50 .8...!.........P
4000000000058F30 08 08 00 AC 00 21 20 04 20 00 42 C0 00 40 1C E4 .....! . .B..@..
4000000000058F40 0B 70 00 5E B0 90 21 A4 F5 CF 4F 00 00 00 04 00 .p.^..!...O.....
4000000000058F50 D0 10 02 84 18 10 60 00 38 0E 73 03 60 FB FF 4A ......`.8.s.`..J
4000000000058F60 10 00 00 00 01 00 00 00 00 02 00 00 30 00 00 40 ............0..@
4000000000058F70 11 00 00 00 01 00 00 00 00 02 00 00 98 B5 05 50 ...............P
4000000000058F80 10 00 00 00 01 00 10 00 58 01 42 00 50 FB FF 48 ........X.B.P..H
4000000000058F90 11 C8 02 86 B0 10 00 00 00 02 00 00 F8 BC 05 50 ...............P
4000000000058FA0 09 70 00 60 B0 10 00 00 00 02 00 20 00 B0 02 84 .p.`....... ....
4000000000058FB0 10 00 00 00 01 00 60 00 38 0E 73 03 20 FB FF 4A ......`.8.s. ..J
4000000000058FC0 10 00 00 00 01 00 00 00 00 02 00 00 B0 FF FF 48 ...............H
4000000000058FD0 08 C8 02 10 00 21 A0 05 00 00 42 60 AB 00 00 90 .....!....B`....
4000000000058FE0 19 28 01 6C 00 21 60 02 00 00 42 00 C8 32 FC 58 .(.l.!`...B..2.X
4000000000058FF0 08 00 00 00 01 00 10 00 58 01 42 00 00 00 04 00 ........X.B.....
4000000000059000 18 00 20 92 90 11 00 88 BA 20 23 00 40 FB FF 48 .. ...... #.@..H
4000000000059010 09 70 00 92 10 10 00 00 00 02 00 40 0B D8 59 00 .p.........@..Y.
4000000000059020 11 00 00 00 01 00 90 05 38 2C 00 00 F8 E8 0D 50 ........8,.....P
4000000000059030 09 30 00 10 87 39 10 00 58 01 42 20 0B 28 02 84 .0...9..X.B .(..
4000000000059040 CB 40 04 00 00 24 00 00 00 02 00 A0 04 40 58 00 .@...$.......@X.
4000000000059050 11 D0 02 4A 00 21 00 00 00 02 00 00 C8 E8 0D 50 ...J.!.........P
4000000000059060 08 08 00 AC 00 21 60 02 20 00 42 00 00 00 04 00 .....!`. .B.....
4000000000059070 19 C8 02 8A 00 21 A0 05 94 00 42 00 98 E9 0D 50 .....!....B....P
4000000000059080 03 38 00 10 86 39 10 00 58 01 42 03 11 00 00 90 .8...9..X.B.....
4000000000059090 EB 40 00 00 00 21 70 33 21 00 40 00 00 00 04 00 .@...!p3!.@.....
40000000000590A0 0B 38 04 6E 86 F9 71 03 E8 00 42 00 00 00 04 00 .8.n..q...B.....
40000000000590B0 11 00 00 00 01 00 70 48 DC 0C E3 03 F0 04 00 42 ......pH.......B
40000000000590C0 11 00 00 00 01 00 70 00 DC 0C 63 03 20 FB FF 4B ......p...c. ..K
40000000000590D0 08 C0 05 00 00 24 00 00 00 02 00 00 00 00 04 00 .....$..........
40000000000590E0 09 00 02 00 00 21 00 00 00 02 00 00 00 00 04 00 .....!..........
40000000000590F0 09 00 00 00 01 00 10 03 00 01 42 40 05 00 00 84 ..........B@....
4000000000059100 08 38 00 54 86 39 F0 88 01 10 40 A0 1B 88 01 84 .8.T.9....@.....
4000000000059110 0B 70 00 6C 00 A1 51 02 E4 00 42 00 F0 08 AA 00 .p.l..Q...B.....
4000000000059120 11 00 00 00 01 C0 51 02 E0 00 42 A0 D0 02 00 40 ......Q...B....@
4000000000059130 08 00 00 00 01 00 00 00 00 02 00 00 00 00 04 00 ................
4000000000059140 08 30 21 1C 00 21 B0 65 F7 CF 4F C0 4B EF 9F 9F .0!..!.e..O.K...
4000000000059150 09 E0 02 4A 00 21 A0 0D 00 00 48 A0 24 28 01 84 ...J.!....H.$(..
4000000000059160 08 00 00 00 01 00 F0 00 98 30 20 20 16 BB 01 80 .........0  ....
4000000000059170 09 00 00 00 01 00 B0 05 6C 31 20 00 00 00 04 00 ........l1 .....
4000000000059180 09 F0 02 BC 18 10 90 05 AC 30 20 00 00 00 04 00 .........0 .....
4000000000059190 11 F8 02 1E 18 10 00 00 00 02 00 00 B8 2E FC 58 ...............X
40000000000591A0 09 78 00 4C 18 10 00 00 00 02 00 20 00 B0 02 84 .x.L....... ....
40000000000591B0 11 C8 02 1E 18 10 00 00 00 02 00 00 D8 4D FF 58 .............M.X
40000000000591C0 08 40 94 10 00 20 00 00 00 02 00 20 00 B0 02 84 .@... ..... ....
40000000000591D0 19 38 C4 74 86 30 00 00 00 02 00 03 80 03 00 43 .8.t.0.........C
40000000000591E0 09 28 A9 10 00 20 00 00 00 02 00 40 A5 DA 01 80 .(... .....@....
40000000000591F0 11 30 94 54 87 30 C0 02 A8 2C 80 03 10 FF FF 4B .0.T.0...,.....K
4000000000059200 09 70 00 5C 10 10 90 05 B0 00 42 E0 04 28 59 00 .p.\......B..(Y.
4000000000059210 01 00 00 00 01 00 60 02 38 2C 00 00 00 00 04 00 ......`.8,......
4000000000059220 11 D0 02 4C 00 21 00 00 00 02 00 00 F8 E6 0D 50 ...L.!.........P
4000000000059230 08 08 00 AC 00 21 80 02 20 00 42 00 00 00 04 00 .....!.. .B.....
4000000000059240 19 C8 02 4E 00 21 A0 05 98 00 42 00 D8 E6 0D 50 ...N.!....B....P
4000000000059250 11 08 00 AC 00 21 70 40 A0 0C 61 03 D0 00 00 42 .....!p@..a....B
4000000000059260 08 00 00 00 01 00 90 4D 00 00 48 00 00 00 04 00 .......M..H.....
4000000000059270 19 D0 02 56 18 10 00 00 00 02 00 00 58 1C FC 58 ...V........X..X
4000000000059280 09 30 01 64 10 10 10 00 58 01 42 20 0B 38 01 84 .0.d....X.B .8..
4000000000059290 11 00 00 00 01 00 A0 05 98 2C 00 00 78 E7 0D 50 .........,..x..P
40000000000592A0 03 40 98 10 05 20 10 00 58 01 42 A0 54 42 00 80 .@... ..X.B.TB..
40000000000592B0 10 00 00 00 01 00 60 28 A9 0E E1 03 50 FE FF 4B ......`(....P..K
40000000000592C0 09 70 00 5C 10 10 90 05 B0 00 42 E0 04 28 59 00 .p.\......B..(Y.
40000000000592D0 01 00 00 00 01 00 60 02 38 2C 00 00 00 00 04 00 ......`.8,......
40000000000592E0 11 D0 02 4C 00 21 00 00 00 02 00 00 38 E6 0D 50 ...L.!......8..P
40000000000592F0 08 08 00 AC 00 21 80 02 20 00 42 00 00 00 04 00 .....!.. .B.....
4000000000059300 19 C8 02 4E 00 21 A0 05 98 00 42 00 18 E6 0D 50 ...N.!....B....P
4000000000059310 10 08 00 AC 00 21 70 40 A0 0C E1 03 50 FF FF 4A .....!p@....P..J
4000000000059320 08 28 05 4A 00 21 00 00 00 02 00 20 0B 02 00 90 .(.J.!..... ....
4000000000059330 19 D0 02 56 18 10 00 00 00 02 00 00 98 1B FC 58 ...V...........X
4000000000059340 10 08 00 AC 00 21 60 28 A9 0E 61 03 80 FF FF 4A .....!`(..a....J
4000000000059350 10 00 00 00 01 00 00 00 00 02 00 00 B0 FD FF 48 ...............H
4000000000059360 09 00 00 00 01 00 E0 00 38 30 20 00 00 00 04 00 ........80 .....
4000000000059370 12 38 00 1C 06 F9 01 E0 FC FF 25 A0 F0 FF FF 48 .8........%....H
4000000000059380 10 00 00 00 01 00 00 00 00 02 00 00 B0 F9 FF 48 ...............H
4000000000059390 11 00 00 00 01 00 00 00 00 02 00 00 78 B1 05 50 ............x..P
40000000000593A0 10 00 00 00 01 00 10 00 58 01 42 00 C0 F8 FF 48 ........X.B....H
40000000000593B0 11 C8 02 86 B0 10 00 00 00 02 00 00 D8 B8 05 50 ...............P
40000000000593C0 09 70 00 60 B0 10 00 00 00 02 00 20 00 B0 02 84 .p.`....... ....
40000000000593D0 10 00 00 00 01 00 60 00 38 0E 73 03 90 F8 FF 4A ......`.8.s....J
40000000000593E0 10 00 00 00 01 00 00 00 00 02 00 00 B0 FF FF 48 ...............H
40000000000593F0 09 00 00 00 01 00 E0 00 38 30 20 00 00 00 04 00 ........80 .....
4000000000059400 12 30 00 1C 07 B9 01 A0 FE FF 25 A0 F0 FF FF 48 .0........%....H
4000000000059410 10 00 00 00 01 00 00 00 00 02 00 00 30 FD FF 48 ............0..H
4000000000059420 09 70 00 5E B0 10 00 00 00 02 00 A0 C4 EE 97 9F .p.^............
4000000000059430 10 28 01 4A 18 10 60 00 38 0E 73 03 30 F9 FF 4A .(.J..`.8.s.0..J
4000000000059440 10 00 00 00 01 00 00 00 00 02 00 00 30 00 00 40 ............0..@
4000000000059450 11 00 00 00 01 00 00 00 00 02 00 00 B8 B0 05 50 ...............P
4000000000059460 10 00 00 00 01 00 10 00 58 01 42 00 20 F9 FF 48 ........X.B. ..H
4000000000059470 11 C8 02 86 B0 10 00 00 00 02 00 00 18 B8 05 50 ...............P
4000000000059480 09 70 00 60 B0 10 00 00 00 02 00 20 00 B0 02 84 .p.`....... ....
4000000000059490 10 00 00 00 01 00 60 00 38 0E 73 03 F0 F8 FF 4A ......`.8.s....J
40000000000594A0 10 00 00 00 01 00 00 00 00 02 00 00 B0 FF FF 48 ...............H
40000000000594B0 11 C8 02 86 B0 10 00 00 00 02 00 00 D8 B7 05 50 ...............P
40000000000594C0 09 70 00 60 B0 10 00 00 00 02 00 20 00 B0 02 84 .p.`....... ....
40000000000594D0 10 00 00 00 01 00 60 00 38 0E 73 03 80 F9 FF 4A ......`.8.s....J
40000000000594E0 10 00 00 00 01 00 00 00 00 02 00 00 50 00 00 40 ............P..@
40000000000594F0 11 00 00 00 01 00 00 00 00 02 00 00 18 56 02 50 .............V.P
4000000000059500 09 70 00 5E B0 10 00 00 00 02 00 20 00 B0 02 84 .p.^....... ....
4000000000059510 10 00 00 00 01 00 60 00 38 0E 73 03 20 F9 FF 4A ......`.8.s. ..J
4000000000059520 10 00 00 00 01 00 00 00 00 02 00 00 90 FF FF 48 ...............H
4000000000059530 11 00 00 00 01 00 00 00 00 02 00 00 D8 AF 05 50 ...............P
4000000000059540 11 00 00 00 01 00 10 00 58 01 42 00 10 F9 FF 48 ........X.B....H
4000000000059550 08 70 90 FB AC 27 00 0C 00 01 42 20 AB 00 00 90 .p...'....B ....
4000000000059560 0B 50 01 00 00 21 E0 00 38 30 20 20 06 00 02 84 .P...!..80  ....
4000000000059570 11 D0 02 1C 18 10 00 00 00 02 00 00 58 19 FC 58 ............X..X
4000000000059580 08 00 00 00 01 00 10 00 58 01 42 E0 70 03 1A E2 ........X.B.p...
4000000000059590 17 00 00 00 00 C8 01 28 FB FF 25 00 70 FB FF 48 .......(..%.p..H
40000000000595A0 09 00 00 00 01 00 70 18 DF 0C 63 00 00 00 04 00 ......p...c.....
40000000000595B0 10 00 00 00 01 80 81 13 00 00 48 03 30 FB FF 4A ..........H.0..J
40000000000595C0 09 00 00 00 01 00 70 40 DE 0C 61 00 00 00 04 00 ......p@..a.....
40000000000595D0 10 00 00 00 01 80 81 1B 00 00 48 03 10 FB FF 4A ..........H....J
40000000000595E0 09 00 00 00 01 00 70 38 DE 0C 61 00 00 00 04 00 ......p8..a.....
40000000000595F0 10 00 00 00 01 80 81 23 00 00 48 03 F0 FA FF 4A .......#..H....J
4000000000059600 03 30 28 6F 87 30 00 04 00 00 42 03 67 00 00 90 .0(o.0....B.g...
4000000000059610 10 00 00 00 01 C0 81 2B 00 00 48 00 E0 FA FF 48 .......+..H....H
4000000000059620 08 C8 2A 00 00 24 A0 05 40 31 20 A0 04 00 00 84 ..*..$..@1 .....
4000000000059630 19 00 00 00 01 00 00 00 00 02 00 00 98 18 FC 58 ...............X
4000000000059640 09 70 00 5E B0 10 00 00 00 02 00 20 00 B0 02 84 .p.^....... ....
4000000000059650 10 00 00 00 01 00 60 00 38 0E 73 03 10 F7 FF 4A ......`.8.s....J
4000000000059660 10 00 00 00 01 00 00 00 00 02 00 00 10 FE FF 48 ...............H
4000000000059670 08 50 05 00 00 24 00 00 00 02 00 00 00 00 04 00 .P...$..........
4000000000059680 08 70 00 82 10 10 00 00 00 02 00 20 45 0D 18 91 .p......... E...
4000000000059690 09 C8 02 6C 00 21 00 20 D2 20 23 00 00 00 04 00 ...l.!. . #.....
40000000000596A0 09 70 FC 1D 3F 23 00 00 00 02 00 00 00 00 04 00 .p..?#..........
40000000000596B0 11 00 38 82 90 11 00 00 00 02 00 00 18 25 FF 58 ..8..........%.X
40000000000596C0 0B 08 00 AC 00 21 90 A5 F6 CF 4F 00 00 00 04 00 .....!....O.....
40000000000596D0 11 C8 02 B2 18 10 00 00 00 02 00 00 B8 86 05 50 ...............P
40000000000596E0 11 00 00 00 01 00 10 00 58 01 42 00 C0 AA FF 48 ........X.B....H
40000000000596F0 08 78 A0 02 41 24 E0 F8 3B 7E 46 20 45 0D 18 91 .x..A$..;~F E...
4000000000059700 09 C8 02 6C 00 21 00 20 D2 20 23 00 00 00 04 00 ...l.!. . #.....
4000000000059710 09 00 00 00 01 00 00 00 00 02 00 00 00 00 04 00 ................
4000000000059720 09 00 38 1E 90 11 E0 00 04 21 20 00 00 00 04 00 ..8......! .....
4000000000059730 09 00 00 00 01 00 E0 F8 3B 7E 46 00 00 00 04 00 ........;~F.....
4000000000059740 11 00 38 82 90 11 00 00 00 02 00 00 88 24 FF 58 ..8..........$.X
4000000000059750 0B 08 00 AC 00 21 90 A5 F6 CF 4F 00 00 00 04 00 .....!....O.....
4000000000059760 11 C8 02 B2 18 10 00 00 00 02 00 00 28 86 05 50 ............(..P
4000000000059770 10 00 00 00 01 00 10 00 58 01 42 00 30 AA FF 48 ........X.B.0..H
4000000000059780 11 C8 02 50 10 10 00 00 00 02 00 00 C8 2B FC 58 ...P.........+.X
4000000000059790 09 70 50 18 00 21 00 00 00 02 00 20 00 B0 02 84 .pP..!..... ....
40000000000597A0 11 C8 02 1C 10 10 00 00 00 02 00 00 A8 2B FC 58 .............+.X
40000000000597B0 08 70 40 18 00 21 A0 0D 00 00 48 00 00 00 04 00 .p@..!....H.....
40000000000597C0 09 E8 02 48 00 21 10 00 58 01 42 20 0B 00 01 84 ...H.!..X.B ....
40000000000597D0 09 D8 02 1C 10 10 00 00 00 02 00 C0 C1 61 00 84 .............a..
40000000000597E0 11 E0 02 1C 10 10 00 00 00 02 00 00 E8 22 00 50 .............".P
40000000000597F0 03 08 00 AC 00 21 50 02 20 00 42 C0 C1 EE BF 9E .....!P. .B.....
4000000000059800 09 00 00 00 01 00 E0 00 38 30 20 00 00 00 04 00 ........80 .....
4000000000059810 11 C8 02 1C 18 10 00 00 00 02 00 00 78 0E FC 58 ............x..X
4000000000059820 0B 08 00 AC 00 21 E0 20 F7 59 4F 00 00 00 04 00 .....!. .YO.....
4000000000059830 09 00 00 00 01 00 E0 00 38 30 20 00 00 00 04 00 ........80 .....
4000000000059840 11 C8 02 1C 18 10 00 00 00 02 00 00 48 0E FC 58 ............H..X
4000000000059850 11 08 00 AC 00 21 90 05 94 00 42 00 38 1D FC 58 .....!....B.8..X
4000000000059860 09 70 50 03 46 24 F0 08 00 00 48 20 1B 00 00 90 .pP.F$....H ....
4000000000059870 09 00 00 00 01 00 00 00 00 02 00 00 00 00 04 00 ................
4000000000059880 10 00 3C 1C 90 11 00 00 00 02 00 00 48 AC 05 50 ..<.........H..P
4000000000059890 0A 70 00 10 10 10 00 00 00 02 00 C0 20 70 1C 50 .p.......... p.P
40000000000598A0 19 70 C0 03 32 24 00 00 00 02 00 03 50 00 00 43 .p..2$......P..C
40000000000598B0 0B 00 00 00 01 00 E0 00 38 20 20 00 00 00 04 00 ........8  .....
40000000000598C0 11 38 00 1C 86 39 E0 C0 05 64 48 03 30 00 00 43 .8...9...dH.0..C
40000000000598D0 0B 00 00 00 01 00 E0 00 38 20 20 00 00 00 04 00 ........8  .....
40000000000598E0 10 00 00 00 01 00 60 00 38 0E F3 03 80 FF FF 49 ......`.8......I
40000000000598F0 09 48 51 03 46 24 90 05 D8 00 42 40 15 00 00 90 .HQ.F$....B@....
4000000000059900 11 00 00 00 01 00 00 00 00 02 00 00 C8 22 FF 58 .............".X
4000000000059910 0B 08 00 AC 00 21 90 A5 F6 CF 4F 00 00 00 04 00 .....!....O.....
4000000000059920 11 C8 02 B2 18 10 00 00 00 02 00 00 68 84 05 50 ............h..P
4000000000059930 08 00 00 00 01 00 E0 00 04 21 20 20 00 B0 02 84 .........!  ....
4000000000059940 0B 00 10 69 90 11 E0 F8 3B 7E 46 00 00 00 04 00 ...i....;~F.....
4000000000059950 10 00 38 82 90 11 00 00 00 02 00 00 50 A8 FF 48 ..8.........P..H
4000000000059960 11 00 00 00 01 00 60 00 A8 0E 73 03 80 E0 FF 4A ......`...s....J
4000000000059970 11 70 40 1C 00 21 60 00 9C 0E 73 03 50 00 00 42 .p@..!`...s.P..B
4000000000059980 0B 78 00 1C 18 10 60 00 3C 0E 72 00 00 00 04 00 .x....`.<.r.....
4000000000059990 EB 78 10 1E 00 E1 01 01 3C 20 20 00 00 00 04 00 .x......<  .....
40000000000599A0 09 00 00 00 01 C0 01 41 40 5C 40 00 00 00 04 00 .......A@\@.....
40000000000599B0 E8 00 40 1E 90 11 00 00 00 02 00 00 00 00 04 00 ..@.............
40000000000599C0 11 C8 02 1C 18 10 00 00 00 02 00 00 C8 4B 00 50 .............K.P
40000000000599D0 09 70 00 4A 10 10 10 00 58 01 42 40 05 40 00 84 .p.J....X.B@.@..
40000000000599E0 02 48 51 03 46 24 E0 F8 3B 7E 46 00 00 00 04 00 .HQ.F$..;~F.....
40000000000599F0 18 00 00 00 01 00 00 70 94 20 23 00 B0 A7 FF 48 .......p. #....H
4000000000059A00 11 00 00 00 01 00 60 00 A8 0E 73 03 70 FF FF 4A ......`...s.p..J
4000000000059A10 09 70 00 4A 10 10 00 00 00 02 00 20 45 0D 18 91 .p.J....... E...
4000000000059A20 09 70 FC 1D 3F 23 00 00 00 02 00 00 00 00 04 00 .p..?#..........
4000000000059A30 10 00 38 4A 90 11 00 00 00 02 00 00 70 A7 FF 48 ..8J........p..H
4000000000059A40 11 00 00 00 01 00 00 00 00 02 00 00 C8 AA 05 50 ...............P
4000000000059A50 11 00 00 00 01 00 10 00 58 01 42 00 40 DF FF 48 ........X.B.@..H
4000000000059A60 0B 70 F0 03 3B 24 00 00 00 02 00 00 00 00 04 00 .p..;$..........
4000000000059A70 11 C8 02 1C B0 10 00 00 00 02 00 00 18 B2 05 50 ...............P
4000000000059A80 09 70 00 60 B0 10 00 00 00 02 00 20 00 B0 02 84 .p.`....... ....
4000000000059A90 10 00 00 00 01 00 60 00 38 0E 73 03 00 DF FF 4A ......`.8.s....J
4000000000059AA0 10 00 00 00 01 00 00 00 00 02 00 00 A0 FF FF 48 ...............H
4000000000059AB0 08 00 00 00 01 00 E0 00 04 21 20 20 45 0D 18 91 .........!  E...
4000000000059AC0 09 C8 02 4E 00 21 00 C8 D1 20 23 40 05 00 00 84 ...N.!... #@....
4000000000059AD0 09 70 FC 1D 3F 23 00 00 00 02 00 00 00 00 04 00 .p..?#..........
4000000000059AE0 11 00 38 82 90 11 00 00 00 02 00 00 E8 20 FF 58 ..8.......... .X
4000000000059AF0 0B 08 00 AC 00 21 90 65 F6 CF 4F 00 00 00 04 00 .....!.e..O.....
4000000000059B00 11 C8 02 B2 18 10 00 00 00 02 00 00 88 82 05 50 ...............P
4000000000059B10 10 00 00 00 01 00 10 00 58 01 42 00 90 A6 FF 48 ........X.B....H
4000000000059B20 08 D0 02 42 00 21 B0 05 88 00 42 80 0B 18 01 84 ...B.!....B.....
4000000000059B30 19 E8 02 48 00 21 90 05 80 00 42 00 98 1F 00 50 ...H.!....B....P
4000000000059B40 11 08 00 AC 00 21 90 05 20 00 42 00 48 1A FC 58 .....!.. .B.H..X
4000000000059B50 11 C8 02 4A 10 10 00 00 00 02 00 00 F8 62 02 50 ...J.........b.P
4000000000059B60 10 08 00 AC 00 21 A0 02 20 00 42 00 70 CC FF 48 .....!.. .B.p..H
4000000000059B70 09 00 00 00 01 00 E0 08 00 00 48 00 00 00 04 00 ..........H.....
4000000000059B80 11 00 38 52 90 11 00 00 00 02 00 00 08 55 05 50 ..8R.........U.P
4000000000059B90 10 08 00 AC 00 21 90 25 00 00 48 00 38 A9 05 50 .....!.%..H.8..P
4000000000059BA0 09 00 00 00 01 00 90 02 A0 30 20 00 00 00 04 00 .........0 .....
4000000000059BB0 10 00 00 00 01 00 E0 20 A4 00 42 00 10 B3 FF 48 ....... ..B....H
4000000000059BC0 09 00 00 00 01 00 90 02 A0 30 20 00 00 00 04 00 .........0 .....
4000000000059BD0 10 00 00 00 01 00 E0 20 A4 00 42 00 C0 B6 FF 48 ....... ..B....H
4000000000059BE0 09 00 00 00 01 00 60 02 A0 30 20 00 00 00 04 00 ......`..0 .....
4000000000059BF0 10 C8 02 4C 00 21 E0 20 98 00 42 00 50 BC FF 48 ...L.!. ..B.P..H
4000000000059C00 09 00 00 00 01 00 60 02 A0 30 20 00 00 00 04 00 ......`..0 .....
4000000000059C10 10 00 00 00 01 00 70 42 98 00 42 00 80 C2 FF 48 ......pB..B....H
4000000000059C20 09 00 00 00 01 00 60 02 A0 30 20 00 00 00 04 00 ......`..0 .....
4000000000059C30 10 00 00 00 01 00 50 42 98 00 42 00 20 C3 FF 48 ......PB..B. ..H
4000000000059C40 09 00 00 00 01 00 90 05 A0 30 20 00 00 00 04 00 .........0 .....
4000000000059C50 10 00 00 00 01 00 E0 20 64 01 42 00 F0 CA FF 48 ....... d.B....H
4000000000059C60 09 00 00 00 01 00 50 02 A0 30 20 00 00 00 04 00 ......P..0 .....
4000000000059C70 11 00 00 00 01 00 E0 40 94 00 42 00 10 CD FF 48 .......@..B....H
4000000000059C80 18 58 45 18 80 05 00 41 30 00 42 00 00 00 00 20 .XE....A0.B.... 
4000000000059C90 09 60 00 19 3F 23 60 A2 07 6C 48 40 05 00 C4 00 .`..?#`..lH@....
4000000000059CA0 09 70 E0 18 00 21 00 08 40 B0 23 E0 01 61 00 84 .p...!..@.#..a..
4000000000059CB0 08 00 00 00 01 00 00 18 39 30 23 C0 01 0F D8 90 ........90#.....
4000000000059CC0 0B 00 94 1E 90 11 E0 00 38 20 20 00 00 00 04 00 ........8  .....
4000000000059CD0 11 38 00 1C 86 31 00 00 00 02 00 03 30 00 00 43 .8...1......0..C
4000000000059CE0 09 00 00 00 01 00 E0 02 98 20 20 00 00 00 04 00 .........  .....
4000000000059CF0 10 00 00 00 01 00 60 70 39 0E E1 03 40 16 00 41 ......`p9...@..A
4000000000059D00 09 00 00 00 01 00 C0 A2 F5 D1 4F 00 00 00 04 00 ..........O.....
4000000000059D10 11 60 01 58 18 10 00 00 00 02 00 00 38 88 00 50 .`.X........8..P
4000000000059D20 09 70 60 18 00 21 10 40 32 00 42 C0 00 40 1C E4 .p`..!.@2.B..@..
4000000000059D30 08 00 20 1C 98 11 00 00 00 02 00 C0 81 42 00 84 .. ..........B..
4000000000059D40 19 08 00 02 18 10 00 00 00 02 00 03 F0 0B 00 43 ...............C
4000000000059D50 09 00 00 00 01 00 E0 00 38 20 20 00 00 00 04 00 ........8  .....
4000000000059D60 11 00 00 00 01 00 60 20 38 0E 28 03 D0 0B 00 42 ......` 8.(....B
4000000000059D70 09 00 00 00 01 C0 E1 40 20 00 42 00 00 00 04 00 .......@ .B.....
4000000000059D80 E8 48 01 1C 18 10 00 00 00 02 00 00 00 00 04 00 .H..............
4000000000059D90 09 00 00 00 01 00 C0 E2 F5 D1 4F 00 00 00 04 00 ..........O.....
4000000000059DA0 11 60 01 58 18 10 00 00 00 02 00 00 A8 87 00 50 .`.X...........P
4000000000059DB0 09 08 20 19 00 21 00 00 00 02 00 C0 00 40 1C E4 .. ..!.......@..
4000000000059DC0 10 08 00 02 18 10 00 00 00 02 00 03 B0 0B 00 43 ...............C
4000000000059DD0 0B 70 A0 10 00 21 E0 00 38 20 20 00 00 00 04 00 .p...!..8  .....
4000000000059DE0 11 00 00 00 01 00 60 20 38 0E A8 03 10 0D 00 42 ......` 8......B
4000000000059DF0 09 00 00 00 01 80 E1 40 31 00 42 00 00 00 04 00 .......@1.B.....
4000000000059E00 C8 00 00 1C 98 11 00 00 00 02 00 00 00 00 04 00 ................
4000000000059E10 09 00 00 00 01 00 C0 22 F6 D1 4F 00 00 00 04 00 ......."..O.....
4000000000059E20 11 60 01 58 18 10 00 00 00 02 00 00 28 87 00 50 .`.X........(..P
4000000000059E30 09 08 20 19 00 21 00 00 00 02 00 C0 00 40 1C E4 .. ..!.......@..
4000000000059E40 10 08 00 02 18 10 00 00 00 02 00 03 80 0B 00 43 ...............C
4000000000059E50 0B 70 A0 10 00 21 E0 00 38 20 20 00 00 00 04 00 .p...!..8  .....
4000000000059E60 11 00 00 00 01 00 60 20 38 0E A8 03 60 0C 00 42 ......` 8...`..B
4000000000059E70 09 00 00 00 01 80 F1 80 31 00 42 00 00 00 04 00 ........1.B.....
4000000000059E80 C8 00 00 1E 98 11 00 00 00 02 00 00 00 00 04 00 ................
4000000000059E90 09 00 00 00 01 00 E0 40 80 00 42 00 00 00 04 00 .......@..B.....
4000000000059EA0 11 60 01 1C 18 10 00 00 00 02 00 00 28 58 01 50 .`..........(X.P
4000000000059EB0 08 70 80 18 00 21 00 00 00 02 00 C0 00 40 1C E4 .p...!.......@..
4000000000059EC0 02 08 20 19 00 21 F0 00 20 00 42 00 00 00 04 00 .. ..!.. .B.....
4000000000059ED0 19 08 00 02 18 10 00 40 38 30 23 03 40 00 00 43 .......@80#.@..C
4000000000059EE0 03 00 00 00 01 00 60 30 88 0E A8 C3 41 40 00 84 ......`0....A@..
4000000000059EF0 E3 78 00 1C 10 10 00 00 00 02 80 E3 81 78 B8 80 .x...........x..
4000000000059F00 E8 00 3C 1C 90 11 00 00 00 02 00 00 00 00 04 00 ..<.............
4000000000059F10 0B 70 40 18 00 21 E0 00 38 20 20 00 00 00 04 00 .p@..!..8  .....
4000000000059F20 10 00 00 00 01 00 70 00 38 0C 73 03 C0 0A 00 42 ......p.8.s....B
4000000000059F30 09 00 00 00 01 00 C0 62 F6 D1 4F 00 00 00 04 00 .......b..O.....
4000000000059F40 11 60 01 58 18 10 00 00 00 02 00 00 88 81 05 50 .`.X...........P
4000000000059F50 09 08 20 19 00 21 C0 02 80 30 20 A0 05 00 00 84 .. ..!...0 .....
4000000000059F60 0B 08 00 02 18 10 E0 20 07 6E 48 00 00 00 04 00 ....... .nH.....
4000000000059F70 09 00 00 00 01 00 00 00 00 02 00 00 00 00 04 00 ................
4000000000059F80 11 70 01 1C 18 10 00 00 00 02 00 00 08 06 01 50 .p.............P
4000000000059F90 09 08 20 19 00 21 00 00 00 02 00 A0 05 00 00 84 .. ..!..........
4000000000059FA0 0B 08 00 02 18 10 C0 62 F6 65 4F 00 00 00 04 00 .......b.eO.....
4000000000059FB0 11 60 01 58 18 10 00 00 00 02 00 00 58 80 05 50 .`.X........X..P
4000000000059FC0 09 08 20 19 00 21 00 00 00 02 00 A0 45 00 00 90 .. ..!......E...
4000000000059FD0 0B 08 00 02 18 10 C0 C2 07 66 48 00 00 00 04 00 .........fH.....
4000000000059FE0 11 00 00 00 01 00 00 00 00 02 00 00 E8 83 05 50 ...............P
4000000000059FF0 09 08 20 19 00 21 00 00 00 02 00 A0 45 00 00 90 .. ..!......E...
400000000005A000 0B 08 00 02 18 10 C0 42 06 8C 48 00 00 00 04 00 .......B..H.....
400000000005A010 11 00 00 00 01 00 00 00 00 02 00 00 B8 83 05 50 ...............P
400000000005A020 09 08 20 19 00 21 00 00 00 02 00 A0 05 04 14 90 .. ..!..........
400000000005A030 0B 08 00 02 18 10 C0 A2 06 62 49 00 00 00 04 00 .........bI.....
400000000005A040 11 00 00 00 01 00 00 00 00 02 00 00 88 83 05 50 ...............P
400000000005A050 09 08 20 19 00 21 00 00 00 02 00 E0 01 62 00 84 .. ..!.......b..
400000000005A060 09 08 00 02 18 10 D0 02 3C 30 20 00 00 00 04 00 ........<0 .....
400000000005A070 09 00 00 00 01 00 C0 E2 F5 67 4F 00 00 00 04 00 .........gO.....
400000000005A080 11 60 01 58 18 10 00 00 00 02 00 00 88 7F 05 50 .`.X...........P
400000000005A090 09 08 20 19 00 21 00 00 00 02 00 A0 85 00 00 90 .. ..!..........
400000000005A0A0 0B 08 00 02 18 10 C0 E2 05 8C 48 00 00 00 04 00 ..........H.....
400000000005A0B0 11 00 00 00 01 00 00 00 00 02 00 00 18 83 05 50 ...............P
400000000005A0C0 09 08 20 19 00 21 00 00 00 02 00 A0 45 00 00 90 .. ..!......E...
400000000005A0D0 0B 08 00 02 18 10 C0 62 05 82 48 00 00 00 04 00 .......b..H.....
400000000005A0E0 11 00 00 00 01 00 00 00 00 02 00 00 E8 82 05 50 ...............P
400000000005A0F0 09 08 20 19 00 21 00 00 00 02 00 A0 45 00 00 90 .. ..!......E...
400000000005A100 09 00 00 00 01 00 10 00 04 30 20 00 00 00 04 00 .........0 .....
400000000005A110 11 60 D1 03 36 24 00 00 00 02 00 00 B8 82 05 50 .`..6$.........P
400000000005A120 09 08 20 19 00 21 00 00 00 02 00 80 15 00 00 90 .. ..!..........
400000000005A130 0B 08 00 02 18 10 E0 20 07 6E 48 00 00 00 04 00 ....... .nH.....
400000000005A140 0B 00 00 00 01 00 00 00 38 30 23 C0 C1 0B 18 91 ........80#.....
400000000005A150 09 00 00 00 01 00 00 00 00 02 00 00 00 00 04 00 ................
400000000005A160 11 00 80 1C 98 11 00 00 00 02 00 00 28 8D 00 50 ............(..P
400000000005A170 09 08 20 19 00 21 00 00 00 02 00 80 15 04 00 90 .. ..!..........
400000000005A180 11 08 00 02 18 10 00 00 00 02 00 00 88 5A 05 50 .............Z.P
400000000005A190 09 08 20 19 00 21 00 00 00 02 00 E0 00 40 18 E6 .. ..!.......@..
400000000005A1A0 10 08 00 02 18 10 00 00 00 02 00 03 70 0A 00 43 ............p..C
400000000005A1B0 11 60 09 01 00 24 80 02 00 00 42 00 58 5A 05 50 .`...$....B.XZ.P
400000000005A1C0 09 08 20 19 00 21 00 00 00 02 00 E0 00 40 18 E6 .. ..!.......@..
400000000005A1D0 10 08 00 02 18 10 00 00 00 02 00 03 B0 09 00 43 ...............C
400000000005A1E0 11 60 0D 01 00 24 70 02 00 00 42 00 28 5A 05 50 .`...$p...B.(Z.P
400000000005A1F0 09 08 20 19 00 21 00 00 00 02 00 E0 00 40 18 E6 .. ..!.......@..
400000000005A200 10 08 00 02 18 10 00 00 00 02 00 03 20 09 00 43 ............ ..C
400000000005A210 08 30 01 00 00 21 00 00 00 02 00 00 00 00 04 00 .0...!..........
400000000005A220 11 70 A0 40 00 21 60 00 A0 0E 72 03 C0 00 00 43 .p.@.!`...r....C
400000000005A230 09 00 00 00 01 00 E0 00 38 20 20 00 00 00 04 00 ........8  .....
400000000005A240 10 00 00 00 01 00 70 70 38 0C 28 03 A0 00 00 42 ......pp8.(....B
400000000005A250 0B 70 B0 02 39 24 00 00 00 02 00 00 00 00 04 00 .p..9$..........
400000000005A260 09 00 00 00 01 00 E0 00 38 20 20 00 00 00 04 00 ........8  .....
400000000005A270 10 00 00 00 01 00 70 00 38 0C 73 03 70 00 00 42 ......p.8.s.p..B
400000000005A280 09 70 40 18 00 21 00 00 00 02 00 80 15 04 00 90 .p@..!..........
400000000005A290 09 00 00 00 01 00 E0 00 38 20 20 00 00 00 04 00 ........8  .....
400000000005A2A0 11 38 00 1C 86 39 00 00 00 02 80 03 A0 0F 00 43 .8...9.........C
400000000005A2B0 11 00 00 00 01 00 00 00 00 02 00 00 98 3E 05 50 .............>.P
400000000005A2C0 09 00 00 00 01 00 10 40 32 00 42 00 00 00 04 00 .......@2.B.....
400000000005A2D0 09 08 00 02 18 10 00 00 00 02 00 00 00 00 04 00 ................
400000000005A2E0 11 70 A0 02 39 24 60 00 9C 0E 72 03 90 00 00 43 .p..9$`...r....C
400000000005A2F0 0B 00 00 00 01 00 E0 00 38 20 20 00 00 00 04 00 ........8  .....
400000000005A300 10 00 00 00 01 00 70 00 38 0C 73 03 70 00 00 42 ......p.8.s.p..B
400000000005A310 09 78 40 18 00 21 00 00 00 02 00 80 25 04 00 90 .x@..!......%...
400000000005A320 09 00 00 00 01 00 F0 00 3C 20 20 00 00 00 04 00 ........<  .....
400000000005A330 11 38 00 1E 86 39 00 00 00 02 80 03 D0 0D 00 43 .8...9.........C
400000000005A340 11 00 00 00 01 00 00 00 00 02 00 00 08 3E 05 50 .............>.P
400000000005A350 09 00 00 00 01 00 10 40 32 00 42 00 00 00 04 00 .......@2.B.....
400000000005A360 08 08 00 02 18 10 00 00 00 02 00 00 00 00 04 00 ................
400000000005A370 11 38 00 4C 06 39 C0 0A 02 00 C8 03 F0 00 00 43 .8.L.9.........C
400000000005A380 11 00 00 00 01 00 00 00 00 02 00 00 08 5A 05 50 .............Z.P
400000000005A390 09 08 20 19 00 21 00 00 00 02 00 E0 00 40 18 E6 .. ..!.......@..
400000000005A3A0 10 08 00 02 18 10 00 00 00 02 00 03 60 00 00 42 ............`..B
400000000005A3B0 0B 00 A1 40 00 21 E0 00 80 20 20 00 00 00 04 00 ...@.!...  .....
400000000005A3C0 10 00 00 00 01 00 70 70 38 0C 28 03 A0 00 00 42 ......pp8.(....B
400000000005A3D0 0B 70 B0 02 39 24 00 00 00 02 00 00 00 00 04 00 .p..9$..........
400000000005A3E0 09 00 00 00 01 00 E0 00 38 20 20 00 00 00 04 00 ........8  .....
400000000005A3F0 10 00 00 00 01 00 70 00 38 0C 73 03 70 00 00 42 ......p.8.s.p..B
400000000005A400 09 70 40 18 00 21 00 00 00 02 00 80 35 04 00 90 .p@..!......5...
400000000005A410 09 00 00 00 01 00 E0 00 38 20 20 00 00 00 04 00 ........8  .....
400000000005A420 11 38 00 1C 86 39 00 00 00 02 80 03 F0 0B 00 43 .8...9.........C
400000000005A430 11 00 00 00 01 00 00 00 00 02 00 00 18 3D 05 50 .............=.P
400000000005A440 09 00 00 00 01 00 10 40 32 00 42 00 00 00 04 00 .......@2.B.....
400000000005A450 09 08 00 02 18 10 00 00 00 02 00 00 00 00 04 00 ................
400000000005A460 09 80 F0 02 46 24 00 00 00 02 00 C0 41 0F D8 90 ....F$......A...
400000000005A470 09 00 00 00 01 00 F0 00 38 20 20 00 00 00 04 00 ........8  .....
400000000005A480 09 00 00 00 01 00 F0 08 3C 00 42 00 00 00 04 00 ........<.B.....
400000000005A490 09 80 00 20 18 10 00 78 38 20 23 00 00 00 04 00 ... ...x8 #.....
400000000005A4A0 11 60 01 20 18 10 00 00 00 02 00 00 E8 8A 00 50 .`. ...........P
400000000005A4B0 08 08 20 19 00 21 60 00 20 0E 72 A0 15 00 00 90 .. ..!`. .r.....
400000000005A4C0 0B 60 01 52 00 21 10 00 04 30 A0 03 81 41 00 84 .`.R.!...0...A..
400000000005A4D0 09 70 F0 02 46 24 00 00 00 02 00 C3 C4 EE 97 9F .p..F$..........
400000000005A4E0 09 00 00 00 01 C0 61 02 20 30 20 00 00 00 04 00 ......a. 0 .....
400000000005A4F0 CB 30 01 4C 18 10 E0 00 38 30 20 00 00 00 04 00 .0.L....80 .....
400000000005A500 11 70 01 1C 18 10 00 00 00 02 00 00 C8 0C 06 50 .p.............P
400000000005A510 08 78 A0 18 00 21 00 00 00 02 00 20 80 64 00 84 .x...!..... .d..
400000000005A520 02 70 01 4C 00 21 D0 0A 00 00 48 00 00 00 04 00 .p.L.!....H.....
400000000005A530 19 60 01 1E 18 10 10 00 04 30 20 00 98 0C 06 50 .`.......0 ....P
400000000005A540 09 00 00 00 01 00 10 40 32 00 42 00 00 00 04 00 .......@2.B.....
400000000005A550 11 08 00 02 18 10 00 00 00 02 00 00 F8 49 FF 58 .............I.X
400000000005A560 09 08 20 19 00 21 00 00 00 02 00 80 05 40 58 00 .. ..!.......@X.
400000000005A570 11 08 00 02 18 10 00 00 00 02 00 00 58 F5 0C 50 ............X..P
400000000005A580 08 70 C0 18 00 21 10 40 32 00 42 A0 15 00 00 90 .p...!.@2.B.....
400000000005A590 02 70 01 10 00 21 60 02 20 00 42 00 00 00 04 00 .p...!`. .B.....
400000000005A5A0 19 60 01 1C 18 10 10 00 04 30 20 00 28 0C 06 50 .`.......0 .(..P
400000000005A5B0 09 08 20 19 00 21 00 00 00 02 00 80 05 30 01 84 .. ..!.......0..
400000000005A5C0 11 08 00 02 18 10 00 00 00 02 00 00 28 02 FC 58 ............(..X
400000000005A5D0 09 08 20 19 00 21 C0 02 84 30 20 A0 15 00 00 90 .. ..!...0 .....
400000000005A5E0 11 08 00 02 18 10 00 00 00 02 00 00 E8 44 09 50 .............D.P
400000000005A5F0 09 08 20 19 00 21 00 00 00 02 00 E0 01 62 00 84 .. ..!.......b..
400000000005A600 0B 08 00 02 18 10 E0 40 06 64 48 00 00 00 04 00 .......@.dH.....
400000000005A610 0B 00 00 00 01 00 E0 00 38 20 20 00 00 00 04 00 ........8  .....
400000000005A620 11 30 00 1C 87 39 00 00 00 02 80 03 F0 08 00 43 .0...9.........C
400000000005A630 0B 78 00 1E 18 10 E0 40 3C 00 42 E0 01 61 00 84 .x.....@<.B..a..
400000000005A640 09 78 00 1E 10 10 E0 00 38 20 20 00 00 00 04 00 .x......8  .....
400000000005A650 09 30 00 1E 87 39 00 00 00 02 00 E0 C1 0B DC 90 .0...9..........
400000000005A660 09 00 38 1E 90 11 00 00 00 02 00 E0 81 0F CC 90 ..8.............
400000000005A670 09 00 00 00 01 00 00 00 00 02 00 00 00 00 04 00 ................
400000000005A680 10 00 38 1E 90 11 00 00 00 02 80 03 B0 06 00 43 ..8............C
400000000005A690 09 70 20 03 46 24 C0 A2 06 62 49 A0 15 00 00 90 .p .F$...bI.....
400000000005A6A0 09 00 00 00 01 00 00 00 00 02 00 00 00 00 04 00 ................
400000000005A6B0 0B 78 00 1C 10 10 F0 08 3C 00 42 00 00 00 04 00 .x......<.B.....
400000000005A6C0 11 00 3C 1C 90 11 00 00 00 02 00 00 A8 16 FC 58 ..<............X
400000000005A6D0 09 08 20 19 00 21 00 00 00 02 00 C0 00 40 1C E6 .. ..!.......@..
400000000005A6E0 11 08 00 02 18 10 00 00 00 02 00 03 D0 06 00 42 ...............B
400000000005A6F0 09 70 D0 02 46 24 00 00 00 02 00 E0 C4 0A DC 90 .p..F$..........
400000000005A700 09 00 00 00 01 00 80 02 9C 30 20 00 00 00 04 00 .........0 .....
400000000005A710 11 30 01 1C 10 10 00 00 00 02 00 00 78 48 05 50 .0..........xH.P
400000000005A720 09 08 20 19 00 21 00 40 9D 30 23 00 00 00 04 00 .. ..!.@.0#.....
400000000005A730 0B 08 00 02 18 10 E0 40 06 64 48 00 00 00 04 00 .......@.dH.....
400000000005A740 0B 00 00 00 01 00 E0 00 38 20 20 00 00 00 04 00 ........8  .....
400000000005A750 10 00 00 00 01 00 60 00 38 0E F3 03 90 05 00 43 ......`.8......C
400000000005A760 0B 70 40 18 00 21 E0 00 38 20 20 00 00 00 04 00 .p@..!..8  .....
400000000005A770 10 00 00 00 01 00 70 00 38 0C F3 03 30 05 00 43 ......p.8...0..C
400000000005A780 09 78 A0 18 00 21 D0 0A 00 00 48 C0 05 00 00 84 .x...!....H.....
400000000005A790 11 60 01 1E 18 10 00 00 00 02 00 00 78 12 06 50 .`..........x..P
400000000005A7A0 09 08 20 19 00 21 00 00 00 02 00 80 05 40 00 84 .. ..!.......@..
400000000005A7B0 11 08 00 02 18 10 00 00 00 02 00 00 58 10 06 50 ............X..P
400000000005A7C0 08 70 C0 18 00 21 00 00 00 02 00 20 80 64 00 84 .p...!..... .d..
400000000005A7D0 02 68 05 00 00 24 E0 02 00 00 42 00 00 00 04 00 .h...$....B.....
400000000005A7E0 19 60 01 1C 18 10 10 00 04 30 20 00 28 12 06 50 .`.......0 .(..P
400000000005A7F0 09 08 20 19 00 21 00 00 00 02 00 80 05 40 00 84 .. ..!.......@..
400000000005A800 11 08 00 02 18 10 00 00 00 02 00 00 08 10 06 50 ...............P
400000000005A810 0B 08 20 19 00 21 10 00 04 30 20 00 00 00 04 00 .. ..!...0 .....
400000000005A820 09 00 00 00 01 00 C0 A2 F5 D1 4F 00 00 00 04 00 ..........O.....
400000000005A830 11 60 01 58 18 10 00 00 00 02 00 00 18 7D 00 50 .`.X.........}.P
400000000005A840 09 08 20 19 00 21 F0 40 21 00 42 C0 00 40 1C E4 .. ..!.@!.B..@..
400000000005A850 11 08 00 02 18 10 00 00 00 02 00 03 40 00 00 43 ............@..C
400000000005A860 09 00 00 00 01 00 F0 00 3C 20 20 00 00 00 04 00 ........<  .....
400000000005A870 03 00 00 00 01 00 60 20 3C 0E A8 E3 81 40 00 84 ......` <....@..
400000000005A880 F1 60 01 1E 18 10 00 00 00 02 80 03 20 00 00 42 .`.......... ..B
400000000005A890 08 60 01 00 00 21 00 00 00 02 00 00 00 00 04 00 .`...!..........
400000000005A8A0 0B 78 60 18 00 21 F0 00 3C 30 20 00 00 00 04 00 .x`..!..<0 .....
400000000005A8B0 10 00 00 00 01 00 70 78 20 0C F0 03 40 09 00 43 ......px ...@..C
400000000005A8C0 09 70 B0 03 37 24 00 00 00 02 00 00 01 30 01 84 .p..7$.......0..
400000000005A8D0 0B 00 00 00 01 00 E0 00 38 20 20 00 00 00 04 00 ........8  .....
400000000005A8E0 11 30 00 1C 87 39 E0 E0 05 8C 48 03 D0 06 00 43 .0...9....H....C
400000000005A8F0 0B 00 00 00 01 00 E0 00 38 30 20 00 00 00 04 00 ........80 .....
400000000005A900 11 38 00 1C 06 39 00 00 00 02 80 03 B0 06 00 43 .8...9.........C
400000000005A910 02 00 00 00 01 00 00 58 01 55 00 00 A0 0A 00 07 .......X.U......
400000000005A920 18 00 00 00 01 00 C0 00 32 00 42 80 08 00 84 00 ........2.B.....
400000000005A930 09 60 F1 FA E8 27 00 00 00 02 00 20 05 00 00 84 .`...'..... ....
400000000005A940 11 60 01 58 18 10 00 00 00 02 00 00 08 7C 00 50 .`.X.........|.P
400000000005A950 09 08 20 19 00 21 00 00 00 02 00 C0 00 40 1C E4 .. ..!.......@..
400000000005A960 11 08 00 02 18 10 00 00 00 02 80 03 70 F4 FF 4A ............p..J
400000000005A970 02 78 A0 18 00 21 C0 22 F6 D1 4F 00 00 00 04 00 .x...!."..O.....
400000000005A980 19 00 00 1E 98 11 C0 02 B0 30 20 00 C8 7B 00 50 .........0 ..{.P
400000000005A990 09 08 20 19 00 21 00 00 00 02 00 C0 00 40 1C E4 .. ..!.......@..
400000000005A9A0 11 08 00 02 18 10 00 00 00 02 80 03 B0 F4 FF 4A ...............J
400000000005A9B0 08 00 00 00 01 00 00 00 00 02 00 00 00 00 04 00 ................
400000000005A9C0 09 00 00 00 01 00 E0 80 31 00 42 00 00 00 04 00 ........1.B.....
400000000005A9D0 10 00 00 1C 98 11 00 00 00 02 00 00 C0 F4 FF 48 ...............H
400000000005A9E0 09 70 40 18 00 21 C0 02 80 30 20 00 00 00 04 00 .p@..!...0 .....
400000000005A9F0 09 68 01 1C 10 10 00 00 00 02 00 C0 41 0E DC 90 .h..........A...
400000000005AA00 09 00 00 00 01 00 00 00 00 02 00 00 00 00 04 00 ................
400000000005AA10 11 70 01 1C 18 10 00 00 00 02 00 00 78 FB 00 50 .p..........x..P
400000000005AA20 09 08 20 19 00 21 00 00 00 02 00 80 15 00 00 90 .. ..!..........
400000000005AA30 0B 08 00 02 18 10 E0 20 07 6E 48 00 00 00 04 00 ....... .nH.....
400000000005AA40 0B 00 00 00 01 00 00 00 38 30 23 C0 C1 0B 18 91 ........80#.....
400000000005AA50 09 00 00 00 01 00 00 00 00 02 00 00 00 00 04 00 ................
400000000005AA60 11 00 80 1C 98 11 00 00 00 02 00 00 28 84 00 50 ............(..P
400000000005AA70 09 08 20 19 00 21 00 00 00 02 00 80 15 04 00 90 .. ..!..........
400000000005AA80 11 08 00 02 18 10 00 00 00 02 00 00 88 51 05 50 .............Q.P
400000000005AA90 09 08 20 19 00 21 00 00 00 02 00 E0 00 40 18 E6 .. ..!.......@..
400000000005AAA0 10 08 00 02 18 10 00 00 00 02 80 03 10 F7 FF 4A ...............J
400000000005AAB0 10 00 00 00 01 00 00 00 00 02 00 00 60 01 00 40 ............`..@
400000000005AAC0 09 40 20 10 00 21 00 00 00 02 00 E0 01 63 00 84 .@ ..!.......c..
400000000005AAD0 09 00 00 00 01 00 80 00 20 30 20 00 00 00 04 00 ........ 0 .....
400000000005AAE0 10 00 20 1E 98 11 00 00 00 02 00 00 B0 F3 FF 48 .. ............H
400000000005AAF0 09 40 20 10 00 21 00 00 00 02 00 C0 81 62 00 84 .@ ..!.......b..
400000000005AB00 09 00 00 00 01 00 80 00 20 30 20 00 00 00 04 00 ........ 0 .....
400000000005AB10 10 00 20 1C 98 11 00 00 00 02 00 00 00 F3 FF 48 .. ............H
400000000005AB20 11 60 0D 01 00 24 00 00 00 02 00 00 68 51 05 50 .`...$......hQ.P
400000000005AB30 09 08 20 19 00 21 00 00 00 02 00 E0 00 40 18 E6 .. ..!.......@..
400000000005AB40 11 08 00 02 18 10 00 00 00 02 00 03 D0 F6 FF 4A ...............J
400000000005AB50 0B 70 F0 03 BD 24 00 00 00 02 00 00 00 00 04 00 .p...$..........
400000000005AB60 09 00 00 00 01 00 E0 C0 38 08 42 00 00 00 04 00 ........8.B.....
400000000005AB70 10 30 01 1C 18 10 00 00 00 02 00 00 B0 F6 FF 48 .0.............H
400000000005AB80 11 60 09 01 00 24 00 00 00 02 00 00 08 51 05 50 .`...$.......Q.P
400000000005AB90 09 08 20 19 00 21 00 00 00 02 00 E0 00 40 18 E6 .. ..!.......@..
400000000005ABA0 11 08 00 02 18 10 00 00 00 02 00 03 40 F6 FF 4A ............@..J
400000000005ABB0 09 70 F0 03 BD 24 00 00 00 02 00 80 35 04 00 90 .p...$......5...
400000000005ABC0 0B 00 00 00 01 00 E0 80 38 08 42 00 00 00 04 00 ........8.B.....
400000000005ABD0 11 38 01 1C 18 10 00 00 00 02 00 00 38 50 05 50 .8..........8P.P
400000000005ABE0 09 08 20 19 00 21 00 00 00 02 00 E0 00 40 18 E6 .. ..!.......@..
400000000005ABF0 10 08 00 02 18 10 00 00 00 02 80 03 20 F6 FF 4A ............ ..J
400000000005AC00 10 00 00 00 01 00 00 00 00 02 00 00 20 FF FF 48 ............ ..H
400000000005AC10 11 60 05 01 00 24 00 00 00 02 00 00 78 50 05 50 .`...$......xP.P
400000000005AC20 09 08 20 19 00 21 00 00 00 02 00 E0 00 40 18 E6 .. ..!.......@..
400000000005AC30 11 08 00 02 18 10 00 00 00 02 00 03 80 F5 FF 4A ...............J
400000000005AC40 09 70 F0 03 BD 24 00 00 00 02 00 80 25 04 00 90 .p...$......%...
400000000005AC50 0B 00 00 00 01 00 E0 40 38 08 42 00 00 00 04 00 .......@8.B.....
400000000005AC60 11 40 01 1C 18 10 00 00 00 02 00 00 A8 4F 05 50 .@...........O.P
400000000005AC70 09 08 20 19 00 21 00 00 00 02 00 E0 00 40 18 E6 .. ..!.......@..
400000000005AC80 10 08 00 02 18 10 00 00 00 02 80 03 60 F5 FF 4A ............`..J
400000000005AC90 11 00 00 00 01 00 00 00 00 02 00 00 F0 FE FF 48 ...............H
400000000005ACA0 09 00 00 00 01 00 C0 62 F6 D1 4F 00 00 00 04 00 .......b..O.....
400000000005ACB0 11 60 01 58 18 10 00 00 00 02 00 00 98 72 05 50 .`.X.........r.P
400000000005ACC0 09 00 00 00 01 00 10 40 32 00 42 00 00 00 04 00 .......@2.B.....
400000000005ACD0 10 08 00 02 18 10 00 00 00 02 00 00 B0 FA FF 48 ...............H
400000000005ACE0 11 00 00 00 01 00 00 00 00 02 00 00 E8 FE 00 50 ...............P
400000000005ACF0 09 70 40 18 00 21 00 00 00 02 00 20 80 64 00 84 .p@..!..... .d..
400000000005AD00 09 70 00 1C 10 10 10 00 04 30 20 00 00 00 04 00 .p.......0 .....
400000000005AD10 10 00 00 00 01 00 70 00 38 0C 73 03 70 FA FF 4A ......p.8.s.p..J
400000000005AD20 10 00 00 00 01 00 00 00 00 02 00 00 80 FF FF 48 ...............H
400000000005AD30 11 60 01 48 00 21 D0 02 00 00 42 00 D8 86 02 50 .`.H.!....B....P
400000000005AD40 09 08 20 19 00 21 00 00 00 02 00 A0 15 00 00 90 .. ..!..........
400000000005AD50 0B 08 00 02 18 10 E0 40 06 8C 48 80 45 0D C4 92 .......@..H.E...
400000000005AD60 09 00 00 00 01 00 00 00 00 02 00 00 00 00 04 00 ................
400000000005AD70 0B 78 00 1C 10 10 F0 08 3C 00 42 00 00 00 04 00 .x......<.B.....
400000000005AD80 11 00 3C 1C 90 11 00 00 00 02 00 00 E8 0F FC 58 ..<............X
400000000005AD90 09 08 20 19 00 21 00 00 00 02 00 C0 00 40 1C E6 .. ..!.......@..
400000000005ADA0 11 08 00 02 18 10 00 00 00 02 80 03 50 F9 FF 4A ............P..J
400000000005ADB0 09 70 90 02 37 24 00 00 00 02 00 E0 11 00 00 90 .p..7$..........
400000000005ADC0 09 00 3C 1C 90 11 00 00 00 02 00 C0 C1 0A DC 90 ..<.............
400000000005ADD0 11 40 01 1C 18 10 00 00 00 02 00 00 F8 3E 05 50 .@...........>.P
400000000005ADE0 09 08 20 19 00 21 00 00 00 02 00 C0 04 40 00 84 .. ..!.......@..
400000000005ADF0 0B 08 00 02 18 10 E0 40 06 64 48 00 00 00 04 00 .......@.dH.....
400000000005AE00 0B 00 00 00 01 00 E0 00 38 20 20 00 00 00 04 00 ........8  .....
400000000005AE10 11 30 00 1C 87 39 00 00 00 02 00 03 20 00 00 43 .0...9...... ..C
400000000005AE20 10 00 00 00 01 00 70 00 20 0C 73 03 C0 00 00 42 ......p. .s....B
400000000005AE30 08 70 80 18 00 21 70 62 05 6E 48 E0 81 63 00 84 .p...!pb.nH..c..
400000000005AE40 09 68 01 00 00 21 E0 FA F3 FF 4F E0 F5 E7 FF 9F .h...!....O.....
400000000005AE50 08 60 01 1C 18 10 00 00 00 02 00 C0 41 0A DC 90 .`..........A...
400000000005AE60 09 00 A0 4E 98 11 00 03 3C 30 20 00 00 00 04 00 ...N....<0 .....
400000000005AE70 11 00 00 1C 90 11 00 00 00 02 00 00 D8 8D FF 58 ...............X
400000000005AE80 09 08 20 19 00 21 80 02 9C 30 20 C0 04 40 00 84 .. ..!...0 ..@..
400000000005AE90 11 08 00 02 18 10 00 00 00 02 00 00 F8 40 05 50 .............@.P
400000000005AEA0 09 08 20 19 00 21 00 40 9D 30 23 00 00 00 04 00 .. ..!.@.0#.....
400000000005AEB0 0B 08 00 02 18 10 E0 40 06 64 48 00 00 00 04 00 .......@.dH.....
400000000005AEC0 09 00 00 00 01 00 00 00 00 02 00 00 00 00 04 00 ................
400000000005AED0 09 70 00 1C 10 10 00 00 00 02 00 00 00 00 04 00 .p..............
400000000005AEE0 09 78 90 02 37 24 00 00 00 02 00 C0 00 70 1C E6 .x..7$.......p..
400000000005AEF0 10 00 00 1E 90 11 00 00 00 02 00 03 70 F8 FF 4A ............p..J
400000000005AF00 10 00 00 00 01 00 00 00 00 02 00 00 E0 FD FF 48 ...............H
400000000005AF10 11 60 01 42 18 10 00 00 00 02 00 00 B8 FA 00 50 .`.B...........P
400000000005AF20 09 78 80 18 00 21 00 00 00 02 00 20 80 64 00 84 .x...!..... .d..
400000000005AF30 09 78 00 1E 18 10 10 00 04 30 20 00 00 00 04 00 .x.......0 .....
400000000005AF40 09 70 20 1E 00 21 00 00 00 02 00 E0 01 61 00 84 .p ..!.......a..
400000000005AF50 09 78 00 1E 10 10 E0 00 38 20 20 00 00 00 04 00 .x......8  .....
400000000005AF60 09 30 00 1E 87 39 00 00 00 02 00 E0 C1 0B DC 90 .0...9..........
400000000005AF70 09 00 38 1E 90 11 00 00 00 02 00 E0 81 0F CC 90 ..8.............
400000000005AF80 09 00 00 00 01 00 00 00 00 02 00 00 00 00 04 00 ................
400000000005AF90 10 00 38 1E 90 11 00 00 00 02 00 03 00 F7 FF 4A ..8............J
400000000005AFA0 10 00 00 00 01 00 00 00 00 02 00 00 90 FD FF 48 ...............H
400000000005AFB0 11 60 01 00 00 21 00 00 00 02 00 00 D8 7E 00 50 .`...!.......~.P
400000000005AFC0 09 00 00 00 01 00 10 40 32 00 42 00 00 00 04 00 .......@2.B.....
400000000005AFD0 11 08 00 02 18 10 00 00 00 02 00 00 38 8B 03 50 ............8..P
400000000005AFE0 09 08 20 19 00 21 00 00 00 02 00 00 01 30 01 84 .. ..!.......0..
400000000005AFF0 02 08 00 02 18 10 00 58 01 55 00 00 A0 0A 00 07 .......X.U......
400000000005B000 19 00 00 00 01 00 C0 00 32 00 42 80 08 00 84 00 ........2.B.....
400000000005B010 11 60 01 4C 00 21 00 00 00 02 00 00 B8 06 FC 58 .`.L.!.........X
400000000005B020 09 08 20 19 00 21 00 00 00 02 00 80 15 40 00 84 .. ..!.......@..
400000000005B030 11 08 00 02 18 10 00 00 00 02 00 00 98 DC 08 50 ...............P
400000000005B040 09 08 20 19 00 21 D0 02 98 00 42 80 05 40 00 84 .. ..!....B..@..
400000000005B050 11 08 00 02 18 10 00 00 00 02 00 00 38 01 FC 58 ............8..X
400000000005B060 09 08 20 19 00 21 60 02 20 00 42 A0 05 40 00 84 .. ..!`. .B..@..
400000000005B070 0B 08 00 02 18 10 C0 22 F7 65 4F 00 00 00 04 00 .......".eO.....
400000000005B080 11 60 01 58 18 10 00 00 00 02 00 00 88 6F 05 50 .`.X.........o.P
400000000005B090 09 08 20 19 00 21 00 00 00 02 00 A0 05 30 01 84 .. ..!.......0..
400000000005B0A0 0B 08 00 02 18 10 C0 E2 F4 67 4F 00 00 00 04 00 .........gO.....
400000000005B0B0 11 60 01 58 18 10 00 00 00 02 00 00 58 6F 05 50 .`.X........Xo.P
400000000005B0C0 09 08 20 19 00 21 00 00 00 02 00 80 35 04 00 90 .. ..!......5...
400000000005B0D0 11 08 00 02 18 10 00 00 00 02 00 00 78 30 05 50 ............x0.P
400000000005B0E0 09 00 00 00 01 00 10 40 32 00 42 00 00 00 04 00 .......@2.B.....
400000000005B0F0 10 08 00 02 18 10 00 00 00 02 00 00 70 F3 FF 48 ............p..H
400000000005B100 11 60 01 4E 00 21 00 00 00 02 00 00 C8 05 FC 58 .`.N.!.........X
400000000005B110 09 08 20 19 00 21 00 00 00 02 00 80 15 40 00 84 .. ..!.......@..
400000000005B120 11 08 00 02 18 10 00 00 00 02 00 00 A8 DB 08 50 ...............P
400000000005B130 09 08 20 19 00 21 D0 02 9C 00 42 80 05 40 00 84 .. ..!....B..@..
400000000005B140 11 08 00 02 18 10 00 00 00 02 00 00 48 00 FC 58 ............H..X
400000000005B150 09 08 20 19 00 21 70 02 20 00 42 A0 05 40 00 84 .. ..!p. .B..@..
400000000005B160 0B 08 00 02 18 10 C0 22 F7 65 4F 00 00 00 04 00 .......".eO.....
400000000005B170 11 60 01 58 18 10 00 00 00 02 00 00 98 6E 05 50 .`.X.........n.P
400000000005B180 09 08 20 19 00 21 00 00 00 02 00 A0 05 38 01 84 .. ..!.......8..
400000000005B190 0B 08 00 02 18 10 C0 62 F6 67 4F 00 00 00 04 00 .......b.gO.....
400000000005B1A0 11 60 01 58 18 10 00 00 00 02 00 00 68 6E 05 50 .`.X........hn.P
400000000005B1B0 09 08 20 19 00 21 00 00 00 02 00 80 25 04 00 90 .. ..!......%...
400000000005B1C0 11 08 00 02 18 10 00 00 00 02 00 00 88 2F 05 50 ............./.P
400000000005B1D0 09 00 00 00 01 00 10 40 32 00 42 00 00 00 04 00 .......@2.B.....
400000000005B1E0 10 08 00 02 18 10 00 00 00 02 00 00 90 F1 FF 48 ...............H
400000000005B1F0 11 68 05 00 00 24 E0 02 00 00 42 00 18 08 06 50 .h...$....B....P
400000000005B200 09 08 20 19 00 21 00 00 00 02 00 80 05 40 00 84 .. ..!.......@..
400000000005B210 11 08 00 02 18 10 00 00 00 02 00 00 F8 05 06 50 ...............P
400000000005B220 09 00 00 00 01 00 10 40 32 00 42 00 00 00 04 00 .......@2.B.....
400000000005B230 10 08 00 02 18 10 00 00 00 02 00 00 90 F6 FF 48 ...............H
400000000005B240 11 60 01 50 00 21 00 00 00 02 00 00 88 04 FC 58 .`.P.!.........X
400000000005B250 09 08 20 19 00 21 00 00 00 02 00 80 15 40 00 84 .. ..!.......@..
400000000005B260 11 08 00 02 18 10 00 00 00 02 00 00 68 DA 08 50 ............h..P
400000000005B270 09 08 20 19 00 21 D0 02 A0 00 42 80 05 40 00 84 .. ..!....B..@..
400000000005B280 11 08 00 02 18 10 00 00 00 02 00 00 08 FF FB 58 ...............X
400000000005B290 09 08 20 19 00 21 80 02 20 00 42 A0 05 40 00 84 .. ..!.. .B..@..
400000000005B2A0 0B 08 00 02 18 10 C0 22 F7 65 4F 00 00 00 04 00 .......".eO.....
400000000005B2B0 11 60 01 58 18 10 00 00 00 02 00 00 58 6D 05 50 .`.X........Xm.P
400000000005B2C0 09 08 20 19 00 21 00 00 00 02 00 A0 05 40 01 84 .. ..!.......@..
400000000005B2D0 0B 08 00 02 18 10 C0 22 F5 69 4F 00 00 00 04 00 .......".iO.....
400000000005B2E0 11 60 01 58 18 10 00 00 00 02 00 00 28 6D 05 50 .`.X........(m.P
400000000005B2F0 09 08 20 19 00 21 00 00 00 02 00 80 15 04 00 90 .. ..!..........
400000000005B300 11 08 00 02 18 10 00 00 00 02 00 00 48 2E 05 50 ............H..P
400000000005B310 09 00 00 00 01 00 10 40 32 00 42 00 00 00 04 00 .......@2.B.....
400000000005B320 11 08 00 02 18 10 00 00 00 02 00 00 C0 EF FF 48 ...............H
400000000005B330 09 60 B1 FA E8 27 D0 02 80 30 20 00 00 00 04 00 .`...'...0 .....
400000000005B340 11 60 01 58 18 10 00 00 00 02 00 00 48 5D 01 50 .`.X........H].P
400000000005B350 02 08 20 19 00 21 C0 12 00 00 48 00 00 00 04 00 .. ..!....H.....
400000000005B360 19 08 00 02 18 10 00 00 98 20 23 00 68 91 05 50 ......... #.h..P
400000000005B370 0D 00 00 00 01 00 00 00 00 00 00 00 00 00 04 00 ................

;; execute_shell_function: 400000000005B380
execute_shell_function proc
	{ alloc	r38,ar.pfs,0xE,0x0,0x8; addl	r35,-2988,r1; mov	r37,b5 }
	{ nop.m	0x0; adds	r39,0x0,r1; nop.i	0x0; }
	{ ld8	r35,[r35]; addl	r40,32,r0; br.call.sptk.many	b0,new_fd_bitmap; }
	{ adds	r1,0x0,r39; nop.m	0x0; adds	r34,0x0,r8 }
	{ adds	r40,0x0,r35; nop.m	0x0; br.call.sptk.many	b0,begin_unwind_frame; }
	{ adds	r1,0x0,r39; adds	r41,0x0,r34; addl	r40,-9764,r1; }
	{ ld8	r40,[r40]; nop.i	0x0; br.call.sptk.many	b0,add_unwind_protect; }
	{ adds	r41,0x0,r33; adds	r42,0x0,r0; adds	r43,0x0,r34 }
	{ adds	r44,0x0,r0; adds	r45,0x0,r0; adds	r1,0x0,r39; }
	{ adds	r40,0x0,r32; nop.i	0x0; br.call.sptk.many	b0,4000000000059C80; }
	{ adds	r1,0x0,r39; nop.m	0x0; adds	r36,0x0,r8 }
	{ adds	r40,0x0,r34; nop.m	0x0; br.call.sptk.many	b0,dispose_fd_bitmap; }
	{ adds	r1,0x0,r39; adds	r40,0x0,r35; br.call.sptk.many	b0,discard_unwind_frame; }
	{ adds	r8,0x0,r36; adds	r1,0x0,r39; mov.i	ar.pfs,r38; }
	{ nop.m	0x0; mov.spnt	b0,r37,400000000005B460; br.ret	b0; }
400000000005B470 08 00 00 00 01 00 00 00 00 02 00 00 00 00 04 00 ................
400000000005B480 18 50 45 16 80 05 00 41 30 00 42 00 00 00 00 20 .PE....A0.B.... 
400000000005B490 02 60 40 19 3F 23 90 02 00 62 00 C0 01 61 00 84 .`@.?#...b...a..
400000000005B4A0 09 78 80 18 00 21 00 08 40 B0 23 00 00 00 04 00 .x...!..@.#.....
400000000005B4B0 08 00 00 00 01 00 00 10 39 30 23 C0 C1 E8 D3 9E ........90#.....
400000000005B4C0 0B 00 80 1E 98 11 E0 00 38 30 20 00 00 00 04 00 ........80 .....
400000000005B4D0 11 30 38 44 07 38 00 00 00 02 00 03 10 04 00 43 .08D.8.........C
400000000005B4E0 09 38 FC 4B 86 3B 00 00 00 02 00 00 05 00 00 84 .8.K.;..........
400000000005B4F0 C2 70 04 00 00 24 00 00 00 02 80 C3 01 00 00 84 .p...$..........
400000000005B500 09 78 D0 03 32 24 00 00 00 02 00 C0 00 30 1D E6 .x..2$.......0..
400000000005B510 0B 00 00 00 01 00 00 00 3C 20 23 E0 81 0F C8 90 ........< #.....
400000000005B520 0B 00 00 00 01 00 00 00 3C 20 A3 E3 41 0C 18 91 ........< ..A...
400000000005B530 0B 00 00 00 01 C0 01 01 3C 20 20 00 00 00 04 00 ........<  .....
400000000005B540 EB 80 04 20 2E E0 01 80 3C 20 23 E0 F0 27 19 EE ... ....< #..'..
400000000005B550 0B 30 02 1C C7 B9 E1 20 06 8C 48 00 00 00 04 00 .0..... ..H.....
400000000005B560 0B 00 00 00 01 80 F1 00 38 20 20 00 00 00 04 00 ........8  .....
400000000005B570 09 00 00 00 01 80 F1 80 3C 5C 40 00 00 00 04 00 ........<\@.....
400000000005B580 D1 00 3C 1C 90 11 00 00 00 02 00 00 48 E1 00 50 ..<.........H..P
400000000005B590 09 08 E0 18 00 21 00 00 00 02 00 C0 00 40 1D E6 .....!.......@..
400000000005B5A0 10 08 00 02 18 10 00 00 00 02 00 03 00 03 00 42 ...............B
400000000005B5B0 11 00 00 00 01 00 00 00 00 02 00 00 58 0E 02 50 ............X..P
400000000005B5C0 09 00 00 00 01 00 10 C0 31 00 42 00 00 00 04 00 ........1.B.....
400000000005B5D0 08 08 00 02 18 10 00 00 00 02 00 00 00 00 04 00 ................
400000000005B5E0 11 00 00 00 01 00 00 00 00 02 00 00 28 9D 02 50 ............(..P
400000000005B5F0 09 00 00 00 01 00 10 C0 31 00 42 00 00 00 04 00 ........1.B.....
400000000005B600 11 08 00 02 18 10 00 00 00 02 00 00 88 21 05 50 .............!.P
400000000005B610 09 30 00 4E 07 39 10 C0 31 00 42 60 05 38 01 84 .0.N.9..1.B`.8..
400000000005B620 13 08 00 02 18 90 01 18 00 80 21 00 E8 18 FF 58 ..........!....X
400000000005B630 09 00 00 00 01 00 10 C0 31 00 42 00 00 00 04 00 ........1.B.....
400000000005B640 08 08 00 02 18 10 00 00 00 02 00 00 00 00 04 00 ................
400000000005B650 11 60 01 4A 00 21 B0 02 90 00 42 00 B8 34 FF 58 .`.J.!....B..4.X
400000000005B660 09 08 E0 18 00 21 B0 02 84 00 42 80 15 00 00 90 .....!....B.....
400000000005B670 11 08 00 02 18 10 00 00 00 02 00 00 D8 5F 08 50 ............._.P
400000000005B680 08 08 E0 18 00 21 00 00 00 02 00 C0 01 61 00 84 .....!.......a..
400000000005B690 09 30 00 10 87 39 00 00 00 02 00 80 15 00 00 90 .0...9..........
400000000005B6A0 11 08 00 02 18 10 00 00 00 02 80 03 30 02 00 43 ............0..C
400000000005B6B0 09 70 00 1C 18 10 00 00 00 02 00 60 45 0A 14 93 .p.........`E...
400000000005B6C0 11 30 00 1C 07 39 00 00 00 02 00 03 70 02 00 43 .0...9......p..C
400000000005B6D0 11 00 00 00 01 00 00 00 00 02 00 00 98 06 FC 58 ...............X
400000000005B6E0 09 08 E0 18 00 21 00 00 00 02 00 E0 81 61 00 84 .....!.......a..
400000000005B6F0 09 08 00 02 18 10 00 40 3C 20 23 00 00 00 04 00 .......@< #.....
400000000005B700 0B 70 20 03 46 24 00 00 00 02 00 00 00 00 04 00 .p .F$..........
400000000005B710 09 00 00 00 01 00 E0 00 38 20 20 00 00 00 04 00 ........8  .....
400000000005B720 10 00 00 00 01 00 60 00 38 0E 73 03 40 00 00 42 ......`.8.s.@..B
400000000005B730 09 70 B0 FA B3 27 00 00 00 02 00 E0 01 61 00 84 .p...'.......a..
400000000005B740 09 70 00 1C 18 10 F0 00 3C 30 20 00 00 00 04 00 .p......<0 .....
400000000005B750 10 00 00 00 01 00 70 70 3C 0C F0 03 B0 02 00 43 ......pp<......C
400000000005B760 09 70 60 18 00 21 00 00 00 02 00 00 01 00 00 84 .p`..!..........
400000000005B770 0B 70 00 1C 10 10 70 18 38 0C 73 00 00 00 04 00 .p....p.8.s.....
400000000005B780 EB 70 50 03 46 24 00 00 00 02 00 00 00 00 04 00 .pP.F$..........
400000000005B790 F1 58 01 1C 10 10 00 00 00 02 80 03 F8 FD FB 5B .X.............[
400000000005B7A0 0B 78 60 18 00 21 F0 00 3C 20 20 00 00 00 04 00 .x`..!..<  .....
400000000005B7B0 11 00 00 00 01 00 70 00 3C 0C 73 03 20 01 00 43 ......p.<.s. ..C
400000000005B7C0 0B 30 00 10 87 F9 E1 A0 05 8C 48 00 00 00 04 00 .0........H.....
400000000005B7D0 09 00 00 00 01 00 00 00 00 02 00 00 00 00 04 00 ................
400000000005B7E0 F1 58 01 1C 10 10 00 00 00 02 80 03 A8 FD FB 5A .X.............Z
400000000005B7F0 09 70 40 18 00 21 F0 00 31 00 42 C0 15 00 00 90 .p@..!..1.B.....
400000000005B800 08 00 00 00 01 00 B0 02 38 30 20 C0 01 64 00 84 ........80 ..d..
400000000005B810 09 00 00 00 01 00 C0 02 3C 30 20 00 00 00 04 00 ........<0 .....
400000000005B820 11 68 01 1C 10 10 00 00 00 02 00 00 E8 1A FF 58 .h.............X
400000000005B830 09 08 E0 18 00 21 00 00 00 02 00 00 05 40 00 84 .....!.......@..
400000000005B840 0B 08 00 02 18 10 E0 60 F7 5F 4F 00 00 00 04 00 .......`._O.....
400000000005B850 09 00 00 00 01 00 E0 00 38 30 20 00 00 00 04 00 ........80 .....
400000000005B860 11 58 01 1C 18 10 00 00 00 02 00 00 28 EE FB 58 .X..........(..X
400000000005B870 02 58 09 00 02 24 10 C0 31 00 42 C0 B0 42 1D E2 .X...$..1.B..B..
400000000005B880 0B 08 00 02 18 D0 B1 02 A0 00 42 00 00 00 04 00 ..........B.....
400000000005B890 11 00 00 00 01 80 B1 12 00 00 48 00 F8 FC FB 58 ..........H....X
400000000005B8A0 11 00 00 00 01 00 00 00 00 02 00 00 28 98 02 50 ............(..P
400000000005B8B0 09 00 00 00 01 00 10 C0 31 00 42 00 00 00 04 00 ........1.B.....
400000000005B8C0 10 08 00 02 18 10 00 00 00 02 00 00 20 FD FF 48 ............ ..H
400000000005B8D0 11 00 00 00 01 00 B0 0A 00 00 48 00 B8 FC FB 58 ..........H....X
400000000005B8E0 0B 70 10 03 46 24 00 00 00 02 00 00 00 00 04 00 .p..F$..........
400000000005B8F0 09 00 00 00 01 00 E0 00 38 20 20 00 00 00 04 00 ........8  .....
400000000005B900 11 00 00 00 01 00 70 00 38 0C 28 03 D0 00 00 42 ......p.8.(....B
400000000005B910 03 38 FC 4B 86 3B 80 0A 00 00 48 C3 11 00 00 90 .8.K.;....H.....
400000000005B920 11 00 00 00 01 C0 E1 00 00 00 42 00 E0 FB FF 48 ..........B....H
400000000005B930 08 78 00 19 00 21 E0 00 31 00 42 C0 05 38 01 84 .x...!..1.B..8..
400000000005B940 09 78 01 4C 00 21 00 0B 00 00 48 60 05 18 01 84 .x.L.!....H`....
400000000005B950 08 00 00 00 01 00 C0 02 38 30 20 00 00 00 04 00 ........80 .....
400000000005B960 19 68 01 1E 10 10 00 00 00 02 00 00 28 E3 FF 58 .h..........(..X
400000000005B970 09 08 E0 18 00 21 00 00 00 02 00 00 05 40 00 84 .....!.......@..
400000000005B980 0B 08 00 02 18 10 E0 60 F7 5F 4F 00 00 00 04 00 .......`._O.....
400000000005B990 09 00 00 00 01 00 E0 00 38 30 20 00 00 00 04 00 ........80 .....
400000000005B9A0 11 58 01 1C 18 10 00 00 00 02 00 00 E8 EC FB 58 .X.............X
400000000005B9B0 09 08 E0 18 00 21 00 00 00 02 00 60 05 40 01 84 .....!.....`.@..
400000000005B9C0 10 08 00 02 18 10 00 00 00 02 00 00 C8 FB FB 58 ...............X
400000000005B9D0 0B 38 FC 4B 86 BB 81 0A 00 00 48 00 00 00 04 00 .8.K......H.....
400000000005B9E0 09 00 00 00 01 C0 81 02 00 00 42 00 00 00 04 00 ..........B.....
400000000005B9F0 10 00 00 00 01 00 E0 00 A0 00 42 00 10 FB FF 48 ..........B....H
400000000005BA00 09 58 51 03 B1 24 00 00 00 02 00 80 15 00 00 90 .XQ..$..........
400000000005BA10 11 00 00 00 01 00 00 00 00 02 00 00 58 03 FC 58 ............X..X
400000000005BA20 09 70 60 18 00 21 00 00 00 02 00 20 80 63 00 84 .p`..!..... .c..
400000000005BA30 09 70 00 1C 10 10 10 00 04 30 20 00 00 00 04 00 .p.......0 .....
400000000005BA40 0B 38 0C 1C 86 F9 E1 A0 06 8C 48 00 00 00 04 00 .8........H.....
400000000005BA50 09 00 00 00 01 00 00 00 00 02 00 00 00 00 04 00 ................
400000000005BA60 F1 58 01 1C 10 10 00 00 00 02 80 03 28 FB FB 5B .X..........(..[
400000000005BA70 0B 78 60 18 00 21 F0 00 3C 20 20 00 00 00 04 00 .x`..!..<  .....
400000000005BA80 10 00 00 00 01 00 70 00 3C 0C F3 03 40 FD FF 4A ......p.<...@..J
400000000005BA90 11 00 00 00 01 00 00 00 00 02 00 00 40 FE FF 48 ............@..H
400000000005BAA0 08 00 00 00 01 00 00 00 00 02 00 00 00 00 04 00 ................
400000000005BAB0 08 00 00 00 01 00 00 00 00 02 00 00 00 00 04 00 ................
400000000005BAC0 18 48 3D 14 80 05 00 41 30 00 42 00 00 00 00 20 .H=....A0.B.... 
400000000005BAD0 09 60 C0 18 3F 23 E0 00 04 6E 48 00 05 00 C4 00 .`..?#...nH.....
400000000005BAE0 08 78 00 1C 50 10 00 08 40 B0 23 00 82 61 00 84 .x..P...@.#..a..
400000000005BAF0 0A 38 00 42 86 39 F0 00 38 20 22 00 00 00 04 00 .8.B.9..8 ".....
400000000005BB00 0B 00 90 20 98 11 F0 08 3C 00 42 00 00 00 04 00 ... ....<.B.....
400000000005BB10 10 00 3C 1C 90 11 00 00 00 02 00 03 D0 08 00 42 ..<............B
400000000005BB20 09 70 10 40 00 21 00 00 00 02 00 A0 04 00 00 84 .p.@.!..........
400000000005BB30 08 30 01 1C 10 10 00 00 00 02 00 00 00 00 04 00 .0..............
400000000005BB40 02 70 00 40 10 10 F0 00 31 00 42 C0 D0 70 1C E6 .p.@....1.B..p..
400000000005BB50 0B 40 38 1C 89 F9 01 09 98 58 40 C4 11 00 00 90 .@8......X@.....
400000000005BB60 C9 80 04 00 00 64 E2 00 00 00 42 E0 00 08 19 E6 .....d....B.....
400000000005BB70 08 00 40 1E 90 11 00 00 00 02 00 E0 41 00 01 84 ..@.........A...
400000000005BB80 09 80 E0 4D 2C 22 00 00 00 02 00 E0 04 70 00 84 ...M,".......p..
400000000005BB90 10 00 40 1E 90 11 00 00 00 02 80 03 E0 06 00 42 ..@............B
400000000005BBA0 09 70 C0 03 32 24 00 01 04 5C 48 20 F2 E7 FF 9F .p..2$...\H ....
400000000005BBB0 09 00 00 00 01 00 00 00 00 02 00 00 00 00 04 00 ................
400000000005BBC0 08 00 00 00 01 00 F0 00 38 20 20 00 00 00 04 00 ........8  .....
400000000005BBD0 09 00 44 20 90 11 00 00 38 20 23 00 00 00 04 00 ..D ....8 #.....
400000000005BBE0 10 00 00 00 01 00 60 00 3C 0E 73 03 90 06 00 42 ......`.<.s....B
400000000005BBF0 09 70 60 02 34 24 00 00 00 02 00 E0 01 62 00 84 .p`.4$.......b..
400000000005BC00 09 00 00 00 01 00 F0 00 3C 20 20 00 00 00 04 00 ........<  .....
400000000005BC10 0B 30 00 1E 87 39 00 00 38 20 23 C0 41 0F C8 90 .0...9..8 #.A...
400000000005BC20 0B 00 00 00 01 00 00 00 38 20 23 C0 81 0F C8 90 ........8 #.....
400000000005BC30 09 00 00 00 01 00 00 00 00 02 00 00 00 00 04 00 ................
400000000005BC40 10 00 00 1C 90 11 00 00 00 02 00 03 90 06 00 42 ...............B
400000000005BC50 09 70 10 03 46 24 00 00 00 02 00 E0 21 00 00 90 .p..F$......!...
400000000005BC60 09 00 00 00 01 00 00 00 00 02 00 00 00 00 04 00 ................
400000000005BC70 11 00 3C 1C 90 11 00 00 00 02 00 00 58 85 05 50 ..<.........X..P
400000000005BC80 09 00 00 00 01 00 10 C0 32 00 42 00 00 00 04 00 ........2.B.....
400000000005BC90 11 08 00 02 18 10 00 00 00 02 00 00 38 3D 05 50 ............8=.P
400000000005BCA0 09 08 60 19 00 21 00 01 00 02 48 C0 00 08 1D E6 ..`..!....H.....
400000000005BCB0 0B 08 00 02 18 10 E0 20 06 8C 48 00 00 00 04 00 ....... ..H.....
400000000005BCC0 0B 00 00 00 01 00 F0 00 38 20 20 00 00 00 04 00 ........8  .....
400000000005BCD0 09 00 00 00 01 00 F0 80 3C 1C 40 00 00 00 04 00 ........<.@.....
400000000005BCE0 10 00 3C 1C 90 11 00 00 00 02 80 03 00 0A 00 43 ..<............C
400000000005BCF0 11 00 00 00 01 00 00 00 00 02 00 00 18 96 02 50 ...............P
400000000005BD00 09 00 00 00 01 00 10 C0 32 00 42 00 00 00 04 00 ........2.B.....
400000000005BD10 11 08 00 02 18 10 00 00 00 02 00 00 78 1A 05 50 ............x..P
400000000005BD20 09 00 00 00 01 00 10 C0 32 00 42 00 00 00 04 00 ........2.B.....
400000000005BD30 11 08 00 02 18 10 00 00 00 02 00 00 98 93 02 50 ...............P
400000000005BD40 09 80 60 18 00 21 00 00 00 02 00 20 80 65 00 84 ..`..!..... .e..
400000000005BD50 09 80 00 20 18 10 10 00 04 30 20 00 00 00 04 00 ... .....0 .....
400000000005BD60 11 30 00 20 07 39 A0 02 40 00 42 03 40 00 00 43 .0. .9..@.B.@..C
400000000005BD70 11 00 00 00 01 00 00 00 00 02 00 00 98 11 FF 58 ...............X
400000000005BD80 09 00 00 00 01 00 10 C0 32 00 42 00 00 00 04 00 ........2.B.....
400000000005BD90 08 08 00 02 18 10 00 00 00 02 00 00 00 00 04 00 ................
400000000005BDA0 11 50 01 44 00 21 B0 02 8C 00 42 00 68 2D FF 58 .P.D.!....B.h-.X
400000000005BDB0 09 00 00 00 01 00 10 C0 32 00 42 00 00 00 04 00 ........2.B.....
400000000005BDC0 11 08 00 02 18 10 00 00 00 02 00 00 88 37 FF 58 .............7.X
400000000005BDD0 09 78 80 18 00 21 00 00 00 02 00 20 80 65 00 84 .x...!..... .e..
400000000005BDE0 09 78 00 1E 10 10 10 00 04 30 20 00 00 00 04 00 .x.......0 .....
400000000005BDF0 11 00 00 00 01 00 60 00 3C 0E F3 03 70 08 00 43 ......`.<...p..C
400000000005BE00 10 00 00 00 01 00 60 00 94 0E 73 03 40 00 00 42 ......`...s.@..B
400000000005BE10 0B 70 60 03 46 24 00 00 00 02 00 00 00 00 04 00 .p`.F$..........
400000000005BE20 09 00 00 00 01 00 E0 00 38 20 20 00 00 00 04 00 ........8  .....
400000000005BE30 10 00 00 00 01 00 70 00 38 0C F3 03 F0 0A 00 43 ......p.8......C
400000000005BE40 09 28 41 40 00 21 00 00 00 02 00 60 15 00 00 90 .(A@.!.....`....
400000000005BE50 09 00 00 00 01 00 A0 02 94 30 20 00 00 00 04 00 .........0 .....
400000000005BE60 11 30 00 54 07 39 00 00 00 02 00 03 70 00 00 43 .0.T.9......p..C
400000000005BE70 11 00 00 00 01 00 00 00 00 02 00 00 D8 57 08 50 .............W.P
400000000005BE80 09 08 60 19 00 21 00 00 00 02 00 C0 00 40 1C E6 ..`..!.......@..
400000000005BE90 11 08 00 02 18 10 00 00 00 02 80 03 90 0B 00 41 ...............A
400000000005BEA0 11 50 01 4A 18 10 00 00 00 02 00 00 68 FF FE 58 .P.J........h..X
400000000005BEB0 09 00 00 00 01 00 10 C0 32 00 42 00 00 00 04 00 ........2.B.....
400000000005BEC0 08 08 00 02 18 10 00 00 94 30 23 00 00 00 04 00 .........0#.....
400000000005BED0 09 70 00 40 10 10 00 00 00 02 00 E0 41 00 01 84 .p.@........A...
400000000005BEE0 11 38 34 1C 86 39 00 00 00 02 80 03 50 09 00 43 .84..9......P..C
400000000005BEF0 0B 30 00 4E 87 F9 E1 C0 80 00 C2 03 02 61 00 84 .0.N.........a..
400000000005BF00 EB 70 00 1C 18 D0 E1 80 38 00 42 00 00 00 04 00 .p......8.B.....
400000000005BF10 EB 70 00 1C 18 90 E1 80 30 00 42 00 00 00 04 00 .p......0.B.....
400000000005BF20 08 00 00 00 01 C0 01 70 40 30 23 00 00 00 04 00 .......p@0#.....
400000000005BF30 C9 00 80 1C 98 11 E0 00 3C 20 20 00 00 00 04 00 ........<  .....
400000000005BF40 03 00 00 00 01 00 60 70 38 0E A8 03 02 61 00 84 ......`p8....a..
400000000005BF50 EB 80 00 20 18 D0 E1 20 40 00 C2 03 02 00 04 90 ... ... @.......
400000000005BF60 EB 88 00 1C B0 D0 01 81 44 1C 40 00 00 00 04 00 ........D.@.....
400000000005BF70 EB 00 40 1C B0 D1 E1 00 3C 20 20 00 00 00 04 00 ..@.....<  .....
400000000005BF80 01 00 00 00 01 00 60 80 38 0E 28 00 00 00 04 00 ......`.8.(.....
400000000005BF90 E9 78 40 18 00 21 00 00 00 02 80 03 02 00 08 90 .x@..!..........
400000000005BFA0 EB 78 00 1E 18 D0 E1 20 3C 00 C2 E3 41 00 01 84 .x..... <...A...
400000000005BFB0 EB 88 00 1C B0 D0 01 81 44 1C 40 00 00 00 04 00 ........D.@.....
400000000005BFC0 EB 00 40 1C B0 D1 E1 00 3C 20 20 00 00 00 04 00 ..@.....<  .....
400000000005BFD0 10 00 00 00 01 00 60 30 38 0E 28 03 50 00 00 42 ......`08.(.P..B
400000000005BFE0 0B 80 40 18 00 21 00 01 40 30 20 00 00 00 04 00 ..@..!..@0 .....
400000000005BFF0 0B 30 40 40 07 F8 E1 20 40 00 42 00 00 00 04 00 .0@@... @.B.....
400000000005C000 E3 78 00 1C B0 10 00 00 00 02 80 E3 81 78 B8 80 .x...........x..
400000000005C010 E8 00 3C 1C B0 11 00 00 00 02 00 00 00 00 04 00 ..<.............
400000000005C020 0B 80 80 18 00 21 00 01 40 20 20 00 00 00 04 00 .....!..@  .....
400000000005C030 10 00 00 00 01 00 70 00 40 0C F3 03 F0 03 00 42 ......p.@......B
400000000005C040 0B 78 40 18 00 21 F0 00 3C 30 20 00 00 00 04 00 .x@..!..<0 .....
400000000005C050 09 00 00 00 01 00 E0 00 3C 60 21 00 00 00 04 00 ........<`!.....
400000000005C060 10 00 00 00 01 00 60 20 38 0E 73 03 00 04 00 43 ......` 8.s....C
400000000005C070 09 00 00 00 01 00 E0 00 3C 60 21 00 00 00 04 00 ........<`!.....
400000000005C080 10 00 00 00 01 00 70 68 38 0C F3 03 E0 03 00 43 ......ph8......C
400000000005C090 08 80 40 18 00 21 F0 00 32 00 42 40 45 0A 14 93 ..@..!..2.B@E...
400000000005C0A0 0A 58 05 00 00 24 00 01 40 30 20 00 00 00 04 00 .X...$..@0 .....
400000000005C0B0 0B 00 00 00 01 00 E0 20 40 00 42 00 00 00 04 00 ....... @.B.....
400000000005C0C0 0A 80 00 1C B0 10 00 80 3C 20 23 00 00 00 04 00 ........< #.....
400000000005C0D0 0B 78 00 1C B0 10 F0 D8 3F 58 44 00 00 00 04 00 .x......?XD.....
400000000005C0E0 11 00 3C 1C B0 11 00 00 00 02 00 00 88 FC FB 58 ..<............X
400000000005C0F0 09 08 60 19 00 21 00 00 00 02 00 C0 01 63 00 84 ..`..!.......c..
400000000005C100 09 08 00 02 18 10 00 40 38 20 23 00 00 00 04 00 .......@8 #.....
400000000005C110 0B 70 20 03 46 24 00 00 00 02 00 00 00 00 04 00 .p .F$..........
400000000005C120 09 00 00 00 01 00 E0 00 38 20 20 00 00 00 04 00 ........8  .....
400000000005C130 11 00 00 00 01 00 60 00 38 0E F3 03 E0 05 00 43 ......`.8......C
400000000005C140 C8 40 00 00 00 21 00 00 00 02 00 00 00 00 04 00 .@...!..........
400000000005C150 0B 78 C0 18 00 21 F0 00 3C 20 20 00 00 00 04 00 .x...!..<  .....
400000000005C160 10 00 00 00 01 00 70 18 3C 0C F3 03 00 06 00 43 ......p.<......C
400000000005C170 0B 80 C0 18 00 21 00 01 40 20 20 00 00 00 04 00 .....!..@  .....
400000000005C180 09 00 00 00 01 00 70 00 40 0C 73 00 00 00 04 00 ......p.@.s.....
400000000005C190 10 00 00 00 01 80 51 0A 00 00 48 03 40 00 00 42 ......Q...H.@..B
400000000005C1A0 11 70 D0 02 46 24 60 00 20 0E 73 03 B0 07 00 43 .p..F$`. .s....C
400000000005C1B0 09 00 00 00 01 00 00 00 00 02 00 00 00 00 04 00 ................
400000000005C1C0 08 28 01 1C 10 10 00 00 00 02 00 00 00 00 04 00 .(..............
400000000005C1D0 0B 80 00 19 00 21 00 01 40 20 20 00 00 00 04 00 .....!..@  .....
400000000005C1E0 11 00 00 00 01 00 60 20 40 0E 28 03 30 00 00 43 ......` @.(.0..C
400000000005C1F0 09 00 00 00 01 00 60 00 94 0E 73 00 00 00 04 00 ......`...s.....
400000000005C200 C2 28 05 00 00 24 00 00 00 02 80 A3 04 00 00 84 .(...$..........
400000000005C210 0B 70 80 18 00 21 E0 00 38 20 20 00 00 00 04 00 .p...!..8  .....
400000000005C220 10 00 00 00 01 00 60 00 38 0E F3 03 A0 03 00 43 ......`.8......C
400000000005C230 09 70 00 02 37 24 00 00 00 02 00 00 01 28 01 84 .p..7$.......(..
400000000005C240 0B 78 00 1C 10 10 F0 F8 3F 7E 46 00 00 00 04 00 .x......?~F.....
400000000005C250 02 00 3C 1C 90 11 00 48 01 55 00 00 80 0A 00 07 ..<....H.U......
400000000005C260 19 00 00 00 01 00 C0 80 32 00 42 80 08 00 84 00 ........2.B.....
400000000005C270 09 00 00 00 01 00 E0 00 31 00 42 00 00 00 04 00 ........1.B.....
400000000005C280 0B 70 00 1C 10 10 70 00 38 0C 73 C0 41 0F C8 90 .p....p.8.s.A...
400000000005C290 0B 00 00 00 01 00 00 00 38 20 23 C0 81 0F C8 90 ........8 #.....
400000000005C2A0 09 00 00 00 01 00 00 00 00 02 00 00 00 00 04 00 ................
400000000005C2B0 10 00 00 1C 90 11 00 00 00 02 00 03 A0 F9 FF 4A ...............J
400000000005C2C0 11 00 00 00 01 00 70 00 84 0C F3 03 F0 04 00 42 ......p........B
400000000005C2D0 09 70 10 03 46 24 60 F8 8F 0E 77 E0 11 00 00 90 .p..F$`...w.....
400000000005C2E0 09 00 00 00 01 00 00 00 00 02 00 E0 F8 17 19 EF ................
400000000005C2F0 09 00 3C 1C 90 11 00 00 00 02 80 C3 41 0C 18 91 ..<.........A...
400000000005C300 0B 00 00 00 01 C0 F1 00 38 20 20 00 00 00 04 00 ........8  .....
400000000005C310 EB 78 40 1E 2E E0 01 78 38 20 23 C0 00 38 1D E6 .x@....x8 #..8..
400000000005C320 EB 70 10 03 46 24 00 00 00 02 00 00 00 00 04 00 .p..F$..........
400000000005C330 E3 78 00 1C 10 10 00 00 00 02 80 E3 01 7C B8 80 .x...........|..
400000000005C340 E8 00 3C 1C 90 11 00 00 00 02 00 00 00 00 04 00 ..<.............
400000000005C350 11 00 00 00 01 00 00 00 00 02 00 00 78 7E 05 50 ............x~.P
400000000005C360 09 00 00 00 01 00 10 C0 32 00 42 00 00 00 04 00 ........2.B.....
400000000005C370 11 08 00 02 18 10 00 00 00 02 00 00 58 36 05 50 ............X6.P
400000000005C380 09 08 60 19 00 21 00 01 00 02 48 C0 00 08 1D E6 ..`..!....H.....
400000000005C390 0B 08 00 02 18 10 E0 20 06 8C 48 00 00 00 04 00 ....... ..H.....
400000000005C3A0 0B 00 00 00 01 00 F0 00 38 20 20 00 00 00 04 00 ........8  .....
400000000005C3B0 09 00 00 00 01 00 F0 80 3C 1C 40 00 00 00 04 00 ........<.@.....
400000000005C3C0 10 00 3C 1C 90 11 00 00 00 02 00 03 30 F9 FF 4A ..<.........0..J
400000000005C3D0 10 00 00 00 01 00 00 00 00 02 00 00 10 03 00 40 ...............@
400000000005C3E0 0B 38 11 40 00 21 60 02 9C 20 20 00 00 00 04 00 .8.@.!`..  .....
400000000005C3F0 11 00 00 00 01 00 60 A0 98 0E 28 03 20 00 00 42 ......`...(. ..B
400000000005C400 10 00 00 00 01 00 70 F8 8B 0C F7 03 C0 05 00 43 ......p........C
400000000005C410 11 00 00 00 01 00 50 02 00 00 42 00 30 F7 FF 48 ......P...B.0..H
400000000005C420 10 00 00 00 01 00 70 00 9C 0C F3 03 70 FC FF 4A ......p.....p..J
400000000005C430 0B 78 40 18 00 21 F0 00 3C 30 20 00 00 00 04 00 .x@..!..<0 .....
400000000005C440 09 00 00 00 01 00 E0 00 3C 60 21 00 00 00 04 00 ........<`!.....
400000000005C450 11 00 00 00 01 00 60 20 38 0E F3 03 20 FC FF 4A ......` 8... ..J
400000000005C460 0B 78 40 18 00 21 F0 00 3C 30 20 00 00 00 04 00 .x@..!..<0 .....
400000000005C470 0B 70 10 1E 00 21 F0 00 38 60 21 00 00 00 04 00 .p...!..8`!.....
400000000005C480 10 00 00 00 01 00 70 70 3C 0C 28 03 10 FC FF 4A ......pp<.(....J
400000000005C490 09 00 00 00 01 00 F0 00 38 60 21 00 00 00 04 00 ........8`!.....
400000000005C4A0 10 00 00 00 01 00 70 20 3C 0C 28 03 F0 FB FF 4A ......p <.(....J
400000000005C4B0 08 78 00 1C B0 10 00 00 00 02 00 00 02 61 00 84 .x...........a..
400000000005C4C0 02 50 91 02 C5 24 B0 0A 00 00 48 E0 01 7C B8 80 .P...$....H..|..
400000000005C4D0 09 80 00 20 18 10 00 00 00 02 00 00 00 00 04 00 ... ............
400000000005C4E0 0B 00 3C 1C B0 11 E0 00 40 60 21 00 00 00 04 00 ..<.....@`!.....
400000000005C4F0 0B 38 10 1C 86 F9 E1 C0 40 00 42 00 02 61 00 84 .8......@.B..a..
400000000005C500 E9 70 00 1C B8 10 00 01 40 30 20 00 00 00 04 00 .p......@0 .....
400000000005C510 EB 78 00 1C 10 D0 F1 00 3E 5C 40 00 00 00 04 00 .x......>\@.....
400000000005C520 E9 00 3C 1C 90 11 E0 20 40 00 42 E0 01 64 00 84 ..<.... @.B..d..
400000000005C530 0A 80 00 1C B0 10 00 80 3C 20 23 00 00 00 04 00 ........< #.....
400000000005C540 0B 78 00 1C B0 10 F0 D8 3F 58 44 00 00 00 04 00 .x......?XD.....
400000000005C550 11 00 3C 1C B0 11 00 00 00 02 00 00 18 F8 FB 58 ..<............X
400000000005C560 09 08 60 19 00 21 00 00 00 02 00 C0 01 63 00 84 ..`..!.......c..
400000000005C570 09 08 00 02 18 10 00 40 38 20 23 00 00 00 04 00 .......@8 #.....
400000000005C580 0B 70 20 03 46 24 00 00 00 02 00 00 00 00 04 00 .p .F$..........
400000000005C590 0B 70 00 1C 10 10 60 00 38 0E 73 00 00 00 04 00 .p....`.8.s.....
400000000005C5A0 10 00 00 00 01 80 81 00 00 00 42 03 B0 FB FF 4A ..........B....J
400000000005C5B0 10 00 00 00 01 00 00 00 00 02 00 00 60 01 00 40 ............`..@
400000000005C5C0 11 50 01 00 00 21 00 00 00 02 00 00 48 36 05 50 .P...!......H6.P
400000000005C5D0 09 08 60 19 00 21 00 00 00 02 00 C0 00 40 1C E6 ..`..!.......@..
400000000005C5E0 11 08 00 02 18 10 00 00 00 02 00 03 50 FC FF 4A ............P..J
400000000005C5F0 0B 70 50 03 46 24 00 00 00 02 00 00 00 00 04 00 .pP.F$..........
400000000005C600 11 00 94 1C 90 11 00 00 00 02 00 00 08 22 05 50 .............".P
400000000005C610 09 08 60 19 00 21 00 00 00 02 00 A0 04 40 00 84 ..`..!.......@..
400000000005C620 03 08 00 02 18 10 80 00 94 00 42 C0 01 08 DC 90 ..........B.....
400000000005C630 0B 78 00 1C 10 10 F0 F8 3F 7E 46 00 00 00 04 00 .x......?~F.....
400000000005C640 02 00 3C 1C 90 11 00 48 01 55 00 00 80 0A 00 07 ..<....H.U......
400000000005C650 18 00 00 00 01 00 C0 80 32 00 42 80 08 00 84 00 ........2.B.....
400000000005C660 09 00 00 00 01 00 E0 80 80 00 42 00 00 00 04 00 ..........B.....
400000000005C670 11 50 01 1C 18 10 00 00 00 02 00 00 98 51 08 50 .P...........Q.P
400000000005C680 09 08 60 19 00 21 00 00 00 02 00 40 05 00 00 84 ..`..!.....@....
400000000005C690 0B 08 00 02 18 10 E0 C0 06 8C 48 00 00 00 04 00 ..........H.....
400000000005C6A0 09 00 00 00 01 00 00 00 00 02 00 00 00 00 04 00 ................
400000000005C6B0 11 00 20 1C 90 11 00 00 00 02 00 00 98 1A 05 50 .. ............P
400000000005C6C0 09 00 00 00 01 00 10 C0 32 00 42 00 00 00 04 00 ........2.B.....
400000000005C6D0 10 08 00 02 18 10 00 00 00 02 00 00 30 F7 FF 48 ............0..H
400000000005C6E0 11 00 00 00 01 00 00 00 00 02 00 00 28 3A FF 58 ............(:.X
400000000005C6F0 09 00 00 00 01 00 10 C0 32 00 42 00 00 00 04 00 ........2.B.....
400000000005C700 11 08 00 02 18 10 00 00 00 02 00 00 F0 F5 FF 48 ...............H
400000000005C710 09 50 51 03 B1 24 00 00 00 02 00 60 15 00 00 90 .PQ..$.....`....
400000000005C720 11 00 00 00 01 00 00 00 00 02 00 00 48 F6 FB 58 ............H..X
400000000005C730 09 78 C0 18 00 21 00 00 00 02 00 20 80 65 00 84 .x...!..... .e..
400000000005C740 09 78 00 1E 10 10 10 00 04 30 20 00 00 00 04 00 .x.......0 .....
400000000005C750 10 00 00 00 01 00 70 18 3C 0C 73 03 20 FA FF 4A ......p.<.s. ..J
400000000005C760 09 00 00 00 01 00 E0 A0 06 8C 48 00 00 00 04 00 ..........H.....
400000000005C770 0B 00 00 00 01 00 50 02 38 20 20 C0 01 62 00 84 ......P.8  ..b..
400000000005C780 09 00 00 00 01 00 E0 00 38 20 20 00 00 00 04 00 ........8  .....
400000000005C790 10 00 00 00 01 00 60 00 38 0E 73 03 A0 FA FF 4A ......`.8.s....J
400000000005C7A0 11 00 00 00 01 00 00 00 00 02 00 00 20 FE FF 48 ............ ..H
400000000005C7B0 09 70 10 03 46 24 00 00 00 02 00 C0 F0 1F 1D EE .p..F$..........
400000000005C7C0 09 00 00 00 01 00 00 00 00 02 00 E0 F8 17 19 EF ................
400000000005C7D0 09 00 00 1C 90 11 00 00 00 02 80 C3 41 0C 18 91 ............A...
400000000005C7E0 0B 00 00 00 01 C0 F1 00 38 20 20 00 00 00 04 00 ........8  .....
400000000005C7F0 EB 78 40 1E 2E E0 01 78 38 20 23 C0 00 38 1D E6 .x@....x8 #..8..
400000000005C800 EB 70 10 03 46 24 00 00 00 02 00 00 00 00 04 00 .p..F$..........
400000000005C810 EB 78 00 1C 10 D0 F1 00 3E 5C 40 00 00 00 04 00 .x......>\@.....
400000000005C820 F0 00 3C 1C 90 11 00 00 00 02 00 00 30 FB FF 48 ..<.........0..H
400000000005C830 09 70 60 40 00 21 00 00 00 02 00 E0 01 61 00 84 .p`@.!.......a..
400000000005C840 0B 70 00 1C 18 10 E0 40 38 00 42 00 00 00 04 00 .p.....@8.B.....
400000000005C850 0B 70 00 1C 18 10 00 70 3C 30 23 E0 41 00 01 84 .p.....p<0#.A...
400000000005C860 09 00 00 00 01 00 E0 00 3C 20 20 00 00 00 04 00 ........<  .....
400000000005C870 03 00 00 00 01 00 60 70 38 0E A8 03 02 61 00 84 ......`p8....a..
400000000005C880 EB 80 00 20 18 D0 E1 20 40 00 C2 03 02 00 04 90 ... ... @.......
400000000005C890 EB 88 00 1C B0 D0 01 81 44 1C 40 00 00 00 04 00 ........D.@.....
400000000005C8A0 EB 00 40 1C B0 D1 E1 00 3C 20 20 00 00 00 04 00 ..@.....<  .....
400000000005C8B0 01 00 00 00 01 00 60 80 38 0E 28 00 00 00 04 00 ......`.8.(.....
400000000005C8C0 E9 78 40 18 00 21 00 00 00 02 80 03 02 00 08 90 .x@..!..........
400000000005C8D0 EB 78 00 1E 18 D0 E1 20 3C 00 C2 E3 41 00 01 84 .x..... <...A...
400000000005C8E0 EB 88 00 1C B0 D0 01 81 44 1C 40 00 00 00 04 00 ........D.@.....
400000000005C8F0 EB 00 40 1C B0 D1 E1 00 3C 20 20 00 00 00 04 00 ..@.....<  .....
400000000005C900 10 00 00 00 01 00 60 30 38 0E 28 03 20 F7 FF 4A ......`08.(. ..J
400000000005C910 10 00 00 00 01 00 00 00 00 02 00 00 D0 F6 FF 48 ...............H
400000000005C920 11 00 00 00 01 00 00 00 00 02 00 00 E8 23 FF 58 .............#.X
400000000005C930 09 00 00 00 01 00 10 C0 32 00 42 00 00 00 04 00 ........2.B.....
400000000005C940 10 08 00 02 18 10 00 00 00 02 00 00 00 F5 FF 48 ...............H
400000000005C950 08 70 40 18 00 21 F0 C0 30 00 42 60 05 00 00 84 .p@..!..0.B`....
400000000005C960 02 60 FD F9 FF 27 D0 FA F3 FF 4F 00 00 00 04 00 .`...'....O.....
400000000005C970 19 50 01 1C 18 10 E0 02 3C 30 20 00 D8 72 FF 58 .P......<0 ..r.X
400000000005C980 09 80 00 19 00 21 10 C0 32 00 42 A0 04 40 00 84 .....!..2.B..@..
400000000005C990 09 80 00 20 10 10 10 00 04 30 20 00 00 00 04 00 ... .....0 .....
400000000005C9A0 10 00 00 00 01 00 60 20 40 0E A8 03 50 F8 FF 4A ......` @...P..J
400000000005C9B0 10 00 00 00 01 00 00 00 00 02 00 00 60 F8 FF 48 ............`..H
400000000005C9C0 09 00 00 00 01 00 E0 80 80 00 42 00 00 00 04 00 ..........B.....
400000000005C9D0 11 50 01 1C 18 10 00 00 00 02 00 00 38 4E 08 50 .P..........8N.P
400000000005C9E0 08 00 00 00 01 00 60 00 20 0E 73 20 80 65 00 84 ......`. .s .e..
400000000005C9F0 02 30 01 4E 10 10 00 00 00 02 00 03 11 00 00 90 .0.N............
400000000005CA00 0B 08 00 02 18 D0 81 00 00 00 42 00 00 00 04 00 ..........B.....
400000000005CA10 10 00 00 00 01 00 50 02 20 00 42 00 30 F1 FF 48 ......P. .B.0..H
400000000005CA20 03 00 00 00 01 00 60 20 98 0E 28 43 15 00 00 90 ......` ..(C....
400000000005CA30 11 00 00 00 01 C0 A1 02 00 00 42 00 58 EB FB 58 ..........B.X..X
400000000005CA40 0D 00 00 00 01 00 00 00 00 00 00 00 00 00 04 00 ................
400000000005CA50 08 00 00 00 01 00 00 00 00 02 00 00 00 00 04 00 ................
400000000005CA60 08 00 00 00 01 00 00 00 00 02 00 00 00 00 04 00 ................
400000000005CA70 08 00 00 00 01 00 00 00 00 02 00 00 00 00 04 00 ................
400000000005CA80 18 B0 75 30 80 05 C0 00 31 74 46 00 00 00 00 20 ..u0....1tF.... 
400000000005CA90 01 B8 01 02 00 21 50 03 00 62 00 C0 44 00 01 84 .....!P..b..D...
400000000005CAA0 08 C0 01 18 05 21 00 00 00 02 00 20 07 64 14 84 .....!..... .d..
400000000005CAB0 19 88 01 00 02 24 00 00 00 02 00 00 38 E8 FB 58 .....$......8..X
400000000005CAC0 08 08 00 6E 00 21 00 00 00 02 00 00 07 00 00 84 ...n.!..........
400000000005CAD0 19 C8 01 19 03 21 00 00 00 02 00 00 78 F4 FB 58 .....!......x..X
400000000005CAE0 08 08 00 6E 00 21 00 00 00 02 00 00 F7 E7 FF 9F ...n.!..........
400000000005CAF0 19 C8 81 18 01 21 00 00 00 02 00 00 58 F4 FB 58 .....!......X..X
400000000005CB00 08 00 00 00 01 00 E0 00 80 20 20 20 00 B8 01 84 .........   ....
400000000005CB10 09 00 00 00 01 00 70 02 98 20 20 00 00 00 04 00 ......p..  .....
400000000005CB20 10 88 C5 4E 0C 20 70 20 38 0C F3 03 A0 07 00 43 ...N. p 8......C
400000000005CB30 08 90 01 00 00 21 00 83 31 02 42 E0 05 65 0C 84 .....!..1.B..e..
400000000005CB40 08 70 FC F9 FC 27 B0 03 8C 00 42 80 07 20 01 84 .p...'....B.. ..
400000000005CB50 09 D0 01 44 00 21 90 42 32 0A 42 60 05 65 14 84 ...D.!.B2.B`.e..
400000000005CB60 08 70 38 4E 0C 20 D0 C2 32 0A 42 00 05 66 14 84 .p8N. ..2.B..f..
400000000005CB70 09 50 91 19 05 21 C0 42 33 0A 42 00 07 00 01 84 .P...!.B3.B.....
400000000005CB80 11 00 38 4C 90 11 90 03 84 00 42 00 C8 70 FF 58 ..8L......B..p.X
400000000005CB90 08 08 00 6E 00 21 00 38 99 20 23 C0 05 40 00 84 ...n.!.8. #..@..
400000000005CBA0 09 C0 C1 19 04 21 00 00 A4 30 23 20 07 64 14 84 .....!...0# .d..
400000000005CBB0 09 00 00 56 98 11 00 00 B4 30 23 00 00 00 04 00 ...V.....0#.....
400000000005CBC0 09 00 00 50 90 11 00 00 A8 20 23 00 00 00 04 00 ...P..... #.....
400000000005CBD0 11 00 00 58 90 11 00 00 00 02 00 00 18 E7 FB 58 ...X...........X
400000000005CBE0 08 08 00 6E 00 21 00 00 00 02 00 00 07 00 00 84 ...n.!..........
400000000005CBF0 19 C8 C1 18 02 21 00 00 00 02 00 00 58 F3 FB 58 .....!......X..X
400000000005CC00 08 08 00 6E 00 21 00 00 00 02 00 00 F7 E7 FF 9F ...n.!..........
400000000005CC10 19 C8 41 18 00 21 00 00 00 02 00 00 38 F3 FB 58 ..A..!......8..X
400000000005CC20 08 08 00 6E 00 21 80 83 31 0A 42 00 00 00 04 00 ...n.!..1.B.....
400000000005CC30 19 C8 01 18 05 21 A0 83 33 08 42 00 58 F3 0C 50 .....!..3.B.X..P
400000000005CC40 08 08 00 6E 00 21 80 83 31 0A 42 00 00 00 04 00 ...n.!..1.B.....
400000000005CC50 19 C8 01 5A 00 21 A0 03 B0 00 42 00 B8 F8 0C 50 ...Z.!....B....P
400000000005CC60 08 08 00 6E 00 21 80 83 33 08 42 00 00 00 04 00 ...n.!..3.B.....
400000000005CC70 19 C8 01 19 03 21 A0 83 31 04 42 00 18 F3 0C 50 .....!..1.B....P
400000000005CC80 08 08 00 6E 00 21 60 02 20 00 42 00 07 60 14 84 ...n.!`. .B..`..
400000000005CC90 19 C8 81 18 01 21 A0 83 30 00 42 00 F8 F2 0C 50 .....!..0.B....P
400000000005CCA0 08 C8 01 4C 00 21 10 00 DC 00 42 00 00 00 04 00 ...L.!....B.....
400000000005CCB0 19 C0 81 18 05 21 A0 03 20 00 42 00 58 F3 0C 50 .....!.. .B.X..P
400000000005CCC0 08 08 00 6E 00 21 80 03 31 0A 42 00 00 00 04 00 ...n.!..1.B.....
400000000005CCD0 19 C8 01 56 00 21 A0 03 A8 00 42 00 38 F8 0C 50 ...V.!....B.8..P
400000000005CCE0 08 08 00 6E 00 21 80 83 33 08 42 00 00 00 04 00 ...n.!..3.B.....
400000000005CCF0 19 C8 01 5E 00 21 A0 03 32 04 42 00 98 F2 0C 50 ...^.!..2.B....P
400000000005CD00 08 08 00 6E 00 21 60 02 20 00 42 00 07 60 14 84 ...n.!`. .B..`..
400000000005CD10 19 C8 01 60 00 21 A0 03 31 00 42 00 78 F2 0C 50 ...`.!..1.B.x..P
400000000005CD20 08 08 00 6E 00 21 80 83 30 0A 42 00 00 00 04 00 ...n.!..0.B.....
400000000005CD30 19 C8 01 4C 00 21 A0 03 20 00 42 00 D8 F2 0C 50 ...L.!.. .B....P
400000000005CD40 08 08 00 6E 00 21 80 83 30 0A 42 00 00 00 04 00 ...n.!..0.B.....
400000000005CD50 19 C8 01 52 00 21 A0 03 A0 00 42 00 B8 F7 0C 50 ...R.!....B....P
400000000005CD60 08 08 00 6E 00 21 80 83 31 0A 42 00 00 00 04 00 ...n.!..1.B.....
400000000005CD70 19 C8 81 18 05 21 A0 83 30 0A 42 00 18 F3 0C 50 .....!..0.B....P
400000000005CD80 08 00 00 00 01 00 10 00 DC 00 42 E0 04 40 00 84 ..........B..@..
400000000005CD90 19 00 00 00 01 00 70 00 C4 0C F3 03 B0 08 00 43 ......p........C
400000000005CDA0 09 00 00 00 01 00 50 E2 F6 D1 4F 00 00 00 04 00 ......P...O.....
400000000005CDB0 09 28 01 4A 18 10 00 00 00 02 00 00 00 00 04 00 .(.J............
400000000005CDC0 0B 70 00 4A 00 10 00 00 00 02 00 C0 01 70 50 00 .p.J.........pP.
400000000005CDD0 10 00 00 00 01 00 60 00 38 0E F3 03 30 00 00 43 ......`.8...0..C
400000000005CDE0 02 40 00 5C 00 21 00 B0 01 55 00 00 50 0B 00 07 .@.\.!...U..P...
400000000005CDF0 18 00 00 00 01 00 C0 00 33 0A 42 80 08 00 84 00 ........3.B.....
400000000005CE00 08 70 90 FB AC 27 F0 02 B4 30 20 00 07 28 01 84 .p...'...0 ..(..
400000000005CE10 09 00 00 00 01 00 00 03 B0 20 20 00 00 00 04 00 .........  .....
400000000005CE20 09 70 00 1C 18 10 30 03 AC 30 20 00 00 00 04 00 .p....0..0 .....
400000000005CE30 11 60 01 1C 18 10 00 00 00 02 00 00 98 E8 FB 58 .`.............X
400000000005CE40 00 30 01 11 00 21 E0 F8 21 00 29 20 00 B8 01 84 .0...!..!.) ....
400000000005CE50 19 58 01 52 18 10 D0 02 A0 20 20 00 00 00 00 20 .X.R.....  .... 
400000000005CE60 00 00 00 00 01 00 E0 A0 3B 0A 29 00 00 00 04 00 ........;.).....
400000000005CE70 03 A0 01 54 10 10 80 02 00 00 42 E0 81 70 00 80 ...T......B..p..
400000000005CE80 0B 78 FC 1E 2C 20 E0 78 38 0A 40 00 00 00 04 00 .x.., .x8.@.....
400000000005CE90 09 00 00 00 01 00 60 32 39 0A 40 00 00 00 04 00 ......`29.@.....
400000000005CEA0 11 00 00 00 01 00 80 03 98 2C 00 00 28 BE 08 50 .........,..(..P
400000000005CEB0 04 70 00 4A 00 90 70 3D 0A D7 23 20 B2 70 B8 6E .p.J..p=..# .p.n
400000000005CEC0 09 08 00 6E 00 21 90 02 20 00 42 E0 01 38 59 00 ...n.!.. .B..8Y.
400000000005CED0 08 30 3C 00 E1 18 70 88 00 C2 31 00 F2 7F 00 52 .0<...p...1....R
400000000005CEE0 11 00 00 00 01 00 E0 00 38 28 00 00 00 00 00 20 ........8(..... 
400000000005CEF0 11 30 00 1C 87 39 00 00 00 02 00 03 10 0B 00 43 .0...9.........C
400000000005CF00 0F 00 00 00 01 00 00 00 00 02 00 C0 00 30 1C EE .............0..
400000000005CF10 0B 88 18 00 E1 10 10 89 3C 00 40 00 00 00 04 00 ........<.@.....
400000000005CF20 03 00 00 00 01 00 10 69 44 72 29 00 12 81 14 80 .......iDr).....
400000000005CF30 03 88 40 20 11 20 20 03 40 2C 00 20 12 89 44 80 ..@ .  .@,. ..D.
400000000005CF40 0B 88 44 00 11 20 F0 78 44 0A 40 00 00 00 04 00 ..D.. .xD.@.....
400000000005CF50 03 78 3C 1E 11 20 00 00 00 02 00 20 F6 00 40 80 .x<.. ..... ..@.
400000000005CF60 10 00 00 00 01 00 70 28 39 0C F3 03 70 01 00 43 ......p(9...p..C
400000000005CF70 08 38 05 50 00 21 00 00 00 02 00 C0 01 34 01 84 .8.P.!.......4..
400000000005CF80 09 C0 01 52 00 21 00 00 00 02 00 40 05 28 01 84 ...R.!.....@.(..
400000000005CF90 11 78 9C 4C 05 20 60 38 99 0E 61 03 50 00 00 42 .x.L. `8..a.P..B
400000000005CFA0 03 00 00 00 01 00 60 62 3C 32 29 C0 64 CA 65 53 ......`b<2).d.eS
400000000005CFB0 09 00 00 00 01 00 60 72 98 00 40 00 00 00 04 00 ......`r..@.....
400000000005CFC0 11 00 00 00 01 00 90 03 98 2C 00 00 48 BE 08 50 .........,..H..P
400000000005CFD0 08 00 00 00 01 00 10 00 DC 00 42 20 05 40 00 84 ..........B .@..
400000000005CFE0 10 00 00 00 01 00 E0 00 A0 2C 00 00 00 00 00 20 .........,..... 
400000000005CFF0 09 78 00 4A 00 10 50 0A A8 00 42 00 05 38 01 84 .x.J..P...B..8..
400000000005D000 0B 70 A4 1C 00 20 00 78 38 00 23 00 00 00 04 00 .p... .x8.#.....
400000000005D010 0B 70 00 4A 00 10 00 00 00 02 00 C0 01 70 50 00 .p.J.........pP.
400000000005D020 10 00 00 00 01 00 70 00 38 0C 73 03 40 FF FF 4A ......p.8.s.@..J
400000000005D030 08 00 00 00 01 00 A0 23 F4 D3 4F 00 05 40 59 00 .......#..O..@Y.
400000000005D040 09 C8 05 00 00 24 B0 03 A4 00 42 00 07 60 01 84 .....$....B..`..
400000000005D050 09 40 A5 50 00 20 A0 03 E8 30 20 00 00 00 04 00 .@.P. ...0 .....
400000000005D060 11 00 00 50 80 11 00 00 00 02 00 00 E8 EF FB 58 ...P...........X
400000000005D070 11 08 00 6E 00 21 80 03 B0 00 42 00 18 D6 FB 58 ...n.!....B....X
400000000005D080 08 00 00 00 01 00 10 00 DC 00 42 00 07 48 01 84 ..........B..H..
400000000005D090 19 00 00 00 01 00 00 00 00 02 00 00 58 D7 FB 58 ............X..X
400000000005D0A0 08 08 00 6E 00 21 00 00 00 02 00 00 00 00 04 00 ...n.!..........
400000000005D0B0 02 40 00 5C 00 21 00 B0 01 55 00 00 50 0B 00 07 .@.\.!...U..P...
400000000005D0C0 18 00 00 00 01 00 C0 00 33 0A 42 80 08 00 84 00 ........3.B.....
400000000005D0D0 0B 38 05 4A 00 21 E0 00 9C 00 20 00 00 00 04 00 .8.J.!.... .....
400000000005D0E0 01 00 00 00 01 00 E0 00 38 28 00 00 00 00 04 00 ........8(......
400000000005D0F0 11 00 00 00 01 00 70 00 38 0C F3 03 80 FE FF 4A ......p.8......J
400000000005D100 11 38 94 1C 86 39 90 83 3A 7E C6 03 10 06 00 43 .8...9..:~.....C
400000000005D110 11 38 40 1D 86 39 F0 00 E4 20 80 03 10 07 00 43 .8@..9... .....C
400000000005D120 09 00 00 00 01 00 70 48 3C 0C 6B 00 00 00 04 00 ......pH<.k.....
400000000005D130 F1 50 01 4E 00 E1 91 1B 00 00 C8 03 30 00 00 42 .P.N........0..B
400000000005D140 09 50 09 4A 00 21 00 00 00 02 00 E0 30 C8 19 C6 .P.J.!......0...
400000000005D150 03 70 00 54 00 D0 91 1B 00 00 48 C0 01 70 50 00 .p.T......H..pP.
400000000005D160 08 38 B0 1D 86 39 80 83 32 08 42 60 07 58 01 84 .8...9..2.B`.X..
400000000005D170 0B E0 01 5A 00 E1 A1 0A A8 00 C2 43 17 00 00 90 ...Z.......C....
400000000005D180 E9 70 00 54 00 10 00 00 00 02 00 43 07 00 00 84 .p.T.......C....
400000000005D190 03 00 00 00 01 C0 E1 00 38 28 00 E0 50 74 18 E6 ........8(..Pt..
400000000005D1A0 11 38 48 1D C6 39 00 00 00 02 80 03 50 06 00 43 .8H..9......P..C
400000000005D1B0 11 38 54 1D 86 39 00 00 00 02 80 03 60 07 00 43 .8T..9......`..C
400000000005D1C0 11 38 4C 1D 86 39 00 00 00 02 00 03 C0 07 00 43 .8L..9.........C
400000000005D1D0 11 00 00 00 01 00 00 00 00 02 00 00 78 F6 FE 58 ............x..X
400000000005D1E0 08 08 00 6E 00 21 00 00 00 02 00 00 00 00 04 00 ...n.!..........
400000000005D1F0 09 00 00 00 01 00 50 42 21 00 40 00 00 00 04 00 ......PB!.@.....
400000000005D200 10 00 00 00 01 00 60 28 99 0E 61 03 60 00 00 42 ......`(..a.`..B
400000000005D210 09 70 94 4C 05 20 60 02 9A 00 42 00 07 48 01 84 .p.L. `...B..H..
400000000005D220 03 00 00 00 01 00 E0 60 38 32 29 C0 E1 C8 65 53 .......`82)...eS
400000000005D230 09 00 00 00 01 00 60 32 39 00 40 00 00 00 04 00 ......`29.@.....
400000000005D240 11 00 00 00 01 00 90 03 98 2C 00 00 C8 BB 08 50 .........,.....P
400000000005D250 08 00 00 00 01 00 10 00 DC 00 42 20 05 40 00 84 ..........B .@..
400000000005D260 10 00 00 00 01 00 80 03 A0 2C 00 00 00 00 00 20 .........,..... 
400000000005D270 09 C8 41 19 04 21 80 02 94 00 42 A0 14 50 01 84 ..A..!....B..P..
400000000005D280 11 C0 A5 70 00 20 00 00 00 02 00 00 08 DF FB 58 ...p. .........X
400000000005D290 03 70 00 4A 00 10 10 00 DC 00 42 C0 01 70 50 00 .p.J......B..pP.
400000000005D2A0 10 00 00 00 01 00 70 00 38 0C 73 03 C0 FC FF 4A ......p.8.s....J
400000000005D2B0 10 00 00 00 01 00 00 00 00 02 00 00 80 FD FF 48 ...............H
400000000005D2C0 0B 70 60 40 00 21 E0 00 38 30 20 00 00 00 04 00 .p`@.!..80 .....
400000000005D2D0 0B 78 20 1C 00 21 F0 00 3C 30 20 00 00 00 04 00 .x ..!..<0 .....
400000000005D2E0 10 00 00 00 01 00 70 00 3C 0C 72 03 50 F8 FF 4A ......p.<.r.P..J
400000000005D2F0 0B 70 40 1C 00 21 E0 00 38 30 20 00 00 00 04 00 .p@..!..80 .....
400000000005D300 10 00 00 00 01 00 60 00 38 0E F2 03 30 F8 FF 4A ......`.8...0..J
400000000005D310 0B 70 E0 02 32 24 00 00 00 02 00 00 00 00 04 00 .p..2$..........
400000000005D320 0B 70 00 1C 10 10 70 00 38 0C 73 00 00 00 04 00 .p....p.8.s.....
400000000005D330 08 00 00 00 01 C0 21 0B 00 00 C8 03 06 63 04 84 ......!......c..
400000000005D340 19 00 00 00 01 C0 F1 82 32 06 C2 03 00 F8 FF 4A ........2......J
400000000005D350 08 78 80 18 01 21 E0 E0 05 8A 48 00 06 63 04 84 .x...!....H..c..
400000000005D360 09 78 41 19 03 21 B0 03 8C 00 42 80 07 20 01 84 .xA..!....B.. ..
400000000005D370 08 00 00 1E 98 11 F0 00 32 06 42 40 07 10 01 84 ........2.B@....
400000000005D380 09 00 00 00 01 00 90 42 32 0A 42 60 05 65 14 84 .......B2.B`.e..
400000000005D390 08 00 00 1E 98 11 F0 C0 31 02 42 A0 85 65 14 84 ........1.B..e..
400000000005D3A0 09 40 81 19 05 21 A0 22 33 0A 42 80 85 66 14 84 .@...!."3.B..f..
400000000005D3B0 08 00 00 1E 98 11 F0 C0 32 06 42 00 07 00 01 84 ........2.B.....
400000000005D3C0 09 70 00 1C 18 10 90 03 84 00 42 40 16 00 00 90 .p........B@....
400000000005D3D0 08 00 00 00 01 00 00 00 3C 30 23 E0 81 62 04 84 ........<0#..b..
400000000005D3E0 0A 00 00 60 98 11 00 00 3C 30 23 E0 81 64 0C 84 ...`....<0#..d..
400000000005D3F0 0B 00 00 5E 98 11 00 00 3C 30 23 E0 01 60 14 84 ...^....<0#..`..
400000000005D400 09 00 38 1E 98 11 00 00 00 02 00 C0 81 60 14 84 ..8..........`..
400000000005D410 03 00 00 1C 98 11 E0 F8 F3 F9 4F C0 E1 38 31 80 ..........O..81.
400000000005D420 11 00 38 4C 90 11 00 00 00 02 00 00 28 68 FF 58 ..8L........(h.X
400000000005D430 08 08 00 6E 00 21 00 38 99 20 23 C0 05 40 00 84 ...n.!.8. #..@..
400000000005D440 09 C0 C1 19 04 21 00 00 A4 30 23 20 07 64 14 84 .....!...0# .d..
400000000005D450 09 00 00 56 98 11 00 00 B4 30 23 00 00 00 04 00 ...V.....0#.....
400000000005D460 09 00 00 50 90 11 00 00 A8 20 23 00 00 00 04 00 ...P..... #.....
400000000005D470 11 00 00 58 90 11 00 00 00 02 00 00 78 DE FB 58 ...X........x..X
400000000005D480 08 08 00 6E 00 21 00 00 00 02 00 00 07 00 00 84 ...n.!..........
400000000005D490 19 C8 C1 18 02 21 00 00 00 02 00 00 B8 EA FB 58 .....!.........X
400000000005D4A0 08 08 00 6E 00 21 00 00 00 02 00 00 F7 E7 FF 9F ...n.!..........
400000000005D4B0 19 C8 41 18 00 21 00 00 00 02 00 00 98 EA FB 58 ..A..!.........X
400000000005D4C0 08 08 00 6E 00 21 80 83 31 0A 42 00 00 00 04 00 ...n.!..1.B.....
400000000005D4D0 19 C8 01 18 05 21 A0 83 33 08 42 00 B8 EA 0C 50 .....!..3.B....P
400000000005D4E0 08 08 00 6E 00 21 80 83 31 0A 42 00 00 00 04 00 ...n.!..1.B.....
400000000005D4F0 19 C8 01 5A 00 21 A0 03 B0 00 42 00 18 F0 0C 50 ...Z.!....B....P
400000000005D500 08 08 00 6E 00 21 80 83 33 08 42 00 00 00 04 00 ...n.!..3.B.....
400000000005D510 19 C8 01 19 03 21 A0 83 31 04 42 00 78 EA 0C 50 .....!..1.B.x..P
400000000005D520 08 08 00 6E 00 21 60 02 20 00 42 00 07 60 14 84 ...n.!`. .B..`..
400000000005D530 19 C8 81 18 01 21 A0 83 30 00 42 00 58 EA 0C 50 .....!..0.B.X..P
400000000005D540 08 C8 01 4C 00 21 10 00 DC 00 42 00 00 00 04 00 ...L.!....B.....
400000000005D550 19 C0 81 18 05 21 A0 03 20 00 42 00 B8 EA 0C 50 .....!.. .B....P
400000000005D560 08 08 00 6E 00 21 80 03 31 0A 42 00 00 00 04 00 ...n.!..1.B.....
400000000005D570 19 C8 01 56 00 21 A0 03 A8 00 42 00 98 EF 0C 50 ...V.!....B....P
400000000005D580 08 08 00 6E 00 21 80 83 33 08 42 00 00 00 04 00 ...n.!..3.B.....
400000000005D590 19 C8 01 5E 00 21 A0 03 32 04 42 00 F8 E9 0C 50 ...^.!..2.B....P
400000000005D5A0 08 08 00 6E 00 21 60 02 20 00 42 00 07 60 14 84 ...n.!`. .B..`..
400000000005D5B0 19 C8 01 60 00 21 A0 03 31 00 42 00 D8 E9 0C 50 ...`.!..1.B....P
400000000005D5C0 08 08 00 6E 00 21 80 83 30 0A 42 00 00 00 04 00 ...n.!..0.B.....
400000000005D5D0 19 C8 01 4C 00 21 A0 03 20 00 42 00 38 EA 0C 50 ...L.!.. .B.8..P
400000000005D5E0 08 08 00 6E 00 21 80 83 30 0A 42 00 00 00 04 00 ...n.!..0.B.....
400000000005D5F0 19 C8 01 52 00 21 A0 03 A0 00 42 00 18 EF 0C 50 ...R.!....B....P
400000000005D600 08 08 00 6E 00 21 80 83 31 0A 42 00 00 00 04 00 ...n.!..1.B.....
400000000005D610 19 C8 81 18 05 21 A0 83 30 0A 42 00 78 EA 0C 50 .....!..0.B.x..P
400000000005D620 08 00 00 00 01 00 10 00 DC 00 42 E0 04 40 00 84 ..........B..@..
400000000005D630 19 00 00 00 01 00 70 00 C4 0C 73 03 70 F7 FF 4A ......p...s.p..J
400000000005D640 09 00 00 00 01 00 80 A3 F7 D1 4F 00 00 00 04 00 ..........O.....
400000000005D650 11 C0 01 70 18 10 00 00 00 02 00 00 78 5A 00 50 ...p........xZ.P
400000000005D660 08 00 00 00 01 00 10 00 DC 00 42 A0 04 40 00 84 ..........B..@..
400000000005D670 19 00 00 00 01 00 70 00 20 0C 72 03 50 F7 FF 4A ......p. .r.P..J
400000000005D680 0B 70 E0 02 32 24 00 00 00 02 00 00 00 00 04 00 .p..2$..........
400000000005D690 09 00 00 00 01 00 E0 00 38 20 20 00 00 00 04 00 ........8  .....
400000000005D6A0 11 00 00 00 01 00 60 00 38 0E 73 03 A0 02 00 42 ......`.8.s....B
400000000005D6B0 0B 30 00 64 87 B9 51 62 F7 D1 4F 00 00 00 04 00 .0.d..Qb..O.....
400000000005D6C0 EB 28 91 FB E8 A7 51 02 94 30 20 00 00 00 04 00 .(....Q..0 .....
400000000005D6D0 EB 28 01 4A 18 10 E0 00 94 00 20 00 00 00 04 00 .(.J...... .....
400000000005D6E0 01 00 00 00 01 00 E0 00 38 28 00 00 00 00 04 00 ........8(......
400000000005D6F0 10 00 00 00 01 00 60 00 38 0E 73 03 F0 F6 FF 4A ......`.8.s....J
400000000005D700 10 00 00 00 01 00 00 00 00 02 00 00 00 F7 FF 48 ...............H
400000000005D710 09 28 05 50 00 21 00 00 00 02 00 40 05 38 01 84 .(.P.!.....@.8..
400000000005D720 10 00 00 00 01 00 60 28 99 0E 61 03 70 00 00 42 ......`(..a.p..B
400000000005D730 09 70 94 4C 05 20 60 02 9A 00 42 00 07 48 01 84 .p.L. `...B..H..
400000000005D740 03 00 00 00 01 00 E0 60 38 32 29 C0 E1 C8 65 53 .......`82)...eS
400000000005D750 09 00 00 00 01 00 60 32 39 00 40 00 00 00 04 00 ......`29.@.....
400000000005D760 11 00 00 00 01 00 90 03 98 2C 00 00 A8 B6 08 50 .........,.....P
400000000005D770 08 00 00 00 01 00 E0 00 9C 00 20 20 00 B8 01 84 ..........  ....
400000000005D780 02 48 01 10 00 21 00 00 00 02 00 C0 01 70 50 00 .H...!.......pP.
400000000005D790 00 00 00 00 01 00 10 01 A0 2C 00 00 05 28 01 84 .........,...(..
400000000005D7A0 0B 28 05 54 00 21 10 49 45 00 40 00 00 00 04 00 .(.T.!.IE.@.....
400000000005D7B0 0B 00 38 22 80 11 E0 00 94 00 20 00 00 00 04 00 ..8"...... .....
400000000005D7C0 01 00 00 00 01 00 E0 00 38 28 00 00 00 00 04 00 ........8(......
400000000005D7D0 10 00 00 00 01 00 70 00 38 0C 73 03 90 F7 FF 4A ......p.8.s....J
400000000005D7E0 10 00 00 00 01 00 00 00 00 02 00 00 50 F8 FF 48 ............P..H
400000000005D7F0 08 C0 41 19 04 21 00 00 00 02 00 60 07 78 01 84 ..A..!.....`.x..
400000000005D800 19 E0 01 60 00 21 00 00 00 02 00 00 48 F0 FE 58 ...`.!......H..X
400000000005D810 10 00 00 00 01 00 10 00 DC 00 42 00 E0 F9 FF 48 ..........B....H
400000000005D820 08 C0 41 19 04 21 90 13 00 00 48 40 07 00 00 84 ..A..!....H@....
400000000005D830 19 D8 01 64 00 21 C0 03 C4 00 42 00 18 F0 FE 58 ...d.!....B....X
400000000005D840 09 28 A1 10 00 20 10 00 DC 00 42 40 05 38 01 84 .(... ....B@.8..
400000000005D850 10 00 00 00 01 00 60 28 99 0E 61 03 60 00 00 42 ......`(..a.`..B
400000000005D860 09 70 94 4C 05 20 60 02 9A 00 42 00 07 48 01 84 .p.L. `...B..H..
400000000005D870 03 00 00 00 01 00 E0 60 38 32 29 C0 E1 C8 65 53 .......`82)...eS
400000000005D880 09 00 00 00 01 00 60 32 39 00 40 00 00 00 04 00 ......`29.@.....
400000000005D890 11 00 00 00 01 00 90 03 98 2C 00 00 78 B5 08 50 .........,..x..P
400000000005D8A0 08 00 00 00 01 00 10 00 DC 00 42 20 05 40 00 84 ..........B .@..
400000000005D8B0 10 00 00 00 01 00 80 03 A0 2C 00 00 00 00 00 20 .........,..... 
400000000005D8C0 09 C8 41 19 04 21 80 02 94 00 42 A0 14 50 01 84 ..A..!....B..P..
400000000005D8D0 11 C0 A5 70 00 20 00 00 00 02 00 00 B8 D8 FB 58 ...p. .........X
400000000005D8E0 03 70 00 4A 00 10 10 00 DC 00 42 C0 01 70 50 00 .p.J......B..pP.
400000000005D8F0 10 00 00 00 01 00 70 00 38 0C 73 03 70 F6 FF 4A ......p.8.s.p..J
400000000005D900 10 00 00 00 01 00 00 00 00 02 00 00 30 F7 FF 48 ............0..H
400000000005D910 08 C0 41 19 04 21 00 00 00 02 00 60 07 98 01 84 ..A..!.....`....
400000000005D920 19 E0 01 68 00 21 00 00 00 02 00 00 28 EF FE 58 ...h.!......(..X
400000000005D930 11 00 00 00 01 00 10 00 DC 00 42 00 C0 F8 FF 48 ..........B....H
400000000005D940 0B 28 B1 FB E8 27 50 02 94 30 20 00 00 00 04 00 .(...'P..0 .....
400000000005D950 0B 70 00 4A 00 10 00 00 00 02 00 C0 01 70 50 00 .p.J.........pP.
400000000005D960 10 00 00 00 01 00 60 00 38 0E 73 03 80 F4 FF 4A ......`.8.s....J
400000000005D970 10 00 00 00 01 00 00 00 00 02 00 00 90 F4 FF 48 ...............H
400000000005D980 09 C8 F1 FB E8 27 A0 2B 00 00 48 00 07 00 00 84 .....'.+..H.....
400000000005D990 11 C8 01 72 18 10 00 00 00 02 00 00 D8 D1 FB 58 ...r...........X
400000000005D9A0 09 70 00 54 00 10 80 03 20 00 42 20 00 B8 01 84 .p.T.... .B ....
400000000005D9B0 11 00 00 00 01 00 90 03 38 28 00 00 D8 36 01 50 ........8(...6.P
400000000005D9C0 11 08 00 6E 00 21 80 03 A4 00 42 00 28 CE FB 58 ...n.!....B.(..X
400000000005D9D0 09 40 00 5C 00 21 10 00 DC 00 42 00 60 03 AA 00 .@.\.!....B.`...
400000000005D9E0 00 00 00 00 01 00 00 A8 05 80 03 00 00 00 04 00 ................
400000000005D9F0 18 60 80 19 05 21 00 00 00 02 00 80 08 00 84 00 .`...!..........
400000000005DA00 08 40 01 00 00 21 A0 23 F4 D3 4F 00 00 00 04 00 .@...!.#..O.....
400000000005DA10 09 C8 05 00 00 24 B0 03 A4 00 42 00 07 60 01 84 .....$....B..`..
400000000005DA20 09 40 A5 50 00 20 A0 03 E8 30 20 00 00 00 04 00 .@.P. ...0 .....
400000000005DA30 11 00 00 50 80 11 00 00 00 02 00 00 18 E6 FB 58 ...P...........X
400000000005DA40 11 08 00 6E 00 21 80 03 B0 00 42 00 48 CC FB 58 ...n.!....B.H..X
400000000005DA50 11 08 00 6E 00 21 80 03 A4 00 42 00 98 CD FB 58 ...n.!....B....X
400000000005DA60 11 00 00 00 01 00 10 00 DC 00 42 00 50 F6 FF 48 ..........B.P..H
400000000005DA70 08 00 00 00 01 00 00 00 00 02 00 00 00 00 04 00 ................
400000000005DA80 08 78 5D 24 80 05 C0 80 33 7A 46 20 06 00 CC 00 .x]$....3zF ....
400000000005DA90 09 80 01 02 00 21 50 02 80 00 42 00 44 00 01 84 .....!P...B.D...
400000000005DAA0 00 00 00 00 01 00 E0 02 00 62 00 40 06 61 04 84 .........b.@.a..
400000000005DAB0 19 38 41 18 02 21 B0 42 90 00 42 00 78 E1 FB 58 .8A..!.B..B.x..X
400000000005DAC0 08 98 45 00 00 24 10 00 C0 00 42 40 06 61 04 84 ..E..$....B@.a..
400000000005DAD0 19 50 05 00 00 24 80 A2 30 04 42 00 38 D9 FB 58 .P...$..0.B.8..X
400000000005DAE0 11 08 00 60 00 21 20 83 30 00 42 00 48 E1 FB 58 ...`.! .0.B.H..X
400000000005DAF0 08 08 00 60 00 21 20 03 00 00 42 00 00 00 04 00 ...`.! ...B.....
400000000005DB00 19 98 41 18 01 21 40 83 30 00 42 00 C8 CB FB 58 ..A..!@.0.B....X
400000000005DB10 09 60 01 40 10 10 00 00 00 02 00 20 00 80 01 84 .`.@....... ....
400000000005DB20 03 00 00 00 01 00 C0 32 B0 00 29 40 02 60 4D E6 .......2..)@.`M.
400000000005DB30 08 00 00 00 01 00 00 00 00 02 00 00 00 00 04 00 ................
400000000005DB40 09 70 00 4A 10 10 20 03 9C 00 42 00 22 02 44 C2 .p.J.. ...B.".D.
400000000005DB50 11 30 18 1C 87 39 00 00 00 02 80 03 50 05 00 43 .0...9......P..C
400000000005DB60 0B 30 61 4A 00 21 E0 00 98 30 20 00 00 00 04 00 .0aJ.!...0 .....
400000000005DB70 11 30 00 1C 07 39 E0 C0 38 00 42 03 30 05 00 43 .0...9..8.B.0..C
400000000005DB80 09 00 00 00 01 00 E0 00 38 20 20 00 00 00 04 00 ........8  .....
400000000005DB90 11 30 F0 1D 87 39 00 00 00 02 80 03 10 05 00 43 .0...9.........C
400000000005DBA0 11 00 00 00 01 00 00 00 00 02 00 00 A8 DF FB 58 ...............X
400000000005DBB0 11 08 00 60 00 21 70 40 00 0C E1 03 E0 08 00 43 ...`.!p@.......C
400000000005DBC0 09 70 00 4E 10 10 20 03 90 20 20 00 00 00 04 00 .p.N.. ..  .....
400000000005DBD0 09 00 00 00 01 00 60 70 C8 0E 61 00 00 00 04 00 ......`p..a.....
400000000005DBE0 F1 90 21 1C 00 21 00 00 00 02 00 00 68 12 FF 58 ..!..!......h..X
400000000005DBF0 08 00 00 00 01 00 90 42 20 00 42 A0 04 40 00 84 .......B .B..@..
400000000005DC00 09 A0 01 48 10 10 20 03 AC 30 20 20 00 80 01 84 ...H.. ..0  ....
400000000005DC10 11 98 01 52 18 10 00 00 00 02 00 00 78 C2 07 50 ...R........x..P
400000000005DC20 08 00 00 00 01 00 00 01 9C 20 20 20 00 80 01 84 .........   ....
400000000005DC30 09 00 00 00 01 00 F0 00 A4 30 20 00 00 00 04 00 .........0 .....
400000000005DC40 01 00 00 00 01 00 E0 00 40 2C 00 40 46 E9 A7 9F ........@,.@F...
400000000005DC50 09 70 3C 1C 00 20 20 03 C8 30 20 00 00 00 04 00 .p<..  ..0 .....
400000000005DC60 11 00 A8 1C 80 11 00 00 00 02 00 00 68 44 05 50 ............hD.P
400000000005DC70 03 08 00 60 00 21 30 03 94 00 42 40 C6 ED CF 9E ...`.!0...B@....
400000000005DC80 11 90 01 64 18 10 00 00 00 02 00 00 88 43 05 50 ...d.........C.P
400000000005DC90 03 08 00 60 00 21 30 03 94 00 42 40 C6 ED C7 9E ...`.!0...B@....
400000000005DCA0 11 90 01 64 18 10 00 00 00 02 00 00 68 43 05 50 ...d........hC.P
400000000005DCB0 03 08 00 60 00 61 34 03 88 00 C2 48 C6 E9 C7 9E ...`.a4....H....
400000000005DCC0 31 92 01 64 18 10 00 00 00 02 80 08 48 43 05 52 1..d........HC.R
400000000005DCD0 29 0A 00 60 00 21 30 03 A0 20 20 00 00 00 04 00 )..`.!0..  .....
400000000005DCE0 09 00 00 00 01 00 20 E3 F4 63 4F 00 00 00 04 00 ...... ..cO.....
400000000005DCF0 11 90 01 64 18 10 00 00 00 02 00 00 18 43 05 50 ...d.........C.P
400000000005DD00 03 08 00 60 00 21 30 83 30 00 42 40 46 ED A7 9F ...`.!0.0.B@F...
400000000005DD10 11 90 01 64 18 10 00 00 00 02 00 00 F8 42 05 50 ...d.........B.P
400000000005DD20 10 00 00 00 01 00 10 00 C0 00 42 09 60 00 00 42 ..........B.`..B
400000000005DD30 0B 70 00 4C 18 10 E0 40 38 00 42 00 00 00 04 00 .p.L...@8.B.....
400000000005DD40 0B 70 00 1C 18 10 60 00 38 0E 72 00 00 00 04 00 .p....`.8.r.....
400000000005DD50 EB 70 10 1C 00 E1 F1 00 38 20 20 00 00 00 04 00 .p......8  .....
400000000005DD60 09 00 00 00 01 C0 F1 40 3C 5C 40 00 00 00 04 00 .......@<\@.....
400000000005DD70 E8 00 3C 1C 90 11 00 00 00 02 00 00 00 00 04 00 ..<.............
400000000005DD80 08 70 00 4C 18 10 40 03 88 00 42 C0 06 28 01 84 .p.L..@...B..(..
400000000005DD90 09 98 01 42 00 21 50 03 A0 20 20 00 00 00 04 00 ...B.!P..  .....
400000000005DDA0 09 00 00 00 01 00 E0 40 38 00 42 00 00 00 04 00 .......@8.B.....
400000000005DDB0 11 90 01 1C 18 10 00 00 00 02 00 00 98 5E FF 58 .............^.X
400000000005DDC0 11 08 00 60 00 61 24 03 88 00 C2 08 88 E5 FB 5A ...`.a$........Z
400000000005DDD0 28 0A 00 60 00 21 20 02 9C 20 20 00 00 00 04 00 (..`.! ..  .....
400000000005DDE0 19 90 01 50 10 10 00 00 00 02 00 00 68 E5 FB 58 ...P........h..X
400000000005DDF0 11 90 01 4A 00 21 10 00 C0 00 42 00 D8 F2 FE 58 ...J.!....B....X
400000000005DE00 0B 08 00 60 00 21 20 A3 F4 D3 4F 00 00 00 04 00 ...`.! ...O.....
400000000005DE10 11 90 01 64 18 10 00 00 00 02 00 00 78 3F 05 50 ...d........x?.P
400000000005DE20 03 70 00 4C 18 10 10 00 C0 00 42 C0 01 71 00 84 .p.L......B..q..
400000000005DE30 09 00 00 00 01 00 50 02 38 30 20 00 00 00 04 00 ......P.80 .....
400000000005DE40 10 00 00 00 01 00 60 00 94 0E F2 03 00 FD FF 4A ......`........J
400000000005DE50 09 70 D0 03 2D 24 00 00 00 02 00 40 C6 E9 A7 9F .p..-$.....@....
400000000005DE60 09 00 00 00 01 00 20 03 C8 30 20 00 00 00 04 00 ...... ..0 .....
400000000005DE70 11 40 01 1C 10 10 00 00 00 02 00 00 58 42 05 50 .@..........XB.P
400000000005DE80 0B 08 00 60 00 21 E0 60 07 6C 48 00 00 00 04 00 ...`.!.`.lH.....
400000000005DE90 09 00 00 00 01 00 E0 00 38 20 20 00 00 00 04 00 ........8  .....
400000000005DEA0 10 00 00 00 01 00 60 00 38 0E 73 03 80 00 00 42 ......`.8.s....B
400000000005DEB0 0B 70 B0 03 2D 24 00 00 00 02 00 00 00 00 04 00 .p..-$..........
400000000005DEC0 0B 70 00 1C 10 10 E0 70 84 1C 40 00 00 00 04 00 .p.....p..@.....
400000000005DED0 11 00 00 00 01 00 70 00 38 0C 73 03 50 00 00 42 ......p.8.s.P..B
400000000005DEE0 09 30 00 44 87 31 00 00 00 02 00 00 F1 1F 25 EE .0.D.1........%.
400000000005DEF0 C9 78 04 00 00 24 00 00 00 02 00 C4 11 00 00 90 .x...$..........
400000000005DF00 E3 78 00 00 00 61 E2 00 00 00 42 C0 E1 78 30 80 .x...a....B..x0.
400000000005DF10 11 00 00 00 01 00 60 00 38 0E F3 03 90 03 00 43 ......`.8......C
400000000005DF20 08 30 01 00 00 21 70 FA F3 FF 4F 40 02 00 4C E0 .0...!p...O@..L.
400000000005DF30 0B 80 88 00 91 70 24 E3 F4 63 CF 68 06 10 01 84 .....p$..c.h....
400000000005DF40 31 92 01 64 18 10 00 00 00 02 80 08 C8 40 05 52 1..d.........@.R
400000000005DF50 08 90 01 4A 00 21 30 03 84 00 42 80 06 10 01 84 ...J.!0...B.....
400000000005DF60 09 A8 01 46 00 21 60 03 90 00 C2 28 00 80 01 84 ...F.!`....(....
400000000005DF70 11 00 00 00 01 00 00 00 00 02 00 00 D8 5C FF 58 .............\.X
400000000005DF80 08 08 00 60 00 21 00 00 00 02 00 A0 04 40 00 84 ...`.!.......@..
400000000005DF90 79 92 01 4E 00 21 00 00 00 02 80 09 F8 F2 FE 5A y..N.!.........Z
400000000005DFA0 71 0A 00 60 00 61 24 03 88 00 C2 08 A8 E3 FB 5A q..`.a$........Z
400000000005DFB0 28 0A 00 60 00 21 20 13 00 00 48 00 00 00 04 00 (..`.! ...H.....
400000000005DFC0 19 98 41 18 00 21 40 03 00 00 42 00 08 C7 FB 58 ..A..!@...B....X
400000000005DFD0 0B 08 00 60 00 21 E0 E0 07 76 48 00 00 00 04 00 ...`.!...vH.....
400000000005DFE0 0B 00 00 00 01 00 F0 00 38 60 21 00 00 00 04 00 ........8`!.....
400000000005DFF0 10 00 00 00 01 00 60 00 3C 0E F3 03 60 02 00 43 ......`.<...`..C
400000000005E000 0B 70 10 02 3C 24 00 00 00 02 00 00 00 00 04 00 .p..<$..........
400000000005E010 09 00 00 00 01 00 E0 00 38 60 21 00 00 00 04 00 ........8`!.....
400000000005E020 11 00 00 00 01 00 60 00 38 0E F3 03 00 02 00 43 ......`.8......C
400000000005E030 10 00 00 00 01 00 60 00 98 0E F3 03 00 01 00 43 ......`........C
400000000005E040 02 90 71 FA E9 27 00 00 00 02 00 00 00 00 04 00 ..q..'..........
400000000005E050 19 90 01 64 18 10 00 00 00 02 00 00 38 3D 05 50 ...d........8=.P
400000000005E060 08 08 00 60 00 21 00 00 00 02 00 00 00 00 04 00 ...`.!..........
400000000005E070 03 40 00 4A 00 21 F0 8F C1 BF 05 00 F0 02 AA 00 .@.J.!..........
400000000005E080 00 00 00 00 01 00 00 70 05 80 03 00 00 00 04 00 .......p........
400000000005E090 18 60 40 18 02 21 00 00 00 02 00 80 08 00 84 00 .`@..!..........
400000000005E0A0 08 78 D0 03 2D 24 70 00 B0 0C 73 C0 41 28 01 84 .x..-$p...s.A(..
400000000005E0B0 0A 90 71 FA E9 27 00 00 00 02 00 00 00 00 04 00 ..q..'..........
400000000005E0C0 0A 90 01 64 18 10 80 02 3C 20 20 00 00 00 04 00 ...d....<  .....
400000000005E0D0 CB 78 00 1C 10 90 F1 40 3C 5C 40 00 00 00 04 00 .x.....@<\@.....
400000000005E0E0 D1 00 3C 1C 90 11 00 00 00 02 00 00 E8 3F 05 50 ..<..........?.P
400000000005E0F0 0B 08 00 60 00 21 E0 60 07 6C 48 00 00 00 04 00 ...`.!.`.lH.....
400000000005E100 09 00 00 00 01 00 E0 00 38 20 20 00 00 00 04 00 ........8  .....
400000000005E110 10 00 00 00 01 00 60 00 38 0E 73 03 10 FE FF 4A ......`.8.s....J
400000000005E120 10 00 00 00 01 00 00 00 00 02 00 00 90 FD FF 48 ...............H
400000000005E130 0B 30 91 02 36 24 00 00 00 02 00 00 00 00 04 00 .0..6$..........
400000000005E140 11 90 01 4C 18 10 00 00 00 02 00 00 88 D5 FB 58 ...L...........X
400000000005E150 11 08 00 60 00 21 20 0B 20 00 42 00 78 AB 08 50 ...`.! . .B.x..P
400000000005E160 08 08 00 60 00 21 30 03 98 30 20 40 06 40 00 84 ...`.!0..0 @.@..
400000000005E170 19 00 00 00 01 00 00 00 00 02 00 00 18 D0 FB 58 ...............X
400000000005E180 08 08 00 60 00 21 00 00 00 02 00 80 06 28 01 84 ...`.!.......(..
400000000005E190 03 A8 01 5A 00 21 20 03 20 00 42 C0 81 0E 18 91 ...Z.! . .B.....
400000000005E1A0 09 00 00 00 01 00 00 00 00 02 00 00 00 00 04 00 ................
400000000005E1B0 11 98 01 1C 10 10 00 00 00 02 00 00 D8 DC 01 50 ...............P
400000000005E1C0 11 08 00 60 00 21 20 03 A0 00 42 00 88 1C 02 50 ...`.! ...B....P
400000000005E1D0 11 90 01 5A 00 21 10 00 C0 00 42 00 B8 E9 01 50 ...Z.!....B....P
400000000005E1E0 11 08 00 60 00 21 50 02 20 00 42 00 68 6E 02 50 ...`.!P. .B.hn.P
400000000005E1F0 0B 08 00 60 00 21 20 E3 F4 D3 4F 00 00 00 04 00 ...`.! ...O.....
400000000005E200 11 90 01 64 18 10 00 00 00 02 00 00 88 3B 05 50 ...d.........;.P
400000000005E210 10 00 00 00 01 00 10 00 C0 00 42 00 60 FE FF 48 ..........B.`..H
400000000005E220 11 00 00 00 01 00 00 00 00 02 00 00 E8 62 05 50 .............b.P
400000000005E230 10 08 00 60 00 21 60 00 98 0E 73 03 10 FE FF 4A ...`.!`...s....J
400000000005E240 10 00 00 00 01 00 00 00 00 02 00 00 F0 FE FF 48 ...............H
400000000005E250 11 90 01 1C B0 10 00 00 00 02 00 00 38 6A 05 50 ............8j.P
400000000005E260 0B 08 00 60 00 21 E0 20 04 78 48 00 00 00 04 00 ...`.!. .xH.....
400000000005E270 0B 00 00 00 01 00 E0 00 38 60 21 00 00 00 04 00 ........8`!.....
400000000005E280 10 00 00 00 01 00 60 00 38 0E 73 03 B0 FD FF 4A ......`.8.s....J
400000000005E290 10 00 00 00 01 00 00 00 00 02 00 00 90 FF FF 48 ...............H
400000000005E2A0 08 90 01 00 00 21 00 00 00 02 00 60 16 00 00 90 .....!.....`....
400000000005E2B0 19 A0 FD F9 FF 27 00 00 00 02 00 00 98 20 FE 58 .....'....... .X
400000000005E2C0 09 98 00 10 92 31 10 00 C0 00 42 E0 04 40 00 84 .....1....B..@..
400000000005E2D0 68 92 01 44 00 E1 34 FB F3 FF 4F 00 00 00 04 00 h..D..4...O.....
400000000005E2E0 79 12 FD F9 FF E7 64 0A 00 00 C8 09 28 08 FF 5A y.....d.....(..Z
400000000005E2F0 68 0A 00 60 00 21 00 00 00 02 80 69 06 38 01 84 h..`.!.....i.8..
400000000005E300 43 32 01 00 00 21 00 11 01 22 E1 49 C6 EC A7 9F C2...!...".I....
400000000005E310 71 92 01 64 18 10 00 00 00 02 80 09 F8 3C 05 52 q..d.........<.R
400000000005E320 71 0A 00 60 00 21 00 00 00 02 80 09 E8 6C 02 52 q..`.!.......l.R
400000000005E330 68 0A 00 60 00 21 00 00 00 02 80 49 06 00 00 84 h..`.!.....I....
400000000005E340 79 9A 01 00 00 21 00 00 00 02 80 09 C8 50 02 52 y....!.......P.R
400000000005E350 69 0A 00 60 00 21 00 00 00 02 80 A9 05 40 00 84 i..`.!.......@..
400000000005E360 69 92 71 FB E9 27 00 00 00 02 80 69 06 68 01 84 i.q..'.....i.h..
400000000005E370 71 92 01 64 18 10 00 00 00 02 80 09 98 3C 05 52 q..d.........<.R
400000000005E380 11 30 00 4A 07 F9 14 00 C0 00 42 03 B0 FB FF 4B .0.J......B....K
400000000005E390 08 70 10 4A 00 21 00 01 00 80 C8 48 C6 E9 C7 9E .p.J.!.....H....
400000000005E3A0 2A 9A 01 44 00 21 F0 00 38 20 20 00 00 00 04 00 *..D.!..8  .....
400000000005E3B0 2B 92 01 64 18 10 F0 80 3C 1C 40 00 00 00 04 00 +..d....<.@.....
400000000005E3C0 11 00 3C 1C 90 11 00 00 00 02 80 08 48 3C 05 52 ..<.........H<.R
400000000005E3D0 08 90 01 4A 00 21 30 03 84 00 42 80 06 10 01 84 ...J.!0...B.....
400000000005E3E0 09 A8 01 46 00 21 60 03 90 00 C2 28 00 80 01 84 ...F.!`....(....
400000000005E3F0 11 00 00 00 01 00 00 00 00 02 00 00 58 58 FF 58 ............XX.X
400000000005E400 08 08 00 60 00 21 00 00 00 02 00 A0 04 40 00 84 ...`.!.......@..
400000000005E410 79 92 01 4E 00 21 00 00 00 02 80 09 78 EE FE 5A y..N.!......x..Z
400000000005E420 71 0A 00 60 00 61 24 03 88 00 C2 08 28 DF FB 5A q..`.a$.....(..Z
400000000005E430 28 0A 00 60 00 21 20 13 00 00 48 00 00 00 04 00 (..`.! ...H.....
400000000005E440 19 98 41 18 00 21 40 03 00 00 42 00 88 C2 FB 58 ..A..!@...B....X
400000000005E450 0B 08 00 60 00 21 E0 E0 07 76 48 00 00 00 04 00 ...`.!...vH.....
400000000005E460 0B 00 00 00 01 00 F0 00 38 60 21 00 00 00 04 00 ........8`!.....
400000000005E470 10 00 00 00 01 00 60 00 3C 0E 73 03 90 FB FF 4A ......`.<.s....J
400000000005E480 10 00 00 00 01 00 00 00 00 02 00 00 D0 FD FF 48 ...............H
400000000005E490 08 98 31 FA E9 27 00 00 00 02 00 80 56 00 00 90 ..1..'......V...
400000000005E4A0 09 90 01 00 00 21 00 00 00 02 00 A0 14 00 00 90 .....!..........
400000000005E4B0 11 98 01 66 18 10 00 00 00 02 00 00 B8 C6 FB 58 ...f...........X
400000000005E4C0 11 08 00 60 00 21 20 03 20 00 42 00 08 2E 01 50 ...`.! . .B....P
400000000005E4D0 11 08 00 60 00 21 00 00 00 02 00 00 38 DB 01 50 ...`.!......8..P
400000000005E4E0 11 08 00 60 00 21 00 00 00 02 00 00 28 DF 01 50 ...`.!......(..P
400000000005E4F0 08 08 00 60 00 21 20 13 00 00 48 00 00 00 04 00 ...`.! ...H.....
400000000005E500 19 98 41 18 00 21 40 03 00 00 42 00 C8 C1 FB 58 ..A..!@...B....X
400000000005E510 03 08 00 60 00 21 F0 08 00 00 48 C0 41 0D 18 91 ...`.!....H.A...
400000000005E520 09 00 00 00 01 00 00 00 00 02 00 00 00 00 04 00 ................
400000000005E530 11 00 3C 1C 90 11 00 00 00 02 00 00 D8 5F 05 50 ..<.........._.P
400000000005E540 09 40 00 4A 00 21 10 00 C0 00 42 E0 1F 83 7F 0B .@.J.!....B.....
400000000005E550 02 00 00 00 01 00 00 78 01 55 00 00 E0 0A 00 07 .......x.U......
400000000005E560 19 00 00 00 01 00 C0 80 30 04 42 80 08 00 84 00 ........0.B.....
400000000005E570 08 00 00 00 01 00 00 00 00 02 00 00 00 00 04 00 ................
