;;; Segment .text (400000000001C480)

l40000000000CC480:
	{ addl	r41,8100,r1; adds	r57,0x0,r32; br.call.sptk.many	b0,glob_pattern_p; }
	{ nop.m	0x0; adds	r1,0x0,r54; nop.i	0x0 }
	{ st4	[r8],r41; cmp4.eq	p06,p07,0x0,r8; (p06) br.cond.dpnt.few	40000000000CC870 }

l40000000000CC4B0:
	{ ld1	r14,[r32]; adds	r57,0x0,r32; sxt1	r14,r14; }
	{ cmp4.eq	p06,p07,0x7E,r14; nop.i	0x0; (p06) br.cond.dpnt.few	40000000000CDC40; }

l40000000000CC4D0:
	{ nop.m	0x0; nop.i	0x0; br.call.sptk.many	b0,fn400000000001B6C0; }
	{ adds	r1,0x0,r54; adds	r57,0x1,r8; br.call.sptk.many	b0,xmalloc; }
	{ adds	r1,0x0,r54; nop.m	0x0; adds	r57,0x0,r8 }
	{ adds	r58,0x0,r32; nop.m	0x0; br.call.sptk.many	b0,fn400000000001B180; }
	{ adds	r1,0x0,r54; nop.m	0x0; adds	r35,0x0,r8 }
	{ st8	[r8],r38; nop.m	0x0; nop.i	0x0; }

l40000000000CC530:
	{ addl	r14,-10228,r1; st8	[r35],r36; nop.i	0x0; }
	{ ld8	r14,[r14]; ld4	r14,[r14]; nop.i	0x0; }
	{ nop.m	0x0; cmp4.eq	p06,p07,0x0,r14; (p06) br.cond.dptk.few	40000000000CC590 }

l40000000000CC560:
	{ addl	r14,-10572,r1; ld8	r14,[r14]; nop.i	0x0; }
	{ nop.m	0x0; ld4	r14,[r14]; nop.i	0x0; }
	{ nop.m	0x0; cmp4.eq	p07,p06,0x0,r14; (p07) br.cond.dpnt.few	40000000000CD920 }

l40000000000CC590:
	{ addl	r40,8124,r1; adds	r57,0x0,r35; br.call.sptk.many	b0,fn400000000001B6C0; }
	{ adds	r1,0x0,r54; ld8	r57,[r40]; nop.i	0x0; }
	{ addl	r14,8116,r1; nop.m	0x0; cmp.eq	p06,p07,0x0,r57; }
	{ st4	[r8],r14; nop.m	0x0; addl	r14,8120,r1; }
	{ nop.m	0x0; st4	[r8],r14; nop.i	0x0 }
	{ nop.b	0x0; (p06) br.cond.dpnt.few	40000000000CC600; br.call.sptk.many	b0,fn400000000001A7E0; }

l40000000000CC5EC:
	{ (p16) nop; invala; break.i	0x1000 }
	{ shladd	r0,r1,0x2,r0; (p04) nop; zxt1	r96,r64 }

l40000000000CC600:
	{ addl	r36,8132,r1; adds	r57,0x0,r35; br.call.sptk.many	b0,fn400000000001B6C0; }
	{ adds	r1,0x0,r54; nop.m	0x0; adds	r57,0x1,r8; }
	{ addl	r43,8124,r1; nop.i	0x0; br.call.sptk.many	b0,xmalloc; }
	{ ld8	r35,[r38]; adds	r1,0x0,r54; adds	r57,0x0,r8; }
	{ adds	r58,0x0,r35; nop.i	0x0; br.call.sptk.many	b0,fn400000000001B180; }
	{ ld4	r14,[r41]; nop.m	0x0; adds	r1,0x0,r54 }
	{ st8	[r8],r40; st4	[r0],r36; nop.i	0x0; }
	{ cmp4.eq	p06,p07,0x0,r14; nop.i	0x0; (p06) br.cond.dptk.few	40000000000CCBE0; }

l40000000000CC680:
	{ nop.m	0x0; (p07) addl	r14,5,r0; nop.i	0x0; }

l40000000000CC68C:
	{ Invalid; Invalid; break.i	0x1000 }

l40000000000CC696:
	{ break.m	0x4000; nop; (p32) nop }

l40000000000CC6A0:
	{ addl	r34,8772,r1; ld4	r14,[r42]; adds	r57,0x0,r35 }
	{ addl	r35,8152,r1; nop.m	0x0; nop.i	0x0; }
	{ st4	[r14],r34; nop.i	0x0; br.call.sptk.many	b0,shell_glob_filename; }
	{ adds	r1,0x0,r54; nop.m	0x0; adds	r14,0x8,r8 }
	{ st4	[r0],r34; st8	[r8],r37; nop.i	0x0; }
	{ addl	r15,9284,r1; nop.m	0x0; addl	r34,8076,r1; }
	{ nop.m	0x0; nop.m	0x0; nop.i	0x0; }
	{ cmp.eq	p06,p07,r15,r8; adds	r15,0x0,r0; (p06) br.cond.dpnt.few	40000000000CE180; }

l40000000000CC720:
	{ cmp.eq	p07,p06,0x0,r8; add	r15,r8,r15; (p07) br.cond.dpnt.few	40000000000CE180; }

l40000000000CC730:
	{ ld8	r16,[r14]; st4	[r0],r35; addl	r14,1,r0; }
	{ cmp.eq	p06,p07,0x0,r16; addl	r16,-10452,r1; (p06) br.cond.dpnt.few	40000000000CE130; }

l40000000000CC750:
	{ ld8	r16,[r16]; ld4	r16,[r16]; nop.i	0x0; }
	{ nop.m	0x0; cmp4.eq	p06,p07,0x9,r16; (p06) br.cond.dpnt.few	40000000000CD980 }

l40000000000CC770:
	{ ld8	r57,[r15]; st4	[r14],r35; nop.i	0x0; }
	{ st8	[r57],r34; cmp.eq	p07,p06,0x0,r57; (p07) br.cond.dpnt.few	40000000000CC820; }

l40000000000CC790:
	{ nop.m	0x0; nop.m	0x0; nop.i	0x0 }

l40000000000CC7A0:
	{ nop.m	0x0; nop.i	0x0; br.call.sptk.many	b0,executable_or_directory; }
	{ cmp4.eq	p06,p07,0x0,r8; adds	r1,0x0,r54; (p07) br.cond.dpnt.few	40000000000CDD20; }

l40000000000CC7C0:
	{ ld8	r57,[r34]; nop.i	0x0; br.call.sptk.many	b0,fn400000000001A7E0; }
	{ nop.m	0x0; ld4	r14,[r35]; adds	r1,0x0,r54 }
	{ ld8	r15,[r37]; nop.i	0x0; sxt4	r16,r14 }
	{ adds	r14,0x1,r14; nop.i	0x0; shladd	r15,r16,0x3,r15 }
	{ st4	[r14],r35; ld8	r57,[r15]; nop.i	0x0; }
	{ st8	[r57],r34; cmp.eq	p07,p06,0x0,r57; (p06) br.cond.dptk.few	40000000000CC7A0 }

l40000000000CC820:
	{ addl	r14,8772,r1; adds	r37,0x0,r0; nop.i	0x0 }
	{ nop.m	0x0; st4	[r0],r14; nop.i	0x0 }

l40000000000CC840:
	{ adds	r8,0x0,r37; mov	pr,r55,0xFFFFFFFFFFFFFFFE; mov.i	ar.pfs,r53; }
	{ nop.m	0x0; mov.i	LC,r56; mov.spnt	b0,r52,40000000000CC850 }
	{ nop.m	0x0; adds	r12,0x10,r12; br.ret	b0; }

l40000000000CC870:
	{ adds	r57,0x0,r32; nop.i	0x0; br.call.sptk.many	b0,absolute_program; }
	{ adds	r1,0x0,r54; cmp4.eq	p07,p06,0x0,r8; (p06) br.cond.dptk.few	40000000000CC4B0; }

l40000000000CC890:
	{ addl	r42,8116,r1; adds	r57,0x0,r32; br.call.sptk.many	b0,fn400000000001B6C0; }
	{ adds	r1,0x0,r54; nop.m	0x0; adds	r57,0x1,r8; }
	{ addl	r35,8120,r1; nop.i	0x0; br.call.sptk.many	b0,xmalloc; }
	{ adds	r1,0x0,r54; nop.m	0x0; adds	r57,0x0,r8 }
	{ adds	r58,0x0,r32; nop.m	0x0; br.call.sptk.many	b0,fn400000000001B180; }
	{ nop.m	0x0; adds	r1,0x0,r54; adds	r34,0x0,r8 }
	{ st8	[r8],r38; st8	[r8],r36; adds	r57,0x0,r8; }
	{ nop.m	0x0; nop.i	0x0; br.call.sptk.many	b0,fn400000000001B6C0; }
	{ adds	r1,0x0,r54; st4	[r8],r42; nop.i	0x0 }
	{ st4	[r8],r35; addl	r14,-10228,r1; nop.i	0x0; }
	{ ld8	r14,[r14]; ld4	r14,[r14]; nop.i	0x0; }
	{ nop.m	0x0; cmp4.eq	p06,p07,0x0,r14; (p06) br.cond.dptk.few	40000000000CC9C0 }

l40000000000CC950:
	{ addl	r14,-10572,r1; ld8	r14,[r14]; nop.i	0x0; }
	{ nop.m	0x0; ld4	r14,[r14]; nop.i	0x0; }
	{ nop.m	0x0; cmp4.eq	p07,p06,0x0,r14; (p06) br.cond.dptk.few	40000000000CC9C0 }

l40000000000CC980:
	{ adds	r57,0x0,r34; adds	r58,0x0,r0; br.call.sptk.many	b0,fn40000000000C9C40; }
	{ adds	r1,0x0,r54; adds	r57,0x0,r8; addl	r14,8044,r1; }
	{ st8	[r8],r14; nop.i	0x0; br.call.sptk.many	b0,fn400000000001B6C0; }
	{ adds	r1,0x0,r54; st4	[r8],r35; nop.i	0x0; }

l40000000000CC9C0:
	{ addl	r57,-7572,r1; addl	r36,8156,r1; addl	r35,8152,r1; }
	{ ld8	r57,[r57]; nop.i	0x0; br.call.sptk.many	b0,get_string_value; }
	{ adds	r1,0x0,r54; ld8	r57,[r36]; nop.i	0x0 }
	{ st4	[r0],r35; addl	r14,8140,r1; cmp.eq	p06,p07,0x0,r57; }
	{ st8	[r8],r14; nop.m	0x0; addl	r14,8036,r1; }
	{ st4	[r0],r14; nop.m	0x0; addl	r14,8148,r1; }
	{ nop.m	0x0; st4	[r0],r14; nop.i	0x0 }
	{ nop.b	0x0; (p06) br.cond.dpnt.few	40000000000CCA50; br.call.sptk.many	b0,fn400000000001A7E0; }

l40000000000CCA3C:
	{ (p45) nop; invala; break.b	0x1000 }
	{ cmpxchg4.acq	r0,[r0],r1; zxt4	r57,r15; break.i	0x1000 }

l40000000000CCA50:
	{ addl	r34,8164,r1; nop.i	0x0; br.call.sptk.many	b0,all_visible_functions; }
	{ nop.m	0x0; ld8	r57,[r34]; adds	r1,0x0,r54 }
	{ nop.m	0x0; st8	[r8],r36; nop.i	0x0; }
	{ cmp.eq	p06,p07,0x0,r57; nop.i	0x0; (p06) br.cond.dpnt.few	40000000000CCAB0; }

l40000000000CCA90:
	{ nop.m	0x0; nop.i	0x0; br.call.sptk.many	b0,fn400000000001A7E0; }
	{ adds	r1,0x0,r54; nop.m	0x0; nop.i	0x0 }

l40000000000CCAB0:
	{ nop.m	0x0; nop.i	0x0; br.call.sptk.many	b0,all_aliases; }
	{ adds	r1,0x0,r54; st8	[r8],r34; nop.i	0x0; }
	{ nop.m	0x0; nop.m	0x0; nop.i	0x0 }

l40000000000CCAE0:
	{ nop.m	0x0; ld4	r14,[r39]; nop.i	0x0; }
	{ cmp4.eq	p06,p07,0x1,r14; nop.i	0x0; (p06) br.cond.dpnt.few	40000000000CD5E0; }

l40000000000CCB00:
	{ cmp4.lt	p06,p07,0x1,r14; nop.i	0x0; (p07) br.cond.dpnt.few	40000000000CDA90; }

l40000000000CCB10:
	{ cmp4.eq	p06,p07,0x2,r14; nop.i	0x0; (p06) addl	r35,8152,r1 }

l40000000000CCB20:
	{ (p06) addl	r38,8052,r1; (p06) addl	r42,8116,r1; (p06) br.cond.dpnt.few	40000000000CCFE0; }

l40000000000CCB26:
	{ (p21) chk.a.clr	r52,3FFFFFFFFF2EC336; nop; (p32) nop; }

l40000000000CCB2C:
	{ (p38) cmp.lt	p00,p11,r64,r33; (p48) nop; zxt4	r54,r15 }

l40000000000CCB30:
	{ cmp4.eq	p06,p07,0x3,r14; (p06) addl	r35,8152,r1; nop.i	0x0; }

l40000000000CCB3C:
	{ pshladd2	r0,r1,0,r0; Invalid; mov	pr,r32,0x0 }

l40000000000CCB46:
	{ chk.a.nc	r0,3FFFFFFFFF0CD346; nop; (p32) nop }

l40000000000CCB50:
	{ addl	r14,8100,r1; cmp4.eq	p08,p09,0x0,r33; addl	r15,8068,r1; }
	{ nop.m	0x0; ld4	r14,[r14]; nop.i	0x0; }
	{ nop.m	0x0; cmp4.eq	p06,p07,0x0,r14; (p06) br.cond.dptk.few	40000000000CD210 }

l40000000000CCB80:
	{ addl	r35,8152,r1; nop.m	0x0; addl	r37,8092,r1 }
	{ addl	r34,8076,r1; nop.m	0x0; (p08) br.cond.dpnt.few	40000000000CD870; }

l40000000000CCBA0:
	{ ld4	r14,[r35]; ld8	r8,[r37]; nop.i	0x0; }
	{ nop.m	0x0; sxt4	r15,r14; adds	r14,0x1,r14; }
	{ nop.m	0x0; shladd	r15,r15,0x3,r0; nop.i	0x0; }
	{ nop.m	0x0; add	r15,r8,r15; br.cond.sptk.few	40000000000CC770 }

l40000000000CCBE0:
	{ addl	r35,7788,r1; ld4	r14,[r35]; nop.i	0x0; }
	{ cmp4.eq	p06,p07,0x0,r14; addl	r14,4,r0; (p07) br.cond.dpnt.few	40000000000CD890; }

l40000000000CCC00:
	{ (p06) adds	r58,0x0,r0; st4	[r14],r39; nop.i	0x0 }

l40000000000CCC06:
	{ mf.a; nop; (p48) nop }

l40000000000CCC10:
	{ addl	r51,-10612,r1; addl	r50,-7036,r1; addl	r49,-10196,r1 }
	{ addl	r47,7788,r1; addl	r41,1,r0; addl	r45,8052,r1; }
	{ ld8	r51,[r51]; addl	r46,8060,r1; addl	r43,8084,r1 }
	{ addl	r44,8116,r1; ld8	r50,[r50]; addl	r48,8108,r1; }
	{ ld8	r49,[r49]; nop.m	0x0; nop.i	0x0 }

l40000000000CCC60:
	{ adds	r57,0x0,r8; nop.i	0x0; br.call.sptk.many	b0,fn400000000001AC80; }
	{ nop.m	0x0; ld4	r14,[r39]; adds	r1,0x0,r54 }
	{ nop.m	0x0; st8	[r8],r34; nop.i	0x0; }
	{ nop.m	0x0; cmp4.eq	p07,p06,0x4,r14; (p07) br.cond.dpnt.few	40000000000CCEB0; }

l40000000000CCCA0:
	{ nop.m	0x0; st4	[r41],r36; nop.i	0x0 }
	{ ld8	r57,[r38]; cmp.eq	p07,p06,0x0,r8; (p07) br.cond.dpnt.few	40000000000CCEF0 }

l40000000000CCCC0:
	{ nop.m	0x0; nop.i	0x0; br.call.sptk.many	b0,absolute_program; }
	{ adds	r1,0x0,r54; cmp4.eq	p06,p07,0x0,r8; (p06) br.cond.dptk.few	40000000000CD370 }

l40000000000CCCE0:
	{ ld4	r14,[r43]; ld8	r35,[r34]; nop.i	0x0; }
	{ cmp4.eq	p07,p06,0x0,r14; ld4	r14,[r44]; adds	r57,0x0,r35 }
	{ nop.m	0x0; ld8	r58,[r45]; nop.i	0x0; }
	{ nop.m	0x0; sxt4	r59,r14; (p06) br.cond.dptk.few	40000000000CD520 }

l40000000000CCD20:
	{ nop.m	0x0; nop.i	0x0; br.call.sptk.many	b0,fn400000000001C020; }
	{ ld1	r14,[r32]; cmp4.eq	p06,p07,0x0,r8; adds	r1,0x0,r54 }
	{ adds	r57,0x0,r35; (p06) addl	r8,1,r0; sxt1	r14,r14; }

l40000000000CCD4C:
	{ Invalid; zxt1	r0,r64; cmp.eq	p00,p00,r32,r0; }

l40000000000CCD56:
	{ add	r0,r0,r1; (p03) nop; break.i	0x80000 }
	{ (p21) chk.a.clr	f0,3FFFFFFFFF14CDE6; nop; break.i	0x80000 }

l40000000000CCD70:
	{ nop.m	0x0; nop.i	0x0; br.call.sptk.many	b0,fn400000000001B6C0; }
	{ adds	r1,0x0,r54; adds	r57,0x1,r8; br.call.sptk.many	b0,xmalloc; }
	{ ld8	r35,[r34]; adds	r1,0x0,r54; adds	r57,0x0,r8; }
	{ adds	r58,0x0,r35; nop.i	0x0; br.call.sptk.many	b0,fn400000000001B180; }
	{ nop.m	0x0; adds	r1,0x0,r54; adds	r37,0x0,r8 }
	{ nop.m	0x0; cmp4.eq	p06,p07,0x0,r42; (p06) br.cond.dpnt.few	40000000000CCE20 }

l40000000000CCDD0:
	{ ld4	r14,[r46]; nop.m	0x0; adds	r57,0x0,r35; }
	{ nop.m	0x0; cmp4.eq	p06,p07,0x0,r14; (p06) br.cond.dptk.few	40000000000CD4A0 }

l40000000000CCDF0:
	{ nop.m	0x0; nop.i	0x0; br.call.sptk.many	b0,executable_file; }
	{ adds	r1,0x0,r54; cmp4.eq	p07,p06,0x0,r8; (p06) br.cond.dpnt.few	40000000000CD4C0 }

l40000000000CCE10:
	{ ld8	r35,[r34]; nop.m	0x0; nop.i	0x0 }

l40000000000CCE20:
	{ nop.m	0x0; adds	r57,0x0,r37; br.call.sptk.many	b0,fn400000000001A7E0; }
	{ adds	r1,0x0,r54; nop.m	0x0; nop.i	0x0 }

l40000000000CCE40:
	{ adds	r57,0x0,r35; nop.i	0x0; br.call.sptk.many	b0,fn400000000001A7E0; }
	{ nop.m	0x0; ld8	r8,[r40]; adds	r1,0x0,r54 }
	{ nop.m	0x0; ld4	r58,[r36]; nop.i	0x0; }
	{ adds	r57,0x0,r8; nop.i	0x0; br.call.sptk.many	b0,fn400000000001AC80; }
	{ nop.m	0x0; ld4	r14,[r39]; adds	r1,0x0,r54 }
	{ nop.m	0x0; st8	[r8],r34; nop.i	0x0; }
	{ nop.m	0x0; cmp4.eq	p07,p06,0x4,r14; (p06) br.cond.dptk.few	40000000000CCCA0 }

l40000000000CCEB0:
	{ ld4	r14,[r47]; st4	[r41],r36; nop.i	0x0 }
	{ ld8	r57,[r38]; cmp4.eq	p06,p07,0x0,r14; nop.i	0x0; }
	{ nop.m	0x0; (p07) st8	[r50],r51; nop.i	0x0 }

l40000000000CCEDC:
	{ Invalid; cmp.eq	p32,p08,r12,r102; mov	pr,r66,0xE400 }

l40000000000CCEE6:
	{ (p03) chk.a.clr	r0,3FFFFFFFFFD4FF66; nop; break.b	0x80000 }

l40000000000CCEF0:
	{ nop.m	0x0; nop.i	0x0; br.call.sptk.many	b0,absolute_program; }
	{ adds	r1,0x0,r54; cmp4.eq	p07,p06,0x0,r8; (p06) br.cond.dpnt.few	40000000000CD980 }

l40000000000CCF10:
	{ ld8	r14,[r34]; cmp.eq	p07,p06,0x0,r14; nop.i	0x0; }
	{ (p06) addl	r14,1,r0; (p07) adds	r14,0x0,r0; nop.i	0x0; }

l40000000000CCF26:
	{ Invalid; nop; nop; }

l40000000000CCF2C:
	{ invala; (p32) cmp.lt	p03,p08,r9,r100; mov	pr,r99,0xE480 }
	{ (p53) nop; (p05) nop; (p06) dep	r35,r63,r107,62,4 }

l40000000000CCF40:
	{ addl	r40,8124,r1; addl	r51,-10612,r1; addl	r50,-7036,r1 }
	{ addl	r49,-10196,r1; addl	r58,1,r0; addl	r38,8052,r1; }
	{ ld8	r8,[r40]; addl	r47,7788,r1; addl	r41,1,r0 }
	{ addl	r45,8052,r1; addl	r46,8060,r1; addl	r43,8084,r1; }
	{ ld8	r51,[r51]; nop.m	0x0; addl	r44,8116,r1 }
	{ addl	r48,8108,r1; ld8	r50,[r50]; nop.i	0x0; }
	{ ld8	r49,[r49]; nop.i	0x0; br.cond.sptk.few	40000000000CCC60 }

l40000000000CCFB0:
	{ ld4	r14,[r39]; st4	[r0],r35; nop.i	0x0; }
	{ nop.m	0x0; adds	r14,0x1,r14; nop.i	0x0; }
	{ st4	[r14],r39; nop.m	0x0; nop.i	0x0 }

l40000000000CCFE0:
	{ addl	r14,8156,r1; ld4	r40,[r42]; nop.i	0x0 }
	{ ld8	r36,[r38]; nop.m	0x0; addl	r38,8152,r1; }
	{ ld8	r37,[r14]; cmp4.eq	p16,p17,0x0,r40; sxt4	r40,r40; }
	{ nop.m	0x0; cmp.eq	p07,p06,0x0,r37; (p06) br.cond.dptk.few	40000000000CD9F0 }

l40000000000CD020:
	{ ld4	r14,[r39]; st4	[r0],r35; adds	r36,0x0,r0; }
	{ nop.m	0x0; adds	r14,0x1,r14; nop.i	0x0; }
	{ st4	[r14],r39; nop.m	0x0; nop.i	0x0 }

l40000000000CD050:
	{ addl	r15,6156,r1; addl	r43,6164,r1; sxt4	r14,r36 }
	{ addl	r38,8052,r1; nop.m	0x0; shladd	r34,r14,0x1,r14 }
	{ nop.m	0x0; nop.m	0x0; nop.i	0x0; }
	{ ld4	r14,[r15]; nop.i	0x0; sub	r16,r14,r36,0x1 }
	{ cmp4.lt	p06,p07,r36,r14; addl	r14,8116,r1; (p07) br.cond.dpnt.few	40000000000CD1C0; }

l40000000000CD0A0:
	{ nop.m	0x0; ld8	r15,[r43]; addp4	r16,r16,r0 }
	{ nop.m	0x0; ld4	r42,[r14]; nop.i	0x0; }
	{ shladd	r34,r34,0x4,r15; ld8	r41,[r38]; nop.i	0x0 }
	{ cmp4.eq	p16,p17,0x0,r42; sub	r38,0xFFFFFFFFFFFFFFF8,r15; sxt4	r42,r42; }
	{ nop.m	0x0; adds	r34,0x8,r34; mov.i	LC,r16; }
	{ nop.m	0x0; nop.m	0x0; nop.i	0x0 }

l40000000000CD100:
	{ nop.m	0x0; ld8	r14,[r34]; adds	r15,0x8,r34 }
	{ adds	r37,0xFFFFFFFFFFFFFFF8,r34; add	r40,r38,r34; adds	r34,0x30,r34; }
	{ cmp.eq	p06,p07,0x0,r14; nop.i	0x0; (p06) br.cond.dpnt.few	40000000000CD1A0; }

l40000000000CD130:
	{ nop.m	0x0; ld4	r14,[r15]; nop.i	0x0; }
	{ nop.m	0x0; tbit.z	p06,p07,r14,0x0; (p06) br.cond.dptk.few	40000000000CD1A0 }

l40000000000CD150:
	{ nop.m	0x0; nop.i	0x0; (p16) br.cond.dpnt.few	40000000000CD2D0; }

l40000000000CD160:
	{ ld8	r57,[r37]; ld1	r14,[r41]; nop.i	0x0; }
	{ nop.m	0x0; sxt1	r15,r14; nop.i	0x0; }
	{ ld1	r14,[r57]; nop.m	0x0; sxt1	r14,r14; }
	{ nop.m	0x0; cmp4.eq	p07,p06,r14,r15; (p07) br.cond.dpnt.few	40000000000CD2B0 }

l40000000000CD1A0:
	{ nop.m	0x0; adds	r36,0x1,r36; nop.i	0x0; }
	{ st4	[r36],r35; nop.i	0x0; br.cloop.sptk.few	40000000000CD100 }

l40000000000CD1C0:
	{ ld4	r14,[r39]; nop.m	0x0; addl	r15,8068,r1 }
	{ st4	[r0],r35; nop.m	0x0; cmp4.eq	p08,p09,0x0,r33; }
	{ adds	r14,0x1,r14; st4	[r14],r39; addl	r14,8100,r1; }
	{ nop.m	0x0; ld4	r14,[r14]; nop.i	0x0; }
	{ nop.m	0x0; cmp4.eq	p06,p07,0x0,r14; (p07) br.cond.dptk.few	40000000000CCB80 }

l40000000000CD210:
	{ ld4	r14,[r15]; addl	r34,8076,r1; addl	r36,8132,r1; }
	{ nop.m	0x0; cmp4.eq	p06,p07,0x0,r14; (p06) br.cond.dptk.few	40000000000CCF10 }

l40000000000CD230:
	{ st4	[r0],r15; adds	r57,0x0,r32; br.call.sptk.many	b0,fn400000000001B6C0; }
	{ adds	r1,0x0,r54; adds	r57,0x1,r8; br.call.sptk.many	b0,xmalloc; }
	{ adds	r1,0x0,r54; nop.m	0x0; adds	r57,0x0,r8 }
	{ adds	r58,0x0,r32; nop.m	0x0; br.call.sptk.many	b0,fn400000000001B180; }
	{ adds	r37,0x0,r8; nop.m	0x0; adds	r1,0x0,r54; }
	{ adds	r8,0x0,r37; mov	pr,r55,0xFFFFFFFFFFFFFFFE; mov.i	ar.pfs,r53; }
	{ nop.m	0x0; mov.i	LC,r56; mov.spnt	b0,r52,40000000000CD290 }
	{ nop.m	0x0; adds	r12,0x10,r12; br.ret	b0; }

l40000000000CD2B0:
	{ adds	r58,0x0,r41; adds	r59,0x0,r42; br.call.sptk.many	b0,fn400000000001C020; }
	{ adds	r1,0x0,r54; cmp4.eq	p07,p06,0x0,r8; (p06) br.cond.dptk.few	40000000000CD1A0 }

l40000000000CD2D0:
	{ adds	r36,0x1,r36; ld8	r57,[r37]; nop.i	0x0; }
	{ st4	[r36],r35; nop.i	0x0; br.call.sptk.many	b0,fn400000000001B6C0; }
	{ adds	r1,0x0,r54; adds	r57,0x1,r8; br.call.sptk.many	b0,xmalloc; }
	{ ld8	r14,[r43]; adds	r1,0x0,r54; adds	r57,0x0,r8; }
	{ nop.m	0x0; add	r14,r14,r40; nop.i	0x0; }
	{ ld8	r58,[r14]; nop.i	0x0; br.call.sptk.many	b0,fn400000000001B180; }
	{ adds	r37,0x0,r8; nop.m	0x0; adds	r1,0x0,r54; }
	{ adds	r8,0x0,r37; mov	pr,r55,0xFFFFFFFFFFFFFFFE; mov.i	ar.pfs,r53; }
	{ nop.m	0x0; mov.i	LC,r56; mov.spnt	b0,r52,40000000000CD350 }
	{ nop.m	0x0; adds	r12,0x10,r12; br.ret	b0 }

l40000000000CD370:
	{ ld8	r35,[r34]; nop.m	0x0; addl	r58,47,r0; }
	{ adds	r57,0x0,r35; nop.i	0x0; br.call.sptk.many	b0,fn400000000001BEA0; }
	{ adds	r1,0x0,r54; nop.m	0x0; cmp.eq	p06,p07,0x0,r8 }
	{ adds	r37,0x1,r8; nop.m	0x0; (p06) br.cond.dpnt.few	40000000000CCE40; }

l40000000000CD3B0:
	{ nop.m	0x0; ld4	r14,[r43]; adds	r57,0x0,r37 }
	{ nop.m	0x0; ld8	r58,[r45]; nop.i	0x0; }
	{ cmp4.eq	p07,p06,0x0,r14; ld4	r14,[r44]; nop.i	0x0; }
	{ nop.m	0x0; sxt4	r59,r14; (p06) br.cond.dptk.few	40000000000CD5B0 }

l40000000000CD3F0:
	{ nop.m	0x0; nop.i	0x0; br.call.sptk.many	b0,fn400000000001C020; }
	{ cmp4.eq	p06,p07,0x0,r8; nop.m	0x0; adds	r1,0x0,r54; }
	{ (p06) addl	r8,1,r0; nop.i	0x0; (p07) adds	r8,0x0,r0; }

l40000000000CD416:
	{ chk.a.nc	f0,3FFFFFFFFF0CDC16; (p04) nop; break.i	0x80000 }

l40000000000CD420:
	{ nop.m	0x0; cmp4.eq	p06,p07,0x0,r8; (p06) br.cond.dptk.few	40000000000CCE40 }

l40000000000CD430:
	{ adds	r57,0x0,r37; nop.i	0x0; br.call.sptk.many	b0,fn400000000001B6C0; }
	{ adds	r1,0x0,r54; adds	r57,0x1,r8; br.call.sptk.many	b0,xmalloc; }
	{ adds	r1,0x0,r54; nop.m	0x0; adds	r57,0x0,r8 }
	{ adds	r58,0x0,r37; nop.m	0x0; br.call.sptk.many	b0,fn400000000001B180; }
	{ ld4	r14,[r46]; nop.m	0x0; adds	r1,0x0,r54 }
	{ adds	r37,0x0,r8; ld8	r35,[r34]; nop.i	0x0; }
	{ adds	r57,0x0,r35; cmp4.eq	p06,p07,0x0,r14; (p07) br.cond.dptk.few	40000000000CCDF0 }

l40000000000CD4A0:
	{ nop.m	0x0; nop.i	0x0; br.call.sptk.many	b0,executable_or_directory; }
	{ adds	r1,0x0,r54; cmp4.eq	p07,p06,0x0,r8; (p07) br.cond.dptk.few	40000000000CCE10 }

l40000000000CD4C0:
	{ ld8	r57,[r34]; nop.i	0x0; br.call.sptk.many	b0,fn400000000001A7E0; }
	{ adds	r1,0x0,r54; adds	r8,0x0,r37; addl	r14,-7564,r1; }
	{ ld8	r14,[r14]; st8	[r14],r34; mov	pr,r55,0xFFFFFFFFFFFFFFFE; }
	{ nop.m	0x0; mov.i	ar.pfs,r53; nop.i	0x0; }
	{ nop.m	0x0; mov.i	LC,r56; mov.spnt	b0,r52,40000000000CD500 }
	{ nop.m	0x0; adds	r12,0x10,r12; br.ret	b0; }

l40000000000CD520:
	{ nop.m	0x0; nop.i	0x0; br.call.sptk.many	b0,fn400000000001B8A0; }
	{ ld1	r14,[r32]; cmp4.eq	p06,p07,0x0,r8; adds	r1,0x0,r54 }
	{ adds	r57,0x0,r35; (p06) addl	r8,1,r0; sxt1	r14,r14; }

l40000000000CD54C:
	{ Invalid; zxt1	r0,r64; cmp.eq	p00,p00,r32,r0; }

l40000000000CD556:
	{ add	r0,r0,r1; (p03) nop; break.i	0x80000 }
	{ (p21) chk.a.clr	r0,3FFFFFFFFF14D5E6; nop; (p32) nop }

l40000000000CD570:
	{ ld8	r58,[r48]; nop.i	0x0; br.call.sptk.many	b0,fn40000000000CAD40; }
	{ adds	r1,0x0,r54; nop.m	0x0; adds	r37,0x0,r8 }
	{ ld8	r35,[r34]; cmp4.eq	p06,p07,0x0,r42; (p07) br.cond.dptk.few	40000000000CCDD0 }

l40000000000CD5A0:
	{ nop.m	0x0; nop.i	0x0; br.cond.sptk.few	40000000000CCE20 }

l40000000000CD5B0:
	{ nop.m	0x0; nop.i	0x0; br.call.sptk.many	b0,fn400000000001B8A0; }
	{ cmp4.eq	p06,p07,0x0,r8; adds	r1,0x0,r54; (p06) addl	r8,1,r0; }

l40000000000CD5D0:
	{ nop.m	0x0; (p07) adds	r8,0x0,r0; br.cond.sptk.few	40000000000CD420 }

l40000000000CD5DC:
	{ (p50) ld2	r127,[r36]; (p05) nop; Invalid }

l40000000000CD5E0:
	{ addl	r42,8116,r1; addl	r35,8152,r1; addl	r38,8052,r1 }
	{ addl	r40,-21740,r1; ld4	r14,[r42]; nop.i	0x0 }
	{ ld4	r34,[r35]; ld8	r37,[r38]; sxt4	r41,r14 }
	{ cmp4.eq	p16,p17,0x0,r14; nop.m	0x0; nop.i	0x0; }

l40000000000CD620:
	{ nop.m	0x0; sxt4	r14,r34; adds	r34,0x1,r34; }
	{ shladd	r14,r14,0x4,r40; ld8	r36,[r14]; nop.i	0x0; }
	{ cmp.eq	p07,p06,0x0,r36; nop.i	0x0; (p07) br.cond.dpnt.few	40000000000CCFB0; }

l40000000000CD650:
	{ st4	[r34],r35; nop.i	0x0; (p16) br.cond.dpnt.few	40000000000CD6C0; }

l40000000000CD660:
	{ ld1	r15,[r36]; ld1	r14,[r37]; nop.i	0x0; }
	{ nop.m	0x0; sxt1	r15,r15; sxt1	r14,r14; }
	{ nop.m	0x0; cmp4.eq	p07,p06,r15,r14; (p06) br.cond.dptk.few	40000000000CD620 }

l40000000000CD690:
	{ adds	r57,0x0,r36; nop.m	0x0; adds	r58,0x0,r37 }
	{ adds	r59,0x0,r41; nop.m	0x0; br.call.sptk.many	b0,fn400000000001C020; }
	{ adds	r1,0x0,r54; cmp4.eq	p07,p06,0x0,r8; (p06) br.cond.dptk.few	40000000000CD620 }

l40000000000CD6C0:
	{ adds	r57,0x0,r36; nop.i	0x0; br.call.sptk.many	b0,fn400000000001B6C0; }
	{ adds	r1,0x0,r54; adds	r57,0x1,r8; br.call.sptk.many	b0,xmalloc; }
	{ adds	r1,0x0,r54; nop.m	0x0; adds	r57,0x0,r8 }
	{ adds	r58,0x0,r36; nop.m	0x0; br.call.sptk.many	b0,fn400000000001B180; }
	{ adds	r37,0x0,r8; nop.m	0x0; adds	r1,0x0,r54; }
	{ adds	r8,0x0,r37; mov	pr,r55,0xFFFFFFFFFFFFFFFE; mov.i	ar.pfs,r53; }
	{ nop.m	0x0; mov.i	LC,r56; mov.spnt	b0,r52,40000000000CD720 }
	{ nop.m	0x0; adds	r12,0x10,r12; br.ret	b0; }

l40000000000CD740:
	{ adds	r57,0x0,r32; nop.i	0x0; br.call.sptk.many	b0,absolute_program; }
	{ adds	r1,0x0,r54; cmp4.eq	p07,p06,0x0,r8; (p06) br.cond.dptk.few	40000000000CC3D0 }

l40000000000CD760:
	{ ld1	r14,[r32]; adds	r57,0x0,r32; sxt1	r14,r14; }
	{ cmp4.eq	p06,p07,0x7E,r14; nop.i	0x0; (p06) br.cond.dpnt.few	40000000000CC3D0; }

l40000000000CD780:
	{ nop.m	0x0; nop.i	0x0; br.call.sptk.many	b0,fn40000000000CA600; }
	{ adds	r1,0x0,r54; cmp4.eq	p07,p06,0x0,r8; addl	r34,8076,r1 }
	{ addl	r14,8068,r1; (p06) addl	r8,1,r0; addl	r57,-7580,r1; }

l40000000000CD7AC:
	{ Invalid; Invalid; Invalid }

l40000000000CD7BC:
	{ nop; nop; Invalid }
	{ Invalid; Invalid; break.i	0x1000 }
	{ (p38) cmp.lt	p28,p03,r61,r44; (p01) nop; Invalid }
	{ Invalid; cmp.eq	p00,p00,r32,r0; (p48) mov	pr,r67,0xE6B6; }
	{ (p33) cmp.lt.unc	p61,p11,r63,r37; (p17) cmp.lt	p00,p16,r2,r64; (p01) rfi }

l40000000000CD800:
	{ adds	r14,0x1,r8; ld1	r14,[r14]; nop.i	0x0; }
	{ nop.m	0x0; sxt1	r14,r14; nop.i	0x0; }
	{ nop.m	0x0; cmp4.eq	p07,p06,0x6E,r14; (p06) br.cond.dptk.few	40000000000CC420 }

l40000000000CD830:
	{ adds	r8,0x2,r8; ld1	r14,[r8]; nop.i	0x0; }
	{ nop.m	0x0; sxt1	r14,r14; cmp4.eq	p06,p07,0x0,r14; }
	{ nop.m	0x0; (p06) addl	r14,1,r0; nop.i	0x0; }

l40000000000CD85C:
	{ Invalid; cmp4.eq.and	p00,p32,r32,r0; zxt1	r0,r64 }

l40000000000CD86C:
	{ (p30) cmp.lt.unc	p61,p09,r63,r36; (p01) dep	r61,r64,r15,62,3; Invalid }

l40000000000CD870:
	{ addl	r14,8052,r1; addl	r42,8084,r1; addl	r37,8092,r1; }
	{ ld8	r35,[r14]; nop.i	0x0; br.cond.sptk.few	40000000000CC6A0 }

l40000000000CD890:
	{ adds	r57,0x0,r8; nop.i	0x0; br.call.sptk.many	b0,dot_or_dotdot; }
	{ nop.m	0x0; adds	r1,0x0,r54; cmp4.eq	p07,p06,0x0,r8 }
	{ ld4	r58,[r36]; (p06) addl	r14,-10196,r1; (p06) addl	r15,-7036,r1 }

l40000000000CD8BC:
	{ (p02) nop; mov	pr,r32,0x0; Invalid; }

l40000000000CD8C0:
	{ nop.m	0x0; (p07) ld8	r8,[r43]; nop.i	0x0; }

l40000000000CD8CC:
	{ cmp4.eq.and	p00,p09,r1,r0; (p01) cmp4.ne.or.andcm	p00,p08,r3,r6; Invalid }

l40000000000CD8D6:
	{ (p07) fwb; addl	r0,49152,r1; Invalid; }

l40000000000CD8DC:
	{ Invalid; (p01) mov	pr,r10,0x40C0; (p48) cmp4.ne.and	p03,p08,r3,r102 }

l40000000000CD8E6:
	{ chk.a.nc	r15,3FFFFFFFFF9999C6; (p07) addl	r1,25600,r0; (p01) nop; }

l40000000000CD8EC:
	{ Invalid; Invalid; Invalid; }

l40000000000CD8F0:
	{ (p06) st4	[r14],r35; nop.m	0x0; (p06) addl	r14,-10612,r1; }

l40000000000CD8F6:
	{ chk.a.nc	r0,3FFFFFFFFF0CE0F6; (p07) addl	r12,780285,r1; (p33) addl	r3,832,r3 }

l40000000000CD900:
	{ (p06) ld8	r14,[r14]; (p06) st8	[r0],r14; addl	r14,4,r0; }

l40000000000CD906:
	{ mf.a; (p07) nop; nop; }

l40000000000CD90C:
	{ (p02) invala; Invalid; break.i	0x1000; }
	{ (p24) nop; (p07) dep	r96,r8,r64,62,1; zxt1	r0,r64 }

l40000000000CD920:
	{ adds	r57,0x0,r35; adds	r58,0x0,r0; br.call.sptk.many	b0,fn40000000000C9C40; }
	{ nop.m	0x0; adds	r1,0x0,r54; adds	r35,0x0,r8 }
	{ ld8	r57,[r38]; addl	r14,8044,r1; nop.i	0x0; }
	{ st8	[r8],r14; nop.i	0x0; br.call.sptk.many	b0,fn400000000001A7E0; }
	{ nop.m	0x0; adds	r1,0x0,r54; nop.i	0x0 }
	{ st8	[r35],r38; nop.m	0x0; br.cond.sptk.few	40000000000CC590 }

l40000000000CD980:
	{ adds	r37,0x0,r0; adds	r8,0x0,r37; mov	pr,r55,0xFFFFFFFFFFFFFFFE; }
	{ nop.m	0x0; mov.i	ar.pfs,r53; nop.i	0x0; }
	{ nop.m	0x0; mov.i	LC,r56; mov.spnt	b0,r52,40000000000CD9A0 }
	{ nop.m	0x0; adds	r12,0x10,r12; br.ret	b0; }

l40000000000CD9C0:
	{ adds	r57,0x0,r34; nop.m	0x0; adds	r58,0x0,r36 }
	{ adds	r59,0x0,r40; nop.m	0x0; br.call.sptk.many	b0,fn400000000001C020; }
	{ adds	r1,0x0,r54; cmp4.eq	p07,p06,0x0,r8; (p07) br.cond.dpnt.few	40000000000CDBC0 }

l40000000000CD9F0:
	{ nop.m	0x0; ld4	r14,[r35]; nop.i	0x0; }
	{ nop.m	0x0; sxt4	r15,r14; adds	r14,0x1,r14; }
	{ shladd	r15,r15,0x3,r37; ld8	r15,[r15]; nop.i	0x0; }
	{ cmp.eq	p07,p06,0x0,r15; nop.i	0x0; (p07) br.cond.dpnt.few	40000000000CD020; }

l40000000000CDA30:
	{ nop.m	0x0; ld8	r34,[r15]; nop.i	0x0 }
	{ st4	[r14],r38; nop.m	0x0; (p16) br.cond.dpnt.few	40000000000CDBC0; }

l40000000000CDA50:
	{ ld1	r15,[r36]; ld1	r14,[r34]; sxt1	r15,r15; }
	{ nop.m	0x0; sxt1	r14,r14; nop.i	0x0; }
	{ nop.m	0x0; cmp4.eq	p07,p06,r14,r15; (p06) br.cond.dptk.few	40000000000CD9F0 }

l40000000000CDA80:
	{ nop.m	0x0; nop.i	0x0; br.cond.sptk.few	40000000000CD9C0; }

l40000000000CDA90:
	{ nop.m	0x0; cmp4.eq	p06,p07,0x0,r14; (p07) br.cond.dptk.few	40000000000CCB50 }

l40000000000CDAA0:
	{ addl	r14,8164,r1; addl	r42,8116,r1; addl	r38,8052,r1 }
	{ addl	r35,8152,r1; ld8	r37,[r14]; nop.i	0x0 }
	{ ld4	r14,[r42]; nop.i	0x0; cmp.eq	p06,p07,0x0,r37 }
	{ ld8	r36,[r38]; sxt4	r41,r14; (p06) br.cond.dpnt.few	40000000000CDFD0; }

l40000000000CDAE0:
	{ nop.m	0x0; (p07) cmp4.eq	p16,p17,0x0,r14; (p07) adds	r40,0x0,r35; }

l40000000000CDAEC:
	{ nop; break.x	0x8000001000; }

l40000000000CDAF0:
	{ nop.m	0x0; nop.m	0x0; nop.i	0x0 }

l40000000000CDB00:
	{ nop.m	0x0; ld4	r14,[r35]; nop.i	0x0; }
	{ nop.m	0x0; sxt4	r15,r14; adds	r14,0x1,r14; }
	{ shladd	r15,r15,0x3,r37; ld8	r15,[r15]; nop.i	0x0; }
	{ cmp.eq	p07,p06,0x0,r15; nop.i	0x0; (p07) br.cond.dpnt.few	40000000000CDFD0; }

l40000000000CDB40:
	{ nop.m	0x0; ld8	r34,[r15]; nop.i	0x0 }
	{ st4	[r14],r40; nop.m	0x0; (p16) br.cond.dpnt.few	40000000000CDBC0; }

l40000000000CDB60:
	{ ld1	r15,[r36]; ld1	r14,[r34]; sxt1	r15,r15; }
	{ nop.m	0x0; sxt1	r14,r14; nop.i	0x0; }
	{ nop.m	0x0; cmp4.eq	p07,p06,r14,r15; (p06) br.cond.dptk.few	40000000000CDB00 }

l40000000000CDB90:
	{ adds	r57,0x0,r34; nop.m	0x0; adds	r58,0x0,r36 }
	{ adds	r59,0x0,r41; nop.m	0x0; br.call.sptk.many	b0,fn400000000001C020; }
	{ adds	r1,0x0,r54; cmp4.eq	p07,p06,0x0,r8; (p06) br.cond.dptk.few	40000000000CDB00; }

l40000000000CDBC0:
	{ adds	r57,0x0,r34; nop.i	0x0; br.call.sptk.many	b0,fn400000000001B6C0; }
	{ adds	r1,0x0,r54; adds	r57,0x1,r8; br.call.sptk.many	b0,xmalloc; }
	{ adds	r1,0x0,r54; nop.m	0x0; adds	r57,0x0,r8 }
	{ adds	r58,0x0,r34; nop.m	0x0; br.call.sptk.many	b0,fn400000000001B180; }
	{ adds	r37,0x0,r8; nop.m	0x0; adds	r1,0x0,r54; }
	{ adds	r8,0x0,r37; mov	pr,r55,0xFFFFFFFFFFFFFFFE; mov.i	ar.pfs,r53; }
	{ nop.m	0x0; mov.i	LC,r56; mov.spnt	b0,r52,40000000000CDC20 }
	{ nop.m	0x0; adds	r12,0x10,r12; br.ret	b0; }

l40000000000CDC40:
	{ addl	r40,8108,r1; nop.m	0x0; adds	r58,0x0,r0 }
	{ adds	r57,0x0,r32; nop.m	0x0; br.call.sptk.many	b0,bash_tilde_expand; }
	{ adds	r1,0x0,r54; nop.m	0x0; adds	r57,0x0,r32 }
	{ st8	[r8],r38; nop.m	0x0; br.call.sptk.many	b0,fn400000000001B6C0; }
	{ adds	r1,0x0,r54; nop.m	0x0; adds	r57,0x1,r8; }
	{ addl	r43,8052,r1; nop.i	0x0; br.call.sptk.many	b0,xmalloc; }
	{ adds	r1,0x0,r54; nop.m	0x0; adds	r58,0x0,r32 }
	{ adds	r57,0x0,r8; nop.m	0x0; br.call.sptk.many	b0,fn400000000001B180; }
	{ nop.m	0x0; adds	r1,0x0,r54; adds	r35,0x0,r8 }
	{ st8	[r8],r40; adds	r57,0x0,r8; addl	r58,47,r0; }
	{ nop.m	0x0; nop.i	0x0; br.call.sptk.many	b0,fn400000000001B680; }
	{ adds	r1,0x0,r54; cmp.eq	p06,p07,0x0,r8; (p06) br.cond.dpnt.few	40000000000CE150; }

l40000000000CDD00:
	{ nop.m	0x0; st1	[r0],r8; nop.i	0x0 }
	{ ld8	r35,[r43]; nop.m	0x0; br.cond.sptk.few	40000000000CC530 }

l40000000000CDD20:
	{ nop.m	0x0; ld1	r14,[r32]; nop.i	0x0; }
	{ nop.m	0x0; sxt1	r14,r14; cmp4.eq	p06,p07,0x7E,r14; }
	{ (p07) ld8	r37,[r34]; nop.i	0x0; (p07) br.cond.dptk.few	40000000000CC840 }

l40000000000CDD46:
	{ chk.a.nc	f0,3FFFFFFFFF0CE546; nop; (p32) nop }

l40000000000CDD50:
	{ addl	r14,8108,r1; ld8	r57,[r34]; nop.i	0x0; }
	{ ld8	r58,[r14]; nop.i	0x0; br.call.sptk.many	b0,fn40000000000CAD40; }
	{ adds	r1,0x0,r54; nop.m	0x0; adds	r37,0x0,r8 }
	{ ld8	r57,[r34]; nop.m	0x0; br.call.sptk.many	b0,fn400000000001A7E0; }
	{ adds	r8,0x0,r37; adds	r1,0x0,r54; nop.b	0x0 }
	{ st8	[r37],r34; mov	pr,r55,0xFFFFFFFFFFFFFFFE; mov.i	ar.pfs,r53; }
	{ nop.m	0x0; mov.i	LC,r56; mov.spnt	b0,r52,40000000000CDDB0 }
	{ nop.m	0x0; adds	r12,0x10,r12; br.ret	b0 }

l40000000000CDDD0:
	{ addl	r14,8140,r1; nop.m	0x0; addl	r58,8148,r1; }
	{ nop.m	0x0; ld8	r57,[r14]; nop.i	0x0; }
	{ cmp.eq	p06,p07,0x0,r57; nop.i	0x0; (p06) br.cond.dpnt.few	40000000000CD980; }

l40000000000CDE00:
	{ ld4	r15,[r58]; nop.m	0x0; sxt4	r14,r15; }
	{ add	r14,r57,r14; ld1	r14,[r14]; nop.i	0x0; }
	{ nop.m	0x0; sxt1	r14,r14; nop.i	0x0; }
	{ cmp4.eq	p06,p07,0x0,r14; nop.i	0x0; (p06) br.cond.dpnt.few	40000000000CD980; }

l40000000000CDE40:
	{ nop.m	0x0; nop.i	0x0; br.call.sptk.many	b0,extract_colon_unit; }
	{ adds	r1,0x0,r54; cmp.eq	p06,p07,0x0,r8; nop.i	0x0 }
	{ addl	r16,1,r0; adds	r35,0x0,r8; (p06) br.cond.dpnt.few	40000000000CD980; }

l40000000000CDE70:
	{ ld1	r14,[r8]; addl	r15,8060,r1; sxt1	r14,r14 }
	{ nop.m	0x0; st4	[r16],r15; nop.i	0x0; }
	{ cmp4.eq	p07,p06,0x0,r14; nop.i	0x0; (p07) br.cond.dpnt.few	40000000000CE020; }

l40000000000CDEA0:
	{ nop.m	0x0; cmp4.eq	p07,p06,0x7E,r14; (p07) br.cond.dpnt.few	40000000000CE0C0; }

l40000000000CDEB0:
	{ nop.m	0x0; cmp4.eq	p07,p06,0x2E,r14; (p07) br.cond.dpnt.few	40000000000CE080 }

l40000000000CDEC0:
	{ addl	r40,8124,r1; ld8	r57,[r40]; nop.i	0x0; }
	{ cmp.eq	p06,p07,0x0,r57; nop.i	0x0; (p06) br.cond.dpnt.few	40000000000CDF00; }

l40000000000CDEE0:
	{ nop.m	0x0; nop.i	0x0; br.call.sptk.many	b0,fn400000000001A7E0; }
	{ adds	r1,0x0,r54; nop.m	0x0; nop.i	0x0; }

l40000000000CDF00:
	{ addl	r38,8052,r1; nop.m	0x0; adds	r57,0x0,r35 }
	{ adds	r59,0x0,r0; nop.m	0x0; addl	r41,1,r0; }
	{ ld8	r58,[r38]; nop.i	0x0; br.call.sptk.many	b0,sh_makepath; }
	{ adds	r14,0x10,r12; st8	[r8],r40; adds	r1,0x0,r54 }
	{ nop.m	0x0; adds	r57,0x0,r35; nop.i	0x0; }
	{ st8	[r8],r14; nop.i	0x0; br.call.sptk.many	b0,fn400000000001A7E0; }
	{ nop.m	0x0; adds	r1,0x0,r54; adds	r15,0x10,r12 }
	{ nop.m	0x0; ld4	r58,[r36]; nop.i	0x0; }
	{ addl	r51,-10612,r1; addl	r50,-7036,r1; addl	r49,-10196,r1 }
	{ ld8	r8,[r15]; addl	r47,7788,r1; addl	r45,8052,r1; }
	{ ld8	r51,[r51]; addl	r46,8060,r1; addl	r43,8084,r1 }
	{ addl	r44,8116,r1; ld8	r50,[r50]; addl	r48,8108,r1; }
	{ ld8	r49,[r49]; nop.i	0x0; br.cond.sptk.few	40000000000CCC60 }

l40000000000CDFD0:
	{ nop.m	0x0; addl	r14,1,r0; addl	r40,-21740,r1 }
	{ st4	[r0],r35; ld8	r37,[r38]; adds	r34,0x0,r0; }
	{ st4	[r14],r39; ld4	r14,[r42]; nop.i	0x0 }
	{ nop.m	0x0; nop.i	0x0; sxt4	r41,r14 }
	{ nop.m	0x0; cmp4.eq	p16,p17,0x0,r14; br.cond.sptk.few	40000000000CD620 }

l40000000000CE020:
	{ adds	r57,0x0,r8; nop.i	0x0; br.call.sptk.many	b0,fn400000000001A7E0; }
	{ adds	r1,0x0,r54; addl	r57,2,r0; br.call.sptk.many	b0,xmalloc; }
	{ addl	r14,46,r0; adds	r15,0x0,r8; adds	r1,0x0,r54 }
	{ adds	r35,0x0,r8; st1	[r15],r1,1; sxt1	r14,r14; }
	{ st1	[r0],r15; cmp4.eq	p07,p06,0x7E,r14; (p06) br.cond.dptk.few	40000000000CDEB0 }

l40000000000CE070:
	{ nop.m	0x0; nop.i	0x0; br.cond.sptk.few	40000000000CE0C0 }

l40000000000CE080:
	{ adds	r14,0x1,r35; ld1	r14,[r14]; nop.i	0x0; }
	{ nop.m	0x0; sxt1	r14,r14; nop.i	0x0; }
	{ cmp4.eq	p07,p06,0x0,r14; (p07) addl	r15,1,r0; (p07) addl	r14,8036,r1; }

l40000000000CE0AC:
	{ Invalid; Invalid; break.i	0x1000; }

l40000000000CE0B0:
	{ (p07) st4	[r15],r14; nop.i	0x0; br.cond.sptk.few	40000000000CDEC0 }

l40000000000CE0B6:
	{ break.m	0x4000; nop; (p16) nop }

l40000000000CE0C0:
	{ adds	r57,0x0,r35; adds	r58,0x0,r0; br.call.sptk.many	b0,bash_tilde_expand; }
	{ adds	r1,0x0,r54; nop.m	0x0; adds	r37,0x0,r8 }
	{ adds	r57,0x0,r35; nop.m	0x0; br.call.sptk.many	b0,fn400000000001A7E0; }
	{ ld1	r14,[r37]; adds	r1,0x0,r54; adds	r35,0x0,r37; }
	{ nop.m	0x0; sxt1	r14,r14; nop.i	0x0; }
	{ nop.m	0x0; cmp4.eq	p07,p06,0x2E,r14; (p06) br.cond.dptk.few	40000000000CDEC0 }

l40000000000CE120:
	{ nop.m	0x0; nop.i	0x0; br.cond.sptk.few	40000000000CE080 }

l40000000000CE130:
	{ adds	r15,0x0,r0; addl	r14,1,r0; addl	r34,8076,r1; }
	{ nop.m	0x0; add	r15,r8,r15; br.cond.sptk.few	40000000000CC770 }

l40000000000CE150:
	{ adds	r57,0x0,r35; nop.i	0x0; br.call.sptk.many	b0,fn400000000001A7E0; }
	{ nop.m	0x0; adds	r1,0x0,r54; nop.i	0x0 }
	{ st8	[r0],r40; ld8	r35,[r43]; br.cond.sptk.few	40000000000CC530 }

l40000000000CE180:
	{ st8	[r0],r37; nop.m	0x0; adds	r37,0x0,r0; }
	{ adds	r8,0x0,r37; mov	pr,r55,0xFFFFFFFFFFFFFFFE; mov.i	ar.pfs,r53; }
	{ nop.m	0x0; mov.i	LC,r56; mov.spnt	b0,r52,40000000000CE1A0 }
	{ nop.m	0x0; adds	r12,0x10,r12; br.ret	b0; }
40000000000CE1C0 08 40 35 14 80 05 00 00 00 02 00 E0 04 00 C4 00 .@5.............
40000000000CE1D0 18 48 01 02 00 21 60 00 84 0E 73 03 80 01 00 42 .H...!`...s....B
40000000000CE1E0 09 00 00 00 01 00 50 62 06 7A 48 00 00 00 04 00 ......Pb.zH.....
40000000000CE1F0 02 40 00 4A 18 10 00 00 00 02 00 C0 00 40 1C E4 .@.J.........@..
40000000000CE200 08 18 51 03 3D 24 00 00 00 02 00 C0 44 0C F4 90 ..Q.=$......D...
40000000000CE210 19 20 05 00 00 24 00 00 00 02 00 03 90 06 00 43 . ...$.........C
40000000000CE220 0B 78 00 46 10 10 00 00 00 02 00 C0 01 78 58 00 .x.F.........xX.
40000000000CE230 0B 40 38 10 12 20 E0 00 20 30 20 00 00 00 04 00 .@8.. .. 0 .....
40000000000CE240 11 38 00 1C 06 39 A0 02 38 00 C2 03 60 06 00 43 .8...9..8...`..C
40000000000CE250 11 00 00 00 01 00 00 00 00 02 00 00 78 D4 F4 58 ............x..X
40000000000CE260 03 70 00 4C 10 10 10 00 A4 00 42 C0 11 70 00 84 .p.L......B..p..
40000000000CE270 01 00 00 00 01 00 A0 02 38 2C 00 00 00 00 04 00 ........8,......
40000000000CE280 11 50 21 54 00 20 00 00 00 02 00 00 48 AA 01 50 .P!T. ......H..P
40000000000CE290 08 70 00 4C 10 10 00 00 00 02 00 20 00 48 01 84 .p.L....... .H..
40000000000CE2A0 09 10 01 10 00 21 00 00 00 02 00 40 05 40 00 84 .....!.....@.@..
40000000000CE2B0 11 38 04 1C 86 39 00 00 00 02 80 03 50 04 00 43 .8...9......P..C
40000000000CE2C0 01 00 00 00 01 00 40 02 38 2C 00 C0 C1 0B F4 90 ......@.8,......
40000000000CE2D0 11 58 01 1C 18 10 C0 02 90 00 42 00 58 D6 F4 58 .X........B.X..X
40000000000CE2E0 08 30 01 46 10 10 10 00 A4 00 42 40 25 22 01 80 .0.F......B@%"..
40000000000CE2F0 02 70 00 4A 18 10 00 00 00 02 00 E0 01 30 59 00 .p.J.........0Y.
40000000000CE300 0B 30 05 4C 00 21 E0 78 38 24 40 00 00 00 04 00 .0.L.!.x8$@.....
40000000000CE310 11 58 01 1C 18 10 00 00 00 02 00 00 78 CE F4 58 .X..........x..X
40000000000CE320 08 08 00 52 00 21 00 30 8D 20 23 00 00 00 04 00 ...R.!.0. #.....
40000000000CE330 09 40 00 44 00 21 00 00 00 02 00 00 80 02 AA 00 .@.D.!..........
40000000000CE340 10 00 00 00 01 00 00 38 05 80 03 80 08 00 84 00 .......8........
40000000000CE350 0B 20 D1 02 3D 24 A0 02 90 30 20 00 00 00 04 00 . ..=$...0 .....
40000000000CE360 11 30 00 54 07 39 00 00 00 02 00 03 30 00 00 43 .0.T.9......0..C
40000000000CE370 11 00 00 00 01 00 00 00 00 02 00 00 78 C4 F4 58 ............x..X
40000000000CE380 09 08 00 52 00 21 00 00 00 02 00 00 00 00 04 00 ...R.!..........
40000000000CE390 02 70 00 40 00 10 F0 E0 05 7A 48 C0 01 70 50 00 .p.@.....zH..pP.
40000000000CE3A0 0B 00 80 1E 98 11 70 00 3B 0C 73 00 00 00 04 00 ......p.;.s.....
40000000000CE3B0 F1 80 04 00 00 E4 01 0A 80 00 C2 03 30 00 00 43 ............0..C
40000000000CE3C0 11 00 00 00 01 00 70 20 39 0C F3 03 20 04 00 43 ......p 9... ..C
40000000000CE3D0 08 80 00 00 00 21 00 00 00 02 00 00 00 00 04 00 .....!..........
40000000000CE3E0 08 70 10 FB AD 27 F0 08 00 00 48 00 00 00 04 00 .p...'....H.....
40000000000CE3F0 09 30 11 03 3D 24 50 62 06 7A 48 40 05 00 01 84 .0..=$Pb.zH@....
40000000000CE400 09 70 00 1C 18 10 00 80 98 20 23 00 00 00 04 00 .p....... #.....
40000000000CE410 11 00 3C 1C 90 11 00 00 00 02 00 00 B8 D2 F4 58 ..<............X
40000000000CE420 11 08 00 52 00 21 A0 0A 20 00 42 00 A8 A8 01 50 ...R.!.. .B....P
40000000000CE430 08 08 00 52 00 21 00 00 00 02 00 40 05 40 00 84 ...R.!.....@.@..
40000000000CE440 19 58 01 40 00 21 00 00 00 02 00 00 48 CD F4 58 .X.@.!......H..X
40000000000CE450 08 50 01 4A 18 10 00 00 00 02 00 20 00 48 01 84 .P.J....... .H..
40000000000CE460 09 18 01 10 00 21 00 40 90 30 23 00 00 00 04 00 .....!.@.0#.....
40000000000CE470 11 30 00 54 07 39 00 00 00 02 00 03 30 00 00 43 .0.T.9......0..C
40000000000CE480 11 00 00 00 01 00 00 00 00 02 00 00 68 C3 F4 58 ............h..X
40000000000CE490 08 08 00 52 00 21 00 00 00 02 00 00 00 00 04 00 ...R.!..........
40000000000CE4A0 11 50 01 46 00 21 00 00 00 02 00 00 28 D2 F4 58 .P.F.!......(..X
40000000000CE4B0 03 40 FC 11 3F 23 10 00 A4 00 42 40 34 42 00 80 .@..?#....B@4B..
40000000000CE4C0 11 00 00 00 01 00 70 18 89 0C 68 03 80 00 00 43 ......p...h....C
40000000000CE4D0 08 00 00 00 01 00 00 00 00 02 00 00 00 00 04 00 ................
40000000000CE4E0 09 00 00 00 01 00 B0 02 88 00 20 00 00 00 04 00 .......... .....
40000000000CE4F0 03 00 00 00 01 00 B0 02 AC 28 00 C0 00 5A 1D E6 .........(...Z..
40000000000CE500 11 30 24 56 C7 39 00 00 00 02 00 03 70 02 00 43 .0$V.9......p..C
40000000000CE510 10 00 00 00 01 00 70 00 AC 0C 73 03 10 01 00 43 ......p...s....C
40000000000CE520 09 10 FD 45 3F 23 30 02 90 30 20 00 00 00 04 00 ...E?#0..0 .....
40000000000CE530 10 00 00 00 01 00 60 18 89 0E 68 03 B0 FF FF 4A ......`...h....J
40000000000CE540 09 58 31 FB B1 27 00 00 00 02 00 40 05 18 01 84 .X1..'.....@....
40000000000CE550 11 58 01 56 18 10 00 00 00 02 00 00 18 C3 F4 58 .X.V...........X
40000000000CE560 08 08 00 52 00 21 00 40 94 30 23 00 00 00 04 00 ...R.!.@.0#.....
40000000000CE570 11 30 00 10 07 39 E0 40 20 00 42 03 F0 02 00 43 .0...9.@ .B....C
40000000000CE580 09 00 00 00 01 00 A0 02 20 30 20 00 00 00 04 00 ........ 0 .....
40000000000CE590 11 40 00 54 09 39 00 00 00 02 00 04 90 02 00 43 .@.T.9.........C
40000000000CE5A0 09 00 00 00 01 00 F0 00 38 30 20 00 00 00 04 00 ........80 .....
40000000000CE5B0 11 48 00 1E 08 39 00 00 00 02 80 04 70 02 00 43 .H...9......p..C
40000000000CE5C0 09 81 04 00 00 24 00 00 00 02 00 E4 41 0D F4 90 .....$......A...
40000000000CE5D0 08 01 40 1E 90 11 00 00 00 02 00 00 00 00 04 00 ..@.............
40000000000CE5E0 09 70 00 1C 18 10 00 00 00 02 00 E0 11 00 00 90 .p..............
40000000000CE5F0 11 48 00 1C 08 39 E0 20 F5 63 CF 04 E0 02 00 43 .H...9. .c.....C
40000000000CE600 09 00 00 00 01 00 E0 00 38 30 20 00 00 00 04 00 ........80 .....
40000000000CE610 10 00 3C 1C 90 11 00 00 00 02 00 00 F0 FB FF 48 ..<............H
40000000000CE620 09 00 00 00 01 00 A0 E2 F7 89 4F 00 00 00 04 00 ..........O.....
40000000000CE630 11 50 01 54 18 10 00 00 00 02 00 00 98 8F 06 50 .P.T...........P
40000000000CE640 11 08 00 52 00 21 60 00 20 0E 72 03 E0 FE FF 4A ...R.!`. .r....J
40000000000CE650 09 70 00 44 00 21 30 02 90 30 20 60 C5 EC C7 9E .p.D.!0..0 `....
40000000000CE660 08 00 00 00 01 00 60 18 89 0E 68 00 00 00 04 00 ......`...h.....
40000000000CE670 19 58 01 56 18 10 00 00 00 02 80 03 D0 FE FF 49 .X.V...........I
40000000000CE680 09 78 04 1C 00 14 00 01 98 20 20 00 00 00 04 00 .x.......  .....
40000000000CE690 00 00 00 00 01 00 F0 00 3C 28 00 60 E4 18 15 80 ........<(.`....
40000000000CE6A0 0B 50 01 1C 00 21 70 48 3C 0C 73 00 02 19 01 80 .P...!pH<.s.....
40000000000CE6B0 08 00 00 00 01 00 70 00 3D 8C 73 00 00 00 04 00 ......p.=.s.....
40000000000CE6C0 19 00 40 4C 90 11 00 00 00 02 80 03 E0 00 00 41 ..@L...........A
40000000000CE6D0 11 00 00 00 01 00 00 00 00 02 00 00 98 C1 F4 58 ...............X
40000000000CE6E0 08 00 00 00 01 00 10 00 A4 00 42 00 00 00 04 00 ..........B.....
40000000000CE6F0 19 00 20 4A 98 11 00 00 00 02 00 00 80 FE FF 48 .. J...........H
40000000000CE700 09 70 F0 02 3D 24 60 02 8C 20 20 40 25 22 01 80 .p..=$`..  @%"..
40000000000CE710 01 70 00 1C 18 10 F0 00 98 2C 00 C0 14 30 01 84 .p.......,...0..
40000000000CE720 0A 70 00 1C 00 10 00 70 20 00 23 00 00 00 04 00 .p.....p .#.....
40000000000CE730 0B 70 00 4A 18 10 E0 78 38 24 40 00 00 00 04 00 .p.J...x8$@.....
40000000000CE740 11 58 01 1C 18 10 00 00 00 02 00 00 48 CA F4 58 .X..........H..X
40000000000CE750 08 00 00 00 01 00 10 00 A4 00 42 00 00 00 04 00 ..........B.....
40000000000CE760 18 00 98 46 90 11 00 00 00 02 00 00 D0 FB FF 48 ...F...........H
40000000000CE770 09 70 04 44 00 21 F0 00 98 20 20 00 00 00 04 00 .p.D.!...  .....
40000000000CE780 03 18 39 46 05 20 00 00 00 02 00 E0 F1 18 01 80 ..9F. ..........
40000000000CE790 08 00 3C 4C 90 11 00 00 00 02 00 00 00 00 04 00 ..<L............
40000000000CE7A0 09 58 F1 FA AD 27 00 00 00 02 00 40 05 70 00 84 .X...'.....@.p..
40000000000CE7B0 11 58 01 56 18 10 00 00 00 02 00 00 B8 C0 F4 58 .X.V...........X
40000000000CE7C0 08 00 00 00 01 00 10 00 A4 00 42 00 00 00 04 00 ..........B.....
40000000000CE7D0 18 00 20 4A 98 11 00 00 00 02 00 00 A0 FD FF 48 .. J...........H
40000000000CE7E0 0B 70 04 40 00 21 E0 00 38 00 20 00 00 00 04 00 .p.@.!..8. .....
40000000000CE7F0 03 00 00 00 01 00 E0 00 38 28 00 E0 80 72 18 E6 ........8(...r..
40000000000CE800 F1 80 08 00 00 E4 01 12 80 00 C2 03 E0 FB FF 4B ...............K
40000000000CE810 10 00 00 00 01 00 00 01 00 00 42 00 D0 FB FF 48 ..........B....H
40000000000CE820 09 70 50 03 3D 24 90 00 A8 10 72 E0 11 00 00 90 .pP.=$....r.....
40000000000CE830 11 00 00 1C 90 11 E2 40 20 00 42 04 B0 FD FF 4B .......@ .B....K
40000000000CE840 0B 70 90 FA B1 27 E0 00 38 30 20 00 00 00 04 00 .p...'..80 .....
40000000000CE850 10 00 3C 1C 90 11 00 00 00 02 00 00 B0 F9 FF 48 ..<............H
40000000000CE860 09 70 50 03 3D 24 00 00 00 02 00 E0 11 00 00 90 .pP.=$..........
40000000000CE870 09 00 00 1C 90 11 00 00 00 02 00 C0 41 EA C7 9E ............A...
40000000000CE880 09 00 00 00 01 00 E0 00 38 30 20 00 00 00 04 00 ........80 .....
40000000000CE890 10 00 3C 1C 90 11 00 00 00 02 00 00 70 F9 FF 48 ..<.........p..H
40000000000CE8A0 09 70 B0 FA AC 27 20 02 00 00 42 00 80 02 AA 00 .p...' ...B.....
40000000000CE8B0 09 70 00 1C 18 10 80 00 88 00 42 00 70 0A 00 07 .p........B.p...
40000000000CE8C0 11 00 00 1C 90 11 00 00 00 02 00 80 08 00 84 00 ................
40000000000CE8D0 11 00 00 00 01 00 00 00 00 02 00 00 38 BD FF 58 ............8..X
40000000000CE8E0 08 00 00 00 01 00 10 00 A4 00 42 E0 00 40 18 E6 ..........B..@..
40000000000CE8F0 19 00 00 00 01 00 80 00 94 30 20 03 40 00 00 42 .........0 .@..B
40000000000CE900 09 70 90 FA B1 27 F0 08 00 00 48 C0 00 40 1C E4 .p...'....H..@..
40000000000CE910 09 00 00 00 01 00 E0 00 38 30 20 00 00 00 04 00 ........80 .....
40000000000CE920 10 00 3C 1C 90 11 00 00 00 02 00 00 E0 F8 FF 48 ..<............H
40000000000CE930 09 70 F0 FA AC 27 F0 78 01 00 48 C0 00 40 1C E4 .p...'.x..H..@..
40000000000CE940 09 00 00 00 01 00 E0 00 38 30 20 00 00 00 04 00 ........80 .....
40000000000CE950 11 00 3C 1C 90 11 00 00 00 02 00 00 B0 F8 FF 48 ..<............H
40000000000CE960 08 00 00 00 01 00 00 00 00 02 00 00 00 00 04 00 ................
40000000000CE970 08 00 00 00 01 00 00 00 00 02 00 00 00 00 04 00 ................

;; fn40000000000CE980: 40000000000CE980
;;   Called from:
;;     40000000000CEC9C (in fn40000000000CE980)
;;     40000000000CECCC (in fn40000000000CE980)
;;     40000000000CF1DC (in fn40000000000CF180)
;;     40000000000CF27C (in fn40000000000CF180)
fn40000000000CE980 proc
	{ alloc	r44,ar.pfs,0x12,0x0,0xE; adds	r12,0xFFFFFFFFFFFFFE00,r12; mov	r43,b3 }
	{ addl	r47,-7548,r1; adds	r45,0x0,r1; adds	r46,0x0,r32; }
	{ ld8	r47,[r47]; adds	r34,0x110,r12; br.call.sptk.many	b0,fn400000000001A660; }
	{ adds	r1,0x0,r45; nop.m	0x0; adds	r37,0x0,r8 }
	{ cmp.eq	p06,p07,0x0,r8; nop.m	0x0; (p06) br.cond.dpnt.few	40000000000CEAE0; }

l40000000000CE9D0:
	{ addl	r38,8000,r1; addl	r41,8012,r1; addl	r40,8004,r1 }

l40000000000CE9E0:
	{ adds	r46,0x0,r34; nop.m	0x0; addl	r47,255,r0 }
	{ adds	r48,0x0,r37; nop.m	0x0; br.call.sptk.many	b0,fn400000000001A9A0; }
	{ adds	r1,0x0,r45; cmp.eq	p06,p07,0x0,r8; (p06) br.cond.dpnt.few	40000000000CEAC0 }

l40000000000CEA10:
	{ ld1	r14,[r34]; nop.m	0x0; adds	r33,0x0,r0; }
	{ nop.m	0x0; sxt1	r14,r14; cmp4.eq	p10,p11,0x0,r14 }
	{ adds	r35,0x0,r14; adds	r14,0x111,r12; (p10) br.cond.dpnt.few	40000000000CE9E0; }

l40000000000CEA40:
	{ cmp4.eq	p06,p07,0xD,r35; nop.m	0x0; cmp4.eq	p08,p09,0x20,r35; }
	{ nop.m	0x0; cmp4.eq.or.andcm	p06,p07,0xA,r35; (p06) br.cond.dptk.few	40000000000CEA70 }

l40000000000CEA60:
	{ nop.m	0x0; cmp4.eq.or.andcm	p08,p09,0x9,r35; (p09) br.cond.dpnt.few	40000000000CEB00 }

l40000000000CEA70:
	{ ld1	r35,[r14],1; adds	r33,0x1,r33; sxt1	r35,r35; }
	{ nop.m	0x0; cmp4.eq	p10,p11,0x0,r35; (p11) br.cond.dptk.few	40000000000CEA40 }

l40000000000CEA90:
	{ adds	r46,0x0,r34; nop.m	0x0; addl	r47,255,r0 }
	{ adds	r48,0x0,r37; nop.m	0x0; br.call.sptk.many	b0,fn400000000001A9A0; }
	{ adds	r1,0x0,r45; cmp.eq	p06,p07,0x0,r8; (p07) br.cond.dptk.few	40000000000CEA10 }

l40000000000CEAC0:
	{ nop.m	0x0; adds	r46,0x0,r37; br.call.sptk.many	b0,fn400000000001BE40; }
	{ adds	r1,0x0,r45; nop.m	0x0; nop.i	0x0 }

l40000000000CEAE0:
	{ nop.m	0x0; mov.i	ar.pfs,r44; mov.spnt	b0,r43,40000000000CEAE0 }
	{ nop.m	0x0; adds	r12,0x200,r12; br.ret	b0 }

l40000000000CEB00:
	{ nop.m	0x0; sxt4	r39,r33; addl	r47,-7540,r1 }
	{ cmp4.eq.or.andcm	p10,p11,0x23,r35; addl	r48,9,r0; (p10) br.cond.spnt.few	40000000000CE9E0; }

l40000000000CEB20:
	{ add	r36,r34,r39; ld8	r47,[r47]; nop.i	0x0; }
	{ adds	r46,0x0,r36; nop.i	0x0; br.call.sptk.many	b0,fn400000000001C020; }
	{ adds	r1,0x0,r45; cmp4.eq	p07,p06,0x0,r8; (p06) br.cond.dptk.few	40000000000CECE0 }

l40000000000CEB50:
	{ adds	r15,0x9,r39; add	r15,r34,r15; nop.i	0x0; }
	{ ld1	r14,[r15]; nop.m	0x0; sxt1	r14,r14; }
	{ cmp4.eq	p06,p07,0x0,r14; cmp4.eq	p08,p09,0x20,r14; (p06) br.cond.dpnt.few	40000000000CF150; }

l40000000000CEB80:
	{ cmp4.eq	p06,p07,0x9,r14; (p08) cmp.eq.unc	p10,p00,r0,r0; (p09) cmp.eq.unc	p11,p00,r0,r0; }

l40000000000CEB8C:
	{ Invalid; Invalid; Invalid; }

l40000000000CEB90:
	{ nop.m	0x0; (p06) cmp4.eq.or.andcm	p10,p11,0x0,r0; (p11) br.cond.dpnt.few	40000000000CF170; }

l40000000000CEBA0:
	{ adds	r15,0x1,r15; nop.m	0x0; nop.i	0x0; }

l40000000000CEBB0:
	{ adds	r16,0x0,r15; ld1	r14,[r15],1; nop.i	0x0; }
	{ nop.m	0x0; sxt1	r14,r14; cmp4.eq	p10,p11,0x0,r14 }
	{ cmp4.eq	p06,p07,0x9,r14; cmp4.eq	p08,p09,0x20,r14; (p10) br.cond.dpnt.few	40000000000CF130; }

l40000000000CEBE0:
	{ (p06) cmp.eq.unc	p10,p00,r0,r0; nop.m	0x0; (p07) cmp.eq.unc	p11,p00,r0,r0; }

l40000000000CEBE6:
	{ addp4	r0,0xFFFFFFFFFFFFE000,r1; (p37) nop; break.i	0x80000 }

l40000000000CEBF0:
	{ nop.m	0x0; (p08) cmp4.eq.or.andcm	p10,p11,0x0,r0; (p10) br.cond.dptk.few	40000000000CEBB0 }

l40000000000CEC00:
	{ adds	r46,0x0,r16; nop.m	0x0; nop.i	0x0; }

l40000000000CEC10:
	{ cmp4.eq	p10,p11,0xA,r14; nop.m	0x0; adds	r16,0x0,r46; }
	{ nop.m	0x0; cmp4.eq.or.andcm	p10,p11,0xD,r14; (p10) br.cond.dptk.few	40000000000CEC90 }

l40000000000CEC30:
	{ nop.m	0x0; (p08) cmp4.eq.or.andcm	p06,p07,0x0,r0; (p06) br.cond.dptk.few	40000000000CF140 }

l40000000000CEC40:
	{ adds	r17,0x1,r46; nop.m	0x0; nop.i	0x0; }

l40000000000CEC50:
	{ adds	r16,0x0,r17; ld1	r14,[r17],1; nop.i	0x0; }
	{ nop.m	0x0; sxt1	r14,r14; cmp4.eq	p06,p07,0xD,r14 }
	{ cmp4.eq	p09,p08,0x9,r14; cmp4.eq	p11,p10,0x0,r14; (p11) br.cond.dpnt.few	40000000000CEC90; }

l40000000000CEC80:
	{ nop.m	0x0; cmp4.eq.or.andcm	p06,p07,0xA,r14; (p07) br.cond.dptk.few	40000000000CECB0 }

l40000000000CEC90:
	{ st1	[r0],r16; nop.i	0x0; br.call.sptk.many	b0,fn40000000000CE980; }
	{ nop.m	0x0; adds	r1,0x0,r45; br.cond.sptk.few	40000000000CE9E0 }

l40000000000CECB0:
	{ nop.m	0x0; cmp4.eq.or.andcm	p09,p08,0x20,r14; (p08) br.cond.dptk.few	40000000000CEC50 }

l40000000000CECC0:
	{ st1	[r0],r16; nop.i	0x0; br.call.sptk.many	b0,fn40000000000CE980; }
	{ nop.m	0x0; adds	r1,0x0,r45; br.cond.sptk.few	40000000000CE9E0 }

l40000000000CECE0:
	{ adds	r14,0xFFFFFFFFFFFFFFD0,r35; nop.m	0x0; zxt1	r14,r14; }
	{ cmp4.ltu	p07,p06,0x9,r14; ld1	r14,[r36]; nop.i	0x0; }
	{ nop.m	0x0; sxt1	r14,r14; (p07) br.cond.dptk.few	40000000000CEDC0; }

l40000000000CED10:
	{ cmp4.eq	p07,p06,0x0,r14; nop.i	0x0; (p07) br.cond.dpnt.few	40000000000CEDC0; }

l40000000000CED20:
	{ nop.m	0x0; cmp4.eq	p06,p07,0xD,r14; nop.i	0x0; }
	{ nop.m	0x0; cmp4.eq.or.andcm	p06,p07,0xA,r14; (p06) br.cond.dptk.few	40000000000CEDC0; }

l40000000000CED40:
	{ nop.m	0x0; cmp4.eq	p06,p07,0x20,r14; nop.i	0x0; }
	{ nop.m	0x0; cmp4.eq.or.andcm	p06,p07,0x9,r14; (p06) br.cond.dptk.few	40000000000CEDC0 }

l40000000000CED60:
	{ adds	r33,0x1,r33; nop.m	0x0; sxt4	r14,r33; }
	{ add	r14,r34,r14; ld1	r14,[r14]; nop.i	0x0; }
	{ nop.m	0x0; sxt1	r14,r14; cmp4.eq	p08,p09,0xD,r14 }
	{ cmp4.eq	p06,p07,0x20,r14; cmp4.eq	p11,p10,0x0,r14; (p11) br.cond.dpnt.few	40000000000CEDC0; }

l40000000000CEDA0:
	{ nop.m	0x0; cmp4.eq.or.andcm	p08,p09,0xA,r14; (p08) br.cond.dptk.few	40000000000CEDC0 }

l40000000000CEDB0:
	{ nop.m	0x0; cmp4.eq.or.andcm	p06,p07,0x9,r14; (p07) br.cond.dptk.few	40000000000CED60; }

l40000000000CEDC0:
	{ nop.m	0x0; cmp4.eq	p06,p07,0x0,r14; (p06) br.cond.dpnt.few	40000000000CE9E0; }

l40000000000CEDD0:
	{ nop.m	0x0; nop.m	0x0; nop.i	0x0 }

l40000000000CEDE0:
	{ cmp4.eq	p06,p07,0xD,r14; nop.m	0x0; cmp4.eq	p08,p09,0x20,r14; }
	{ nop.m	0x0; cmp4.eq.or.andcm	p06,p07,0xA,r14; (p06) br.cond.dptk.few	40000000000CEE10 }

l40000000000CEE00:
	{ nop.m	0x0; cmp4.eq.or.andcm	p08,p09,0x9,r14; (p09) br.cond.spnt.few	40000000000CEE40 }

l40000000000CEE10:
	{ adds	r33,0x1,r33; nop.m	0x0; sxt4	r14,r33; }
	{ add	r14,r34,r14; ld1	r14,[r14]; nop.i	0x0; }
	{ nop.m	0x0; sxt1	r14,r14; br.cond.sptk.few	40000000000CEDE0; }

l40000000000CEE40:
	{ cmp4.eq	p08,p09,0x0,r14; adds	r15,0x0,r33; cmp4.eq	p07,p06,0x0,r14; }
	{ cmp4.eq.or.andcm	p08,p09,0x23,r14; (p08) br.cond.dpnt.few	40000000000CE9E0; (p07) br.cond.dpnt.few	40000000000CE9E0 }

l40000000000CEE5C:
	{ (p28) nop; zxt1	r32,r64; nop }

l40000000000CEE60:
	{ adds	r33,0x1,r33; nop.m	0x0; sxt4	r35,r33; }
	{ add	r14,r34,r35; ld1	r14,[r14]; nop.i	0x0; }
	{ nop.m	0x0; sxt1	r14,r14; cmp4.eq	p07,p06,0xA,r14 }
	{ cmp4.eq	p08,p09,0x20,r14; cmp4.eq	p11,p10,0x0,r14; (p11) br.cond.dpnt.few	40000000000CEEC0; }

l40000000000CEEA0:
	{ nop.m	0x0; cmp4.eq.or.andcm	p07,p06,0xD,r14; (p07) br.cond.dptk.few	40000000000CEEC0 }

l40000000000CEEB0:
	{ nop.m	0x0; cmp4.eq.or.andcm	p08,p09,0x9,r14; (p09) br.cond.dptk.few	40000000000CEE60; }

l40000000000CEEC0:
	{ sub	r16,r33,r15; cmp4.eq	p06,p07,r33,r15; sxt4	r47,r15 }
	{ addl	r49,256,r0; adds	r46,0x10,r12; (p06) br.cond.spnt.few	40000000000CEDC0; }

l40000000000CEEE0:
	{ nop.m	0x0; sxt4	r36,r16; add	r47,r34,r47 }
	{ nop.m	0x0; addl	r39,8004,r1; nop.b	0x0; }
	{ adds	r48,0x0,r36; nop.i	0x0; br.call.sptk.many	b0,fn400000000001BA80; }
	{ adds	r17,0x10,r12; ld4	r14,[r38]; adds	r1,0x0,r45 }
	{ adds	r46,0x10,r12; ld4	r15,[r41]; nop.i	0x0; }
	{ add	r16,r17,r36; adds	r36,0x1,r14; sxt4	r14,r14; }
	{ nop.m	0x0; cmp4.lt	p07,p06,r36,r15; nop.i	0x0 }
	{ st1	[r0],r16; nop.m	0x0; (p06) br.cond.dpnt.few	40000000000CF010; }

l40000000000CEF60:
	{ (p07) ld8	r8,[r40]; nop.m	0x0; add	r35,r34,r35; }

l40000000000CEF66:
	{ add	r0,r0,r1; (p17) nop; (p32) nop }
	{ break.m	0x4000; (p32) nop; (p16) nop }
	{ Invalid; (p32) nop; (p16) nop }
	{ break.m	0x4000; (p23) nop; (p48) nop }
	{ break.m	0x4000; (p32) nop; break.i	0x80000 }
	{ Invalid; (p07) nop; nop }
	{ Invalid; nop; (p32) nop }
	{ mf.a; Invalid; (p32) nop }
	{ break.m	0x4000; (p07) nop; break.i	0x80000 }

l40000000000CEFF0:
	{ nop.m	0x0; cmp4.eq	p06,p07,0x0,r14; (p07) br.cond.dptk.few	40000000000CEDE0 }

l40000000000CF000:
	{ nop.m	0x0; nop.i	0x0; br.cond.sptk.few	40000000000CE9E0 }

l40000000000CF010:
	{ nop.m	0x0; adds	r14,0x20,r15; extr.u	r16,r15,31,1 }
	{ addl	r39,8004,r1; ld8	r46,[r40]; add	r35,r34,r35; }
	{ nop.m	0x0; extr.u	r16,r16,59,5; add	r15,r15,r16; }
	{ and	r15,0x1F,r15; sub	r16,r15,r16; nop.i	0x0; }
	{ sub	r14,r14,r16; nop.m	0x0; adds	r47,0x0,r14 }
	{ nop.m	0x0; st4	[r14],r41; br.call.sptk.many	b0,strvec_resize; }
	{ nop.m	0x0; adds	r1,0x0,r45; adds	r46,0x10,r12 }
	{ st8	[r8],r40; addl	r14,8000,r1; nop.i	0x0; }
	{ ld4	r14,[r14]; adds	r36,0x1,r14; sxt4	r14,r14; }
	{ shladd	r42,r14,0x3,r8; nop.i	0x0; br.call.sptk.many	b0,fn400000000001B6C0; }
	{ adds	r1,0x0,r45; adds	r46,0x1,r8; br.call.sptk.many	b0,xmalloc; }
	{ adds	r1,0x0,r45; nop.m	0x0; adds	r46,0x0,r8 }
	{ adds	r47,0x10,r12; nop.m	0x0; br.call.sptk.many	b0,fn400000000001B180; }
	{ nop.m	0x0; ld8	r14,[r39]; sxt4	r15,r36 }
	{ st8	[r8],r42; st4	[r36],r38; adds	r1,0x0,r45; }
	{ shladd	r14,r15,0x3,r14; st8	[r0],r14; nop.i	0x0; }
	{ nop.m	0x0; ld1	r14,[r35]; nop.i	0x0; }
	{ nop.m	0x0; sxt1	r14,r14; br.cond.sptk.few	40000000000CEFF0 }

l40000000000CF130:
	{ adds	r46,0x0,r16; nop.m	0x0; nop.i	0x0; }

l40000000000CF140:
	{ nop.m	0x0; adds	r16,0x0,r46; br.cond.sptk.few	40000000000CEC90 }

l40000000000CF150:
	{ nop.m	0x0; adds	r46,0x0,r15; nop.i	0x0; }
	{ nop.m	0x0; adds	r16,0x0,r46; br.cond.sptk.few	40000000000CEC90 }

l40000000000CF170:
	{ nop.m	0x0; adds	r46,0x0,r15; br.cond.sptk.few	40000000000CEC10; }

;; fn40000000000CF180: 40000000000CF180
;;   Called from:
;;     40000000000D6D9C (in get_hostname_list)
fn40000000000CF180 proc
	{ alloc	r33,ar.pfs,0x4,0x0,0x3; addl	r35,-7524,r1; mov	r32,b0 }
	{ nop.m	0x0; adds	r34,0x0,r1; nop.i	0x0; }
	{ ld8	r35,[r35]; nop.i	0x0; br.call.sptk.many	b0,get_string_value; }
	{ cmp.eq	p07,p06,0x0,r8; nop.m	0x0; adds	r1,0x0,r34 }
	{ adds	r35,0x0,r8; nop.m	0x0; (p07) br.cond.dpnt.few	40000000000CF230; }

l40000000000CF1D0:
	{ nop.m	0x0; nop.i	0x0; br.call.sptk.many	b0,fn40000000000CE980; }
	{ adds	r1,0x0,r34; nop.m	0x0; mov.i	ar.pfs,r33; }
	{ addl	r15,8004,r1; addl	r14,7780,r1; mov.spnt	b0,r32,40000000000CF1F0; }
	{ ld8	r15,[r15]; cmp.eq	p06,p07,0x0,r15; nop.i	0x0; }
	{ (p07) ld4	r15,[r14]; (p07) adds	r15,0x1,r15; nop.i	0x0; }

l40000000000CF216:
	{ Invalid; cmp.eq	p00,p00,r0,r1; (p01) br.call.spnt.many	b0,b3; }

l40000000000CF21C:
	{ Invalid; Invalid; add	r0,r32,r0 }

l40000000000CF226:
	{ break.m	0x4000; (p34) nop; break.i	0x80000 }

l40000000000CF230:
	{ nop.m	0x0; addl	r35,-7516,r1; nop.i	0x0; }
	{ ld8	r35,[r35]; nop.i	0x0; br.call.sptk.many	b0,get_string_value; }
	{ adds	r1,0x0,r34; cmp.eq	p06,p07,0x0,r8; (p06) addl	r8,-7532,r1; }

l40000000000CF260:
	{ nop.m	0x0; (p06) ld8	r8,[r8]; nop.i	0x0; }

l40000000000CF26C:
	{ ldfps	f0,f1,[r0]; zxt1	r0,r64; break.i	0x1000 }
	{ (p56) nop; invala; break.b	0x1000 }
	{ (p16) cmp.eq.unc	p00,p09,r42,r0; (p01) cmp.lt	p49,p18,r64,r15; (p01) nop }
	{ (p16) cmp.eq	p01,p11,r64,r3; (p01) cmp.lt.unc	p32,p08,r3,r6; czx1.r	r96,r65 }
	{ cmp4.eq.or.andcm	p00,p43,r1,r0; (p01) cmp4.ne.or.andcm	p00,p40,r3,r4; zxt1	r96,r64 }

l40000000000CF2B6:
	{ Invalid; cmp4.eq	p00,p00,r0,r1; (p01) br.call.spnt.many	b0,b3; }

l40000000000CF2BC:
	{ Invalid; Invalid; add	r0,r32,r0 }

l40000000000CF2C6:
	{ break.m	0x4000; (p34) nop; break.i	0x80000 }
40000000000CF2D0 08 00 00 00 01 00 00 00 00 02 00 00 00 00 04 00 ................
40000000000CF2E0 08 00 00 00 01 00 00 00 00 02 00 00 00 00 04 00 ................
40000000000CF2F0 08 00 00 00 01 00 00 00 00 02 00 00 00 00 04 00 ................
40000000000CF300 10 60 4D 20 80 05 E0 02 00 66 00 00 00 00 00 20 .`M .....f..... 
40000000000CF310 09 38 B1 02 3E 24 60 00 84 0E 73 A0 05 08 00 84 .8..>$`...s.....
40000000000CF320 00 00 00 00 01 00 F0 02 04 65 00 00 00 00 04 00 .........e......
40000000000CF330 E9 28 01 4E 18 10 00 00 00 02 00 00 00 00 04 00 .(.N............
40000000000CF340 10 00 00 00 01 00 B0 02 00 62 80 03 20 02 00 42 .........b.. ..B
40000000000CF350 09 00 00 00 01 00 00 03 9C 30 20 00 00 00 04 00 .........0 .....
40000000000CF360 11 30 00 60 07 39 00 00 00 02 00 03 30 00 00 43 .0.`.9......0..C
40000000000CF370 11 00 00 00 01 00 00 00 00 02 00 00 78 B4 F4 58 ............x..X
40000000000CF380 09 08 00 5A 00 21 00 00 00 02 00 00 00 00 04 00 ...Z.!..........
40000000000CF390 08 70 00 40 00 10 00 C1 05 7C 48 40 44 0E F0 90 .p.@.....|H@D...
40000000000CF3A0 09 78 D0 02 3E 24 00 00 9C 30 23 00 00 00 04 00 .x..>$...0#.....
40000000000CF3B0 00 00 00 00 01 00 E0 00 38 28 00 00 00 00 04 00 ........8(......
40000000000CF3C0 02 00 00 1E 90 11 00 00 00 02 00 E0 00 74 18 E6 .............t..
40000000000CF3D0 0B 00 38 20 90 D1 E1 08 00 00 C8 03 12 00 00 90 ..8 ............
40000000000CF3E0 C9 70 00 00 00 E1 01 80 3C 20 23 00 00 00 04 00 .p......< #.....
40000000000CF3F0 09 00 81 1C 00 20 E0 00 88 20 20 00 00 00 04 00 ..... ...  .....
40000000000CF400 10 00 00 00 01 00 60 00 38 0E 73 03 B0 03 00 43 ......`.8.s....C
40000000000CF410 08 70 00 40 00 10 80 02 06 7C 48 00 06 00 01 84 .p.@.....|H.....
40000000000CF420 09 18 01 00 00 21 50 02 00 00 42 80 04 00 00 84 .....!P...B.....
40000000000CF430 00 00 00 00 01 00 E0 00 38 28 00 C0 04 00 00 84 ........8(......
40000000000CF440 19 00 00 00 01 00 20 02 00 00 42 00 00 00 00 20 ...... ...B.... 
40000000000CF450 11 30 00 1C 87 39 00 00 00 02 00 03 B0 03 00 43 .0...9.........C
40000000000CF460 11 00 00 00 01 00 00 00 00 02 00 00 68 C2 F4 58 ............h..X
40000000000CF470 08 08 00 5A 00 21 E0 00 A0 20 20 00 02 40 44 E6 ...Z.!...  ..@D.
40000000000CF480 11 00 00 00 01 00 A0 02 20 2C 00 00 00 00 00 20 ........ ,..... 
40000000000CF490 11 48 11 03 3E 24 70 00 38 0C 63 03 50 03 00 43 .H..>$p.8.c.P..C
40000000000CF4A0 11 00 00 00 01 00 00 00 00 02 00 08 00 02 00 42 ...............B
40000000000CF4B0 09 78 00 52 18 10 E0 00 80 00 20 00 00 00 04 00 .x.R...... .....
40000000000CF4C0 09 78 3C 46 00 20 00 00 00 02 00 00 02 70 50 00 .x<F. .......pP.
40000000000CF4D0 0B 88 01 1E 18 10 E0 00 C4 00 20 00 00 00 04 00 .......... .....
40000000000CF4E0 01 00 00 00 01 00 E0 00 38 28 00 00 00 00 04 00 ........8(......
40000000000CF4F0 10 00 00 00 01 00 70 80 38 0C F1 03 80 01 00 43 ......p.8......C
40000000000CF500 09 10 05 44 00 21 E0 00 A0 20 20 60 84 18 01 84 ...D.!...  `....
40000000000CF510 11 00 00 00 01 00 60 10 39 0E 61 03 90 FF FF 4A ......`.9.a....J
40000000000CF520 01 00 00 00 01 00 E0 00 90 2C 00 C0 00 20 1D E6 .........,... ..
40000000000CF530 09 00 00 00 01 C0 E1 70 94 24 40 00 00 00 04 00 .......p.$@.....
40000000000CF540 08 00 00 00 01 C0 01 00 38 30 23 C0 C1 0B F8 90 ........80#.....
40000000000CF550 0A 00 94 4E 98 11 00 00 38 20 23 00 00 00 04 00 ...N....8 #.....
40000000000CF560 11 18 F1 02 3E 24 60 00 94 0E 72 03 80 03 00 43 ....>$`...r....C
40000000000CF570 0B 78 00 46 10 10 00 00 00 02 00 C0 01 78 58 00 .x.F.........xX.
40000000000CF580 0B 28 39 4A 12 20 E0 00 94 30 20 00 00 00 04 00 .(9J. ...0 .....
40000000000CF590 11 30 00 1C 07 39 00 03 38 00 42 03 50 03 00 43 .0...9..8.B.P..C
40000000000CF5A0 11 00 00 00 01 00 00 00 00 02 00 00 28 C1 F4 58 ............(..X
40000000000CF5B0 11 08 00 5A 00 21 00 13 20 00 42 00 18 97 01 50 ...Z.!.. .B....P
40000000000CF5C0 08 08 00 5A 00 21 40 02 8C 20 20 40 04 40 00 84 ...Z.!@..  @.@..
40000000000CF5D0 09 00 00 00 01 00 E0 00 9C 30 20 00 00 00 04 00 .........0 .....
40000000000CF5E0 0B 78 E0 02 3E 24 00 01 3C 20 20 E0 41 0B F8 90 .x..>$..<  .A...
40000000000CF5F0 08 80 01 1E 10 10 00 00 00 02 00 E0 01 20 59 00 ............. Y.
40000000000CF600 09 00 40 10 80 11 00 00 00 02 00 80 14 20 01 84 ..@.......... ..
40000000000CF610 02 70 3C 1C 12 20 00 03 C0 2C 00 00 86 80 01 80 .p<.. ...,......
40000000000CF620 19 88 01 1C 18 10 00 00 00 02 00 00 68 BB F4 58 ............h..X
40000000000CF630 18 40 00 44 00 21 10 00 B4 00 42 00 00 00 00 20 .@.D.!....B.... 
40000000000CF640 09 00 90 46 90 11 00 00 00 02 00 E0 EF 82 7F 0B ...F............
40000000000CF650 03 00 00 00 01 00 00 60 01 55 00 00 F0 0A AA 00 .......`.U......
40000000000CF660 11 00 00 00 01 00 00 58 05 80 03 80 08 00 84 00 .......X........
40000000000CF670 11 80 01 40 00 21 20 03 A8 00 42 00 B8 C9 F4 58 ...@.! ...B....X
40000000000CF680 11 08 00 5A 00 21 60 00 20 0E F3 03 80 FE FF 4A ...Z.!`. ......J
40000000000CF690 08 00 00 00 01 00 00 00 00 02 00 00 00 00 04 00 ................
40000000000CF6A0 09 70 FC 4D 3F 23 00 00 00 02 00 E0 01 20 59 00 .p.M?#....... Y.
40000000000CF6B0 11 38 90 1C 86 30 F0 78 94 24 40 03 70 00 00 43 .8...0.x.$@.p..C
40000000000CF6C0 03 70 00 52 18 10 40 0A 90 00 42 C0 E1 18 01 80 .p.R..@...B.....
40000000000CF6D0 09 00 00 00 01 00 E0 00 38 30 20 00 00 00 04 00 ........80 .....
40000000000CF6E0 08 00 38 1E 98 11 00 00 00 02 00 00 00 00 04 00 ..8.............
40000000000CF6F0 09 10 05 44 00 21 E0 00 A0 20 20 60 84 18 01 84 ...D.!...  `....
40000000000CF700 10 00 00 00 01 00 60 10 39 0E 61 03 A0 FD FF 4A ......`.9.a....J
40000000000CF710 10 00 00 00 01 00 00 00 00 02 00 00 10 FE FF 48 ...............H
40000000000CF720 00 00 00 00 01 00 E0 F8 99 00 29 E0 01 31 01 84 ..........)..1..
40000000000CF730 0B 80 01 4A 00 21 00 00 00 02 00 C0 81 77 0C 52 ...J.!.......w.R
40000000000CF740 0B 30 99 1C 00 20 60 7A 98 58 40 00 00 00 04 00 .0... `z.X@.....
40000000000CF750 0B 30 99 1C 05 20 60 7A 98 0A 40 00 00 00 04 00 .0... `z..@.....
40000000000CF760 11 88 01 4C 00 21 00 00 00 02 00 00 68 0A 06 50 ...L.!......h..P
40000000000CF770 08 70 00 52 18 10 50 02 20 00 42 E0 01 20 59 00 .p.R..P. .B.. Y.
40000000000CF780 02 08 00 5A 00 21 40 0A 90 00 42 C0 E1 18 01 80 ...Z.!@...B.....
40000000000CF790 0B 78 3C 4A 12 20 E0 00 38 30 20 00 00 00 04 00 .x<J. ..80 .....
40000000000CF7A0 10 00 38 1E 98 11 00 00 00 02 00 00 50 FF FF 48 ..8.........P..H
40000000000CF7B0 11 00 00 00 01 00 00 00 00 02 00 00 D8 F9 FF 58 ...............X
40000000000CF7C0 09 70 00 44 10 10 00 00 00 02 00 20 00 68 01 84 .p.D....... .h..
40000000000CF7D0 10 00 00 00 01 00 70 00 38 0C 73 03 40 FC FF 4A ......p.8.s.@..J
40000000000CF7E0 02 28 01 00 00 21 E0 E0 05 7C 48 00 00 00 04 00 .(...!...|H.....
40000000000CF7F0 18 00 94 4E 98 11 00 00 38 20 23 00 70 FD FF 48 ...N....8 #.p..H
40000000000CF800 0B 10 01 03 3E 24 00 03 88 20 20 00 00 00 04 00 ....>$...  .....
40000000000CF810 11 80 05 60 00 21 00 00 00 02 00 00 38 09 06 50 ...`.!......8..P
40000000000CF820 08 90 00 44 10 10 10 00 B4 00 42 A0 04 40 00 84 ...D......B..@..
40000000000CF830 0B 80 00 10 00 21 70 00 48 0C 63 20 F2 97 FC 8C .....!p.H.c ....
40000000000CF840 D1 70 00 00 00 21 10 89 00 10 40 03 70 00 00 43 .p...!....@.p..C
40000000000CF850 09 70 10 03 3E 24 00 00 00 02 00 00 10 09 AA 00 .p..>$..........
40000000000CF860 03 78 00 1C 18 10 00 00 00 02 00 C0 81 78 00 84 .x...........x..
40000000000CF870 08 00 00 00 01 00 00 00 00 02 00 00 00 00 04 00 ................
40000000000CF880 09 88 00 1E 18 10 F0 00 38 00 42 C0 81 70 00 84 ........8.B..p..
40000000000CF890 10 40 44 20 98 15 00 00 00 02 00 A0 F0 FF FF 48 .@D ...........H
40000000000CF8A0 03 00 00 00 01 00 E0 00 48 2C 00 C0 E1 00 48 80 ........H,....H.
40000000000CF8B0 0A 70 94 1C 00 20 00 00 38 30 23 C0 C1 0B F8 90 .p... ..80#.....
40000000000CF8C0 09 00 00 00 01 00 00 28 9D 30 23 00 00 00 04 00 .......(.0#.....
40000000000CF8D0 10 00 00 1C 90 11 00 00 00 02 00 00 90 FC FF 48 ...............H
40000000000CF8E0 09 10 01 00 00 21 00 00 00 02 00 E0 EF 82 7F 0B .....!..........
40000000000CF8F0 03 40 00 44 00 21 00 60 01 55 00 00 F0 0A AA 00 .@.D.!.`.U......
40000000000CF900 11 00 00 00 01 00 00 58 05 80 03 80 08 00 84 00 .......X........
40000000000CF910 08 00 00 00 01 00 00 00 00 02 00 00 00 00 04 00 ................
40000000000CF920 08 00 00 00 01 00 00 00 00 02 00 00 00 00 04 00 ................
40000000000CF930 08 00 00 00 01 00 00 00 00 02 00 00 00 00 04 00 ................
40000000000CF940 08 38 2D 12 80 05 60 00 84 0E 73 C0 04 00 C4 00 .8-...`...s.....
40000000000CF950 0B 40 01 02 00 E1 41 E2 04 7C 48 00 00 00 04 00 .@....A..|H.....
40000000000CF960 F0 40 00 48 18 10 00 00 00 02 80 03 F0 01 00 42 .@.H...........B
40000000000CF970 0B 18 11 02 3E 24 90 02 8C 30 20 00 00 00 04 00 ....>$...0 .....
40000000000CF980 11 30 00 52 07 39 00 00 00 02 00 03 30 00 00 43 .0.R.9......0..C
40000000000CF990 11 00 00 00 01 00 00 00 00 02 00 00 58 AE F4 58 ............X..X
40000000000CF9A0 09 08 00 50 00 21 00 00 00 02 00 00 00 00 04 00 ...P.!..........
40000000000CF9B0 08 70 00 40 00 10 F0 80 04 7C 48 40 C4 08 F8 90 .p.@.....|H@....
40000000000CF9C0 0A 20 71 02 3E 24 00 00 00 02 00 C0 01 70 50 00 . q.>$.......pP.
40000000000CF9D0 09 00 00 00 01 00 00 00 88 20 23 00 00 00 04 00 ......... #.....
40000000000CF9E0 09 38 90 1C 86 39 00 70 3C 20 23 00 00 00 04 00 .8...9.p< #.....
40000000000CF9F0 E9 48 05 00 00 E4 E1 08 00 00 C8 E3 11 00 00 90 .H..............
40000000000CFA00 C9 48 01 00 00 E1 01 70 88 20 23 E3 01 00 00 84 .H.....p. #.....
40000000000CFA10 0B 48 81 52 00 20 E0 00 A4 00 20 00 00 00 04 00 .H.R. .... .....
40000000000CFA20 03 00 00 00 01 00 E0 00 38 28 00 E0 B0 77 18 E6 ........8(...w..
40000000000CFA30 E2 78 04 1E 00 21 00 00 00 02 80 23 05 78 58 00 .x...!.....#.xX.
40000000000CFA40 09 00 00 00 01 C0 01 78 88 20 23 00 00 00 04 00 .......x. #.....
40000000000CFA50 F1 48 81 52 00 20 00 00 00 02 00 00 78 BC F4 58 .H.R. ......x..X
40000000000CFA60 11 08 00 50 00 21 90 0A 20 00 42 00 68 92 01 50 ...P.!.. .B.h..P
40000000000CFA70 09 50 01 44 10 10 10 00 A0 00 42 20 05 40 00 84 .P.D......B .@..
40000000000CFA80 01 00 00 00 01 00 A0 02 A8 2C 00 00 00 00 04 00 .........,......
40000000000CFA90 11 50 81 54 00 20 00 00 00 02 00 00 F8 B6 F4 58 .P.T. .........X
40000000000CFAA0 08 08 00 50 00 21 20 02 20 00 42 00 00 00 04 00 ...P.! . .B.....
40000000000CFAB0 19 48 01 10 00 21 00 40 8C 30 23 00 18 BC F4 58 .H...!.@.0#....X
40000000000CFAC0 09 08 00 50 00 21 90 02 90 30 20 00 00 00 04 00 ...P.!...0 .....
40000000000CFAD0 09 70 50 02 3E 24 00 00 00 02 00 C0 00 48 1D E4 .pP.>$.......H..
40000000000CFAE0 13 00 20 1C 90 91 01 18 00 80 21 00 A8 08 06 50 .. .......!....P
40000000000CFAF0 03 08 00 50 00 21 00 00 00 02 00 C0 41 08 F8 90 ...P.!......A...
40000000000CFB00 09 10 01 1C 18 10 00 00 00 02 00 00 00 00 04 00 ................
40000000000CFB10 11 48 01 44 00 21 00 00 00 02 00 00 F8 5F F9 58 .H.D.!......._.X
40000000000CFB20 09 08 00 50 00 21 00 40 90 30 23 00 00 00 04 00 ...P.!.@.0#.....
40000000000CFB30 09 00 00 00 01 00 E0 20 05 7C 48 00 00 00 04 00 ....... .|H.....
40000000000CFB40 08 00 00 1C 90 11 00 00 00 02 00 00 00 00 04 00 ................
40000000000CFB50 11 18 91 02 3E 24 60 00 20 0E 72 03 10 02 00 43 ....>$`. .r....C
40000000000CFB60 0B 78 00 46 10 10 00 00 00 02 00 C0 01 78 58 00 .x.F.........xX.
40000000000CFB70 0B 40 38 10 12 20 90 02 20 30 20 00 00 00 04 00 .@8.. .. 0 .....
40000000000CFB80 11 30 00 52 07 39 00 00 00 02 00 03 E0 01 00 43 .0.R.9.........C
40000000000CFB90 11 00 00 00 01 00 00 00 00 02 00 00 38 BB F4 58 ............8..X
40000000000CFBA0 11 08 00 50 00 21 90 22 20 00 42 00 28 91 01 50 ...P.!." .B.(..P
40000000000CFBB0 03 08 00 50 00 21 20 02 20 00 42 C0 C1 08 F8 90 ...P.! . .B.....
40000000000CFBC0 09 00 00 00 01 00 90 02 38 20 20 00 00 00 04 00 ........8  .....
40000000000CFBD0 11 00 00 00 01 00 60 00 A4 0E 73 03 B0 00 00 42 ......`...s....B
40000000000CFBE0 08 70 40 02 3E 24 50 02 8C 20 20 E0 20 48 19 E6 .p@.>$P..  . H..
40000000000CFBF0 11 00 00 00 01 00 90 02 A4 2C 00 00 00 00 00 20 .........,..... 
40000000000CFC00 01 70 00 1C 10 10 F0 00 94 2C 00 20 85 48 01 80 .p.......,. .H..
40000000000CFC10 08 00 00 00 01 00 00 70 20 00 23 00 00 00 04 00 .......p .#.....
40000000000CFC20 19 70 00 48 18 10 00 00 00 02 80 03 C0 00 00 43 .p.H...........C
40000000000CFC30 09 70 3C 1C 12 20 00 00 00 02 00 A0 14 28 01 84 .p<.. .......(..
40000000000CFC40 11 50 01 1C 18 10 00 00 00 02 00 00 48 B5 F4 58 .P..........H..X
40000000000CFC50 08 08 00 50 00 21 00 28 8D 20 23 00 00 00 04 00 ...P.!.(. #.....
40000000000CFC60 09 40 00 44 00 21 00 00 00 02 00 00 70 02 AA 00 .@.D.!......p...
40000000000CFC70 10 00 00 00 01 00 00 30 05 80 03 80 08 00 84 00 .......0........
40000000000CFC80 08 00 00 00 01 00 50 02 8C 20 20 20 05 40 00 84 ......P..   .@..
40000000000CFC90 02 70 00 48 18 10 00 00 00 02 00 E0 01 28 59 00 .p.H.........(Y.
40000000000CFCA0 0B 28 05 4A 00 21 E0 78 38 24 40 00 00 00 04 00 .(.J.!.x8$@.....
40000000000CFCB0 11 50 01 1C 18 10 00 00 00 02 00 00 D8 B4 F4 58 .P.............X
40000000000CFCC0 08 00 00 00 01 00 10 00 A0 00 42 00 00 00 04 00 ..........B.....
40000000000CFCD0 18 00 94 46 90 11 00 00 00 02 00 00 90 FF FF 48 ...F...........H
40000000000CFCE0 10 00 00 00 01 00 F0 00 94 2C 00 00 00 00 00 20 .........,..... 
40000000000CFCF0 09 80 04 10 00 21 10 D9 03 00 48 20 25 40 00 84 .....!....H %@..
40000000000CFD00 09 70 3C 1C 12 20 00 88 40 00 23 A0 14 28 01 84 .p<.. ..@.#..(..
40000000000CFD10 11 50 01 1C 18 10 00 00 00 02 00 00 78 B4 F4 58 .P..........x..X
40000000000CFD20 11 08 00 50 00 21 90 02 88 00 42 00 A8 B9 F4 58 ...P.!....B....X
40000000000CFD30 09 70 F4 01 00 24 80 10 21 00 40 20 00 40 01 84 .p...$..!.@ .@..
40000000000CFD40 02 08 38 10 80 15 00 00 00 02 00 00 00 00 04 00 ..8.............
40000000000CFD50 18 00 00 10 80 11 00 28 8D 20 23 00 10 FF FF 48 .......(. #....H
40000000000CFD60 09 10 01 00 00 21 00 00 00 02 00 00 70 02 AA 00 .....!......p...
40000000000CFD70 11 40 00 44 00 21 00 30 05 80 03 80 08 00 84 00 .@.D.!.0........
40000000000CFD80 08 18 1D 0A 80 05 10 A2 F4 CF 4E 40 04 00 C4 00 ..........N@....
40000000000CFD90 0B 20 01 02 00 21 00 00 00 02 00 00 00 00 04 00 . ...!..........
40000000000CFDA0 11 28 01 42 00 21 10 82 84 00 42 00 A8 3A FE 58 .(.B.!....B..:.X
40000000000CFDB0 18 70 00 42 10 10 10 00 90 00 42 00 00 00 00 20 .p.B......B.... 
40000000000CFDC0 09 40 00 00 00 21 00 00 00 02 00 00 30 02 AA 00 .@...!......0...
40000000000CFDD0 08 00 00 00 01 00 60 00 38 0E 73 00 20 0A 00 07 ......`.8.s. ...
40000000000CFDE0 16 00 00 00 00 C8 01 08 00 80 21 80 08 00 84 00 ..........!.....
40000000000CFDF0 09 30 11 FB B6 27 00 00 00 02 00 A0 04 00 01 84 .0...'..........
40000000000CFE00 11 30 01 4C 18 10 00 00 00 02 00 00 08 A1 FF 58 .0.L...........X
40000000000CFE10 09 40 00 00 00 21 10 00 90 00 42 00 30 02 AA 00 .@...!....B.0...
40000000000CFE20 11 00 00 00 01 00 00 10 05 80 03 80 08 00 84 00 ................
40000000000CFE30 08 00 00 00 01 00 00 00 00 02 00 00 00 00 04 00 ................
40000000000CFE40 08 58 3D 1A 80 05 E0 00 88 00 20 40 05 00 C4 00 .X=....... @....
40000000000CFE50 0B 60 01 02 00 21 00 00 00 02 00 C0 01 70 50 00 .`...!.......pP.
40000000000CFE60 10 00 00 00 01 00 70 00 38 0C 73 03 00 02 00 42 ......p.8.s....B
40000000000CFE70 11 68 01 40 00 21 E0 52 00 00 48 00 58 77 06 50 .h.@.!.R..H.Xw.P
40000000000CFE80 09 70 00 44 00 10 70 00 20 0C 72 20 00 60 01 84 .p.D..p. .r .`..
40000000000CFE90 11 00 00 00 01 00 E0 00 38 28 80 03 D0 01 00 43 ........8(.....C
40000000000CFEA0 11 00 00 00 01 00 60 10 39 0E 73 03 C0 05 00 43 ......`.9.s....C
40000000000CFEB0 08 00 00 00 01 00 00 00 00 02 00 00 00 00 04 00 ................
40000000000CFEC0 08 00 00 00 01 00 E0 00 80 00 20 C0 20 08 1D E6 .......... . ...
40000000000CFED0 09 28 01 00 00 21 F0 08 00 00 48 60 24 00 00 90 .(...!....H`$...
40000000000CFEE0 01 00 00 00 01 00 E0 00 38 28 80 C3 04 00 00 84 ........8(......
40000000000CFEF0 D1 30 05 00 00 24 70 F0 3B 0C F3 03 E0 01 00 43 .0...$p.;......C
40000000000CFF00 09 20 01 40 00 21 00 00 00 02 00 C0 20 18 1D E6 . .@.!...... ...
40000000000CFF10 10 00 00 00 01 00 D0 02 90 00 42 03 30 02 00 43 ..........B.0..C
40000000000CFF20 11 30 0C 46 87 39 00 00 00 02 00 03 C0 04 00 43 .0.F.9.........C
40000000000CFF30 11 00 00 00 01 00 00 00 00 02 00 00 98 16 06 50 ...............P
40000000000CFF40 08 00 00 00 01 00 10 00 B0 00 42 60 04 40 00 84 ..........B`.@..
40000000000CFF50 11 30 80 48 07 38 D0 02 90 00 42 03 30 00 00 43 .0.H.8....B.0..C
40000000000CFF60 11 00 00 00 01 00 00 00 00 02 00 00 88 A8 F4 58 ...............X
40000000000CFF70 08 08 00 58 00 21 00 00 00 02 00 00 00 00 04 00 ...X.!..........
40000000000CFF80 03 38 00 46 06 39 D0 02 8C 00 42 C3 11 00 00 90 .8.F.9....B.....
40000000000CFF90 EB 70 00 00 00 21 E0 28 39 18 40 00 00 00 04 00 .p...!.(9.@.....
40000000000CFFA0 11 30 00 1C 87 39 00 00 00 02 80 03 C0 01 00 43 .0...9.........C
40000000000CFFB0 11 00 00 00 01 00 00 00 00 02 00 00 18 B7 F4 58 ...............X
40000000000CFFC0 09 68 05 10 00 21 10 00 B0 00 42 A0 04 40 00 84 .h...!....B..@..
40000000000CFFD0 00 00 00 00 01 00 D0 02 B4 2C 00 A0 04 28 59 00 .........,...(Y.
40000000000CFFE0 19 00 00 00 01 00 00 00 00 02 00 00 E8 8C 01 50 ...............P
40000000000CFFF0 08 08 00 58 00 21 40 02 20 00 42 00 00 00 04 00 ...X.!@. .B.....
40000000000D0000 19 70 01 46 00 21 D0 02 20 00 42 00 88 B1 F4 58 .p.F.!.. .B....X
40000000000D0010 09 30 00 4C 87 39 10 00 B0 00 42 A0 05 18 01 84 .0.L.9....B.....
40000000000D0020 EB 28 91 4A 00 E0 51 FA 97 7E 46 00 00 00 04 00 .(.J..Q..~F.....
40000000000D0030 F1 00 00 4A 80 11 00 00 00 02 00 00 B8 A7 F4 58 ...J...........X
40000000000D0040 09 40 00 48 00 21 10 00 B0 00 42 00 B0 02 AA 00 .@.H.!....B.....
40000000000D0050 10 00 00 00 01 00 00 50 05 80 03 80 08 00 84 00 .......P........
40000000000D0060 08 30 88 1C 87 39 00 00 00 02 00 A0 14 00 00 90 .0...9..........
40000000000D0070 19 78 00 00 00 21 00 00 00 02 00 03 80 04 00 43 .x...!.........C
40000000000D0080 08 00 00 00 01 00 60 38 39 0E 73 60 34 00 00 90 ......`89.s`4...
40000000000D0090 19 00 00 00 01 00 00 00 00 02 00 03 30 FE FF 4B ............0..K
40000000000D00A0 08 30 01 00 00 21 00 00 00 02 00 00 00 00 04 00 .0...!..........
40000000000D00B0 0B 70 00 40 00 10 00 00 00 02 00 C0 01 70 50 00 .p.@.........pP.
40000000000D00C0 11 00 00 00 01 00 70 F0 3B 0C 73 03 40 FE FF 4A ......p.;.s.@..J
40000000000D00D0 0B 30 04 42 87 B9 11 0A 00 00 48 00 00 00 04 00 .0.B......H.....
40000000000D00E0 EB 08 01 00 00 21 F0 78 84 18 40 00 00 00 04 00 .....!.x..@.....
40000000000D00F0 10 00 00 00 01 00 60 00 3C 0E 73 03 10 FE FF 4A ......`.<.s....J
40000000000D0100 11 68 01 40 00 21 E0 02 00 00 42 00 C8 1A F7 58 .h.@.!....B....X
40000000000D0110 09 20 01 10 00 21 10 00 B0 00 42 C0 20 18 1D E6 . ...!....B. ...
40000000000D0120 11 00 00 00 01 00 D0 02 90 00 C2 03 00 FE FF 4A ...............J
40000000000D0130 08 00 00 00 01 00 00 00 00 02 00 00 00 00 04 00 ................
40000000000D0140 11 00 00 00 01 00 00 00 00 02 00 00 C8 12 06 50 ...............P
40000000000D0150 11 08 00 58 00 21 30 02 20 00 42 00 00 FE FF 48 ...X.!0. .B....H
40000000000D0160 08 68 01 46 00 21 00 00 00 02 00 80 04 18 01 84 .h.F.!..........
40000000000D0170 19 48 71 01 00 24 00 00 00 02 00 00 58 B5 F4 58 .Hq..$......X..X
40000000000D0180 09 68 21 10 01 20 00 00 00 02 00 20 00 60 01 84 .h!.. ..... .`..
40000000000D0190 11 00 00 00 01 00 D0 02 B4 2C 00 00 38 8B 01 50 .........,..8..P
40000000000D01A0 09 70 01 46 00 10 10 00 B0 00 42 00 05 40 00 84 .p.F......B..@..
40000000000D01B0 01 00 00 00 01 00 E0 02 B8 28 00 E0 44 EA BB 9E .........(..D...
40000000000D01C0 09 00 00 00 01 00 60 00 B8 0E 73 00 00 00 04 00 ......`...s.....
40000000000D01D0 D1 28 01 10 00 21 00 00 00 02 00 03 B0 00 00 43 .(...!.........C
40000000000D01E0 08 28 01 10 00 21 70 02 9C 30 20 00 00 00 04 00 .(...!p..0 .....
40000000000D01F0 11 00 00 00 01 00 70 E0 BA 0C 73 03 60 01 00 42 ......p...s.`..B
40000000000D0200 09 78 00 4A 00 21 E0 08 90 00 42 A0 24 28 01 84 .x.J.!....B.$(..
40000000000D0210 09 08 B8 1E 80 15 00 00 00 02 00 80 04 70 00 84 .............p..
40000000000D0220 09 80 00 1C 00 10 00 00 00 02 00 80 14 20 01 84 ............. ..
40000000000D0230 0B 00 40 1E 80 11 E0 00 38 00 20 00 00 00 04 00 ..@.....8. .....
40000000000D0240 01 00 00 00 01 00 E0 00 38 28 00 00 00 00 04 00 ........8(......
40000000000D0250 11 30 00 1C 87 39 00 00 00 02 00 03 30 00 00 43 .0...9......0..C
40000000000D0260 0B 70 01 48 00 10 00 00 00 02 00 C0 05 70 51 00 .p.H.........pQ.
40000000000D0270 11 00 00 00 01 00 70 00 B8 0C 73 03 80 FF FF 4A ......p...s....J
40000000000D0280 08 68 01 46 00 21 00 00 94 00 23 60 04 40 01 84 .h.F.!....#`.@..
40000000000D0290 19 00 00 00 01 00 00 00 00 02 00 00 58 A5 F4 58 ............X..X
40000000000D02A0 11 68 01 46 00 21 10 00 B0 00 42 00 28 B4 F4 58 .h.F.!....B.(..X
40000000000D02B0 09 68 05 10 00 21 10 00 B0 00 42 A0 04 40 00 84 .h...!....B..@..
40000000000D02C0 00 00 00 00 01 00 D0 02 B4 2C 00 A0 04 28 59 00 .........,...(Y.
40000000000D02D0 19 00 00 00 01 00 00 00 00 02 00 00 F8 89 01 50 ...............P
40000000000D02E0 08 08 00 58 00 21 40 02 20 00 42 00 00 00 04 00 ...X.!@. .B.....
40000000000D02F0 19 70 01 46 00 21 D0 02 20 00 42 00 98 AE F4 58 .p.F.!.. .B....X
40000000000D0300 09 30 00 4C 87 39 10 00 B0 00 42 A0 05 18 01 84 .0.L.9....B.....
40000000000D0310 EB 28 91 4A 00 E0 51 FA 97 7E 46 00 00 00 04 00 .(.J..Q..~F.....
40000000000D0320 F1 00 00 4A 80 11 00 00 00 02 00 00 C8 A4 F4 58 ...J...........X
40000000000D0330 09 40 00 48 00 21 10 00 B0 00 42 00 B0 02 AA 00 .@.H.!....B.....
40000000000D0340 11 00 00 00 01 00 00 50 05 80 03 80 08 00 84 00 .......P........
40000000000D0350 11 68 01 4E 18 10 00 00 00 02 00 00 78 72 06 50 .h.N........xr.P
40000000000D0360 09 30 00 10 07 39 00 00 00 02 00 20 00 60 01 84 .0...9..... .`..
40000000000D0370 F0 08 A4 4A 80 15 70 20 8D 0C F0 03 90 00 00 43 ...J..p .......C
40000000000D0380 09 00 00 00 01 00 E0 00 90 00 20 00 00 00 04 00 .......... .....
40000000000D0390 08 08 38 4A 80 15 00 00 00 02 00 00 00 00 04 00 ..8J............
40000000000D03A0 0B 20 05 48 00 21 E0 02 90 00 20 00 00 00 04 00 . .H.!.... .....
40000000000D03B0 01 00 00 00 01 00 E0 02 B8 28 00 00 00 00 04 00 .........(......
40000000000D03C0 10 00 00 00 01 00 70 00 B8 0C 73 03 30 FE FF 4A ......p...s.0..J
40000000000D03D0 10 00 00 00 01 00 00 00 00 02 00 00 B0 FE FF 48 ...............H
40000000000D03E0 11 00 00 00 01 00 00 00 00 02 00 00 28 17 06 50 ............(..P
40000000000D03F0 11 08 00 58 00 21 30 02 20 00 42 00 60 FB FF 48 ...X.!0. .B.`..H
40000000000D0400 0B 70 00 46 00 10 00 00 00 02 00 C0 01 70 50 00 .p.F.........pP.
40000000000D0410 10 00 00 00 01 00 70 F0 3B 0C 73 03 70 FF FF 4A ......p.;.s.p..J
40000000000D0420 11 68 01 46 00 21 00 00 00 02 00 00 68 04 F7 58 .h.F.!......h..X
40000000000D0430 09 30 00 10 87 39 E0 00 90 80 20 20 00 60 01 84 .0...9....  .`..
40000000000D0440 EB 08 A4 4A 80 15 E0 00 90 00 22 00 00 00 04 00 ...J......".....
40000000000D0450 10 08 38 4A 80 15 00 00 00 02 00 00 50 FF FF 48 ..8J........P..H
40000000000D0460 0B 70 90 03 2D 24 00 00 00 02 00 00 00 00 04 00 .p..-$..........
40000000000D0470 09 00 00 00 01 00 E0 00 38 20 20 00 00 00 04 00 ........8  .....
40000000000D0480 11 00 00 00 01 00 70 00 38 0C 73 03 40 FA FF 4A ......p.8.s.@..J
40000000000D0490 E8 18 09 00 00 24 00 00 00 02 00 00 00 00 04 00 .....$..........
40000000000D04A0 08 70 00 40 00 10 00 00 00 02 00 C0 20 08 1D E6 .p.@........ ...
40000000000D04B0 09 78 04 00 00 24 00 00 00 02 00 A0 04 00 00 84 .x...$..........
40000000000D04C0 01 00 00 00 01 00 E0 00 38 28 00 C3 14 00 00 90 ........8(......
40000000000D04D0 F0 30 01 00 00 21 70 F0 3B 0C 73 03 30 FA FF 4A .0...!p.;.s.0..J
40000000000D04E0 10 00 00 00 01 00 00 00 00 02 00 00 F0 FB FF 48 ...............H
40000000000D04F0 0B 70 90 03 2D 24 00 00 00 02 00 00 00 00 04 00 .p..-$..........
40000000000D0500 0B 70 00 1C 10 10 70 00 38 0C 73 00 00 00 04 00 .p....p.8.s.....
40000000000D0510 10 00 00 00 01 C0 31 0A 00 00 C8 03 90 FF FF 4A ......1........J
40000000000D0520 0B 70 10 03 47 24 00 00 00 02 00 00 00 00 04 00 .p..G$..........
40000000000D0530 09 00 00 00 01 00 E0 00 38 20 20 00 00 00 04 00 ........8  .....
40000000000D0540 11 00 00 00 01 00 60 00 38 0E 73 03 60 00 00 43 ......`.8.s.`..C
40000000000D0550 08 00 00 00 01 00 E0 00 80 00 20 C0 20 08 1D E6 .......... . ...
40000000000D0560 09 78 04 00 00 24 50 02 00 00 42 60 14 00 00 90 .x...$P...B`....
40000000000D0570 01 00 00 00 01 00 E0 00 38 28 00 C3 14 00 00 90 ........8(......
40000000000D0580 F0 30 01 00 00 21 70 F0 3B 0C 73 03 80 F9 FF 4A .0...!p.;.s....J
40000000000D0590 10 00 00 00 01 00 00 00 00 02 00 00 40 FB FF 48 ............@..H
40000000000D05A0 08 68 01 40 00 21 E0 0A 01 00 48 00 00 00 04 00 .h.@.!....H.....
40000000000D05B0 19 28 05 00 00 24 30 1A 00 00 48 00 18 70 06 50 .(...$0...H..p.P
40000000000D05C0 08 38 00 10 06 39 00 00 00 02 00 20 00 60 01 84 .8...9..... .`..
40000000000D05D0 19 78 00 00 00 21 00 00 00 02 80 03 80 FF FF 4B .x...!.........K
40000000000D05E0 D1 00 00 44 80 11 60 02 00 00 42 00 D0 FA FF 48 ...D..`...B....H
40000000000D05F0 08 00 00 00 01 00 00 00 00 02 00 00 00 00 04 00 ................
40000000000D0600 08 10 19 08 80 05 C0 80 33 7E 46 20 04 00 C4 00 ........3~F ....
40000000000D0610 09 00 00 00 01 00 30 02 04 00 42 00 00 00 04 00 ......0...B.....
40000000000D0620 11 00 00 00 01 00 00 00 00 02 00 00 C8 AD F4 58 ...............X
40000000000D0630 09 70 40 18 00 21 F0 F8 02 00 48 20 00 18 01 84 .p@..!....H ....
40000000000D0640 09 20 01 1C 00 21 10 78 38 00 2B E0 21 61 00 84 . ...!.x8.+.!a..
40000000000D0650 08 00 00 00 01 00 00 40 38 00 23 00 00 00 04 00 .......@8.#.....
40000000000D0660 19 00 00 1E 80 11 00 00 00 02 00 00 A8 8C FE 58 ...............X
40000000000D0670 08 08 00 46 00 21 00 00 00 02 00 C0 00 40 1C E4 ...F.!.......@..
40000000000D0680 19 00 01 10 00 21 00 00 00 02 00 03 30 00 00 43 .....!......0..C
40000000000D0690 0B 70 00 10 00 10 00 00 00 02 00 C0 01 70 50 00 .p...........pP.
40000000000D06A0 10 00 00 00 01 00 60 00 38 0E F3 03 30 00 00 43 ......`.8...0..C
40000000000D06B0 02 40 00 00 00 21 00 10 01 55 00 00 10 0A 00 07 .@...!...U......
40000000000D06C0 19 00 00 00 01 00 C0 80 30 00 42 80 08 00 84 00 ........0.B.....
40000000000D06D0 11 20 01 10 00 21 00 00 00 02 00 00 F8 AF F4 58 . ...!.........X
40000000000D06E0 11 08 00 46 00 21 40 0A 20 00 42 00 E8 85 01 50 ...F.!@. .B....P
40000000000D06F0 08 08 00 46 00 21 00 00 00 02 00 A0 04 00 01 84 ...F.!..........
40000000000D0700 19 20 01 10 00 21 00 00 00 02 00 00 88 AA F4 58 . ...!.........X
40000000000D0710 11 08 00 46 00 21 40 02 20 00 42 00 58 BA F4 58 ...F.!@. .B.X..X
40000000000D0720 09 40 00 00 00 21 10 00 8C 00 42 00 20 02 AA 00 .@...!....B. ...
40000000000D0730 00 00 00 00 01 00 00 08 05 80 03 00 00 00 04 00 ................
40000000000D0740 19 60 40 18 00 21 00 00 00 02 00 80 08 00 84 00 .`@..!..........
40000000000D0750 08 00 00 00 01 00 00 00 00 02 00 00 00 00 04 00 ................
40000000000D0760 08 00 00 00 01 00 00 00 00 02 00 00 00 00 04 00 ................
40000000000D0770 08 00 00 00 01 00 00 00 00 02 00 00 00 00 04 00 ................
40000000000D0780 08 60 51 1C 80 05 C0 00 31 7E 46 80 84 0F 14 91 .`Q.....1~F.....
40000000000D0790 09 28 71 FB AE 27 60 A2 07 8A 48 A0 05 08 00 84 .(q..'`...H.....
40000000000D07A0 00 00 00 00 01 00 B0 02 00 62 00 C0 15 00 00 90 .........b......
40000000000D07B0 19 78 01 42 00 21 50 02 94 30 20 00 00 00 00 20 .x.B.!P..0 .... 
40000000000D07C0 09 00 00 00 01 00 00 00 00 02 00 00 00 00 04 00 ................
40000000000D07D0 09 70 00 48 10 10 90 02 94 20 20 00 00 00 04 00 .p.H.....  .....
40000000000D07E0 11 00 38 4C 90 11 00 00 00 02 00 00 48 A7 F4 58 ..8L........H..X
40000000000D07F0 0B 08 00 5A 00 21 E0 A0 F6 61 4F 00 00 00 04 00 ...Z.!...aO.....
40000000000D0800 0B 70 00 1C 18 10 E0 00 38 20 20 00 00 00 04 00 .p......8  .....
40000000000D0810 10 00 00 00 01 00 60 00 38 0E 73 03 A0 02 00 42 ......`.8.s....B
40000000000D0820 09 38 51 FB AD 27 00 00 00 02 00 C0 05 18 01 84 .8Q..'..........
40000000000D0830 11 38 01 4E 18 10 00 00 00 02 00 00 98 AE F4 58 .8.N...........X
40000000000D0840 11 08 00 5A 00 21 E0 42 20 00 42 00 88 84 01 50 ...Z.!.B .B....P
40000000000D0850 08 08 00 5A 00 21 80 02 20 00 42 C0 05 40 00 84 ...Z.!.. .B..@..
40000000000D0860 09 78 05 00 00 24 00 FB F3 FF 4F 40 06 18 01 84 .x...$....O@....
40000000000D0870 09 88 F1 FA C5 27 00 00 00 02 00 60 06 00 01 84 .....'.....`....
40000000000D0880 11 88 01 62 18 10 00 00 00 02 00 00 C8 BB F4 58 ...b...........X
40000000000D0890 0B 08 00 5A 00 21 E0 22 F6 8B 4F 00 00 00 04 00 ...Z.!."..O.....
40000000000D08A0 11 70 01 5C 18 10 00 00 00 02 00 00 08 B4 F4 58 .p.\...........X
40000000000D08B0 03 70 00 10 00 10 10 00 B4 00 42 C0 01 70 50 00 .p........B..pP.
40000000000D08C0 10 00 00 00 01 00 70 78 3B 0C F3 03 10 03 00 43 ......px;......C
40000000000D08D0 08 50 01 00 00 21 00 00 00 02 00 00 00 00 04 00 .P...!..........
40000000000D08E0 0B 70 90 FB B0 27 E0 00 38 30 20 00 00 00 04 00 .p...'..80 .....
40000000000D08F0 09 00 00 00 01 00 E0 00 38 30 20 00 00 00 04 00 ........80 .....
40000000000D0900 11 30 00 1C 07 39 00 00 00 02 00 03 40 00 00 43 .0...9......@..C
40000000000D0910 0A 78 20 1C 18 14 10 00 38 30 20 C0 F0 08 00 07 .x .....80 .....
40000000000D0920 19 00 00 00 01 00 00 00 00 02 00 00 68 00 80 10 ............h...
40000000000D0930 08 08 00 5A 00 21 00 00 00 02 00 00 00 00 04 00 ...Z.!..........
40000000000D0940 11 70 41 18 00 21 00 00 00 02 00 00 48 D3 F6 58 .pA..!......H..X
40000000000D0950 08 38 00 44 86 39 00 00 00 02 00 20 00 68 01 84 .8.D.9..... .h..
40000000000D0960 03 80 11 00 00 24 E0 02 A0 00 C2 E3 C5 EA 17 9F .....$..........
40000000000D0970 CB 78 D1 FA C5 E7 F1 02 BC 30 20 00 00 00 04 00 .x.......0 .....
40000000000D0980 D1 78 01 5E 18 10 00 00 00 02 00 00 88 59 02 50 .x.^.........Y.P
40000000000D0990 08 08 00 5A 00 21 00 00 00 02 00 00 05 40 00 84 ...Z.!.......@..
40000000000D09A0 19 70 41 18 00 21 00 00 00 02 00 00 68 D5 F6 58 .pA..!......h..X
40000000000D09B0 03 08 00 5A 00 21 E0 02 A8 00 42 C0 C1 EF BF 9E ...Z.!....B.....
40000000000D09C0 0B 70 00 1C 18 10 E0 00 38 30 20 00 00 00 04 00 .p......80 .....
40000000000D09D0 11 30 00 1C 07 39 00 00 00 02 00 03 40 00 00 43 .0...9......@..C
40000000000D09E0 0A 78 20 1C 18 14 10 00 38 30 20 C0 F0 08 00 07 .x .....80 .....
40000000000D09F0 19 00 00 00 01 00 00 00 00 02 00 00 68 00 80 10 ............h...
40000000000D0A00 08 08 00 5A 00 21 00 00 00 02 00 00 00 00 04 00 ...Z.!..........
40000000000D0A10 09 70 00 4C 10 10 F0 00 9C 30 20 00 00 00 04 00 .p.L.....0 .....
40000000000D0A20 09 00 38 48 90 11 00 00 00 02 00 C0 41 EF B7 9E ..8H........A...
40000000000D0A30 08 70 00 1C 18 10 00 00 3C 00 23 00 00 00 04 00 .p......<.#.....
40000000000D0A40 0B 00 A4 4A 90 11 00 00 38 20 23 C0 41 EF BF 9E ...J....8 #.A...
40000000000D0A50 0B 70 00 1C 18 10 00 00 38 20 23 C0 C1 EA BF 9E .p......8 #.....
40000000000D0A60 09 00 00 00 01 00 E0 00 38 30 20 00 00 00 04 00 ........80 .....
40000000000D0A70 11 00 00 1C 90 11 00 00 00 02 00 00 78 9B F4 58 ............x..X
40000000000D0A80 09 40 00 50 00 21 10 00 B4 00 42 00 C0 02 AA 00 .@.P.!....B.....
40000000000D0A90 00 00 00 00 01 00 00 58 05 80 03 00 00 00 04 00 .......X........
40000000000D0AA0 18 60 80 19 00 21 00 00 00 02 00 80 08 00 84 00 .`...!..........
40000000000D0AB0 09 00 00 00 01 00 70 A2 F6 5B 4F 00 00 00 04 00 ......p..[O.....
40000000000D0AC0 11 38 01 4E 18 10 00 00 00 02 00 00 E8 AC F4 58 .8.N...........X
40000000000D0AD0 09 00 00 00 01 00 10 00 B4 00 42 00 00 00 04 00 ..........B.....
40000000000D0AE0 11 70 01 4E 18 10 00 00 00 02 00 00 E8 7A FF 58 .p.N.........z.X
40000000000D0AF0 0B 08 00 5A 00 21 E0 A2 F7 89 4F 00 00 00 04 00 ...Z.!....O.....
40000000000D0B00 11 70 01 5C 18 10 00 00 00 02 00 00 C8 7A FF 58 .p.\.........z.X
40000000000D0B10 0B 08 00 5A 00 21 E0 E0 05 8E 48 00 00 00 04 00 ...Z.!....H.....
40000000000D0B20 0B 00 00 00 01 00 F0 00 38 20 20 00 00 00 04 00 ........8  .....
40000000000D0B30 09 00 00 00 01 00 F0 08 3C 00 42 00 00 00 04 00 ........<.B.....
40000000000D0B40 11 00 3C 1C 90 11 00 00 00 02 00 00 68 AC F4 58 ..<.........h..X
40000000000D0B50 11 08 00 5A 00 21 E0 02 8C 00 42 00 78 AB F4 58 ...Z.!....B.x..X
40000000000D0B60 11 08 00 5A 00 21 E0 0A 20 00 42 00 68 81 01 50 ...Z.!.. .B.h..P
40000000000D0B70 08 08 00 5A 00 21 00 00 00 02 00 C0 05 40 00 84 ...Z.!.......@..
40000000000D0B80 19 78 01 46 00 21 00 00 00 02 00 00 08 A6 F4 58 .x.F.!.........X
40000000000D0B90 03 08 00 5A 00 21 80 02 20 00 42 C0 45 EC 17 9F ...Z.!.. .B.E...
40000000000D0BA0 11 70 01 5C 18 10 00 00 00 02 00 00 08 B1 F4 58 .p.\...........X
40000000000D0BB0 03 70 00 10 00 10 10 00 B4 00 42 C0 01 70 50 00 .p........B..pP.
40000000000D0BC0 10 00 00 00 01 00 70 78 3B 0C 73 03 10 FD FF 4A ......px;.s....J
40000000000D0BD0 0B 70 04 10 00 21 E0 00 38 00 20 00 00 00 04 00 .p...!..8. .....
40000000000D0BE0 01 00 00 00 01 00 E0 00 38 28 00 00 00 00 04 00 ........8(......
40000000000D0BF0 10 00 00 00 01 00 70 70 3B 0C 73 03 E0 FC FF 4A ......pp;.s....J
40000000000D0C00 0B 40 08 10 00 21 A0 02 20 00 20 00 00 00 04 00 .@...!.. . .....
40000000000D0C10 03 00 00 00 01 00 A0 02 A8 28 00 C0 00 50 1D E6 .........(...P..
40000000000D0C20 09 00 00 00 01 80 A1 0A 00 00 48 00 00 00 04 00 ..........H.....
40000000000D0C30 11 00 00 00 01 C0 A1 02 00 00 42 00 B0 FC FF 48 ..........B....H
40000000000D0C40 09 80 10 08 80 05 00 00 00 02 00 60 C4 EC 17 9F ...........`....
40000000000D0C50 09 10 05 00 00 24 30 02 8C 30 20 00 00 00 04 00 .....$0..0 .....
40000000000D0C60 11 10 10 00 80 05 00 00 00 02 00 00 28 FB FF 48 ............(..H
40000000000D0C70 0D 00 00 00 01 00 00 00 00 00 00 00 00 00 04 00 ................
40000000000D0C80 10 20 21 0C 80 05 30 02 00 62 00 00 00 00 00 20 . !...0..b..... 
40000000000D0C90 09 28 01 02 00 21 60 02 80 00 42 E0 04 08 59 00 .(...!`...B...Y.
40000000000D0CA0 11 00 00 00 01 00 00 00 00 02 00 00 A8 62 06 50 .............b.P
40000000000D0CB0 08 30 80 10 07 38 20 02 20 00 42 00 00 00 04 00 .0...8 . .B.....
40000000000D0CC0 19 08 00 4A 00 21 60 02 20 00 42 03 60 00 00 43 ...J.!`. .B.`..C
40000000000D0CD0 11 00 00 00 01 00 00 00 00 02 00 00 F8 A9 F4 58 ...............X
40000000000D0CE0 11 08 00 4A 00 21 60 0A 20 00 42 00 E8 7F 01 50 ...J.!`. .B....P
40000000000D0CF0 08 08 00 4A 00 21 00 00 00 02 00 E0 04 10 01 84 ...J.!..........
40000000000D0D00 19 30 01 10 00 21 00 00 00 02 00 00 88 A4 F4 58 .0...!.........X
40000000000D0D10 09 00 00 00 01 00 10 00 94 00 42 40 04 40 00 84 ..........B@.@..
40000000000D0D20 09 40 00 44 00 21 00 00 00 02 00 00 40 02 AA 00 .@.D.!......@...
40000000000D0D30 11 00 00 00 01 00 00 18 05 80 03 80 08 00 84 00 ................
40000000000D0D40 08 80 51 24 80 05 60 62 F4 5D 4F E0 C4 ED B3 9E ..Q$..`b.]O.....
40000000000D0D50 09 80 70 FB C9 27 40 22 F5 5F 4F 60 44 EA C7 9E ..p..'@"._O`D...
40000000000D0D60 08 30 01 4C 18 10 80 A2 F6 93 4F C0 11 00 00 90 .0.L......O.....
40000000000D0D70 09 48 61 03 3D 24 50 62 F7 59 4F 40 44 EF B3 9E .Ha.=$Pb.YO@D...
40000000000D0D80 08 38 01 4E 18 10 00 70 A4 20 23 E0 05 00 C4 00 .8.N...p. #.....
40000000000D0D90 09 88 01 02 00 21 20 03 80 00 42 60 06 08 01 84 .....! ...B`....
40000000000D0DA0 09 80 00 20 18 10 40 02 90 30 20 00 00 00 04 00 ... ..@..0 .....
40000000000D0DB0 08 68 01 4C 18 10 00 80 98 30 23 00 C2 EA 27 9F .h.L.....0#...'.
40000000000D0DC0 0A 18 01 46 18 10 F0 00 9C 30 20 00 00 00 04 00 ...F.....0 .....
40000000000D0DD0 0A 40 01 50 18 10 00 01 40 30 20 E0 80 7A 18 E0 .@.P....@0 ..z..
40000000000D0DE0 0A 58 01 48 18 10 00 80 90 30 23 00 42 EC C3 9E .X.H.....0#.B...
40000000000D0DF0 09 28 01 4A 18 10 20 02 88 30 20 00 00 00 04 00 .(.J.. ..0 .....
40000000000D0E00 08 50 01 46 10 10 00 70 8C 20 A3 C3 41 EC BB 9E .P.F...p. ..A...
40000000000D0E10 0A 80 00 20 18 D0 E1 00 38 30 20 00 00 00 04 00 ... ....80 .....
40000000000D0E20 09 60 01 4A 18 10 00 00 94 30 23 00 00 00 04 00 .`.J.....0#.....
40000000000D0E30 08 00 00 00 01 00 E0 02 88 20 20 00 00 00 04 00 .........  .....
40000000000D0E40 09 00 00 20 90 11 00 00 88 20 23 00 00 00 04 00 ... ..... #.....
40000000000D0E50 F1 00 38 4E 98 11 00 00 00 02 00 00 B8 A6 F4 58 ..8N...........X
40000000000D0E60 18 08 00 62 00 21 00 00 A4 20 23 00 00 00 00 20 ...b.!... #.... 
40000000000D0E70 09 00 A0 4E 98 11 00 00 00 02 00 00 00 03 AA 00 ...N............
40000000000D0E80 09 00 B4 4C 98 11 00 60 95 30 23 00 F0 0A 00 07 ...L...`.0#.....
40000000000D0E90 09 00 AC 48 98 11 00 50 8D 20 23 00 00 00 04 00 ...H...P. #.....
40000000000D0EA0 11 00 B8 44 90 11 00 00 00 02 00 80 08 00 84 00 ...D............
40000000000D0EB0 08 00 00 00 01 00 00 00 00 02 00 00 00 00 04 00 ................
40000000000D0EC0 08 68 4D 1E 80 05 70 00 84 0C 73 A0 C4 0F F4 90 .hM...p...s.....
40000000000D0ED0 09 58 61 03 3D 24 30 E2 06 7A 48 C0 05 08 00 84 .Xa.=$0..zH.....
40000000000D0EE0 00 00 00 00 01 00 C0 02 00 62 00 E3 44 0F F4 90 .........b..D...
40000000000D0EF0 D9 10 91 03 3D A4 E1 60 07 7A 48 03 C0 02 00 42 ....=..`.zH....B
40000000000D0F00 08 70 00 56 10 10 00 00 00 02 00 E0 44 0F F4 90 .p.V........D...
40000000000D0F10 09 00 00 46 90 11 F0 00 94 20 20 00 00 00 04 00 ...F.....  .....
40000000000D0F20 0B 30 00 1C 87 F9 E1 20 F5 63 CF 03 12 00 00 90 .0..... .c......
40000000000D0F30 09 00 00 00 01 C0 E1 00 38 30 20 00 00 00 04 00 ........80 .....
40000000000D0F40 F1 00 40 1C 90 11 60 00 3C 0E F3 03 20 05 00 43 ..@...`.<... ..C
40000000000D0F50 11 00 00 00 01 00 00 00 00 02 00 00 78 A6 F4 58 ............x..X
40000000000D0F60 10 08 00 5C 00 21 70 00 20 0C F2 03 10 02 00 43 ...\.!p. ......C
40000000000D0F70 09 80 00 10 18 10 F0 00 00 00 42 C0 81 40 00 84 ..........B..@..
40000000000D0F80 11 38 00 20 06 39 10 09 3C 00 C2 03 D0 01 00 43 .8. .9..<......C
40000000000D0F90 09 00 00 00 01 00 00 41 38 30 28 00 00 00 04 00 .......A80(.....
40000000000D0FA0 11 00 00 00 01 00 70 00 40 0C F2 03 40 00 00 43 ......p.@...@..C
40000000000D0FB0 08 00 00 00 01 00 00 00 00 02 00 00 00 00 04 00 ................
40000000000D0FC0 09 80 20 1C 18 14 00 00 00 02 00 E0 01 88 00 84 .. .............
40000000000D0FD0 10 88 04 1E 00 21 70 00 40 0C 72 03 F0 FF FF 4A .....!p.@.r....J
40000000000D0FE0 10 00 00 00 01 00 F0 00 3C 2C 00 00 00 00 00 20 ........<,..... 
40000000000D0FF0 09 50 E1 11 3F 23 40 02 04 7C 48 00 C5 0F F4 90 .P..?#@..|H.....
40000000000D1000 09 48 3D 10 12 20 00 00 00 02 00 00 00 00 04 00 .H=.. ..........
40000000000D1010 08 00 00 00 01 00 00 00 00 02 00 00 00 00 04 00 ................
40000000000D1020 09 00 00 00 01 00 E0 C0 A7 32 2C 00 00 00 04 00 .........2,.....
40000000000D1030 11 78 01 1C 18 10 00 00 00 02 00 00 98 B0 F4 58 .x.............X
40000000000D1040 08 08 00 5C 00 21 60 02 20 00 42 C0 00 40 1C E4 ...\.!`. .B..@..
40000000000D1050 19 18 21 10 00 21 20 02 20 00 42 03 E0 00 00 43 ..!..! . .B....C
40000000000D1060 09 00 00 00 01 00 E0 00 20 30 20 00 00 00 04 00 ........ 0 .....
40000000000D1070 11 30 00 1C 07 39 00 00 00 02 00 03 C0 00 00 43 .0...9.........C
40000000000D1080 09 70 00 48 10 10 F0 02 9C 30 20 00 00 00 04 00 .p.H.....0 .....
40000000000D1090 08 00 00 00 01 00 00 00 00 02 00 00 00 00 04 00 ................
40000000000D10A0 09 78 04 1C 00 21 00 03 94 20 20 00 02 70 00 84 .x...!...  ..p..
40000000000D10B0 08 70 00 1E 00 21 00 00 00 02 00 C0 F0 80 1D C2 .p...!..........
40000000000D10C0 11 00 00 00 01 00 00 01 40 2C 80 03 70 02 00 43 ........@,..p..C
40000000000D10D0 10 00 00 00 01 00 F0 00 38 2C 00 00 00 00 00 20 ........8,..... 
40000000000D10E0 09 88 00 44 18 10 00 81 BC 24 40 40 04 18 01 84 ...D.....$@@....
40000000000D10F0 08 78 3C 5E 12 20 00 88 40 30 23 00 00 00 04 00 .x<^. ..@0#.....
40000000000D1100 09 00 38 48 90 11 00 00 00 02 00 60 84 18 01 84 ..8H.......`....
40000000000D1110 0B 00 00 1E 98 11 F0 00 88 30 20 00 00 00 04 00 .........0 .....
40000000000D1120 10 00 00 00 01 00 70 00 3C 0C 72 03 80 FF FF 4A ......p.<.r....J
40000000000D1130 11 78 01 4C 00 21 00 00 00 02 00 00 B8 96 F4 58 .x.L.!.........X
40000000000D1140 10 08 00 5C 00 21 70 50 A5 0C 70 03 E0 FE FF 4A ...\.!pP..p....J
40000000000D1150 09 00 00 00 01 00 E0 00 AC 20 20 00 00 00 04 00 .........  .....
40000000000D1160 10 00 00 00 01 00 60 00 38 0E 73 03 80 02 00 43 ......`.8.s....C
40000000000D1170 09 10 91 03 3D 24 00 00 00 02 00 E0 05 00 01 84 ....=$..........
40000000000D1180 11 00 80 44 98 11 00 00 00 02 00 00 48 A5 F4 58 ...D........H..X
40000000000D1190 03 08 00 5C 00 21 00 00 00 02 00 C0 C1 0E F4 90 ...\.!..........
40000000000D11A0 08 00 20 1C 90 11 00 00 00 02 00 00 00 00 04 00 .. .............
40000000000D11B0 08 00 00 00 01 00 30 E2 06 7A 48 00 00 00 04 00 ......0..zH.....
40000000000D11C0 09 30 01 1C 10 10 40 02 9C 30 20 00 00 00 04 00 .0....@..0 .....
40000000000D11D0 08 40 01 46 00 21 50 02 88 30 20 C0 04 30 59 00 .@.F.!P..0 ..0Y.
40000000000D11E0 19 00 00 00 01 00 60 00 90 0E 72 03 30 01 00 43 ......`...r.0..C
40000000000D11F0 08 00 00 00 01 00 00 00 00 02 00 00 00 00 04 00 ................
40000000000D1200 09 70 00 46 10 10 F0 02 94 00 42 20 06 30 01 84 .p.F......B .0..
40000000000D1210 01 00 00 00 01 00 F0 00 38 2C 00 40 14 70 00 84 ........8,.@.p..
40000000000D1220 0B 70 3C 48 12 20 00 03 38 30 20 00 00 00 04 00 .p<H. ..80 .....
40000000000D1230 11 38 00 60 06 39 00 00 00 02 80 03 E0 00 00 43 .8.`.9.........C
40000000000D1240 11 00 88 50 90 11 00 00 00 02 00 00 E8 AD F4 58 ...P...........X
40000000000D1250 10 08 00 5C 00 21 70 00 20 0C 73 03 B0 FF FF 4A ...\.!p. .s....J
40000000000D1260 03 00 00 00 01 00 E0 00 88 2C 00 C0 F1 77 FC 8C .........,...w..
40000000000D1270 09 00 00 00 01 00 40 72 90 24 40 00 00 00 04 00 ......@r.$@.....
40000000000D1280 11 78 01 48 18 10 00 00 00 02 00 00 48 A4 F4 58 .x.H........H..X
40000000000D1290 11 08 00 5C 00 21 F0 0A 20 00 42 00 38 7A 01 50 ...\.!.. .B.8z.P
40000000000D12A0 03 08 00 5C 00 21 F0 02 20 00 42 C0 C1 0D F4 90 ...\.!.. .B.....
40000000000D12B0 09 78 00 1C 10 10 E0 00 9C 30 20 00 00 00 04 00 .x.......0 .....
40000000000D12C0 03 00 00 00 01 00 F0 00 3C 2C 00 E0 F1 7F FC 8C ........<,......
40000000000D12D0 09 00 00 00 01 00 E0 78 38 24 40 00 00 00 04 00 .......x8$@.....
40000000000D12E0 11 80 01 1C 18 10 00 00 00 02 00 00 A8 9E F4 58 ...............X
40000000000D12F0 09 08 00 5C 00 21 00 00 00 02 00 00 D0 02 AA 00 ...\.!..........
40000000000D1300 10 00 00 00 01 00 00 60 05 80 03 80 08 00 84 00 .......`........
40000000000D1310 09 40 00 00 00 21 00 00 00 02 00 00 D0 02 AA 00 .@...!..........
40000000000D1320 10 00 00 00 01 00 00 60 05 80 03 80 08 00 84 00 .......`........
40000000000D1330 09 00 00 00 01 00 00 53 C0 00 42 00 00 00 04 00 .......S..B.....
40000000000D1340 11 00 C0 50 90 11 00 00 00 02 00 00 88 EE 05 50 ...P...........P
40000000000D1350 08 80 00 48 10 10 F0 02 20 00 42 20 00 70 01 84 ...H.... .B .p..
40000000000D1360 09 00 20 4E 98 11 10 01 88 30 20 40 04 18 01 84 .. N.....0 @....
40000000000D1370 01 70 04 20 00 21 00 01 40 2C 00 60 84 18 01 84 .p. .!..@,.`....
40000000000D1380 00 00 00 00 01 00 F0 00 38 2C 00 00 02 79 49 80 ........8,...yI.
40000000000D1390 19 00 00 00 01 00 00 70 90 20 23 00 00 00 00 20 .......p. #.... 
40000000000D13A0 09 78 3C 5E 12 20 00 88 40 30 23 00 00 00 04 00 .x<^. ..@0#.....
40000000000D13B0 0B 00 00 1E 98 11 F0 00 88 30 20 00 00 00 04 00 .........0 .....
40000000000D13C0 10 00 00 00 01 00 70 00 3C 0C 72 03 E0 FC FF 4A ......p.<.r....J
40000000000D13D0 10 00 00 00 01 00 00 00 00 02 00 00 60 FD FF 48 ............`..H
40000000000D13E0 08 70 00 02 3E 24 00 00 00 02 00 40 46 E8 CF 9E .p..>$.....@F...
40000000000D13F0 09 78 01 4E 18 10 00 00 00 02 00 20 86 00 00 90 .x.N....... ....
40000000000D1400 09 80 01 1C 10 10 20 03 C8 30 20 00 00 00 04 00 ...... ..0 .....
40000000000D1410 11 00 00 00 01 00 00 03 C0 2C 00 00 F8 AB F4 58 .........,.....X
40000000000D1420 03 08 00 5C 00 21 F0 02 80 00 42 40 44 0E F4 90 ...\.!....B@D...
40000000000D1430 11 00 80 44 98 11 00 00 00 02 00 00 98 A2 F4 58 ...D...........X
40000000000D1440 0B 08 00 5C 00 21 E0 60 07 7A 48 00 00 00 04 00 ...\.!.`.zH.....
40000000000D1450 10 00 20 1C 90 11 00 00 00 02 00 00 60 FD FF 48 .. .........`..H
40000000000D1460 11 78 01 4E 18 10 00 00 00 02 00 00 28 EF 05 50 .x.N........(..P
40000000000D1470 08 08 00 5C 00 21 00 00 9C 30 23 00 00 00 04 00 ...\.!...0#.....
40000000000D1480 0B 00 00 4A 90 11 E0 00 04 7C 48 00 00 00 04 00 ...J.....|H.....
40000000000D1490 11 00 00 1C 90 11 00 00 00 02 00 00 38 A1 F4 58 ............8..X
40000000000D14A0 10 08 00 5C 00 21 70 00 20 0C 72 03 D0 FA FF 4A ...\.!p. .r....J
40000000000D14B0 11 00 00 00 01 00 00 00 00 02 00 00 C0 FC FF 48 ...............H
40000000000D14C0 08 38 29 12 80 05 E0 E0 F6 59 4F 40 C4 EC BF 9E .8)......YO@....
40000000000D14D0 09 08 B1 FB AC 27 00 22 F5 5F 4F 00 05 08 00 84 .....'."._O.....
40000000000D14E0 00 70 00 1C 18 10 60 02 00 62 00 20 95 00 00 90 .p....`..b. ....
40000000000D14F0 0A 10 01 44 18 10 10 02 84 30 20 00 00 00 04 00 ...D.....0 .....
40000000000D1500 0A 00 01 40 18 10 F0 00 38 30 20 C0 C1 ED 27 9F ...@....80 ...'.
40000000000D1510 0A 28 01 44 18 10 E0 00 38 30 20 00 00 00 04 00 .(.D....80 .....
40000000000D1520 09 20 01 42 18 10 00 00 84 30 23 00 00 00 04 00 . .B.....0#.....
40000000000D1530 08 00 00 00 01 00 00 70 88 30 23 C0 41 EE 27 9F .......p.0#.A.'.
40000000000D1540 09 00 00 00 01 00 30 02 80 30 20 00 00 00 04 00 ......0..0 .....
40000000000D1550 0B 70 00 1C 18 10 70 70 3C 0C 70 C0 C1 EA 27 9F .p....pp<.p...'.
40000000000D1560 09 70 00 1C 18 10 00 00 00 02 80 23 F5 03 00 90 .p.........#....
40000000000D1570 11 00 38 40 98 11 00 00 00 02 00 00 98 92 F4 58 ..8@...........X
40000000000D1580 18 08 00 50 00 21 00 28 89 30 23 00 00 00 00 20 ...P.!.(.0#.... 
40000000000D1590 09 00 90 42 98 11 00 00 00 02 00 00 70 02 AA 00 ...B........p...
40000000000D15A0 11 00 8C 40 98 11 00 30 05 80 03 80 08 00 84 00 ...@...0........
40000000000D15B0 08 00 00 00 01 00 00 00 00 02 00 00 00 00 04 00 ................
40000000000D15C0 18 48 31 16 80 05 20 62 F6 5F 4F 00 00 00 00 20 .H1... b._O.... 
40000000000D15D0 09 18 B1 FB AC 27 40 22 F5 5F 4F 00 05 00 C4 00 .....'@"._O.....
40000000000D15E0 08 10 01 44 18 10 A0 02 04 00 42 60 05 00 01 84 ...D......B`....
40000000000D15F0 0B 18 01 46 18 10 40 02 90 30 20 00 00 00 04 00 ...F..@..0 .....
40000000000D1600 08 38 01 44 18 10 00 08 89 30 23 00 00 00 04 00 .8.D.....0#.....
40000000000D1610 09 30 01 46 18 10 00 00 8C 30 23 00 00 00 04 00 .0.F.....0#.....
40000000000D1620 11 28 01 48 18 10 00 00 00 02 00 00 E8 91 F4 58 .(.H...........X
40000000000D1630 18 08 00 54 00 21 00 38 89 30 23 00 00 00 00 20 ...T.!.8.0#.... 
40000000000D1640 09 00 98 46 98 11 00 00 00 02 00 00 90 02 AA 00 ...F............
40000000000D1650 11 00 94 48 98 11 00 40 05 80 03 80 08 00 84 00 ...H...@........
40000000000D1660 08 00 00 00 01 00 00 00 00 02 00 00 00 00 04 00 ................
40000000000D1670 08 00 00 00 01 00 00 00 00 02 00 00 00 00 04 00 ................
40000000000D1680 08 60 3D 1C 80 05 50 62 07 78 48 80 C4 EC BF 9E .`=...Pb.xH.....
40000000000D1690 09 10 91 FA AF 27 F0 60 F5 61 4F 60 C4 EE B3 9E .....'.`.aO`....
40000000000D16A0 18 70 00 4A 10 10 10 22 F5 5D 4F 00 00 00 00 20 .p.J...".]O.... 
40000000000D16B0 01 80 30 FA AD 27 B0 02 00 62 00 A0 05 08 00 84 ..0..'...b......
40000000000D16C0 08 30 00 1C 87 39 40 02 90 30 20 C0 C1 EB B7 9E .0...9@..0 .....
40000000000D16D0 09 70 01 40 00 21 20 02 88 30 20 00 00 00 04 00 .p.@.! ..0 .....
40000000000D16E0 09 70 00 1C 18 10 30 02 8C 30 20 00 00 00 04 00 .p....0..0 .....
40000000000D16F0 08 48 01 48 18 10 00 70 90 30 23 C0 C1 EA 27 9F .H.H...p.0#...'.
40000000000D1700 09 00 00 00 01 00 10 02 84 30 20 00 00 00 04 00 .........0 .....
40000000000D1710 09 70 00 1C 18 10 F0 00 3C 30 20 00 00 00 04 00 .p......<0 .....
40000000000D1720 08 38 01 44 18 10 00 70 88 30 23 C0 41 ED 17 9F .8.D...p.0#.A...
40000000000D1730 0A 80 00 20 18 10 E0 00 38 30 20 00 00 00 04 00 ... ....80 .....
40000000000D1740 C9 50 01 1E 18 90 01 00 3C 30 23 00 00 00 04 00 .P......<0#.....
40000000000D1750 E8 50 01 20 18 D0 01 00 40 30 23 00 00 00 04 00 .P. ....@0#.....
40000000000D1760 09 40 01 46 18 10 00 00 8C 30 23 00 00 00 04 00 .@.F.....0#.....
40000000000D1770 08 00 00 00 01 00 60 02 84 30 20 00 00 00 04 00 ......`..0 .....
40000000000D1780 19 00 38 42 98 11 00 00 00 02 00 00 88 90 F4 58 ..8B...........X
40000000000D1790 18 70 00 4A 10 10 10 00 B4 00 42 00 00 00 00 20 .p.J......B.... 
40000000000D17A0 09 00 A4 48 98 11 00 40 8D 30 23 00 C0 02 AA 00 ...H...@.0#.....
40000000000D17B0 18 30 00 1C 87 39 00 38 89 30 23 00 00 00 00 20 .0...9.8.0#.... 
40000000000D17C0 03 00 98 42 98 11 00 58 05 80 83 C3 C1 E8 B7 9E ...B...X........
40000000000D17D0 CB 70 B0 FA B0 E7 E1 00 38 30 20 00 00 00 04 00 .p......80 .....
40000000000D17E0 09 00 00 00 01 80 E1 00 38 30 20 00 00 00 04 00 ........80 .....
40000000000D17F0 11 00 A8 1C 98 11 00 00 00 02 00 80 08 00 84 00 ................
40000000000D1800 09 00 00 00 01 00 00 FA 01 00 48 00 00 00 04 00 ..........H.....
40000000000D1810 11 10 04 00 80 05 00 00 00 02 00 00 78 FE FF 48 ............x..H
40000000000D1820 0D 00 00 00 01 00 00 00 00 00 00 00 00 00 04 00 ................
40000000000D1830 08 00 00 00 01 00 00 00 00 02 00 00 00 00 04 00 ................
40000000000D1840 10 18 19 0A 80 05 20 02 00 62 00 00 00 00 00 20 ...... ..b..... 
40000000000D1850 09 28 D1 FB C9 27 10 62 F6 63 4F 80 04 08 00 84 .(...'.b.cO.....
40000000000D1860 08 00 00 00 01 00 50 02 94 30 20 00 00 00 04 00 ......P..0 .....
40000000000D1870 19 08 01 42 18 10 00 00 00 02 00 00 18 9A F4 58 ...B...........X
40000000000D1880 09 08 00 48 00 21 00 02 20 00 42 00 20 0A 00 07 ...H.!.. .B. ...
40000000000D1890 01 00 00 00 01 00 00 18 01 55 00 00 00 00 04 00 .........U......
40000000000D18A0 11 10 08 00 80 05 00 00 00 02 00 00 28 FD FF 48 ............(..H
40000000000D18B0 0D 00 00 00 01 00 00 00 00 00 00 00 00 00 04 00 ................
40000000000D18C0 10 18 19 0A 80 05 20 02 00 62 00 00 00 00 00 20 ...... ..b..... 
40000000000D18D0 09 28 F1 FB C9 27 10 22 F5 93 4F 80 04 08 00 84 .(...'."..O.....
40000000000D18E0 08 00 00 00 01 00 50 02 94 30 20 00 00 00 04 00 ......P..0 .....
40000000000D18F0 19 08 01 42 18 10 00 00 00 02 00 00 98 99 F4 58 ...B...........X
40000000000D1900 09 08 00 48 00 21 00 02 20 00 42 00 20 0A 00 07 ...H.!.. .B. ...
40000000000D1910 01 00 00 00 01 00 00 18 01 55 00 00 00 00 04 00 .........U......
40000000000D1920 11 10 08 00 80 05 00 00 00 02 00 00 A8 FC FF 48 ...............H
40000000000D1930 0D 00 00 00 01 00 00 00 00 00 00 00 00 00 04 00 ................
40000000000D1940 10 18 19 0A 80 05 20 02 00 62 00 00 00 00 00 20 ...... ..b..... 
40000000000D1950 09 28 11 FA CA 27 10 E2 F4 93 4F 80 04 08 00 84 .(...'....O.....
40000000000D1960 08 00 00 00 01 00 50 02 94 30 20 00 00 00 04 00 ......P..0 .....
40000000000D1970 19 08 01 42 18 10 00 00 00 02 00 00 18 99 F4 58 ...B...........X
40000000000D1980 09 08 00 48 00 21 00 02 20 00 42 00 20 0A 00 07 ...H.!.. .B. ...
40000000000D1990 01 00 00 00 01 00 00 18 01 55 00 00 00 00 04 00 .........U......
40000000000D19A0 11 10 08 00 80 05 00 00 00 02 00 00 28 FC FF 48 ............(..H
40000000000D19B0 0D 00 00 00 01 00 00 00 00 00 00 00 00 00 04 00 ................
40000000000D19C0 10 18 19 0A 80 05 20 02 00 62 00 00 00 00 00 20 ...... ..b..... 
40000000000D19D0 09 28 31 FA CA 27 10 E2 F5 5F 4F 80 04 08 00 84 .(1..'..._O.....
40000000000D19E0 08 00 00 00 01 00 50 02 94 30 20 00 00 00 04 00 ......P..0 .....
40000000000D19F0 19 08 01 42 18 10 00 00 00 02 00 00 98 98 F4 58 ...B...........X
40000000000D1A00 09 08 00 48 00 21 00 02 20 00 42 00 20 0A 00 07 ...H.!.. .B. ...
40000000000D1A10 01 00 00 00 01 00 00 18 01 55 00 00 00 00 04 00 .........U......
40000000000D1A20 11 10 08 00 80 05 00 00 00 02 00 00 A8 FB FF 48 ...............H
40000000000D1A30 0D 00 00 00 01 00 00 00 00 00 00 00 00 00 04 00 ................
40000000000D1A40 08 10 15 08 80 05 00 00 00 02 00 20 04 00 C4 00 ........... ....
40000000000D1A50 09 20 51 FA CA 27 00 00 00 02 00 60 04 08 00 84 . Q..'.....`....
40000000000D1A60 11 20 01 48 18 10 00 00 00 02 00 00 28 98 F4 58 . .H........(..X
40000000000D1A70 09 08 00 46 00 21 00 02 20 00 42 00 10 0A 00 07 ...F.!.. .B.....
40000000000D1A80 01 00 00 00 01 00 00 10 01 55 00 00 00 00 04 00 .........U......
40000000000D1A90 11 10 04 00 80 05 00 00 00 02 00 00 F8 FB FF 48 ...............H
40000000000D1AA0 0D 00 00 00 01 00 00 00 00 00 00 00 00 00 04 00 ................
40000000000D1AB0 08 00 00 00 01 00 00 00 00 02 00 00 00 00 04 00 ................
40000000000D1AC0 08 10 19 08 80 05 00 A2 F5 59 4F 20 04 00 C4 00 .........YO ....
40000000000D1AD0 09 00 00 00 01 00 30 02 04 00 42 00 00 00 04 00 ......0...B.....
40000000000D1AE0 11 00 01 40 18 10 00 00 00 02 00 00 E8 9E F4 58 ...@...........X
40000000000D1AF0 11 08 00 46 00 21 40 02 00 00 42 00 18 72 FE 58 ...F.!@...B..r.X
40000000000D1B00 08 28 01 40 18 10 00 00 00 02 00 20 00 18 01 84 .(.@....... ....
40000000000D1B10 19 20 35 00 00 24 00 00 00 02 00 00 B8 93 F4 58 . 5..$.........X
40000000000D1B20 11 20 01 40 18 10 10 00 8C 00 42 00 68 8B F4 58 . .@......B.h..X
40000000000D1B30 11 08 00 46 00 21 00 00 00 02 00 00 F8 9E F4 58 ...F.!.........X
40000000000D1B40 11 08 00 46 00 21 00 00 00 02 00 00 C8 9E F4 58 ...F.!.........X
40000000000D1B50 09 40 00 00 00 21 10 00 8C 00 42 00 20 02 AA 00 .@...!....B. ...
40000000000D1B60 11 00 00 00 01 00 00 08 05 80 03 80 08 00 84 00 ................
40000000000D1B70 08 00 00 00 01 00 00 00 00 02 00 00 00 00 04 00 ................
40000000000D1B80 08 20 21 0C 80 05 00 00 00 02 00 60 04 00 C4 00 . !........`....
40000000000D1B90 09 28 01 02 00 21 00 00 00 02 00 E0 04 08 01 84 .(...!..........
40000000000D1BA0 11 30 05 00 00 24 00 00 00 02 00 00 88 93 F4 58 .0...$.........X
40000000000D1BB0 11 08 00 4A 00 21 00 00 00 02 00 00 58 8B F4 58 ...J.!......X..X
40000000000D1BC0 11 08 00 4A 00 21 20 02 20 00 42 00 28 8E F4 58 ...J.! . .B.(..X
40000000000D1BD0 03 08 00 4A 00 21 70 00 20 0C 73 C0 41 EF BB 9E ...J.!p. .s.A...
40000000000D1BE0 09 00 00 00 01 00 E0 00 38 30 20 00 00 00 04 00 ........80 .....
40000000000D1BF0 10 70 00 1C 10 10 00 00 00 02 80 03 40 00 00 42 .p..........@..B
40000000000D1C00 0B 78 10 FA AD 27 F0 00 3C 30 20 00 00 00 04 00 .x...'..<0 .....
40000000000D1C10 09 00 00 00 01 00 F0 00 3C 20 20 00 00 00 04 00 ........<  .....
40000000000D1C20 10 00 00 00 01 00 70 70 3C 0C 61 03 90 00 00 43 ......pp<.a....C
40000000000D1C30 18 70 FC 1D 3F 23 F0 08 88 00 42 00 00 00 00 20 .p..?#....B.... 
40000000000D1C40 09 80 50 03 3E 24 80 00 00 00 42 00 40 02 AA 00 ..P.>$....B.@...
40000000000D1C50 11 30 88 1C 87 30 00 18 05 80 83 03 60 00 00 43 .0...0......`..C
40000000000D1C60 CB 70 F0 03 2F A4 01 78 38 20 23 C0 C1 EE B7 9E .p../..x8 #.....
40000000000D1C70 09 00 00 00 01 00 E0 00 38 30 20 00 00 00 04 00 ........80 .....
40000000000D1C80 0B 78 00 1C 18 10 00 78 40 30 23 E0 41 EA 2B 9F .x.....x@0#.A.+.
40000000000D1C90 09 00 00 00 01 00 F0 00 3C 30 20 00 00 00 04 00 ........<0 .....
40000000000D1CA0 10 00 3C 1C 98 11 00 00 00 02 00 80 08 00 84 00 ..<.............
40000000000D1CB0 18 70 F0 03 2F 24 00 A1 06 7C 48 00 00 00 00 20 .p../$...|H.... 
40000000000D1CC0 09 40 00 00 00 21 00 00 00 02 00 00 40 02 AA 00 .@...!......@...
40000000000D1CD0 09 00 88 1C 90 11 E0 60 F7 5B 4F 00 30 0A 00 07 .......`.[O.0...
40000000000D1CE0 09 00 00 00 01 00 E0 00 38 30 20 00 00 00 04 00 ........80 .....
40000000000D1CF0 0B 78 00 1C 18 10 00 78 40 30 23 E0 41 EA 2B 9F .x.....x@0#.A.+.
40000000000D1D00 09 00 00 00 01 00 F0 00 3C 30 20 00 00 00 04 00 ........<0 .....
40000000000D1D10 11 00 3C 1C 98 11 00 00 00 02 00 80 08 00 84 00 ..<.............
40000000000D1D20 08 00 00 00 01 00 00 00 00 02 00 00 00 00 04 00 ................
40000000000D1D30 08 00 00 00 01 00 00 00 00 02 00 00 00 00 04 00 ................
40000000000D1D40 18 10 19 08 80 05 00 E2 07 5E 48 00 00 00 00 20 .........^H.... 
40000000000D1D50 01 78 D0 FB AE 27 10 02 00 62 00 60 04 08 00 84 .x...'...b.`....
40000000000D1D60 09 70 00 40 10 10 00 00 00 02 00 A0 04 00 00 84 .p.@............
40000000000D1D70 11 30 38 00 87 30 00 00 00 02 00 03 40 00 00 43 .08..0......@..C
40000000000D1D80 0B 78 00 1E 18 10 40 02 3C 20 20 00 00 00 04 00 .x....@.<  .....
40000000000D1D90 11 00 00 00 01 00 40 22 39 0A 40 00 18 99 F4 58 ......@"9.@....X
40000000000D1DA0 09 08 00 46 00 21 00 00 00 02 00 00 00 00 04 00 ...F.!..........
40000000000D1DB0 09 70 50 03 3E 24 80 00 00 00 42 00 20 02 AA 00 .pP.>$....B. ...
40000000000D1DC0 09 78 00 1C 18 10 E0 F8 F3 FF 4F 00 10 0A 00 07 .x........O.....
40000000000D1DD0 09 00 38 40 90 11 00 00 00 02 00 C0 C1 EE B7 9E ..8@............
40000000000D1DE0 09 00 00 00 01 00 E0 00 38 30 20 00 00 00 04 00 ........80 .....
40000000000D1DF0 11 00 3C 1C 98 11 00 00 00 02 00 80 08 00 84 00 ..<.............
40000000000D1E00 08 28 2D 0E 80 05 00 02 06 8E 48 20 44 EB B3 9E .(-.......H D...
40000000000D1E10 09 10 51 FB AD 27 70 E2 F6 8B 4F C0 04 08 00 84 ..Q..'p...O.....
40000000000D1E20 00 00 00 00 01 00 40 02 00 62 00 00 15 00 00 90 ......@..b......
40000000000D1E30 19 48 09 00 00 24 10 02 84 30 20 00 00 00 00 20 .H...$...0 .... 
40000000000D1E40 09 10 01 44 18 10 70 02 9C 30 20 00 00 00 04 00 ...D..p..0 .....
40000000000D1E50 08 50 01 42 18 10 30 02 80 20 20 00 00 00 04 00 .P.B..0..  .....
40000000000D1E60 19 00 00 40 90 11 00 00 00 02 00 00 A8 91 F4 58 ...@...........X
40000000000D1E70 08 00 00 00 01 00 10 00 98 00 42 20 05 00 00 84 ..........B ....
40000000000D1E80 19 38 01 44 18 10 80 0A 00 00 48 00 48 75 FF 58 .8.D......H.Hu.X
40000000000D1E90 08 00 00 00 01 00 E0 00 88 30 20 C0 00 40 1C E4 .........0 ..@..
40000000000D1EA0 09 08 00 4C 00 21 00 18 81 20 23 E0 04 40 00 84 ...L.!... #..@..
40000000000D1EB0 13 40 38 10 09 38 02 18 00 80 21 03 30 00 00 43 .@8..8....!.0..C
40000000000D1EC0 11 00 00 00 01 00 00 00 00 02 00 00 28 89 F4 58 ............(..X
40000000000D1ED0 08 08 00 4C 00 21 00 00 00 02 00 00 00 00 04 00 ...L.!..........
40000000000D1EE0 08 00 00 00 01 00 70 6A 00 00 48 00 00 00 04 00 ......pj..H.....
40000000000D1EF0 19 40 01 42 18 10 00 00 00 02 00 00 D8 8F F4 58 .@.B...........X
40000000000D1F00 11 08 00 4C 00 21 00 00 00 02 00 00 E8 86 F4 58 ...L.!.........X
40000000000D1F10 09 08 00 4C 00 21 00 00 00 02 00 00 50 02 AA 00 ...L.!......P...
40000000000D1F20 11 00 00 00 01 00 00 20 05 80 03 80 08 00 84 00 ....... ........
40000000000D1F30 08 00 00 00 01 00 00 00 00 02 00 00 00 00 04 00 ................
40000000000D1F40 08 20 29 0C 80 05 E0 A0 F6 5B 4F 60 04 00 C4 00 . )......[O`....
40000000000D1F50 09 28 01 02 00 21 00 00 00 02 00 C0 04 00 01 84 .(...!..........
40000000000D1F60 09 00 00 00 01 00 E0 00 38 30 20 00 00 00 04 00 ........80 .....
40000000000D1F70 11 38 01 1C 18 10 00 00 00 02 00 00 D8 85 F4 58 .8.............X
40000000000D1F80 08 08 00 4A 00 21 60 00 20 0E 73 00 40 02 AA 00 ...J.!`. .s.@...
40000000000D1F90 19 00 00 00 01 00 00 00 00 02 80 03 20 00 00 43 ............ ..C
40000000000D1FA0 10 00 00 00 01 00 00 18 05 80 03 80 08 00 84 00 ................
40000000000D1FB0 08 10 D1 FB AD 27 10 A2 F7 5F 4F 00 05 00 00 84 .....'..._O.....
40000000000D1FC0 09 48 01 00 00 21 60 12 00 00 48 E0 04 00 00 84 .H...!`...H.....
40000000000D1FD0 09 10 01 44 18 10 10 02 84 30 20 00 00 00 04 00 ...D.....0 .....
40000000000D1FE0 09 00 00 00 01 00 E0 00 88 20 20 00 00 00 04 00 .........  .....
40000000000D1FF0 11 00 38 42 90 11 00 00 00 02 00 00 F8 8B F4 58 ..8B...........X
40000000000D2000 08 38 01 42 10 10 00 00 00 02 00 20 00 28 01 84 .8.B....... .(..
40000000000D2010 19 30 01 00 00 21 00 00 00 02 00 00 78 99 F4 58 .0...!......x..X
40000000000D2020 08 08 00 4A 00 21 00 00 00 02 00 C0 04 00 01 84 ...J.!..........
40000000000D2030 09 00 00 44 90 11 00 00 84 20 23 00 00 00 04 00 ...D..... #.....
40000000000D2040 0B 70 70 FA AF 27 E0 00 38 30 20 00 00 00 04 00 .pp..'..80 .....
40000000000D2050 11 00 00 1C 90 11 00 00 00 02 00 00 18 84 F4 58 ...............X
40000000000D2060 08 08 00 4A 00 21 60 1A 00 00 48 E0 04 00 00 84 ...J.!`...H.....
40000000000D2070 19 40 01 00 00 21 90 02 00 00 42 00 78 8B F4 58 .@...!....B.x..X
40000000000D2080 09 08 00 4A 00 21 00 00 00 02 00 00 40 02 AA 00 ...J.!......@...
40000000000D2090 11 00 00 00 01 00 00 18 05 80 03 80 08 00 84 00 ................
40000000000D20A0 08 00 00 00 01 00 00 00 00 02 00 00 00 00 04 00 ................
40000000000D20B0 08 00 00 00 01 00 00 00 00 02 00 00 00 00 04 00 ................
40000000000D20C0 18 38 35 14 80 05 C0 00 30 7E 46 00 00 00 00 20 .85.....0~F.... 
40000000000D20D0 09 40 01 02 00 21 00 00 00 02 00 C0 04 00 C4 00 .@...!..........
40000000000D20E0 11 00 00 00 01 00 90 02 04 65 00 00 28 A0 F4 58 .........e..(..X
40000000000D20F0 08 08 00 50 00 21 00 00 00 02 00 00 02 00 08 90 ...P.!..........
40000000000D2100 09 70 00 10 00 21 00 00 00 02 00 E0 01 00 00 84 .p...!..........
40000000000D2110 01 00 00 00 01 00 00 80 04 55 00 00 42 EB C3 9E .........U..B...
40000000000D2120 0B 80 00 20 18 10 10 01 40 30 20 00 00 00 04 00 ... ....@0 .....
40000000000D2130 11 00 00 00 01 00 60 88 20 0E 70 03 80 05 00 43 ......`. .p....C
40000000000D2140 0B 80 00 1C 00 10 00 00 00 02 00 00 02 80 50 00 ..............P.
40000000000D2150 10 00 00 00 01 00 70 08 40 0C F3 03 B0 00 00 43 ......p.@......C
40000000000D2160 10 70 40 1C 00 21 F0 80 3C 00 42 A0 E0 FF FF 48 .p@..!..<.B....H
40000000000D2170 11 00 00 00 01 00 00 00 00 02 00 00 58 98 F4 58 ............X..X
40000000000D2180 09 08 00 50 00 21 C0 2A 00 00 48 40 05 00 00 84 ...P.!.*..H@....
40000000000D2190 09 00 00 00 01 00 B0 22 F4 8D 4F 00 00 00 04 00 ......."..O.....
40000000000D21A0 11 58 01 56 18 10 00 00 00 02 00 00 C8 89 F4 58 .X.V...........X
40000000000D21B0 11 08 00 50 00 21 A0 02 20 00 42 00 D8 EE F9 58 ...P.!.. .B....X
40000000000D21C0 11 08 00 50 00 21 00 00 00 02 00 00 28 84 F4 58 ...P.!......(..X
40000000000D21D0 09 40 04 00 00 24 10 00 A0 00 42 00 70 02 AA 00 .@...$....B.p...
40000000000D21E0 02 00 00 00 01 00 00 48 05 55 00 00 60 0A 00 07 .......H.U..`...
40000000000D21F0 18 00 00 00 01 00 C0 00 30 02 42 80 08 00 84 00 ........0.B.....
40000000000D2200 0B 80 20 1C 00 21 00 01 40 30 20 00 00 00 04 00 .. ..!..@0 .....
40000000000D2210 10 00 00 00 01 00 60 80 44 0E F0 03 50 FF FF 4A ......`.D...P..J
40000000000D2220 0B 70 70 02 40 24 E0 00 38 30 20 00 00 00 04 00 .pp.@$..80 .....
40000000000D2230 03 70 38 1E 00 20 00 00 00 02 00 C0 81 70 00 84 .p8.. .......p..
40000000000D2240 08 70 00 1C 18 10 00 00 00 02 00 00 00 00 04 00 .p..............
40000000000D2250 01 00 00 00 01 00 10 02 84 2C 00 40 45 EE 17 9F .........,.@E...
40000000000D2260 03 70 84 1C 13 20 00 00 00 02 00 C0 81 70 00 84 .p... .......p..
40000000000D2270 09 00 00 00 01 00 20 02 38 30 20 00 00 00 04 00 ...... .80 .....
40000000000D2280 11 38 00 44 06 39 00 00 00 02 80 03 70 04 00 43 .8.D.9......p..C
40000000000D2290 11 50 01 54 18 10 00 00 00 02 00 00 38 83 F4 58 .P.T........8..X
40000000000D22A0 08 08 00 50 00 21 60 00 20 0E 72 00 00 00 04 00 ...P.!`. .r.....
40000000000D22B0 19 18 01 10 00 21 A0 6A 00 00 48 03 20 04 00 43 .....!.j..H. ..C
40000000000D22C0 0B 20 D1 FA AC 27 40 02 90 30 20 00 00 00 04 00 . ...'@..0 .....
40000000000D22D0 11 58 01 48 18 10 00 00 00 02 00 00 B8 9A F4 58 .X.H...........X
40000000000D22E0 09 08 00 50 00 21 A0 02 8C 00 42 60 15 00 00 90 ...P.!....B`....
40000000000D22F0 09 00 00 00 01 00 C0 62 F6 6D 4F 00 00 00 04 00 .......b.mO.....
40000000000D2300 11 60 01 58 18 10 00 00 00 02 00 00 E8 83 F4 58 .`.X...........X
40000000000D2310 08 00 00 00 01 00 10 00 A0 00 42 00 00 00 04 00 ..........B.....
40000000000D2320 19 50 01 48 18 10 00 00 00 02 00 00 68 83 F4 58 .P.H........h..X
40000000000D2330 09 08 00 50 00 21 00 00 00 02 00 00 00 00 04 00 ...P.!..........
40000000000D2340 09 70 50 FB AD 27 A0 62 F7 8B 4F 80 05 00 00 84 .pP..'.b..O.....
40000000000D2350 09 70 00 1C 18 10 A0 02 A8 30 20 00 00 00 04 00 .p.......0 .....
40000000000D2360 11 58 01 1C 18 10 00 00 00 02 00 00 68 60 F9 58 .X..........h`.X
40000000000D2370 08 08 00 50 00 21 60 00 20 0E 72 80 C5 00 00 90 ...P.!`. .r.....
40000000000D2380 0A 58 C1 19 00 E1 E1 40 21 00 42 80 44 EF BF 9E .X.....@!.B.D...
40000000000D2390 E9 40 20 10 00 21 00 00 00 02 00 A3 04 00 00 84 .@ ..!..........
40000000000D23A0 E9 78 00 1C 10 10 40 02 90 30 20 00 00 00 04 00 .x....@..0 .....
40000000000D23B0 E9 78 04 1E 2E E0 51 02 20 30 20 00 00 00 04 00 .x....Q. 0 .....
40000000000D23C0 E9 00 3C 1C 90 11 E0 00 90 20 20 00 00 00 04 00 ..<......  .....
40000000000D23D0 11 00 00 00 01 00 A0 02 38 2C 00 00 78 76 05 50 ........8,..xv.P
40000000000D23E0 03 08 00 50 00 21 B0 02 20 00 42 40 45 EF 17 9F ...P.!.. .B@E...
40000000000D23F0 11 50 01 54 18 10 00 00 00 02 00 00 D8 63 F9 58 .P.T.........c.X
40000000000D2400 09 30 00 10 07 39 10 00 A0 00 42 40 05 61 00 84 .0...9....B@.a..
40000000000D2410 E9 40 A0 10 00 21 00 00 00 02 00 60 44 09 B4 90 .@...!.....`D...
40000000000D2420 E9 70 00 10 10 10 00 00 00 02 00 00 00 00 04 00 .p..............
40000000000D2430 EB 70 04 1C 2E E0 01 70 20 20 23 C0 11 00 00 90 .p.....p  #.....
40000000000D2440 11 00 38 46 90 11 00 00 00 02 00 00 48 B8 F6 58 ..8F........H..X
40000000000D2450 09 08 00 50 00 21 C0 62 00 00 48 40 05 10 01 84 ...P.!.b..H@....
40000000000D2460 09 00 00 00 01 00 B0 E2 F7 8B 4F 00 00 00 04 00 ..........O.....
40000000000D2470 11 58 01 56 18 10 00 00 00 02 00 00 98 3E 02 50 .X.V.........>.P
40000000000D2480 11 08 00 50 00 21 A0 82 30 00 42 00 88 BA F6 58 ...P.!..0.B....X
40000000000D2490 0B 08 00 50 00 21 A0 62 F7 8B 4F 00 00 00 04 00 ...P.!.b..O.....
40000000000D24A0 11 50 01 54 18 10 00 00 00 02 00 00 A8 00 F9 58 .P.T...........X
40000000000D24B0 09 30 00 10 07 39 00 00 00 02 00 20 00 40 01 84 .0...9..... .@..
40000000000D24C0 E9 70 20 10 00 21 00 00 00 02 00 00 81 40 00 84 .p ..!.......@..
40000000000D24D0 EB 70 00 1C 18 90 E1 00 00 00 42 00 00 00 04 00 .p........B.....
40000000000D24E0 11 30 38 4A 07 38 00 00 00 02 00 03 30 00 00 43 .08J.8......0..C
40000000000D24F0 13 50 01 10 18 10 00 2C FD 7F 2C 00 00 00 00 20 .P.....,..,.... 
40000000000D2500 09 08 00 50 00 21 00 00 00 02 00 00 00 00 04 00 ...P.!..........
40000000000D2510 09 00 00 00 01 00 A0 A2 F7 8B 4F 00 00 00 04 00 ..........O.....
40000000000D2520 11 50 01 54 18 10 00 00 00 02 00 00 28 00 F9 58 .P.T........(..X
40000000000D2530 08 38 00 10 06 39 80 40 20 00 42 00 00 00 04 00 .8...9.@ .B.....
40000000000D2540 19 08 00 50 00 21 B0 02 30 02 C2 03 E0 00 00 43 ...P.!..0......C
40000000000D2550 11 50 01 10 18 10 00 00 00 02 00 00 38 CF F6 58 .P..........8..X
40000000000D2560 11 08 00 50 00 21 60 00 20 0E 73 03 C0 00 00 42 ...P.!`. .s....B
40000000000D2570 08 00 00 00 01 00 00 A1 F7 5F 4F C0 01 60 04 84 ........._O..`..
40000000000D2580 09 00 00 00 01 00 10 01 90 20 20 00 00 00 04 00 .........  .....
40000000000D2590 09 80 00 20 18 10 F0 00 38 30 20 00 00 00 04 00 ... ....80 .....
40000000000D25A0 11 30 44 1E 87 38 E0 00 3C 00 42 03 80 00 00 43 .0D..8..<.B....C
40000000000D25B0 09 00 3C 20 90 11 00 00 00 02 00 E0 41 EF B7 9E ..< ........A...
40000000000D25C0 0B 78 00 1E 18 10 F0 00 3C 20 20 00 00 00 04 00 .x......<  .....
40000000000D25D0 09 00 00 00 01 00 70 78 38 0C 61 00 00 00 04 00 ......px8.a.....
40000000000D25E0 F0 00 3C 20 90 11 00 00 00 02 80 03 40 00 00 42 ..< ........@..B
40000000000D25F0 09 00 00 00 01 00 70 70 00 0C 61 00 00 00 04 00 ......pp..a.....
40000000000D2600 E9 00 00 20 90 11 00 00 00 02 00 00 00 00 04 00 ... ............
40000000000D2610 08 00 00 00 01 00 00 00 00 02 00 00 00 00 04 00 ................
40000000000D2620 09 00 00 00 01 00 A0 62 F7 8B 4F 00 00 00 04 00 .......b..O.....
40000000000D2630 11 50 01 54 18 10 00 00 00 02 00 00 18 97 F9 58 .P.T...........X
40000000000D2640 0B 08 00 50 00 21 A0 A2 F7 8B 4F 00 00 00 04 00 ...P.!....O.....
40000000000D2650 11 50 01 54 18 10 00 00 00 02 00 00 F8 96 F9 58 .P.T...........X
40000000000D2660 09 70 04 00 00 24 00 00 00 02 00 20 00 40 01 84 .p...$..... .@..
40000000000D2670 11 00 38 46 90 11 00 00 00 02 00 00 78 7F F4 58 ..8F........x..X
40000000000D2680 09 40 00 00 00 21 10 00 A0 00 42 00 70 02 AA 00 .@...!....B.p...
40000000000D2690 02 00 00 00 01 00 00 48 05 55 00 00 60 0A 00 07 .......H.U..`...
40000000000D26A0 18 00 00 00 01 00 C0 00 30 02 42 80 08 00 84 00 ........0.B.....
40000000000D26B0 09 00 00 00 01 00 E0 E0 04 80 48 00 00 00 04 00 ..........H.....
40000000000D26C0 10 70 00 1C 18 10 00 00 00 02 00 00 90 FB FF 48 .p.............H
40000000000D26D0 11 00 00 00 01 00 00 00 00 02 00 00 F8 92 F4 58 ...............X
40000000000D26E0 10 00 00 00 01 00 10 00 A0 00 42 00 60 FC FF 48 ..........B.`..H
40000000000D26F0 11 00 00 00 01 00 00 00 00 02 00 00 78 94 F4 58 ............x..X
40000000000D2700 09 40 04 00 00 24 10 00 A0 00 42 00 70 02 AA 00 .@...$....B.p...
40000000000D2710 02 00 00 00 01 00 00 48 05 55 00 00 60 0A 00 07 .......H.U..`...
40000000000D2720 19 00 00 00 01 00 C0 00 30 02 42 80 08 00 84 00 ........0.B.....
40000000000D2730 08 00 00 00 01 00 00 00 00 02 00 00 00 00 04 00 ................
40000000000D2740 08 30 29 10 80 05 30 A2 F7 5F 4F A0 04 00 C4 00 .0)...0.._O.....
40000000000D2750 09 10 D1 FB AD 27 70 02 04 00 42 00 05 00 01 84 .....'p...B.....
40000000000D2760 09 18 01 46 18 10 20 02 88 30 20 00 00 00 04 00 ...F.. ..0 .....
40000000000D2770 08 00 00 00 01 00 10 02 8C 20 20 00 00 00 04 00 .........  .....
40000000000D2780 19 20 01 44 10 10 00 00 00 02 00 00 C8 F7 FF 58 . .D...........X
40000000000D2790 11 08 00 4E 00 21 80 02 80 00 42 00 58 80 F4 58 ...N.!....B.X..X
40000000000D27A0 08 08 00 4E 00 21 E0 00 88 20 20 E0 40 0A 19 E2 ...N.!...  .@...
40000000000D27B0 11 00 00 00 01 00 F0 00 84 2C 00 00 00 00 00 20 .........,..... 
40000000000D27C0 F1 00 38 46 90 11 00 00 00 02 80 03 90 00 00 43 ..8F...........C
40000000000D27D0 11 30 84 1C 87 30 E0 A0 F6 5B CF 03 80 00 00 43 .0...0...[.....C
40000000000D27E0 09 70 00 1C 18 10 00 08 8D 20 23 00 00 00 04 00 .p....... #.....
40000000000D27F0 0B 70 00 1C 18 10 F0 70 3C 00 40 00 00 00 04 00 .p.....p<.@.....
40000000000D2800 0B 70 00 1E 00 10 00 00 00 02 00 C0 01 70 50 00 .p...........pP.
40000000000D2810 09 38 24 1C 86 39 00 00 00 02 00 20 01 72 20 E6 .8$..9..... .r .
40000000000D2820 C9 78 04 00 00 24 00 00 00 02 00 C4 11 00 00 90 .x...$..........
40000000000D2830 E3 78 00 00 00 61 E2 00 00 00 42 C0 E1 78 30 80 .x...a....B..x0.
40000000000D2840 10 00 00 00 01 00 60 00 38 0E F3 03 30 00 00 43 ......`.8...0..C
40000000000D2850 01 00 00 00 01 00 00 30 01 55 00 00 00 00 04 00 .......0.U......
40000000000D2860 11 00 00 00 01 00 00 28 05 80 03 80 08 00 84 00 .......(........
40000000000D2870 11 40 05 00 00 24 90 02 00 00 42 00 B8 7E F4 58 .@...$....B..~.X
40000000000D2880 09 08 00 4E 00 21 00 00 00 02 00 00 60 02 AA 00 ...N.!......`...
40000000000D2890 11 00 00 00 01 00 00 28 05 80 03 80 08 00 84 00 .......(........
40000000000D28A0 08 00 00 00 01 00 00 00 00 02 00 00 00 00 04 00 ................
40000000000D28B0 08 00 00 00 01 00 00 00 00 02 00 00 00 00 04 00 ................
40000000000D28C0 08 08 11 06 80 05 E0 A0 F6 5B 4F 00 04 00 C4 00 .........[O.....
40000000000D28D0 0B 10 01 02 00 21 E0 00 38 30 20 00 00 00 04 00 .....!..80 .....
40000000000D28E0 11 18 01 1C 18 10 00 00 00 02 00 00 28 73 FE 58 ............(s.X
40000000000D28F0 08 30 00 10 07 39 00 00 00 02 00 20 00 10 01 84 .0...9..... ....
40000000000D2900 19 18 01 10 00 21 00 00 00 02 00 03 40 00 00 43 .....!......@..C
40000000000D2910 11 00 00 00 01 00 00 00 00 02 00 00 38 FE FF 58 ............8..X
40000000000D2920 09 40 00 00 00 21 10 00 88 00 42 00 10 02 AA 00 .@...!....B.....
40000000000D2930 11 00 00 00 01 00 00 00 05 80 03 80 08 00 84 00 ................
40000000000D2940 11 00 00 00 01 00 00 00 00 02 00 00 C8 F4 FF 58 ...............X
40000000000D2950 09 40 04 00 00 24 10 00 88 00 42 00 10 02 AA 00 .@...$....B.....
40000000000D2960 11 00 00 00 01 00 00 00 05 80 03 80 08 00 84 00 ................
40000000000D2970 08 00 00 00 01 00 00 00 00 02 00 00 00 00 04 00 ................
40000000000D2980 08 28 25 0E 80 05 F0 20 04 7A 48 80 04 00 C4 00 .(%.... .zH.....
40000000000D2990 09 70 00 44 00 21 60 02 04 00 42 60 04 00 01 84 .p.D.!`...B`....
40000000000D29A0 09 40 01 1E 18 10 00 00 00 02 00 00 01 70 24 E4 .@...........p$.
40000000000D29B0 13 30 00 50 07 B9 01 30 00 80 21 04 60 00 00 43 .0.P...0..!.`..C
40000000000D29C0 0B 70 00 1C 00 10 00 00 00 02 00 C0 01 70 50 00 .p...........pP.
40000000000D29D0 10 00 00 00 01 00 70 00 38 0C 73 03 40 00 00 42 ......p.8.s.@..B
40000000000D29E0 09 70 00 50 00 10 F0 00 8C 00 20 00 00 00 04 00 .p.P...... .....
40000000000D29F0 01 00 00 00 01 00 F0 00 3C 28 00 C0 01 70 50 00 ........<(...pP.
40000000000D2A00 10 00 00 00 01 00 70 78 38 0C F1 03 30 00 00 43 ......px8...0..C
40000000000D2A10 03 00 00 00 01 00 00 20 05 80 03 00 50 02 AA 00 ....... ....P...
40000000000D2A20 11 10 0C 00 80 05 00 00 00 02 00 00 28 D4 FF 48 ............(..H
40000000000D2A30 11 38 01 46 00 21 00 00 00 02 00 00 18 7B F4 58 .8.F.!.......{.X
40000000000D2A40 10 08 00 4C 00 21 70 00 20 0C 73 03 D0 FF FF 4A ...L.!p. .s....J
40000000000D2A50 11 38 01 46 00 21 00 00 00 02 00 00 78 8C F4 58 .8.F.!......x..X
40000000000D2A60 11 08 00 4C 00 21 70 0A 20 00 42 00 68 62 01 50 ...L.!p. .B.hb.P
40000000000D2A70 08 08 00 4C 00 21 00 00 00 02 00 E0 04 40 00 84 ...L.!.......@..
40000000000D2A80 19 40 01 46 00 21 00 00 00 02 00 00 08 87 F4 58 .@.F.!.........X
40000000000D2A90 09 08 00 4C 00 21 00 00 00 02 00 00 50 02 AA 00 ...L.!......P...
40000000000D2AA0 11 00 00 00 01 00 00 20 05 80 03 80 08 00 84 00 ....... ........
40000000000D2AB0 08 00 00 00 01 00 00 00 00 02 00 00 00 00 04 00 ................
40000000000D2AC0 09 80 10 08 80 05 E0 C0 05 64 48 60 44 E9 1B 9F .........dH`D...
40000000000D2AD0 08 00 00 00 01 00 00 00 00 02 00 40 04 00 00 84 ...........@....
40000000000D2AE0 0B 18 01 46 18 10 E0 00 38 20 20 00 00 00 04 00 ...F....8  .....
40000000000D2AF0 11 30 00 1C 87 39 00 00 00 02 80 03 20 00 00 43 .0...9...... ..C
40000000000D2B00 10 10 10 00 80 05 00 00 00 02 00 00 88 DC FF 48 ...............H
40000000000D2B10 0B 18 31 FA C6 27 30 02 8C 30 20 00 00 00 04 00 ..1..'0..0 .....
40000000000D2B20 11 10 10 00 80 05 00 00 00 02 00 00 68 DC FF 48 ............h..H
40000000000D2B30 0D 00 00 00 01 00 00 00 00 00 00 00 00 00 04 00 ................
40000000000D2B40 08 28 29 0E 80 05 10 02 06 8E 48 80 04 00 C4 00 .().......H.....
40000000000D2B50 09 30 01 02 00 21 00 00 00 02 00 E0 04 00 01 84 .0...!..........
40000000000D2B60 09 00 00 00 01 00 90 02 00 00 42 00 05 00 00 84 ..........B.....
40000000000D2B70 08 00 00 00 01 00 30 02 84 20 20 00 00 00 04 00 ......0..  .....
40000000000D2B80 19 00 00 42 90 11 00 00 00 02 00 00 48 68 FF 58 ...B........Hh.X
40000000000D2B90 08 10 01 10 00 21 70 00 21 0C 70 00 00 00 04 00 .....!p.!.p.....
40000000000D2BA0 19 08 00 4C 00 21 00 18 85 20 A3 03 30 00 00 43 ...L.!... ..0..C
40000000000D2BB0 01 00 00 00 01 00 00 28 01 55 00 00 01 10 01 84 .......(.U......
40000000000D2BC0 11 00 00 00 01 00 00 20 05 80 03 80 08 00 84 00 ....... ........
40000000000D2BD0 11 38 01 10 00 21 00 00 00 02 00 00 F8 8A F4 58 .8...!.........X
40000000000D2BE0 11 08 00 4C 00 21 70 0A 20 00 42 00 E8 60 01 50 ...L.!p. .B..`.P
40000000000D2BF0 08 08 00 4C 00 21 00 00 00 02 00 00 05 10 01 84 ...L.!..........
40000000000D2C00 19 38 01 10 00 21 00 00 00 02 00 00 88 85 F4 58 .8...!.........X
40000000000D2C10 09 10 01 10 00 21 10 00 98 00 42 00 50 02 AA 00 .....!....B.P...
40000000000D2C20 11 40 00 44 00 21 00 20 05 80 03 80 08 00 84 00 .@.D.!. ........
40000000000D2C30 08 00 00 00 01 00 00 00 00 02 00 00 00 00 04 00 ................
40000000000D2C40 08 18 19 0A 80 05 E0 A0 F6 5B 4F 40 04 00 C4 00 .........[O@....
40000000000D2C50 0B 20 01 02 00 21 E0 00 38 30 20 00 00 00 04 00 . ...!..80 .....
40000000000D2C60 11 28 01 1C 18 10 00 00 00 02 00 00 E8 FE FF 58 .(.............X
40000000000D2C70 08 30 00 10 07 39 10 00 90 00 42 00 00 00 04 00 .0...9....B.....
40000000000D2C80 19 00 01 10 00 21 50 02 20 00 42 03 90 00 00 43 .....!P. .B....C
40000000000D2C90 11 00 00 00 01 00 00 00 00 02 00 00 78 6F FE 58 ............xo.X
40000000000D2CA0 08 08 00 48 00 21 00 00 00 02 00 20 04 40 00 84 ...H.!..... .@..
40000000000D2CB0 19 28 01 40 00 21 00 00 00 02 00 00 38 7B F4 58 .(.@.!......8{.X
40000000000D2CC0 08 30 00 42 07 39 00 00 00 02 00 A0 04 08 01 84 .0.B.9..........
40000000000D2CD0 19 08 00 48 00 21 00 00 00 02 00 03 40 00 00 41 ...H.!......@..A
40000000000D2CE0 11 00 00 00 01 00 00 00 00 02 00 00 68 FA FF 58 ............h..X
40000000000D2CF0 09 40 00 00 00 21 10 00 90 00 42 00 30 02 AA 00 .@...!....B.0...
40000000000D2D00 11 00 00 00 01 00 00 10 05 80 03 80 08 00 84 00 ................
40000000000D2D10 11 00 00 00 01 00 00 00 00 02 00 00 F8 F0 FF 58 ...............X
40000000000D2D20 09 40 04 00 00 24 10 00 90 00 42 00 30 02 AA 00 .@...$....B.0...
40000000000D2D30 11 00 00 00 01 00 00 10 05 80 03 80 08 00 84 00 ................
40000000000D2D40 08 08 11 06 80 05 E0 A0 F6 5B 4F 00 04 00 C4 00 .........[O.....
40000000000D2D50 0B 10 01 02 00 21 E0 00 38 30 20 00 00 00 04 00 .....!..80 .....
40000000000D2D60 11 18 01 1C 18 10 00 00 00 02 00 00 E8 FD FF 58 ...............X
40000000000D2D70 08 30 00 10 07 39 00 00 00 02 00 20 00 10 01 84 .0...9..... ....
40000000000D2D80 19 18 01 10 00 21 00 00 00 02 00 03 40 00 00 43 .....!......@..C
40000000000D2D90 11 00 00 00 01 00 00 00 00 02 00 00 B8 F9 FF 58 ...............X
40000000000D2DA0 09 40 00 00 00 21 10 00 88 00 42 00 10 02 AA 00 .@...!....B.....
40000000000D2DB0 11 00 00 00 01 00 00 00 05 80 03 80 08 00 84 00 ................
40000000000D2DC0 11 00 00 00 01 00 00 00 00 02 00 00 48 F0 FF 58 ............H..X
40000000000D2DD0 09 40 04 00 00 24 10 00 88 00 42 00 10 02 AA 00 .@...$....B.....
40000000000D2DE0 11 00 00 00 01 00 00 00 05 80 03 80 08 00 84 00 ................
40000000000D2DF0 08 00 00 00 01 00 00 00 00 02 00 00 00 00 04 00 ................
40000000000D2E00 18 38 2D 12 80 05 30 A2 F7 5F 4F 00 00 00 00 20 .8-...0.._O.... 
40000000000D2E10 01 20 D1 FB AD 27 60 02 00 62 00 00 05 08 00 84 . ...'`..b......
40000000000D2E20 08 18 01 46 18 10 90 02 80 00 42 40 05 08 01 84 ...F......B@....
40000000000D2E30 0A 20 01 48 18 10 20 02 8C 20 20 00 00 00 04 00 . .H.. ..  .....
40000000000D2E40 19 28 01 48 10 10 00 00 00 02 00 00 08 FF FF 58 .(.H...........X
40000000000D2E50 08 38 00 10 86 39 10 00 A0 00 42 00 00 00 04 00 .8...9....B.....
40000000000D2E60 09 28 95 44 05 20 90 0A 00 00 48 40 05 02 00 90 .(.D. ....H@....
40000000000D2E70 D1 40 04 00 00 24 00 00 00 02 00 03 50 00 00 43 .@...$......P..C
40000000000D2E80 0B 30 00 44 87 F9 21 02 90 20 20 00 00 00 04 00 .0.D..!..  .....
40000000000D2E90 09 00 00 00 01 C0 21 12 95 0A 40 00 00 00 04 00 ......!...@.....
40000000000D2EA0 11 00 88 46 90 11 00 00 00 02 00 00 28 81 F4 58 ...F........(..X
40000000000D2EB0 08 00 00 00 01 00 10 00 A0 00 42 00 01 00 00 84 ..........B.....
40000000000D2EC0 01 00 00 00 01 00 00 38 01 55 00 00 00 00 04 00 .......8.U......
40000000000D2ED0 11 00 00 00 01 00 00 30 05 80 03 80 08 00 84 00 .......0........
40000000000D2EE0 08 00 00 00 01 00 00 00 00 02 00 00 00 00 04 00 ................
40000000000D2EF0 08 00 00 00 01 00 00 00 00 02 00 00 00 00 04 00 ................
40000000000D2F00 18 40 31 14 80 05 00 A2 F6 5B 4F 00 00 00 00 20 .@1......[O.... 
40000000000D2F10 09 48 01 02 00 21 00 00 00 02 00 E0 04 00 C4 00 .H...!..........
40000000000D2F20 09 00 00 00 01 00 00 02 80 30 20 00 00 00 04 00 .........0 .....
40000000000D2F30 11 50 01 40 18 10 00 00 00 02 00 00 18 FC FF 58 .P.@...........X
40000000000D2F40 08 30 00 10 07 39 10 00 A4 00 42 00 00 00 04 00 .0...9....B.....
40000000000D2F50 19 08 01 10 00 21 A0 02 20 00 42 03 90 02 00 43 .....!.. .B....C
40000000000D2F60 11 00 00 00 01 00 00 00 00 02 00 00 A8 6C FE 58 .............l.X
40000000000D2F70 08 50 01 42 00 21 00 00 00 02 00 40 04 40 00 84 .P.B.!.....@.@..
40000000000D2F80 19 08 00 52 00 21 00 00 00 02 00 00 68 78 F4 58 ...R.!......hx.X
40000000000D2F90 08 08 00 52 00 21 00 00 00 02 00 C0 00 10 1D E4 ...R.!..........
40000000000D2FA0 19 50 01 44 00 21 00 00 00 02 00 03 40 02 00 41 .P.D.!......@..A
40000000000D2FB0 09 28 D1 FB AF 27 00 00 00 02 00 80 44 EF B7 9E .(...'......D...
40000000000D2FC0 09 28 01 4A 18 10 40 02 90 30 20 00 00 00 04 00 .(.J..@..0 .....
40000000000D2FD0 08 00 00 00 01 00 10 02 94 20 20 00 00 00 04 00 .........  .....
40000000000D2FE0 19 30 01 48 10 10 00 00 00 02 00 00 68 EF FF 58 .0.H........h..X
40000000000D2FF0 11 50 01 44 00 21 10 00 A4 00 42 00 F8 77 F4 58 .P.D.!....B..w.X
40000000000D3000 08 00 00 00 01 00 10 00 A4 00 42 00 00 00 04 00 ..........B.....
40000000000D3010 19 50 01 40 18 10 00 00 00 02 00 00 B8 86 F4 58 .P.@...........X
40000000000D3020 11 08 00 52 00 21 A0 0A 20 00 42 00 A8 5C 01 50 ...R.!.. .B..\.P
40000000000D3030 08 08 00 52 00 21 00 00 00 02 00 40 05 40 00 84 ...R.!.....@.@..
40000000000D3040 19 58 01 40 18 10 00 00 00 02 00 00 48 81 F4 58 .X.@........H..X
40000000000D3050 08 08 00 52 00 21 30 02 20 00 42 00 00 00 04 00 ...R.!0. .B.....
40000000000D3060 19 50 01 10 00 21 B0 02 00 00 42 00 28 70 FC 58 .P...!....B.(p.X
40000000000D3070 08 30 00 46 07 39 10 00 A4 00 42 00 00 00 04 00 .0.F.9....B.....
40000000000D3080 19 10 01 10 00 21 A0 02 8C 00 42 03 30 00 00 43 .....!....B.0..C
40000000000D3090 11 00 00 00 01 00 00 00 00 02 00 00 58 77 F4 58 ............Xw.X
40000000000D30A0 08 08 00 52 00 21 00 00 00 02 00 00 00 00 04 00 ...R.!..........
40000000000D30B0 11 38 00 44 06 39 A0 02 88 00 C2 03 80 01 00 43 .8.D.9.........C
40000000000D30C0 11 00 00 00 01 00 00 00 00 02 00 00 88 BB FB 58 ...............X
40000000000D30D0 08 08 00 52 00 21 00 00 00 02 00 60 04 40 00 84 ...R.!.....`.@..
40000000000D30E0 19 50 01 44 00 21 00 00 00 02 00 00 E8 8A F7 58 .P.D.!.........X
40000000000D30F0 08 08 00 52 00 21 00 00 00 02 00 00 00 00 04 00 ...R.!..........
40000000000D3100 11 50 01 46 00 21 00 00 00 02 00 00 48 EE FF 58 .P.F.!......H..X
40000000000D3110 11 08 00 52 00 21 A0 02 8C 00 42 00 D8 76 F4 58 ...R.!....B..v.X
40000000000D3120 09 38 98 42 86 38 E0 00 90 20 20 20 00 48 01 84 .8.B.8...   .H..
40000000000D3130 F1 00 38 4A 90 D1 81 00 00 00 C2 03 90 00 00 43 ..8J...........C
40000000000D3140 11 30 84 1C 87 30 E0 00 84 2C 80 03 70 00 00 43 .0...0...,..p..C
40000000000D3150 09 78 00 40 18 10 00 08 95 20 23 00 00 00 04 00 .x.@..... #.....
40000000000D3160 0B 70 3C 1C 00 20 E0 00 38 00 20 00 00 00 04 00 .p<.. ..8. .....
40000000000D3170 02 00 00 00 01 00 E0 00 38 28 00 E0 90 70 18 E6 ........8(...p..
40000000000D3180 0B 48 80 1C 88 B9 F1 08 00 00 48 C4 11 00 00 90 .H........H.....
40000000000D3190 E3 78 00 00 00 61 E2 00 00 00 42 C0 E1 78 30 80 .x...a....B..x0.
40000000000D31A0 10 00 00 00 01 00 60 00 38 0E F3 03 70 00 00 43 ......`.8...p..C
40000000000D31B0 08 40 00 00 00 21 00 00 00 02 00 00 00 00 04 00 .@...!..........
40000000000D31C0 01 00 00 00 01 00 00 40 01 55 00 00 00 00 04 00 .......@.U......
40000000000D31D0 11 00 00 00 01 00 00 38 05 80 03 80 08 00 84 00 .......8........
40000000000D31E0 11 00 00 00 01 00 00 00 00 02 00 00 28 EC FF 58 ............(..X
40000000000D31F0 09 40 04 00 00 24 10 00 A4 00 42 00 80 02 AA 00 .@...$....B.....
40000000000D3200 11 00 00 00 01 00 00 38 05 80 03 80 08 00 84 00 .......8........
40000000000D3210 11 50 05 00 00 24 B0 02 00 00 42 00 18 75 F4 58 .P...$....B..u.X
40000000000D3220 10 08 00 52 00 21 80 00 00 00 42 00 A0 FF FF 48 ...R.!....B....H
40000000000D3230 11 50 05 00 00 24 00 00 00 02 00 00 98 5A 01 50 .P...$.......Z.P
40000000000D3240 08 00 00 00 01 00 10 00 A4 00 42 60 04 40 00 84 ..........B`.@..
40000000000D3250 19 00 00 00 01 00 00 00 20 00 23 00 B0 FE FF 48 ........ .#....H
40000000000D3260 08 00 00 00 01 00 00 00 00 02 00 00 00 00 04 00 ................
40000000000D3270 08 00 00 00 01 00 00 00 00 02 00 00 00 00 04 00 ................
40000000000D3280 18 68 51 20 80 05 C0 00 33 7E 46 00 00 00 00 20 .hQ ....3~F.... 
40000000000D3290 09 58 D1 FB AF 27 E0 A0 F7 5B 4F E0 05 00 CC 00 .X...'...[O.....
40000000000D32A0 08 18 81 18 00 21 B0 02 AC 30 20 80 05 00 C4 00 .....!...0 .....
40000000000D32B0 09 38 80 00 86 30 E0 02 04 00 42 20 06 08 01 84 .8...0....B ....
40000000000D32C0 08 00 00 46 98 11 50 A2 F6 5B 4F 00 45 E8 BF 9D ...F..P..[O.E...
40000000000D32D0 19 40 00 40 89 39 90 0A 00 80 C8 03 30 04 00 43 .@.@.9......0..C
40000000000D32E0 08 70 00 1C 18 10 00 00 00 02 00 40 85 61 00 84 .p.........@.a..
40000000000D32F0 19 20 01 56 10 10 00 00 00 02 00 04 E0 03 00 43 . .V...........C
40000000000D3300 08 38 00 48 86 39 50 02 94 30 20 00 02 20 45 C6 .8.H.9P..0 .. E.
40000000000D3310 19 00 00 00 01 00 00 00 00 02 80 03 50 02 00 43 ............P..C
40000000000D3320 09 30 01 1C 10 10 00 00 00 02 00 00 00 00 04 00 .0..............
40000000000D3330 01 00 00 00 01 00 60 02 98 2C 00 00 00 00 04 00 ......`..,......
40000000000D3340 00 00 00 00 01 00 E0 00 90 2C 00 20 06 20 01 84 .........,. . ..
40000000000D3350 19 00 00 00 01 00 00 00 00 02 80 08 F0 01 00 43 ...............C
40000000000D3360 0B 80 01 4A 18 10 E0 80 39 00 40 00 00 00 04 00 ...J....9.@.....
40000000000D3370 0B 70 00 1C 00 10 E0 70 A0 22 40 00 00 00 04 00 .p.....p."@.....
40000000000D3380 0B 70 00 1C 10 10 E0 48 39 18 40 00 00 00 04 00 .p.....H9.@.....
40000000000D3390 10 00 00 00 01 00 60 00 38 0E 73 03 30 00 00 42 ......`.8.s.0..B
40000000000D33A0 11 00 00 00 01 00 00 00 00 02 00 00 68 9A FB 58 ............h..X
40000000000D33B0 10 08 00 5C 00 21 70 00 20 0C F3 03 10 02 00 43 ...\.!p. ......C
40000000000D33C0 11 00 00 00 01 00 00 00 00 02 80 08 80 01 00 43 ...............C
40000000000D33D0 08 00 00 00 01 00 00 00 00 02 00 00 00 00 04 00 ................
40000000000D33E0 01 80 01 4A 18 10 E0 00 90 2C 00 20 06 20 01 84 ...J.....,. . ..
40000000000D33F0 0B 70 C0 1C 00 20 E0 00 38 00 20 00 00 00 04 00 .p... ..8. .....
40000000000D3400 0B 70 38 50 11 20 E0 00 38 20 20 00 00 00 04 00 .p8P. ..8  .....
40000000000D3410 09 00 00 00 01 00 E0 48 39 18 40 00 00 00 04 00 .......H9.@.....
40000000000D3420 10 00 00 00 01 00 70 00 38 0C F3 03 30 00 00 42 ......p.8...0..B
40000000000D3430 11 00 00 00 01 00 00 00 00 02 00 00 D8 99 FB 58 ...............X
40000000000D3440 10 08 00 5C 00 21 60 00 20 0E 73 03 00 01 00 43 ...\.!`. .s....C
40000000000D3450 11 00 00 00 01 00 00 00 00 02 00 00 78 7C F4 58 ............x|.X
40000000000D3460 11 30 04 10 07 35 10 00 B8 00 C2 03 40 01 00 43 .0...5......@..C
40000000000D3470 09 00 00 00 01 80 71 02 00 00 42 43 04 00 00 84 ......q...BC....
40000000000D3480 08 78 00 46 18 10 E0 80 30 00 42 40 06 10 59 00 .x.F....0.B@..Y.
40000000000D3490 09 80 01 00 00 21 10 03 94 30 20 60 06 18 01 84 .....!...0 `....
40000000000D34A0 08 00 3C 1C 98 11 00 00 00 02 00 20 16 93 01 80 ..<........ ....
40000000000D34B0 19 90 99 64 05 20 00 00 00 02 00 00 F8 7B F4 58 ...d. .......{.X
40000000000D34C0 09 70 08 10 00 21 90 00 20 10 72 20 00 70 01 84 .p...!.. .r .p..
40000000000D34D0 0B 30 04 1C 07 F5 F1 80 30 00 C2 43 14 10 01 84 .0......0..C....
40000000000D34E0 09 00 00 00 01 C0 E1 00 3C 30 20 00 00 00 04 00 ........<0 .....
40000000000D34F0 F1 00 38 46 98 11 00 00 00 02 80 03 20 00 00 43 ..8F........ ..C
40000000000D3500 03 39 01 44 00 61 22 0A 88 00 42 44 24 42 00 80 .9.D.a"...BD$B..
40000000000D3510 10 00 00 00 01 00 60 10 91 0E 61 03 70 FF FF 4A ......`...a.p..J
40000000000D3520 02 20 01 4E 00 21 00 00 00 02 00 00 02 20 45 C6 . .N.!....... E.
40000000000D3530 10 00 00 00 01 00 00 00 00 02 00 08 B0 FE FF 4A ...............J
40000000000D3540 09 00 FD 41 3F 23 00 00 00 02 00 00 01 20 25 E6 ...A?#....... %.
40000000000D3550 12 38 00 40 86 F9 01 C0 00 80 A1 04 F0 FD FF 4A .8.@...........J
40000000000D3560 09 00 00 00 01 00 00 00 AC 20 23 00 01 00 00 84 ......... #.....
40000000000D3570 01 00 00 00 01 00 F0 7F C1 BF 05 00 00 00 04 00 ................
40000000000D3580 02 00 00 00 01 00 00 68 01 55 00 00 C0 0A 00 07 .......h.U......
40000000000D3590 18 00 00 00 01 00 C0 00 31 00 42 80 08 00 84 00 ........1.B.....
40000000000D35A0 09 00 00 00 01 00 40 FA 93 7E 46 00 00 00 04 00 ......@..~F.....
40000000000D35B0 10 00 00 00 01 00 00 01 90 22 63 00 80 FF FF 48 ........."c....H
40000000000D35C0 11 00 00 00 01 00 00 00 00 02 00 00 08 7B F4 58 .............{.X
40000000000D35D0 09 38 04 10 06 35 00 00 00 02 00 20 00 70 01 84 .8...5..... .p..
40000000000D35E0 D1 20 FD 49 3F 23 00 00 00 02 00 03 D0 00 00 43 . .I?#.........C
40000000000D35F0 09 00 00 00 01 00 70 02 00 00 42 40 04 00 00 84 ......p...B@....
40000000000D3600 00 70 00 46 18 10 20 03 88 2C 00 00 06 00 00 84 .p.F.. ..,......
40000000000D3610 19 98 01 46 00 21 10 03 94 30 20 00 00 00 00 20 ...F.!...0 .... 
40000000000D3620 08 00 38 54 98 11 00 00 00 02 00 20 16 93 01 80 ..8T....... ....
40000000000D3630 19 90 99 64 05 20 00 00 00 02 00 00 78 7A F4 58 ...d. ......xz.X
40000000000D3640 09 70 08 10 00 21 90 00 20 10 72 20 00 70 01 84 .p...!.. .r .p..
40000000000D3650 09 00 00 00 01 00 60 08 38 0E 6A 00 00 00 04 00 ......`.8.j.....
40000000000D3660 E9 10 05 44 00 E1 E1 00 A8 30 20 00 00 00 04 00 ...D.....0 .....
40000000000D3670 F1 00 38 46 98 11 00 00 00 02 80 03 20 00 00 43 ..8F........ ..C
40000000000D3680 03 39 01 44 00 61 22 0A 88 00 42 44 24 42 00 80 .9.D.a"...BD$B..
40000000000D3690 10 00 00 00 01 00 60 10 91 0E 61 03 70 FF FF 4A ......`...a.p..J
40000000000D36A0 09 20 01 4E 00 21 00 00 00 02 00 00 00 00 04 00 . .N.!..........
40000000000D36B0 10 80 00 48 91 31 60 00 90 0E F3 03 10 FD FF 4A ...H.1`........J
40000000000D36C0 11 00 00 56 90 11 80 00 00 00 42 00 B0 FE FF 48 ...V......B....H
40000000000D36D0 09 40 00 00 00 21 00 20 AD 20 23 E0 FF 82 7F 0B .@...!. . #.....
40000000000D36E0 02 00 00 00 01 00 00 68 01 55 00 00 C0 0A 00 07 .......h.U......
40000000000D36F0 19 00 00 00 01 00 C0 00 31 00 42 80 08 00 84 00 ........1.B.....
40000000000D3700 11 80 01 40 05 20 00 00 00 02 00 00 48 00 00 50 ...@. ......H..P
40000000000D3710 03 08 00 5C 00 21 F0 7F C1 BF 05 00 D0 02 AA 00 ...\.!..........
40000000000D3720 00 00 00 00 01 00 00 60 05 80 03 00 00 00 04 00 .......`........
40000000000D3730 19 60 80 18 00 21 00 00 00 02 00 80 08 00 84 00 .`...!..........
40000000000D3740 08 98 65 2A 80 05 C0 80 32 7E 46 80 44 EF B7 9E ..e*....2~F.D...
40000000000D3750 09 88 D1 FB AF 27 50 A2 F6 5B 4F E0 00 02 18 C2 .....'P..[O.....
40000000000D3760 08 20 01 48 18 10 90 C2 31 00 42 40 06 00 C4 00 . .H....1.B@....
40000000000D3770 09 A0 01 02 00 21 80 A2 F7 63 4F C0 44 E8 BF 9D .....!...cO.D...
40000000000D3780 08 88 01 62 18 10 00 00 A4 30 23 60 F5 07 FD 8C ...b.....0#`....
40000000000D3790 19 80 C1 18 00 21 70 0A 00 80 C8 03 C0 0D 00 43 .....!p........C
40000000000D37A0 08 28 01 4A 18 10 E0 02 31 00 42 A0 85 62 00 84 .(.J....1.B..b..
40000000000D37B0 09 78 61 18 00 21 E0 00 90 20 20 C0 00 00 1D E6 .xa..!...  .....
40000000000D37C0 08 50 01 4A 00 21 80 02 A0 30 20 80 05 70 58 00 .P.J.!...0 ..pX.
40000000000D37D0 09 00 00 00 01 00 00 00 00 02 00 00 00 00 04 00 ................
40000000000D37E0 11 10 01 62 10 10 00 00 00 02 00 03 40 0D 00 43 ...b........@..C
40000000000D37F0 11 00 00 00 01 00 60 70 88 0E 71 03 C0 01 00 43 ......`p..q....C
40000000000D3800 08 A8 01 4A 18 10 00 00 00 02 00 C0 06 10 01 84 ...J............
40000000000D3810 11 00 00 00 01 00 30 02 88 2C 00 00 F8 95 FB 58 ......0..,.....X
40000000000D3820 11 08 00 68 00 21 70 00 20 0C F3 03 30 02 00 42 ...h.!p. ...0..B
40000000000D3830 00 00 00 00 01 00 30 02 88 2C 00 C0 00 10 1D C6 ......0..,......
40000000000D3840 19 00 00 00 01 00 00 00 00 02 80 03 10 02 00 43 ...............C
40000000000D3850 0B A8 01 54 18 10 E0 A8 8D 00 40 00 00 00 04 00 ...T......@.....
40000000000D3860 0B 70 FC 1D 3F 23 E0 00 38 00 20 00 00 00 04 00 .p..?#..8. .....
40000000000D3870 01 00 00 00 01 00 E0 00 38 28 00 00 00 00 04 00 ........8(......
40000000000D3880 11 00 00 00 01 00 60 E0 3A 0E 73 03 E0 01 00 43 ......`.:.s....C
40000000000D3890 08 00 00 00 01 00 00 00 00 02 00 00 00 00 04 00 ................
40000000000D38A0 11 00 00 00 01 00 00 00 00 02 00 00 28 78 F4 58 ............(x.X
40000000000D38B0 08 08 00 68 00 21 70 08 20 0C 6A E0 06 10 59 00 ...h.!p. .j...Y.
40000000000D38C0 19 88 04 00 00 24 00 00 00 02 00 03 60 08 00 43 .....$......`..C
40000000000D38D0 0B B0 01 4A 18 10 60 B3 DD 00 40 00 00 00 04 00 ...J..`...@.....
40000000000D38E0 0B 70 00 6C 00 10 00 00 00 02 00 C0 01 70 50 00 .p.l.........pP.
40000000000D38F0 01 00 00 00 01 00 00 51 38 04 29 E0 F1 71 B0 80 .......Q8.)..q..
40000000000D3900 0B 70 40 50 11 20 E0 00 38 20 20 00 00 00 04 00 .p@P. ..8  .....
40000000000D3910 02 00 00 00 01 00 E0 78 38 80 3C E0 00 70 18 50 .......x8.<..p.P
40000000000D3920 19 00 00 00 01 00 00 00 00 02 80 03 C0 00 00 43 ...............C
40000000000D3930 09 10 45 44 00 20 00 00 00 02 00 00 00 00 04 00 ..ED. ..........
40000000000D3940 09 70 00 48 10 10 00 00 00 02 00 C0 06 10 01 84 .p.H............
40000000000D3950 11 30 88 1C 87 30 00 00 00 02 80 03 30 00 00 43 .0...0......0..C
40000000000D3960 11 A8 01 4A 18 10 00 00 00 02 00 00 A8 94 FB 58 ...J...........X
40000000000D3970 11 08 00 68 00 21 70 00 20 0C 73 03 30 FF FF 4A ...h.!p. .s.0..J
40000000000D3980 11 38 00 56 86 39 B0 FA AF 7E C6 03 A0 0B 00 43 .8.V.9...~.....C
40000000000D3990 09 00 00 00 01 00 E0 00 90 20 20 00 00 00 04 00 .........  .....
40000000000D39A0 10 00 00 00 01 00 70 70 88 0C 71 03 60 FE FF 4A ......pp..q.`..J
40000000000D39B0 09 40 00 00 00 21 00 70 C4 20 23 00 30 03 AA 00 .@...!.p. #.0...
40000000000D39C0 00 00 00 00 01 00 00 90 05 80 03 00 00 00 04 00 ................
40000000000D39D0 18 60 C0 18 00 21 00 00 00 02 00 80 08 00 84 00 .`...!..........
40000000000D39E0 08 70 00 52 18 10 00 00 00 02 00 A0 06 00 00 84 .p.R............
40000000000D39F0 09 B8 B1 6E 05 20 00 00 00 02 00 00 07 48 01 84 ...n. .......H..
40000000000D3A00 11 00 38 60 98 11 00 00 00 02 00 00 A8 76 F4 58 ..8`.........v.X
40000000000D3A10 09 70 08 10 00 21 00 00 00 02 00 20 00 A0 01 84 .p...!..... ....
40000000000D3A20 11 30 04 1C 07 35 00 00 00 02 00 03 E0 06 00 43 .0...5.........C
40000000000D3A30 09 70 00 60 18 10 00 00 00 02 00 40 14 10 01 84 .p.`.......@....
40000000000D3A40 10 00 38 52 98 11 00 00 00 02 00 00 00 FF FF 48 ..8R...........H
40000000000D3A50 08 A8 01 54 18 10 00 00 00 02 00 00 00 00 04 00 ...T............
40000000000D3A60 03 78 00 48 10 10 00 00 00 02 00 E0 20 7A 18 C2 .x.H........ z..
40000000000D3A70 08 00 00 00 01 00 00 00 00 02 00 00 00 00 04 00 ................
40000000000D3A80 10 00 00 00 01 00 00 00 00 02 00 03 60 01 00 43 ............`..C
40000000000D3A90 0B 70 D4 46 00 20 E0 00 38 00 20 00 00 00 04 00 .p.F. ..8. .....
40000000000D3AA0 02 00 00 00 01 00 E0 00 38 28 00 00 02 70 40 00 ........8(...p@.
40000000000D3AB0 19 40 00 1C 89 39 00 00 00 02 00 04 E0 09 00 43 .@...9.........C
40000000000D3AC0 0B 80 40 4C 11 20 00 01 40 20 20 00 00 00 04 00 ..@L. ..@  .....
40000000000D3AD0 09 00 00 00 01 00 00 39 41 18 40 00 00 00 04 00 .......9A.@.....
40000000000D3AE0 11 48 00 20 88 39 00 00 00 02 80 04 40 01 00 43 .H. .9......@..C
40000000000D3AF0 11 30 9C 1C 87 39 00 00 00 02 00 03 B0 04 00 43 .0...9.........C
40000000000D3B00 11 30 70 1D 87 39 00 00 00 02 00 03 60 06 00 43 .0p..9......`..C
40000000000D3B10 11 30 88 1C 87 39 00 00 00 02 00 03 10 04 00 43 .0...9.........C
40000000000D3B20 11 00 00 00 01 00 00 00 00 02 00 00 A8 75 F4 58 .............u.X
40000000000D3B30 11 08 00 68 00 21 70 08 20 0C 6A 03 00 06 00 43 ...h.!p. .j....C
40000000000D3B40 0B A8 01 4A 18 10 60 AB 8D 00 40 00 00 00 04 00 ...J..`...@.....
40000000000D3B50 0B 70 00 6C 00 10 00 00 00 02 00 C0 01 70 50 00 .p.l.........pP.
40000000000D3B60 01 00 00 00 01 00 00 51 38 04 29 E0 F1 71 B0 80 .......Q8.)..q..
40000000000D3B70 0B 70 40 50 11 20 E0 00 38 20 20 00 00 00 04 00 .p@P. ..8  .....
40000000000D3B80 02 00 00 00 01 00 E0 78 38 80 3C E0 00 70 18 50 .......x8.<..p.P
40000000000D3B90 19 00 00 00 01 00 00 00 00 02 80 03 80 02 00 43 ...............C
40000000000D3BA0 C9 70 04 00 00 24 00 00 00 02 00 00 00 00 04 00 .p...$..........
40000000000D3BB0 09 10 39 44 00 20 F0 00 90 20 20 00 00 00 04 00 ..9D. ...  .....
40000000000D3BC0 00 00 00 00 01 00 30 02 88 2C 00 E0 20 7A 18 C2 ......0..,.. z..
40000000000D3BD0 11 00 00 00 01 00 00 00 00 02 80 03 C0 FE FF 4A ...............J
40000000000D3BE0 09 18 D5 46 00 20 00 00 00 02 00 60 F1 10 29 E2 ...F. .....`..).
40000000000D3BF0 0B 70 00 46 00 10 00 00 00 02 00 C0 01 70 50 00 .p.F.........pP.
40000000000D3C00 13 40 00 1C 89 39 02 48 04 80 A1 05 90 08 00 43 .@...9.H.......C
40000000000D3C10 08 00 00 00 01 00 00 00 00 02 00 00 00 00 04 00 ................
40000000000D3C20 10 00 00 00 01 00 00 00 00 02 00 03 60 01 00 43 ............`..C
40000000000D3C30 03 A8 01 4A 18 10 30 02 88 2C 00 C0 51 1B 01 80 ...J..0..,..Q...
40000000000D3C40 0B 70 00 1C 00 10 00 00 00 02 00 C0 01 70 50 00 .p...........pP.
40000000000D3C50 11 30 00 1C 87 39 00 00 00 02 00 03 90 01 00 43 .0...9.........C
40000000000D3C60 03 00 00 00 01 00 F0 00 38 20 00 E0 F1 30 45 80 ........8 ...0E.
40000000000D3C70 0B 78 00 1E 10 10 F0 38 3D 18 40 00 00 00 04 00 .x.....8=.@.....
40000000000D3C80 11 00 00 00 01 00 70 00 3C 0C 73 03 00 FD FF 4A ......p.<.s....J
40000000000D3C90 11 30 9C 1C 87 39 00 00 00 02 00 03 D0 03 00 43 .0...9.........C
40000000000D3CA0 11 30 70 1D 87 39 00 00 00 02 00 03 50 06 00 43 .0p..9......P..C
40000000000D3CB0 11 30 88 1C 87 39 00 00 00 02 00 03 60 03 00 43 .0...9......`..C
40000000000D3CC0 11 00 00 00 01 00 00 00 00 02 00 00 08 74 F4 58 .............t.X
40000000000D3CD0 11 08 00 68 00 21 70 08 20 0C 6A 03 10 04 00 43 ...h.!p. .j....C
40000000000D3CE0 0B B0 01 54 18 10 60 B3 8D 00 40 00 00 00 04 00 ...T..`...@.....
40000000000D3CF0 0B 70 00 6C 00 10 00 00 00 02 00 C0 01 70 50 00 .p.l.........pP.
40000000000D3D00 01 00 00 00 01 00 00 51 38 04 29 E0 F1 71 B0 80 .......Q8.)..q..
40000000000D3D10 0B 70 40 50 11 20 E0 00 38 20 20 00 00 00 04 00 .p@P. ..8  .....
40000000000D3D20 02 00 00 00 01 00 E0 78 38 80 3C E0 00 70 18 50 .......x8.<..p.P
40000000000D3D30 19 00 00 00 01 00 00 00 00 02 80 03 70 01 00 43 ............p..C
40000000000D3D40 C9 70 04 00 00 24 00 00 00 02 00 00 00 00 04 00 .p...$..........
40000000000D3D50 09 10 39 44 00 20 F0 00 90 20 20 00 00 00 04 00 ..9D. ...  .....
40000000000D3D60 08 38 88 1E 86 30 00 00 00 02 00 00 00 00 04 00 .8...0..........
40000000000D3D70 11 00 00 00 01 00 00 00 00 02 80 03 C0 FE FF 4A ...............J
40000000000D3D80 10 00 00 00 01 00 60 78 88 0E 71 03 60 00 00 40 ......`x..q.`..@
40000000000D3D90 00 00 00 00 01 00 30 02 88 2C 00 00 00 00 04 00 ......0..,......
40000000000D3DA0 0B 70 00 4A 18 10 E0 70 8C 00 40 00 00 00 04 00 .p.J...p..@.....
40000000000D3DB0 0B 70 00 1C 00 10 00 00 00 02 00 C0 01 70 50 00 .p...........pP.
40000000000D3DC0 11 00 00 00 01 00 70 00 38 0C 73 03 C0 FB FF 49 ......p.8.s....I
40000000000D3DD0 08 00 00 00 01 00 00 00 00 02 00 00 00 00 04 00 ................
40000000000D3DE0 09 40 00 00 00 21 00 78 C4 20 23 00 30 03 AA 00 .@...!.x. #.0...
40000000000D3DF0 00 00 00 00 01 00 00 90 05 80 03 00 00 00 04 00 ................
40000000000D3E00 18 60 C0 18 00 21 00 00 00 02 00 80 08 00 84 00 .`...!..........
40000000000D3E10 08 70 00 52 18 10 00 00 00 02 00 A0 06 00 00 84 .p.R............
40000000000D3E20 09 B8 B1 46 05 20 00 00 00 02 00 00 07 48 01 84 ...F. .......H..
40000000000D3E30 11 00 38 5A 98 11 00 00 00 02 00 00 78 72 F4 58 ..8Z........xr.X
40000000000D3E40 09 70 08 10 00 21 00 00 00 02 00 20 00 A0 01 84 .p...!..... ....
40000000000D3E50 11 30 04 1C 07 35 00 00 00 02 00 03 80 06 00 43 .0...5.........C
40000000000D3E60 08 00 00 00 01 00 20 0A 88 00 42 00 00 00 04 00 ...... ...B.....
40000000000D3E70 09 70 00 5A 18 10 F0 00 90 20 20 00 00 00 04 00 .p.Z.....  .....
40000000000D3E80 08 A8 01 54 18 10 00 70 A4 30 23 60 04 10 59 00 ...T...p.0#`..Y.
40000000000D3E90 19 00 00 00 01 00 70 10 3D 0C 61 00 40 FD FF 48 ......p.=.a.@..H
40000000000D3EA0 08 70 00 52 18 10 00 00 00 02 00 A0 06 00 00 84 .p.R............
40000000000D3EB0 09 B8 B1 46 05 20 00 00 00 02 00 00 07 48 01 84 ...F. .......H..
40000000000D3EC0 11 00 38 5E 98 11 00 00 00 02 00 00 E8 71 F4 58 ..8^.........q.X
40000000000D3ED0 09 70 08 10 00 21 00 00 00 02 00 20 00 A0 01 84 .p...!..... ....
40000000000D3EE0 11 30 04 1C 07 35 00 00 00 02 00 03 D0 01 00 43 .0...5.........C
40000000000D3EF0 08 00 00 00 01 00 E0 00 BC 30 20 40 14 10 01 84 .........0 @....
40000000000D3F00 09 00 00 00 01 00 F0 00 90 20 20 00 00 00 04 00 .........  .....
40000000000D3F10 10 00 38 52 98 11 70 10 3D 0C 61 00 60 FE FF 48 ..8R..p.=.a.`..H
40000000000D3F20 09 B8 91 FA C6 27 60 0B 88 00 42 00 17 00 00 90 .....'`...B.....
40000000000D3F30 11 B8 01 6E 18 10 00 00 00 02 00 00 18 82 FB 58 ...n...........X
40000000000D3F40 08 08 00 68 00 21 00 00 00 02 00 40 04 40 00 84 ...h.!.....@.@..
40000000000D3F50 08 A8 01 4A 18 10 00 00 00 02 00 00 00 00 04 00 ...J............
40000000000D3F60 0B 78 00 48 10 10 70 10 3D 0C 61 00 00 00 04 00 .x.H..p.=.a.....
40000000000D3F70 EB 10 05 44 00 21 00 00 00 02 00 63 04 10 59 00 ...D.!.....c..Y.
40000000000D3F80 00 00 00 00 01 C0 31 02 88 2C 00 00 00 00 04 00 ......1..,......
40000000000D3F90 F8 38 88 1E 86 30 00 00 00 02 00 00 F0 FA FF 48 .8...0.........H
40000000000D3FA0 09 B8 71 FA C6 27 60 0B 88 00 42 00 17 00 00 90 ..q..'`...B.....
40000000000D3FB0 11 B8 01 6E 18 10 00 00 00 02 00 00 98 81 FB 58 ...n...........X
40000000000D3FC0 08 78 00 48 10 10 20 02 20 00 42 20 00 A0 01 84 .x.H.. . .B ....
40000000000D3FD0 0B A8 01 4A 18 10 70 10 3D 0C 61 00 00 00 04 00 ...J..p.=.a.....
40000000000D3FE0 EB 10 05 44 00 21 00 00 00 02 00 63 04 10 59 00 ...D.!.....c..Y.
40000000000D3FF0 00 00 00 00 01 C0 31 02 88 2C 00 00 00 00 04 00 ......1..,......
40000000000D4000 F8 38 88 1E 86 30 00 00 00 02 00 00 80 FA FF 48 .8...0.........H
40000000000D4010 09 B8 91 FA C6 27 60 0B 88 00 42 00 17 00 00 90 .....'`...B.....
40000000000D4020 11 B8 01 6E 18 10 00 00 00 02 00 00 28 81 FB 58 ...n........(..X
40000000000D4030 09 78 00 48 10 10 20 02 20 00 42 20 00 A0 01 84 .x.H.. . .B ....
40000000000D4040 0B 38 88 1E 86 F0 21 0A 88 00 42 00 00 00 04 00 .8....!...B.....
40000000000D4050 10 00 00 00 01 C0 71 10 3D 0C 61 00 D0 FB FF 48 ......q.=.a....H
40000000000D4060 09 B8 71 FA C6 27 60 0B 88 00 42 00 17 00 00 90 ..q..'`...B.....
40000000000D4070 11 B8 01 6E 18 10 00 00 00 02 00 00 D8 80 FB 58 ...n...........X
40000000000D4080 09 78 00 48 10 10 20 02 20 00 42 20 00 A0 01 84 .x.H.. . .B ....
40000000000D4090 0B 38 88 1E 86 F0 21 0A 88 00 42 00 00 00 04 00 .8....!...B.....
40000000000D40A0 11 00 00 00 01 C0 71 10 3D 0C 61 00 80 FB FF 48 ......q.=.a....H
40000000000D40B0 09 00 00 00 01 00 60 00 20 0E 72 00 00 00 04 00 ......`. .r.....
40000000000D40C0 11 00 00 00 01 C0 E1 00 20 00 C2 03 90 FC FF 49 ........ ......I
40000000000D40D0 08 00 00 00 01 00 00 00 00 02 00 00 00 00 04 00 ................
40000000000D40E0 09 10 05 44 00 21 F0 00 90 20 20 00 00 00 04 00 ...D.!...  .....
40000000000D40F0 11 00 00 00 01 00 70 10 3D 0C 61 00 80 FC FF 48 ......p.=.a....H
40000000000D4100 11 00 00 00 01 00 60 00 20 0E F2 03 F0 04 00 41 ......`. ......A
40000000000D4110 08 00 00 00 01 00 00 00 00 02 00 00 00 00 04 00 ................
40000000000D4120 11 00 00 00 01 00 20 0A 88 00 42 00 20 F8 FF 48 ...... ...B. ..H
40000000000D4130 08 10 05 44 00 21 F0 00 90 20 20 00 00 00 04 00 ...D.!...  .....
40000000000D4140 02 A8 01 4A 18 10 00 00 00 02 00 60 04 10 59 00 ...J.......`..Y.
40000000000D4150 18 00 00 00 01 00 70 10 3D 0C 61 00 30 F9 FF 48 ......p.=.a.0..H
40000000000D4160 11 00 00 00 01 00 00 00 00 02 00 00 68 6F F4 58 ............ho.X
40000000000D4170 09 38 04 10 06 35 00 00 00 02 00 20 00 A0 01 84 .8...5..... ....
40000000000D4180 D1 A8 01 4A 18 90 21 0A 88 00 42 03 E0 FD FF 4B ...J..!...B....K
40000000000D4190 0B A8 01 4A 18 10 60 AB 8D 00 40 00 00 00 04 00 ...J..`...@.....
40000000000D41A0 0B 70 00 6C 00 10 00 00 00 02 00 C0 01 70 50 00 .p.l.........pP.
40000000000D41B0 01 00 00 00 01 00 00 51 38 04 29 E0 F1 71 B0 80 .......Q8.)..q..
40000000000D41C0 0B 70 40 50 11 20 E0 00 38 20 20 00 00 00 04 00 .p@P. ..8  .....
40000000000D41D0 02 00 00 00 01 00 E0 78 38 80 3C E0 00 70 18 50 .......x8.<..p.P
40000000000D41E0 19 00 00 00 01 00 00 00 00 02 80 03 60 00 00 43 ............`..C
40000000000D41F0 C9 70 04 00 00 24 00 00 00 02 00 00 00 00 04 00 .p...$..........
40000000000D4200 09 10 39 44 00 20 F0 00 90 20 20 00 00 00 04 00 ..9D. ...  .....
40000000000D4210 0B 38 88 1E 86 F0 21 0A 88 00 42 00 00 00 04 00 .8....!...B.....
40000000000D4220 02 00 00 00 01 80 31 02 88 2C 80 63 04 10 59 00 ......1..,.c..Y.
40000000000D4230 19 00 00 00 01 C0 71 10 3D 0C 61 00 50 F8 FF 48 ......q.=.a.P..H
40000000000D4240 08 70 00 52 18 10 00 00 00 02 00 E0 C6 1A 15 80 .p.R............
40000000000D4250 09 A8 01 00 00 21 00 00 00 02 00 00 07 48 01 84 .....!.......H..
40000000000D4260 11 00 38 5C 98 11 00 00 00 02 00 00 48 6E F4 58 ..8\........Hn.X
40000000000D4270 09 70 08 10 00 21 00 00 00 02 00 20 00 A0 01 84 .p...!..... ....
40000000000D4280 11 30 04 1C 07 35 00 00 00 02 00 03 00 03 00 43 .0...5.........C
40000000000D4290 08 10 05 44 00 21 F0 00 90 20 20 00 00 00 04 00 ...D.!...  .....
40000000000D42A0 0A 70 00 5C 18 10 70 10 3D 0C 61 00 00 00 04 00 .p.\..p.=.a.....
40000000000D42B0 09 A8 01 54 18 10 00 70 A4 30 23 00 00 00 04 00 ...T...p.0#.....
40000000000D42C0 EB 10 05 44 00 21 00 00 00 02 00 63 04 10 59 00 ...D.!.....c..Y.
40000000000D42D0 00 00 00 00 01 C0 31 02 88 2C 00 00 00 00 04 00 ......1..,......
40000000000D42E0 F8 38 88 1E 86 30 00 00 00 02 00 00 A0 F7 FF 48 .8...0.........H
40000000000D42F0 11 00 00 00 01 00 00 00 00 02 00 00 D8 6D F4 58 .............m.X
40000000000D4300 11 08 00 68 00 21 70 08 20 0C 6A 03 60 01 00 43 ...h.!p. .j.`..C
40000000000D4310 0B B0 01 54 18 10 60 B3 8D 00 40 00 00 00 04 00 ...T..`...@.....
40000000000D4320 0B 70 00 6C 00 10 00 00 00 02 00 C0 01 70 50 00 .p.l.........pP.
40000000000D4330 01 00 00 00 01 00 00 51 38 04 29 E0 F1 71 B0 80 .......Q8.)..q..
40000000000D4340 0B 70 40 50 11 20 E0 00 38 20 20 00 00 00 04 00 .p@P. ..8  .....
40000000000D4350 02 00 00 00 01 00 E0 78 38 80 3C E0 00 70 18 50 .......x8.<..p.P
40000000000D4360 19 00 00 00 01 00 00 00 00 02 80 03 50 00 00 43 ............P..C
40000000000D4370 C9 70 04 00 00 24 00 00 00 02 00 00 00 00 04 00 .p...$..........
40000000000D4380 09 10 39 44 00 20 F0 00 90 20 20 00 00 00 04 00 ..9D. ...  .....
40000000000D4390 0B 38 88 1E 86 F0 21 0A 88 00 42 00 00 00 04 00 .8....!...B.....
40000000000D43A0 10 00 00 00 01 C0 71 10 3D 0C 61 00 80 F8 FF 48 ......q.=.a....H
40000000000D43B0 08 00 00 00 01 00 E0 00 A4 30 20 E0 01 61 00 84 .........0 ..a..
40000000000D43C0 09 A8 01 00 00 21 70 63 8D 0A 40 00 07 48 01 84 .....!pc..@..H..
40000000000D43D0 11 00 38 1E 98 11 00 00 00 02 00 00 D8 6C F4 58 ..8..........l.X
40000000000D43E0 09 70 08 10 00 21 F0 80 30 00 42 20 00 A0 01 84 .p...!..0.B ....
40000000000D43F0 11 30 04 1C 07 35 00 00 00 02 00 03 50 00 00 43 .0...5......P..C
40000000000D4400 08 10 05 44 00 21 E0 00 3C 30 20 00 00 00 04 00 ...D.!..<0 .....
40000000000D4410 02 78 00 48 10 10 00 00 00 02 00 E0 20 7A 18 C2 .x.H........ z..
40000000000D4420 0B 00 38 52 98 D1 21 0A 88 00 42 00 00 00 04 00 ..8R..!...B.....
40000000000D4430 11 00 00 00 01 C0 71 10 3D 0C 61 00 F0 F7 FF 48 ......q.=.a....H
40000000000D4440 09 00 00 00 01 00 60 00 20 0E 72 00 00 00 04 00 ......`. .r.....
40000000000D4450 10 00 00 00 01 C0 E1 00 20 00 C2 03 30 FF FF 49 ........ ...0..I
40000000000D4460 09 10 05 44 00 21 F0 00 90 20 20 00 00 00 04 00 ...D.!...  .....
40000000000D4470 0B 38 88 1E 86 F0 21 0A 88 00 42 00 00 00 04 00 .8....!...B.....
40000000000D4480 10 00 00 00 01 C0 71 10 3D 0C 61 00 A0 F7 FF 48 ......q.=.a....H
40000000000D4490 11 00 3C 62 90 11 00 00 00 02 00 00 D8 76 F4 58 ..<b.........v.X
40000000000D44A0 09 40 00 00 00 21 10 00 D0 00 42 00 30 03 AA 00 .@...!....B.0...
40000000000D44B0 00 00 00 00 01 00 00 90 05 80 03 00 00 00 04 00 ................
40000000000D44C0 18 60 C0 18 00 21 00 00 00 02 00 80 08 00 84 00 .`...!..........
40000000000D44D0 09 00 00 00 01 00 60 00 20 0E 72 00 00 00 04 00 ......`. .r.....
40000000000D44E0 F1 A8 01 4A 18 D0 E1 00 20 00 C2 03 D0 F6 FF 49 ...J.... ......I
40000000000D44F0 08 10 05 44 00 21 F0 00 90 20 20 00 00 00 04 00 ...D.!...  .....
40000000000D4500 02 A8 01 4A 18 10 00 00 00 02 00 60 04 10 59 00 ...J.......`..Y.
40000000000D4510 18 00 00 00 01 00 70 10 3D 0C 61 00 C0 F6 FF 48 ......p.=.a....H
40000000000D4520 09 40 00 00 00 21 00 10 C5 20 23 00 30 03 AA 00 .@...!... #.0...
40000000000D4530 00 00 00 00 01 00 00 90 05 80 03 00 00 00 04 00 ................
40000000000D4540 19 60 C0 18 00 21 00 00 00 02 00 80 08 00 84 00 .`...!..........
40000000000D4550 11 A8 01 40 05 20 60 03 84 00 42 00 38 ED FF 58 ...@. `...B.8..X
40000000000D4560 02 08 00 68 00 21 00 98 01 55 00 00 20 0B 00 07 ...h.!...U.. ...
40000000000D4570 18 00 00 00 01 00 C0 80 31 00 42 80 08 00 84 00 ........1.B.....
40000000000D4580 09 00 00 00 01 00 60 00 20 0E 72 00 00 00 04 00 ......`. .r.....
40000000000D4590 F1 A8 01 54 18 D0 E1 00 20 00 C2 03 70 FC FF 49 ...T.... ...p..I
40000000000D45A0 08 10 05 44 00 21 F0 00 90 20 20 00 00 00 04 00 ...D.!...  .....
40000000000D45B0 0B A8 01 54 18 10 70 10 3D 0C 61 00 00 00 04 00 ...T..p.=.a.....
40000000000D45C0 EB 10 05 44 00 21 00 00 00 02 00 63 04 10 59 00 ...D.!.....c..Y.
40000000000D45D0 00 00 00 00 01 C0 31 02 88 2C 00 00 00 00 04 00 ......1..,......
40000000000D45E0 F8 38 88 1E 86 30 00 00 00 02 00 00 A0 F4 FF 48 .8...0.........H
40000000000D45F0 09 00 00 00 01 00 10 01 20 00 42 00 00 00 04 00 ........ .B.....
40000000000D4600 11 00 00 00 01 00 20 8A 88 00 40 00 40 F3 FF 48 ...... ...@.@..H
40000000000D4610 08 00 00 00 01 00 00 00 00 02 00 00 00 00 04 00 ................
40000000000D4620 08 00 00 00 01 00 00 00 00 02 00 00 00 00 04 00 ................
40000000000D4630 08 00 00 00 01 00 00 00 00 02 00 00 00 00 04 00 ................
40000000000D4640 18 28 25 0E 80 05 20 A2 F7 5F 4F 00 00 00 00 20 .(%... .._O.... 
40000000000D4650 01 38 80 00 86 30 40 02 00 62 00 C0 04 08 00 84 .8...0@..b......
40000000000D4660 08 10 01 44 18 10 00 00 00 02 00 00 05 08 01 84 ...D............
40000000000D4670 19 38 01 40 00 21 00 00 00 02 80 03 C0 00 00 43 .8.@.!.........C
40000000000D4680 11 18 01 44 10 10 00 00 00 02 00 00 08 EC FF 58 ...D...........X
40000000000D4690 09 40 01 44 10 10 10 00 98 00 42 E0 04 18 01 84 .@.D......B.....
40000000000D46A0 11 30 8C 50 87 38 00 00 00 02 00 03 30 00 00 43 .0.P.8......0..C
40000000000D46B0 11 00 00 00 01 00 00 00 00 02 00 00 78 6A F4 58 ............xj.X
40000000000D46C0 09 08 00 4C 00 21 00 00 00 02 00 00 00 00 04 00 ...L.!..........
40000000000D46D0 09 70 70 FB AF 27 80 00 00 00 42 00 50 02 AA 00 .pp..'....B.P...
40000000000D46E0 09 70 00 1C 18 10 00 00 00 02 00 00 40 0A 00 07 .p..........@...
40000000000D46F0 0B 70 00 1C 10 10 70 08 38 0C 73 00 00 00 04 00 .p....p.8.s.....
40000000000D4700 E9 70 70 FA AF E7 F1 00 88 20 20 00 00 00 04 00 .pp......  .....
40000000000D4710 09 00 00 00 01 C0 E1 00 38 30 20 00 00 00 04 00 ........80 .....
40000000000D4720 F0 00 3C 1C 90 11 00 00 00 02 00 80 08 00 84 00 ..<.............
40000000000D4730 03 00 01 40 05 20 00 20 05 80 03 00 50 02 AA 00 ...@. . ....P...
40000000000D4740 11 10 08 00 80 05 00 00 00 02 00 00 48 00 00 40 ............H..@
40000000000D4750 0D 00 00 00 01 00 00 00 00 00 00 00 00 00 04 00 ................
40000000000D4760 08 00 00 00 01 00 00 00 00 02 00 00 00 00 04 00 ................
40000000000D4770 08 00 00 00 01 00 00 00 00 02 00 00 00 00 04 00 ................
40000000000D4780 18 28 25 0E 80 05 30 A2 F7 5F 4F 00 00 00 00 20 .(%...0.._O.... 
40000000000D4790 01 38 80 00 86 30 40 02 00 62 00 C0 04 08 00 84 .8...0@..b......
40000000000D47A0 08 18 01 46 18 10 00 00 00 02 00 00 05 08 01 84 ...F............
40000000000D47B0 19 38 01 40 00 21 00 00 00 02 80 03 C0 00 00 43 .8.@.!.........C
40000000000D47C0 11 10 01 46 10 10 00 00 00 02 00 00 88 EF FF 58 ...F...........X
40000000000D47D0 09 40 01 46 10 10 10 00 98 00 42 E0 04 10 01 84 .@.F......B.....
40000000000D47E0 11 30 88 50 87 38 00 00 00 02 00 03 30 00 00 43 .0.P.8......0..C
40000000000D47F0 11 00 00 00 01 00 00 00 00 02 00 00 38 69 F4 58 ............8i.X
40000000000D4800 09 08 00 4C 00 21 00 00 00 02 00 00 00 00 04 00 ...L.!..........
40000000000D4810 18 70 70 FB AF 27 80 00 00 00 42 00 00 00 00 20 .pp..'....B.... 
40000000000D4820 09 00 88 46 90 11 00 00 00 02 00 00 50 02 AA 00 ...F........P...
40000000000D4830 09 70 00 1C 18 10 00 00 00 02 00 00 40 0A 00 07 .p..........@...
40000000000D4840 0B 70 00 1C 10 10 70 08 38 0C 73 00 00 00 04 00 .p....p.8.s.....
40000000000D4850 EB 70 70 FA AF E7 E1 00 38 30 20 00 00 00 04 00 .pp.....80 .....
40000000000D4860 F0 00 88 1C 90 11 00 00 00 02 00 80 08 00 84 00 ................
40000000000D4870 03 00 01 40 05 20 00 20 05 80 03 00 50 02 AA 00 ...@. . ....P...
40000000000D4880 11 10 08 00 80 05 00 00 00 02 00 00 C8 FD FF 48 ...............H
40000000000D4890 0D 00 00 00 01 00 00 00 00 00 00 00 00 00 04 00 ................
40000000000D48A0 08 00 00 00 01 00 00 00 00 02 00 00 00 00 04 00 ................
40000000000D48B0 08 00 00 00 01 00 00 00 00 02 00 00 00 00 04 00 ................
40000000000D48C0 08 18 1D 0A 80 05 E0 E0 F6 5F 4F 40 04 00 C4 00 ........._O@....
40000000000D48D0 09 00 F1 FB AE 27 50 E2 F5 9B 4F 80 04 08 00 84 .....'P...O.....
40000000000D48E0 09 70 00 1C 18 10 00 02 80 30 20 00 00 00 04 00 .p.......0 .....
40000000000D48F0 09 00 00 00 01 00 50 02 94 30 20 00 00 00 04 00 ......P..0 .....
40000000000D4900 09 70 00 1C 10 10 10 02 80 30 20 00 00 00 04 00 .p.......0 .....
40000000000D4910 0B 38 04 1C 86 F9 F1 A0 F6 61 4F 00 00 00 04 00 .8.......aO.....
40000000000D4920 EB 78 00 1E 18 D0 01 70 3C 20 23 C0 C1 EB 2B 9F .x.....p< #...+.
40000000000D4930 09 00 00 00 01 00 E0 00 38 30 20 00 00 00 04 00 ........80 .....
40000000000D4940 11 00 38 40 98 11 00 00 00 02 00 00 48 69 F4 58 ..8@........Hi.X
40000000000D4950 03 08 00 48 00 21 50 02 20 00 42 C0 C4 E8 27 9F ...H.!P. .B...'.
40000000000D4960 11 30 01 4C 18 10 00 00 00 02 00 00 68 CC FF 58 .0.L........h..X
40000000000D4970 09 08 00 48 00 21 00 08 81 30 23 00 30 02 AA 00 ...H.!...0#.0...
40000000000D4980 11 00 00 00 01 00 00 10 05 80 03 80 08 00 84 00 ................
40000000000D4990 08 00 00 00 01 00 00 00 00 02 00 00 00 00 04 00 ................
40000000000D49A0 08 00 00 00 01 00 00 00 00 02 00 00 00 00 04 00 ................
40000000000D49B0 08 00 00 00 01 00 00 00 00 02 00 00 00 00 04 00 ................
40000000000D49C0 09 08 F1 FA AF 27 00 00 00 02 00 00 F4 03 00 90 .....'..........
40000000000D49D0 09 00 00 00 01 00 10 02 84 30 20 00 00 00 04 00 .........0 .....
40000000000D49E0 11 10 08 00 80 05 00 00 00 02 00 00 E8 CB FF 48 ...............H
40000000000D49F0 0D 00 00 00 01 00 00 00 00 00 00 00 00 00 04 00 ................
40000000000D4A00 09 08 71 FA C9 27 00 00 00 02 00 00 F4 03 00 90 ..q..'..........
40000000000D4A10 09 00 00 00 01 00 10 02 84 30 20 00 00 00 04 00 .........0 .....
40000000000D4A20 11 10 08 00 80 05 00 00 00 02 00 00 A8 CB FF 48 ...............H
40000000000D4A30 0D 00 00 00 01 00 00 00 00 00 00 00 00 00 04 00 ................
40000000000D4A40 09 08 91 FA C9 27 00 00 00 02 00 00 F4 03 00 90 .....'..........
40000000000D4A50 09 00 00 00 01 00 10 02 84 30 20 00 00 00 04 00 .........0 .....
40000000000D4A60 11 10 08 00 80 05 00 00 00 02 00 00 68 CB FF 48 ............h..H
40000000000D4A70 0D 00 00 00 01 00 00 00 00 00 00 00 00 00 04 00 ................
40000000000D4A80 09 08 31 FB B1 27 00 00 00 02 00 00 F4 03 00 90 ..1..'..........
40000000000D4A90 09 00 00 00 01 00 10 02 84 30 20 00 00 00 04 00 .........0 .....
40000000000D4AA0 11 10 08 00 80 05 00 00 00 02 00 00 28 CB FF 48 ............(..H
40000000000D4AB0 0D 00 00 00 01 00 00 00 00 00 00 00 00 00 04 00 ................
40000000000D4AC0 09 08 31 FA C9 27 00 00 00 02 00 00 F4 03 00 90 ..1..'..........
40000000000D4AD0 09 00 00 00 01 00 10 02 84 30 20 00 00 00 04 00 .........0 .....
40000000000D4AE0 11 10 08 00 80 05 00 00 00 02 00 00 E8 CA FF 48 ...............H
40000000000D4AF0 0D 00 00 00 01 00 00 00 00 00 00 00 00 00 04 00 ................
40000000000D4B00 09 08 31 FA C9 27 00 00 00 02 00 00 A4 02 00 90 ..1..'..........
40000000000D4B10 09 00 00 00 01 00 10 02 84 30 20 00 00 00 04 00 .........0 .....
40000000000D4B20 11 10 08 00 80 05 00 00 00 02 00 00 A8 CA FF 48 ...............H
40000000000D4B30 0D 00 00 00 01 00 00 00 00 00 00 00 00 00 04 00 ................
40000000000D4B40 08 28 29 0E 80 05 C0 80 33 7E 46 80 04 00 C4 00 .().....3~F.....
40000000000D4B50 09 18 D1 FB AF 27 E0 A0 F7 5B 4F C0 04 08 00 84 .....'...[O.....
40000000000D4B60 09 18 01 46 18 10 E0 00 38 30 20 00 00 00 04 00 ...F....80 .....
40000000000D4B70 09 10 01 46 10 10 E0 00 38 20 20 00 00 00 04 00 ...F....8  .....
40000000000D4B80 10 00 00 00 01 00 70 10 39 0C 61 03 80 00 00 42 ......p.9.a....B
40000000000D4B90 09 78 50 FB AD 27 00 00 00 02 00 C0 01 10 59 00 .xP..'........Y.
40000000000D4BA0 0B 78 00 1E 18 10 F0 00 3C 30 20 00 00 00 04 00 .x......<0 .....
40000000000D4BB0 0B 78 3C 1C 00 20 E0 00 3C 00 20 00 00 00 04 00 .x<.. ..<. .....
40000000000D4BC0 02 00 00 00 01 00 E0 00 38 28 00 E0 90 70 18 E6 ........8(...p..
40000000000D4BD0 0B 48 80 1C 88 B9 01 09 00 00 48 C4 11 00 00 90 .H........H.....
40000000000D4BE0 E3 80 00 00 00 61 E2 00 00 00 42 C0 E1 80 30 80 .....a....B...0.
40000000000D4BF0 11 00 00 00 01 00 60 00 38 0E F3 03 70 01 00 42 ......`.8...p..B
40000000000D4C00 08 38 00 44 86 31 00 00 00 02 00 E0 14 00 00 90 .8.D.1..........
40000000000D4C10 19 40 09 01 00 24 00 00 00 02 00 03 E0 00 00 43 .@...$.........C
40000000000D4C20 11 00 00 00 01 00 00 00 00 02 00 00 28 6D F4 58 ............(m.X
40000000000D4C30 08 08 00 4C 00 21 80 02 8C 20 20 20 05 10 01 84 ...L.!...   ....
40000000000D4C40 0B 00 88 46 90 11 E0 A0 F6 5B 4F 00 00 00 04 00 ...F.....[O.....
40000000000D4C50 09 00 00 00 01 00 E0 00 38 30 20 00 00 00 04 00 ........80 .....
40000000000D4C60 11 38 01 1C 18 10 00 00 00 02 00 00 A8 47 00 50 .8...........G.P
40000000000D4C70 08 30 00 10 07 39 70 02 20 00 42 00 00 00 04 00 .0...9p. .B.....
40000000000D4C80 19 08 00 4C 00 21 20 02 20 00 42 03 70 00 00 41 ...L.! . .B.p..A
40000000000D4C90 11 00 00 00 01 00 00 00 00 02 00 00 B8 AB 04 50 ...............P
40000000000D4CA0 11 08 00 4C 00 21 70 00 20 0C 73 03 30 00 00 42 ...L.!p. .s.0..B
40000000000D4CB0 02 70 50 FB B0 27 F0 08 00 00 48 00 00 00 04 00 .pP..'....H.....
40000000000D4CC0 0A 70 00 1C 18 10 00 78 38 20 23 00 00 00 04 00 .p.....x8 #.....
40000000000D4CD0 11 00 00 00 01 00 70 02 88 00 42 00 18 5B F4 58 ......p...B..[.X
40000000000D4CE0 08 08 00 4C 00 21 00 00 00 02 00 00 00 00 04 00 ...L.!..........
40000000000D4CF0 08 38 A8 42 86 39 00 00 00 02 00 E0 04 00 00 84 .8.B.9..........
40000000000D4D00 19 40 01 42 00 21 00 00 00 02 80 03 80 01 00 43 .@.B.!.........C
40000000000D4D10 11 38 F4 42 86 39 00 00 00 02 80 03 E0 01 00 43 .8.B.9.........C
40000000000D4D20 11 38 70 43 86 39 00 00 00 02 80 03 B0 00 00 43 .8pC.9.........C
40000000000D4D30 11 00 00 00 01 00 00 00 00 02 00 00 18 5D F4 58 .............].X
40000000000D4D40 02 08 00 4C 00 21 00 28 01 55 00 00 40 0A 00 07 ...L.!.(.U..@...
40000000000D4D50 18 00 00 00 01 00 C0 80 30 00 42 80 08 00 84 00 ........0.B.....
40000000000D4D60 09 78 04 1E 00 21 00 00 00 02 00 40 14 10 01 84 .x...!.....@....
40000000000D4D70 0B 70 00 1E 00 10 00 00 00 02 00 C0 01 70 50 00 .p...........pP.
40000000000D4D80 09 38 24 1C 86 39 00 00 00 02 00 20 01 72 20 E6 .8$..9..... .r .
40000000000D4D90 C9 78 04 00 00 24 00 00 00 02 00 C4 11 00 00 90 .x...$..........
40000000000D4DA0 E3 78 00 00 00 61 E2 00 00 00 42 C0 E1 78 30 80 .x...a....B..x0.
40000000000D4DB0 11 30 00 1C 87 39 00 00 00 02 80 03 A0 00 00 43 .0...9.........C
40000000000D4DC0 10 00 88 46 90 11 00 00 00 02 00 00 40 FE FF 48 ...F........@..H
40000000000D4DD0 11 38 01 40 00 21 80 E2 02 00 48 00 F8 FA FF 58 .8.@.!....H....X
40000000000D4DE0 08 70 40 18 00 21 10 00 98 00 42 00 00 00 04 00 .p@..!....B.....
40000000000D4DF0 09 38 01 42 00 21 80 0A 00 00 48 20 15 00 00 90 .8.B.!....H ....
40000000000D4E00 11 00 20 1C 98 11 00 00 00 02 00 00 28 5E F4 58 .. .........(^.X
40000000000D4E10 09 70 40 18 00 21 00 00 00 02 00 20 00 30 01 84 .p@..!..... .0..
40000000000D4E20 08 40 00 1C 18 10 00 00 00 02 00 00 00 00 04 00 .@..............
40000000000D4E30 02 00 00 00 01 00 00 28 01 55 00 00 40 0A 00 07 .......(.U..@...
40000000000D4E40 19 00 00 00 01 00 C0 80 30 00 42 80 08 00 84 00 ........0.B.....
40000000000D4E50 11 38 05 00 00 24 80 2A 02 00 48 00 B8 56 F4 58 .8...$.*..H..V.X
40000000000D4E60 03 10 01 46 10 10 10 00 98 00 42 40 14 10 01 84 ...F......B@....
40000000000D4E70 10 00 88 46 90 11 00 00 00 02 00 00 90 FD FF 48 ...F...........H
40000000000D4E80 09 40 31 FA C9 27 00 00 00 02 00 E0 A4 02 00 90 .@1..'..........
40000000000D4E90 11 40 01 50 18 10 00 00 00 02 00 00 38 C7 FF 58 .@.P........8..X
40000000000D4EA0 08 70 40 18 00 21 10 00 98 00 42 00 00 00 04 00 .p@..!....B.....
40000000000D4EB0 09 38 01 42 00 21 80 0A 00 00 48 20 15 00 00 90 .8.B.!....H ....
40000000000D4EC0 11 00 20 1C 98 11 00 00 00 02 00 00 68 5D F4 58 .. .........h].X
40000000000D4ED0 09 70 40 18 00 21 00 00 00 02 00 20 00 30 01 84 .p@..!..... .0..
40000000000D4EE0 10 40 00 1C 18 10 00 00 00 02 00 00 50 FF FF 48 .@..........P..H
40000000000D4EF0 09 08 31 FA C9 27 00 00 00 02 00 00 F4 03 00 90 ..1..'..........
40000000000D4F00 09 08 01 42 18 10 00 00 00 02 00 00 50 02 AA 00 ...B........P...
40000000000D4F10 01 00 00 00 01 00 00 20 05 80 03 80 01 61 00 84 ....... .....a..
40000000000D4F20 11 10 08 00 80 05 00 00 00 02 00 00 A8 C6 FF 48 ...............H
40000000000D4F30 0D 00 00 00 01 00 00 00 00 00 00 00 00 00 04 00 ................

;; posix_readline_initialize: 40000000000D4F40
;;   Called from:
;;     400000000006294C (in sv_strict_posix)
posix_readline_initialize proc
	{ alloc	r34,ar.pfs,0x7,0x0,0x4; addl	r37,-10604,r1; mov	r33,b1 }
	{ cmp4.eq	p06,p07,0x0,r32; addl	r38,-10060,r1; adds	r35,0x0,r1; }
	{ ld8	r37,[r37]; addl	r36,9,r0; (p07) br.cond.dpnt.few	40000000000D4FA0; }

l40000000000D4F70:
	{ ld8	r38,[r38]; nop.i	0x0; br.call.sptk.many	b0,fn400000000001B800; }
	{ adds	r1,0x0,r35; nop.m	0x0; mov.i	ar.pfs,r34; }
	{ nop.m	0x0; mov.spnt	b0,r33,40000000000D4F90; br.ret	b0 }

l40000000000D4FA0:
	{ addl	r36,-7380,r1; addl	r37,-7372,r1; nop.i	0x0 }
	{ ld8	r36,[r36]; ld8	r37,[r37]; br.call.sptk.many	b0,fn400000000001A820; }
	{ adds	r1,0x0,r35; nop.m	0x0; addl	r36,9,r0; }
	{ addl	r37,-10524,r1; addl	r38,-10060,r1; nop.i	0x0 }
	{ ld8	r37,[r37]; ld8	r38,[r38]; br.call.sptk.many	b0,fn400000000001B800; }
	{ adds	r1,0x0,r35; nop.m	0x0; mov.i	ar.pfs,r34; }
	{ nop.m	0x0; mov.spnt	b0,r33,40000000000D5000; br.ret	b0; }
40000000000D5010 08 00 00 00 01 00 00 00 00 02 00 00 00 00 04 00 ................
40000000000D5020 08 00 00 00 01 00 00 00 00 02 00 00 00 00 04 00 ................
40000000000D5030 08 00 00 00 01 00 00 00 00 02 00 00 00 00 04 00 ................

;; reset_completer_word_break_chars: 40000000000D5040
;;   Called from:
;;     4000000000062CAC (in sv_comp_wordbreaks)
reset_completer_word_break_chars proc
	{ alloc	r33,ar.pfs,0x6,0x0,0x3; addl	r14,6136,r1; mov	r32,b0 }
	{ adds	r34,0x0,r1; ld4	r14,[r14]; addl	r35,14,r0; }
	{ cmp4.eq	p06,p07,0x0,r14; nop.i	0x0; (p07) br.cond.dpnt.few	40000000000D5190; }

l40000000000D5070:
	{ nop.m	0x0; nop.i	0x0; br.call.sptk.many	b0,xmalloc; }
	{ addl	r15,32,r0; adds	r14,0x0,r8; nop.b	0x0 }
	{ adds	r1,0x0,r34; nop.m	0x0; mov.i	ar.pfs,r33; }
	{ st1	[r14],r1,1; addl	r15,9,r0; mov.spnt	b0,r32,40000000000D50A0; }
	{ st1	[r14],r1,1; nop.m	0x0; addl	r15,10,r0; }
	{ st1	[r14],r1,1; nop.m	0x0; addl	r15,34,r0; }
	{ st1	[r14],r1,1; nop.m	0x0; addl	r15,39,r0; }
	{ st1	[r14],r1,1; nop.m	0x0; addl	r15,62,r0; }
	{ st1	[r14],r1,1; nop.m	0x0; addl	r15,60,r0; }
	{ st1	[r14],r1,1; nop.m	0x0; addl	r15,61,r0; }
	{ st1	[r14],r1,1; nop.m	0x0; addl	r15,59,r0; }
	{ st1	[r14],r1,1; nop.m	0x0; addl	r15,124,r0; }
	{ st1	[r14],r1,1; nop.m	0x0; addl	r15,38,r0; }
	{ st1	[r14],r1,1; nop.m	0x0; addl	r15,40,r0; }
	{ st1	[r14],r1,1; nop.m	0x0; addl	r15,58,r0; }
	{ st1	[r14],r1,1; st1	[r0],r14; addl	r14,-10460,r1; }
	{ nop.m	0x0; ld8	r14,[r14]; nop.i	0x0; }
	{ st8	[r8],r14; nop.i	0x0; br.ret	b0; }

l40000000000D5190:
	{ addl	r35,15,r0; nop.i	0x0; br.call.sptk.many	b0,xmalloc; }
	{ adds	r1,0x0,r34; adds	r35,0x0,r8; addl	r37,15,r0; }
	{ nop.m	0x0; addl	r36,-7364,r1; nop.i	0x0; }
	{ ld8	r36,[r36]; nop.i	0x0; br.call.sptk.many	b0,fn400000000001A8A0; }
	{ adds	r1,0x0,r34; nop.m	0x0; mov.i	ar.pfs,r33; }
	{ addl	r14,-10460,r1; nop.m	0x0; mov.spnt	b0,r32,40000000000D51E0; }
	{ nop.m	0x0; ld8	r14,[r14]; nop.i	0x0; }
	{ st8	[r8],r14; nop.i	0x0; br.ret	b0; }
40000000000D5210 08 00 00 00 01 00 00 00 00 02 00 00 00 00 04 00 ................
40000000000D5220 08 00 00 00 01 00 00 00 00 02 00 00 00 00 04 00 ................
40000000000D5230 08 00 00 00 01 00 00 00 00 02 00 00 00 00 04 00 ................

;; enable_hostname_completion: 40000000000D5240
;;   Called from:
;;     40000000000D646C (in initialize_readline)
;;     40000000000D68DC (in initialize_readline)
enable_hostname_completion proc
	{ alloc	r38,ar.pfs,0xC,0x0,0x9; mov	r40,pr; nop.b	0x0 }
	{ cmp4.eq	p16,p17,0x0,r32; addl	r14,6136,r1; addl	r34,-10460,r1; }
	{ (p17) addl	r15,1,r0; ld4	r35,[r14]; mov	r37,b5 }

l40000000000D5266:
	{ Invalid; (p18) nop; (p04) br.call.spnt.few	b0,b0 }

l40000000000D5276:
	{ Invalid; (p19) dep.z	r0,0x1,63,3; (p04) nop }

l40000000000D5286:
	{ (p07) nop; (p07) nop; (p52) nop }

l40000000000D5290:
	{ (p16) addl	r15,-7348,r1; ld8	r14,[r14]; nop.i	0x0 }

l40000000000D5296:
	{ (p07) fwb; nop; (p16) tbit.z	p08,p06,r8,0x20 }
	{ Invalid; Invalid; Invalid }

l40000000000D52AC:
	{ cmp.gt.or.andcm	p00,p11,r0,r0; Invalid; (p48) cmp.lt.unc	p03,p08,r3,r102 }

l40000000000D52B6:
	{ mf.a; (p07) nop; break.i	0x80000 }
	{ (p07) fwb; nop; break.i	0x80000 }
	{ (p03) chk.a.clr	r0,3FFFFFFFFFD983B6; nop; (p32) nop }

l40000000000D52E0:
	{ addl	r14,-10092,r1; cmp.eq	p06,p07,0x0,r33; (p06) br.cond.dpnt.few	40000000000D54A0; }

l40000000000D52F0:
	{ ld8	r14,[r14]; ld8	r14,[r14]; nop.i	0x0; }
	{ nop.m	0x0; cmp.eq	p07,p06,r14,r33; (p07) br.cond.dpnt.few	40000000000D54A0 }

l40000000000D5310:
	{ (p16) addl	r36,1,r0; nop.m	0x0; adds	r41,0x0,r33 }

l40000000000D5316:
	{ add	r0,r0,r1; (p20) nop; (p32) nop }
	{ break.m	0x4000; (p32) extr.u	r54,r61,6,45; (p04) nop }

l40000000000D5336:
	{ Invalid; nop; break.i	0x80000 }
	{ (p03) chk.a.nc	r0,3FFFFFFFFFBF8586; nop; break.b	0x80000 }

l40000000000D5350:
	{ nop.m	0x0; cmp4.eq	p07,p06,0x0,r32; nop.i	0x0; }
	{ nop.m	0x0; cmp.eq.or.andcm	p07,p06,0x0,r8; (p07) br.cond.dpnt.few	40000000000D5390; }

l40000000000D5370:
	{ adds	r8,0x0,r35; mov	pr,r40,0xFFFFFFFFFFFFFFFE; mov.i	ar.pfs,r38; }
	{ nop.m	0x0; mov.spnt	b0,r37,40000000000D5380; br.ret	b0; }

l40000000000D5390:
	{ adds	r41,0x0,r33; nop.i	0x0; br.call.sptk.many	b0,fn400000000001B6C0; }
	{ nop.m	0x0; sxt4	r41,r32; adds	r1,0x0,r39; }
	{ add	r41,r8,r41,0x1; nop.i	0x0; br.call.sptk.many	b0,xmalloc; }
	{ cmp4.eq	p06,p07,0x0,r36; nop.m	0x0; adds	r1,0x0,r39 }
	{ adds	r33,0x0,r8; nop.m	0x0; (p06) br.cond.dpnt.few	40000000000D5520; }

l40000000000D53E0:
	{ (p07) ld8	r15,[r34]; nop.m	0x0; (p07) adds	r16,0x0,r8; }

l40000000000D53E6:
	{ chk.a.nc	f0,3FFFFFFFFF0D5BE6; (p08) nop; (p32) nop }

l40000000000D53F0:
	{ ld1	r14,[r15],1; nop.m	0x0; sxt1	r14,r14; }
	{ nop.m	0x0; cmp4.eq	p07,p06,0x0,r14; (p07) br.cond.dpnt.few	40000000000D5450; }

l40000000000D5410:
	{ nop.m	0x0; nop.m	0x0; nop.i	0x0 }

l40000000000D5420:
	{ cmp4.eq	p06,p07,0x40,r14; (p07) st1	[r16],r1,1; nop.i	0x0; }

l40000000000D542C:
	{ cmp.lt	p00,p11,r1,r0; (p17) mov.i	KR0,0x3; cmp.lt	p00,p00,r32,r0 }
	{ invala; cmp.eq	p00,p00,r32,r0; mov	pr,r67,0xE680; }
	{ (p63) nop; break.i	0x1000; Invalid }

l40000000000D5450:
	{ nop.m	0x0; st1	[r0],r16; nop.i	0x0; }
	{ ld8	r41,[r34]; nop.i	0x0; br.call.sptk.many	b0,fn400000000001A7E0; }
	{ adds	r1,0x0,r39; st8	[r33],r34; nop.i	0x0 }

l40000000000D5480:
	{ adds	r8,0x0,r35; mov	pr,r40,0xFFFFFFFFFFFFFFFE; mov.i	ar.pfs,r38; }
	{ nop.m	0x0; mov.spnt	b0,r37,40000000000D5490; br.ret	b0 }

l40000000000D54A0:
	{ nop.m	0x0; nop.i	0x0; (p16) br.cond.dptk.few	40000000000D5590; }

l40000000000D54B0:
	{ addl	r41,15,r0; nop.i	0x0; br.call.sptk.many	b0,xmalloc; }
	{ adds	r1,0x0,r39; adds	r41,0x0,r8; addl	r43,15,r0; }
	{ nop.m	0x0; addl	r42,-7364,r1; nop.i	0x0; }
	{ ld8	r42,[r42]; nop.i	0x0; br.call.sptk.many	b0,fn400000000001A8A0; }
	{ adds	r1,0x0,r39; st8	[r8],r34; mov	pr,r40,0xFFFFFFFFFFFFFFFE }
	{ adds	r8,0x0,r35; nop.m	0x0; mov.i	ar.pfs,r38; }
	{ nop.m	0x0; mov.spnt	b0,r37,40000000000D5510; br.ret	b0 }

l40000000000D5520:
	{ nop.m	0x0; addl	r14,64,r0; adds	r41,0x0,r8 }
	{ ld8.a	r42,[r34]; st1	[r41],r1,1; nop.i	0x0; }
	{ ld8.c.clr	r42,[r34]; nop.i	0x0; br.call.sptk.many	b0,fn400000000001B180; }
	{ nop.m	0x0; adds	r1,0x0,r39; nop.i	0x0 }
	{ ld8	r41,[r34]; nop.m	0x0; br.call.sptk.many	b0,fn400000000001A7E0; }
	{ nop.m	0x0; adds	r1,0x0,r39; nop.i	0x0 }
	{ st8	[r33],r34; nop.m	0x0; br.cond.sptk.few	40000000000D5480 }

l40000000000D5590:
	{ addl	r41,14,r0; nop.i	0x0; br.call.sptk.many	b0,xmalloc; }
	{ addl	r15,32,r0; adds	r14,0x0,r8; nop.b	0x0 }
	{ adds	r1,0x0,r39; nop.m	0x0; mov	pr,r40,0xFFFFFFFFFFFFFFFE; }
	{ st1	[r14],r1,1; addl	r15,9,r0; mov.i	ar.pfs,r38; }
	{ st1	[r14],r1,1; addl	r15,10,r0; mov.spnt	b0,r37,40000000000D55D0; }
	{ st1	[r14],r1,1; nop.m	0x0; addl	r15,34,r0; }
	{ st1	[r14],r1,1; nop.m	0x0; addl	r15,39,r0; }
	{ st1	[r14],r1,1; nop.m	0x0; addl	r15,62,r0; }
	{ st1	[r14],r1,1; nop.m	0x0; addl	r15,60,r0; }
	{ st1	[r14],r1,1; nop.m	0x0; addl	r15,61,r0; }
	{ st1	[r14],r1,1; nop.m	0x0; addl	r15,59,r0; }
	{ st1	[r14],r1,1; nop.m	0x0; addl	r15,124,r0; }
	{ st1	[r14],r1,1; nop.m	0x0; addl	r15,38,r0; }
	{ st1	[r14],r1,1; nop.m	0x0; addl	r15,40,r0; }
	{ st1	[r14],r1,1; nop.m	0x0; addl	r15,58,r0; }
	{ st1	[r14],r1,1; st1	[r0],r14; nop.i	0x0 }
	{ st8	[r8],r34; adds	r8,0x0,r35; br.ret	b0; }
40000000000D56A0 08 00 00 00 01 00 00 00 00 02 00 00 00 00 04 00 ................
40000000000D56B0 08 00 00 00 01 00 00 00 00 02 00 00 00 00 04 00 ................

;; initialize_readline: 40000000000D56C0
;;   Called from:
;;     40000000000EA0FC (in bind_builtin)
;;     400000000010664C (in read_builtin)
;;     400000000010701C (in read_builtin)
initialize_readline proc
	{ alloc	r36,ar.pfs,0x9,0x0,0x6; adds	r12,0xFFFFFFFFFFFFFFF0,r12; nop.b	0x0 }
	{ addl	r32,7796,r1; mov	r35,b3; adds	r37,0x0,r1; }
	{ nop.m	0x0; ld4	r14,[r32]; nop.i	0x0; }
	{ cmp4.eq	p07,p06,0x0,r14; nop.i	0x0; (p07) br.cond.dpnt.few	40000000000D5720; }

l40000000000D5700:
	{ nop.m	0x0; mov.i	ar.pfs,r36; mov.spnt	b0,r35,40000000000D5700 }
	{ nop.m	0x0; adds	r12,0x10,r12; br.ret	b0; }

l40000000000D5720:
	{ addl	r38,-7340,r1; nop.m	0x0; adds	r33,0x10,r12; }
	{ ld8	r38,[r38]; nop.i	0x0; br.call.sptk.many	b0,get_string_value; }
	{ adds	r1,0x0,r37; addl	r40,-1,r0; addl	r16,-10476,r1 }
	{ addl	r14,-10356,r1; addl	r38,-7324,r1; addl	r39,-6508,r1; }
	{ ld8	r16,[r16]; ld8	r14,[r14]; nop.i	0x0; }
	{ ld8	r38,[r38]; ld8	r39,[r39]; nop.i	0x0; }
	{ st8	[r8],r16; nop.m	0x0; addl	r16,-10364,r1 }
	{ ld8	r15,[r14]; nop.m	0x0; addl	r14,-10652,r1; }
	{ ld8	r16,[r16]; ld8	r14,[r14]; nop.i	0x0; }
	{ nop.m	0x0; st8	[r15],r16; addl	r15,-10700,r1 }
	{ ld8	r14,[r14]; ld8	r15,[r15]; nop.i	0x0; }
	{ st8	[r14],r15; addl	r14,-10284,r1; addl	r15,-7332,r1; }
	{ ld8	r14,[r14]; ld8	r15,[r15]; nop.i	0x0; }
	{ st8	[r15],r14; nop.i	0x0; br.call.sptk.many	b0,fn400000000001B360; }
	{ adds	r1,0x0,r37; nop.m	0x0; addl	r40,-1,r0; }
	{ addl	r38,-7316,r1; addl	r39,-6524,r1; nop.i	0x0 }
	{ ld8	r38,[r38]; ld8	r39,[r39]; br.call.sptk.many	b0,fn400000000001B360; }
	{ adds	r1,0x0,r37; nop.m	0x0; addl	r40,-1,r0; }
	{ addl	r38,-7308,r1; addl	r39,-6516,r1; nop.i	0x0 }
	{ ld8	r38,[r38]; ld8	r39,[r39]; br.call.sptk.many	b0,fn400000000001B360; }
	{ adds	r1,0x0,r37; nop.m	0x0; addl	r40,-1,r0; }
	{ addl	r38,-7300,r1; addl	r39,-6492,r1; nop.i	0x0 }
	{ ld8	r38,[r38]; ld8	r39,[r39]; br.call.sptk.many	b0,fn400000000001B360; }
	{ adds	r1,0x0,r37; nop.m	0x0; addl	r40,-1,r0; }
	{ addl	r38,-7292,r1; addl	r39,-6500,r1; nop.i	0x0 }
	{ ld8	r38,[r38]; ld8	r39,[r39]; br.call.sptk.many	b0,fn400000000001B360; }
	{ adds	r1,0x0,r37; nop.m	0x0; addl	r40,-1,r0; }
	{ addl	r38,-7284,r1; addl	r39,-6476,r1; nop.i	0x0 }
	{ ld8	r38,[r38]; ld8	r39,[r39]; br.call.sptk.many	b0,fn400000000001B360; }
	{ adds	r1,0x0,r37; nop.m	0x0; addl	r40,-1,r0; }
	{ addl	r38,-7276,r1; addl	r39,-6484,r1; nop.i	0x0 }
	{ ld8	r38,[r38]; ld8	r39,[r39]; br.call.sptk.many	b0,fn400000000001B360; }
	{ adds	r1,0x0,r37; nop.m	0x0; addl	r40,-1,r0; }
	{ addl	r38,-7268,r1; addl	r39,-6860,r1; nop.i	0x0 }
	{ ld8	r38,[r38]; ld8	r39,[r39]; br.call.sptk.many	b0,fn400000000001B360; }
	{ adds	r1,0x0,r37; nop.m	0x0; addl	r40,-1,r0; }
	{ addl	r38,-7260,r1; addl	r39,-6532,r1; nop.i	0x0 }
	{ ld8	r38,[r38]; ld8	r39,[r39]; br.call.sptk.many	b0,fn400000000001B360; }
	{ adds	r1,0x0,r37; nop.m	0x0; addl	r40,-1,r0; }
	{ addl	r38,-7252,r1; addl	r39,-10596,r1; nop.i	0x0 }
	{ ld8	r38,[r38]; ld8	r39,[r39]; br.call.sptk.many	b0,fn400000000001B360; }
	{ adds	r1,0x0,r37; nop.m	0x0; addl	r40,-1,r0; }
	{ addl	r38,-7244,r1; addl	r39,-8892,r1; nop.i	0x0 }
	{ ld8	r38,[r38]; ld8	r39,[r39]; br.call.sptk.many	b0,fn400000000001B360; }
	{ adds	r1,0x0,r37; nop.m	0x0; addl	r40,-1,r0; }
	{ addl	r38,-7236,r1; addl	r39,-6884,r1; nop.i	0x0 }
	{ ld8	r38,[r38]; ld8	r39,[r39]; br.call.sptk.many	b0,fn400000000001B360; }
	{ adds	r1,0x0,r37; nop.m	0x0; addl	r40,-1,r0; }
	{ addl	r38,-7228,r1; addl	r39,-6972,r1; nop.i	0x0 }
	{ ld8	r38,[r38]; ld8	r39,[r39]; br.call.sptk.many	b0,fn400000000001B360; }
	{ adds	r1,0x0,r37; nop.m	0x0; addl	r40,-1,r0; }
	{ addl	r38,-7220,r1; addl	r39,-9636,r1; nop.i	0x0 }
	{ ld8	r38,[r38]; ld8	r39,[r39]; br.call.sptk.many	b0,fn400000000001B360; }
	{ adds	r1,0x0,r37; nop.m	0x0; addl	r40,-1,r0; }
	{ addl	r38,-7212,r1; addl	r39,-6892,r1; nop.i	0x0 }
	{ ld8	r38,[r38]; ld8	r39,[r39]; br.call.sptk.many	b0,fn400000000001B360; }
	{ adds	r1,0x0,r37; nop.m	0x0; addl	r40,-1,r0; }
	{ addl	r38,-7204,r1; addl	r39,-6932,r1; nop.i	0x0 }
	{ ld8	r38,[r38]; ld8	r39,[r39]; br.call.sptk.many	b0,fn400000000001B360; }
	{ adds	r1,0x0,r37; nop.m	0x0; addl	r40,-1,r0; }
	{ addl	r38,-7196,r1; addl	r39,-6900,r1; nop.i	0x0 }
	{ ld8	r38,[r38]; ld8	r39,[r39]; br.call.sptk.many	b0,fn400000000001B360; }
	{ adds	r1,0x0,r37; nop.m	0x0; addl	r40,-1,r0; }
	{ addl	r38,-7188,r1; addl	r39,-6460,r1; nop.i	0x0 }
	{ ld8	r38,[r38]; ld8	r39,[r39]; br.call.sptk.many	b0,fn400000000001B360; }
	{ adds	r1,0x0,r37; nop.m	0x0; addl	r40,-1,r0; }
	{ addl	r38,-7180,r1; addl	r39,-6908,r1; nop.i	0x0 }
	{ ld8	r38,[r38]; ld8	r39,[r39]; br.call.sptk.many	b0,fn400000000001B360; }
	{ adds	r1,0x0,r37; nop.m	0x0; addl	r40,-1,r0; }
	{ addl	r38,-7172,r1; addl	r39,-6452,r1; nop.i	0x0 }
	{ ld8	r38,[r38]; ld8	r39,[r39]; br.call.sptk.many	b0,fn400000000001B360; }
	{ adds	r1,0x0,r37; nop.m	0x0; addl	r40,-1,r0; }
	{ addl	r38,-7164,r1; addl	r39,-6916,r1; nop.i	0x0 }
	{ ld8	r38,[r38]; ld8	r39,[r39]; br.call.sptk.many	b0,fn400000000001B360; }
	{ adds	r1,0x0,r37; nop.m	0x0; addl	r40,-1,r0; }
	{ addl	r38,-7156,r1; addl	r39,-6444,r1; nop.i	0x0 }
	{ ld8	r38,[r38]; ld8	r39,[r39]; br.call.sptk.many	b0,fn400000000001B360; }
	{ adds	r1,0x0,r37; nop.m	0x0; addl	r40,-1,r0; }
	{ addl	r38,-7148,r1; addl	r39,-6924,r1; nop.i	0x0 }
	{ ld8	r38,[r38]; ld8	r39,[r39]; br.call.sptk.many	b0,fn400000000001B360; }
	{ adds	r1,0x0,r37; nop.m	0x0; addl	r40,-1,r0; }
	{ addl	r38,-7140,r1; addl	r39,-6436,r1; nop.i	0x0 }
	{ ld8	r38,[r38]; ld8	r39,[r39]; br.call.sptk.many	b0,fn400000000001B360; }
	{ adds	r1,0x0,r37; nop.m	0x0; addl	r40,-1,r0; }
	{ addl	r38,-7132,r1; addl	r39,-6468,r1; nop.i	0x0 }
	{ ld8	r38,[r38]; ld8	r39,[r39]; br.call.sptk.many	b0,fn400000000001B360; }
	{ adds	r1,0x0,r37; nop.m	0x0; addl	r40,-1,r0; }
	{ addl	r38,-7124,r1; addl	r39,-6420,r1; nop.i	0x0 }
	{ ld8	r38,[r38]; ld8	r39,[r39]; br.call.sptk.many	b0,fn400000000001B360; }
	{ adds	r1,0x0,r37; nop.m	0x0; addl	r40,-1,r0; }
	{ addl	r38,-7116,r1; addl	r39,-6428,r1; nop.i	0x0 }
	{ ld8	r38,[r38]; ld8	r39,[r39]; br.call.sptk.many	b0,fn400000000001B360; }
	{ adds	r1,0x0,r37; nop.m	0x0; addl	r40,-1,r0; }
	{ addl	r38,-7108,r1; addl	r39,-6940,r1; nop.i	0x0 }
	{ ld8	r38,[r38]; ld8	r39,[r39]; br.call.sptk.many	b0,fn400000000001B360; }
	{ adds	r1,0x0,r37; nop.m	0x0; addl	r40,-1,r0; }
	{ addl	r38,-7100,r1; addl	r39,-6956,r1; nop.i	0x0 }
	{ ld8	r38,[r38]; ld8	r39,[r39]; br.call.sptk.many	b0,fn400000000001B360; }
	{ adds	r1,0x0,r37; addl	r38,5,r0; addl	r14,-10404,r1 }
	{ addl	r39,-6508,r1; addl	r40,-10396,r1; addl	r34,-10348,r1; }
	{ ld8	r14,[r14]; ld4	r14,[r14]; nop.i	0x0; }
	{ nop.m	0x0; tbit.z	p07,p06,r14,0x1; (p07) br.cond.dpnt.few	40000000000D6530; }

l40000000000D5D80:
	{ ld8	r34,[r34]; ld8	r39,[r39]; nop.i	0x0; }
	{ ld8	r40,[r40]; nop.i	0x0; br.call.sptk.many	b0,fn400000000001C120; }
	{ adds	r1,0x0,r37; nop.m	0x0; addl	r38,94,r0; }
	{ addl	r39,-6524,r1; addl	r40,-10396,r1; nop.i	0x0 }
	{ ld8	r39,[r39]; ld8	r40,[r40]; br.call.sptk.many	b0,fn400000000001C120; }
	{ adds	r1,0x0,r37; nop.m	0x0; addl	r38,15,r0; }
	{ addl	r39,-8892,r1; addl	r40,-10676,r1; nop.i	0x0 }
	{ ld8	r39,[r39]; ld8	r40,[r40]; br.call.sptk.many	b0,fn400000000001C120; }
	{ adds	r1,0x0,r37; nop.m	0x0; addl	r38,22,r0; }
	{ addl	r39,-6884,r1; addl	r40,-10132,r1; nop.i	0x0 }
	{ ld8	r39,[r39]; ld8	r40,[r40]; br.call.sptk.many	b0,fn400000000001C120; }
	{ adds	r1,0x0,r37; addl	r14,10,r0; adds	r38,0x10,r12 }
	{ adds	r40,0x0,r0; addl	r39,-10396,r1; nop.i	0x0 }
	{ st1	[r33],r1,1; ld8	r39,[r39]; nop.i	0x0 }
	{ st1	[r0],r33; nop.m	0x0; br.call.sptk.many	b0,fn400000000001AC40; }
	{ adds	r1,0x0,r37; cmp.eq	p07,p06,r8,r34; (p07) br.cond.dpnt.few	40000000000D69F0; }

l40000000000D5E80:
	{ addl	r39,-10396,r1; nop.m	0x0; adds	r38,0x10,r12 }
	{ addl	r14,13,r0; adds	r40,0x0,r0; nop.i	0x0 }
	{ ld8	r39,[r39]; st1	[r14],r38; br.call.sptk.many	b0,fn400000000001AC40; }
	{ adds	r1,0x0,r37; cmp.eq	p07,p06,r8,r34; (p07) br.cond.dpnt.few	40000000000D69C0; }

l40000000000D5EC0:
	{ addl	r39,-10148,r1; nop.m	0x0; addl	r38,5,r0; }
	{ ld8	r39,[r39]; nop.i	0x0; br.call.sptk.many	b0,fn400000000001ABC0; }
	{ adds	r1,0x0,r37; nop.m	0x0; addl	r38,123,r0; }
	{ addl	r39,-9636,r1; addl	r40,-10396,r1; nop.i	0x0 }
	{ ld8	r39,[r39]; ld8	r40,[r40]; br.call.sptk.many	b0,fn400000000001C120; }
	{ adds	r1,0x0,r37; nop.m	0x0; addl	r38,47,r0; }
	{ addl	r39,-6892,r1; addl	r40,-10396,r1; nop.i	0x0 }
	{ ld8	r39,[r39]; ld8	r40,[r40]; br.call.sptk.many	b0,fn400000000001C120; }
	{ adds	r1,0x0,r37; nop.m	0x0; addl	r38,47,r0; }
	{ addl	r39,-6932,r1; addl	r40,-10132,r1; nop.i	0x0 }
	{ ld8	r39,[r39]; ld8	r40,[r40]; br.call.sptk.many	b0,fn400000000001C120; }
	{ adds	r1,0x0,r37; addl	r14,126,r0; nop.i	0x0 }
	{ adds	r38,0x10,r12; st1	[r0],r33; adds	r40,0x0,r0; }
	{ addl	r39,-10396,r1; st1	[r14],r38; nop.i	0x0; }
	{ ld8	r39,[r39]; nop.i	0x0; br.call.sptk.many	b0,fn400000000001AC40; }
	{ adds	r1,0x0,r37; cmp.eq	p06,p07,0x0,r8; (p06) br.cond.dpnt.few	40000000000D6980; }

l40000000000D5FC0:
	{ addl	r14,-10684,r1; ld8	r14,[r14]; nop.i	0x0; }
	{ nop.m	0x0; cmp.eq	p07,p06,r14,r8; (p07) br.cond.dpnt.few	40000000000D6980 }

l40000000000D5FE0:
	{ addl	r39,-6460,r1; addl	r40,-10132,r1; addl	r38,126,r0; }
	{ nop.m	0x0; ld8	r39,[r39]; nop.i	0x0 }
	{ ld8	r40,[r40]; nop.m	0x0; br.call.sptk.many	b0,fn400000000001C120; }
	{ adds	r1,0x0,r37; nop.m	0x0; addl	r38,64,r0; }
	{ addl	r39,-6908,r1; addl	r40,-10396,r1; nop.i	0x0 }
	{ ld8	r39,[r39]; ld8	r40,[r40]; br.call.sptk.many	b0,fn400000000001C120; }
	{ adds	r1,0x0,r37; nop.m	0x0; addl	r38,64,r0; }
	{ addl	r39,-6452,r1; addl	r40,-10132,r1; nop.i	0x0 }
	{ ld8	r39,[r39]; ld8	r40,[r40]; br.call.sptk.many	b0,fn400000000001C120; }
	{ adds	r1,0x0,r37; nop.m	0x0; addl	r38,36,r0; }
	{ addl	r39,-6916,r1; addl	r40,-10396,r1; nop.i	0x0 }
	{ ld8	r39,[r39]; ld8	r40,[r40]; br.call.sptk.many	b0,fn400000000001C120; }
	{ adds	r1,0x0,r37; nop.m	0x0; addl	r38,36,r0; }
	{ addl	r39,-6444,r1; addl	r40,-10132,r1; nop.i	0x0 }
	{ ld8	r39,[r39]; ld8	r40,[r40]; br.call.sptk.many	b0,fn400000000001C120; }
	{ adds	r1,0x0,r37; nop.m	0x0; addl	r38,33,r0; }
	{ addl	r39,-6924,r1; addl	r40,-10396,r1; nop.i	0x0 }
	{ ld8	r39,[r39]; ld8	r40,[r40]; br.call.sptk.many	b0,fn400000000001C120; }
	{ adds	r1,0x0,r37; nop.m	0x0; addl	r38,33,r0; }
	{ addl	r39,-6436,r1; addl	r40,-10132,r1; nop.i	0x0 }
	{ ld8	r39,[r39]; ld8	r40,[r40]; br.call.sptk.many	b0,fn400000000001C120; }
	{ adds	r1,0x0,r37; nop.m	0x0; addl	r38,103,r0; }
	{ addl	r39,-6468,r1; addl	r40,-10396,r1; nop.i	0x0 }
	{ ld8	r39,[r39]; ld8	r40,[r40]; br.call.sptk.many	b0,fn400000000001C120; }
	{ adds	r1,0x0,r37; nop.m	0x0; addl	r38,42,r0; }
	{ addl	r39,-6420,r1; addl	r40,-10132,r1; nop.i	0x0 }
	{ ld8	r39,[r39]; ld8	r40,[r40]; br.call.sptk.many	b0,fn400000000001C120; }
	{ adds	r1,0x0,r37; nop.m	0x0; addl	r38,103,r0; }
	{ addl	r39,-6428,r1; addl	r40,-10132,r1; nop.i	0x0 }
	{ ld8	r39,[r39]; ld8	r40,[r40]; br.call.sptk.many	b0,fn400000000001C120; }
	{ adds	r1,0x0,r37; adds	r38,0x10,r12; addl	r14,9,r0 }
	{ adds	r40,0x0,r0; st1	[r0],r33; nop.i	0x0; }
	{ addl	r39,-10396,r1; st1	[r14],r38; nop.i	0x0; }
	{ ld8	r39,[r39]; nop.i	0x0; br.call.sptk.many	b0,fn400000000001AC40; }
	{ adds	r1,0x0,r37; nop.m	0x0; cmp.eq	p06,p07,0x0,r8 }
	{ addl	r38,5,r0; nop.m	0x0; (p06) br.cond.dpnt.few	40000000000D6670; }

l40000000000D6220:
	{ addl	r14,-10444,r1; addl	r15,-10644,r1; nop.i	0x0 }
	{ addl	r16,-6404,r1; addl	r39,-6972,r1; addl	r40,-10132,r1; }
	{ nop.m	0x0; ld8	r14,[r14]; nop.i	0x0; }
	{ cmp.eq	p07,p06,r14,r8; addl	r14,7788,r1; (p07) br.cond.dpnt.few	40000000000D6670; }

l40000000000D6260:
	{ ld4	r14,[r14]; ld8	r15,[r15]; nop.i	0x0; }
	{ nop.m	0x0; cmp4.eq	p06,p07,0x0,r14; nop.i	0x0 }
	{ ld8	r16,[r16]; ld8	r39,[r39]; nop.i	0x0; }
	{ (p07) addl	r14,-10612,r1; st8	[r16],r15; addl	r15,-7036,r1 }

l40000000000D6296:
	{ Invalid; Invalid; nop }
	{ chk.a.nc	r0,3FFFFFFFFF0D6AA6; (p07) nop; (p48) cmp.ltu	p03,p06,r96,r3 }

l40000000000D62B0:
	{ ld8	r15,[r15]; (p07) ld8	r14,[r14]; nop.i	0x0; }

l40000000000D62BC:
	{ cmp4.eq.and	p00,p11,r1,r0; (p01) mov	pr,r3,0x4080; (p48) cmp4.ne.and	p03,p40,r3,r102 }

l40000000000D62C6:
	{ chk.a.nc	f15,3FFFFFFFFF9A23A6; (p07) addl	r44,813053,r0; (p01) addl	r96,13123,r3; }

l40000000000D62CC:
	{ Invalid; (p48) cmp4.ne.and	p03,p08,r3,r102; (p01) cmp.eq	p35,p19,r63,r107; }

l40000000000D62D0:
	{ (p06) st8	[r15],r14; (p06) addl	r14,-10612,r1; addl	r15,-6964,r1; }

l40000000000D62D6:
	{ Invalid; (p07) cmp4.ne.or	p12,p15,r125,r73; (p33) nop; }

l40000000000D62DC:
	{ (p38) cmp4.ne.and	p61,p41,r73,r79; (p01) cmp.eq.unc	p00,p08,r3,r6; Invalid; }

l40000000000D62E6:
	{ (p07) fwb; addl	r0,49152,r1; (p33) br.call.sptk.few	b3,b0 }

l40000000000D62F6:
	{ mf.a; (p07) nop; break.i	0x80000 }
	{ (p07) fwb; nop; nop }
	{ Invalid; (p07) nop; (p32) nop }
	{ (p07) fwb; nop; br.call.spnt.many	b0,b3 }
	{ break.m	0x4000; (p32) nop; (p16) nop }
	{ break.m	0x4000; Invalid; (p48) nop }
	{ Invalid; nop; (p48) nop }
	{ (p20) fwb; (p32) nop; (p16) nop }
	{ break.m	0x4000; Invalid; (p48) nop }
	{ Invalid; nop; (p48) nop }
	{ (p20) fwb; (p32) nop; (p16) nop }
	{ break.m	0x4000; Invalid; (p48) nop }
	{ Invalid; nop; (p48) nop }
	{ (p20) fwb; (p32) nop; (p16) nop }
	{ break.m	0x4000; Invalid; (p48) nop }
	{ Invalid; nop; (p48) nop }
	{ (p20) fwb; (p32) nop; (p16) nop }
	{ break.m	0x4000; Invalid; (p48) nop }
	{ Invalid; nop; (p48) nop }
	{ (p20) fwb; (p32) nop; (p16) nop }
	{ Invalid; (p07) nop; (p32) nop }
	{ (p07) fwb; nop; br.call.spnt.many	b0,b3 }
	{ break.m	0x4000; (p07) nop; (p32) nop }
	{ break.m	0x4000; (p32) nop; (p16) nop }
	{ Invalid; (p07) nop; (p32) nop }
	{ (p07) fwb; nop; br.call.spnt.many	b0,b3 }
	{ Invalid; (p07) nop; (p32) nop }
	{ (p07) fwb; nop; br.call.spnt.many	b0,b3 }
	{ Invalid; (p07) nop; (p32) nop }
	{ (p07) fwb; nop; br.call.spnt.many	b0,b3 }
	{ Invalid; (p07) nop; (p32) nop }
	{ (p07) fwb; nop; br.call.spnt.many	b0,b3 }
	{ Invalid; nop; nop }
	{ break.m	0x4000; Invalid; break.i	0x80000 }

l40000000000D6510:
	{ nop.m	0x0; mov.i	ar.pfs,r36; mov.spnt	b0,r35,40000000000D6510 }
	{ nop.m	0x0; adds	r12,0x10,r12; br.ret	b0; }

l40000000000D6530:
	{ adds	r33,0x10,r12; nop.i	0x0; br.call.sptk.many	b0,fn400000000001BB00; }
	{ adds	r1,0x0,r37; nop.m	0x0; addl	r38,5,r0; }
	{ addl	r39,-6508,r1; addl	r40,-10396,r1; addl	r34,-10348,r1; }
	{ ld8	r34,[r34]; ld8	r39,[r39]; nop.i	0x0; }
	{ ld8	r40,[r40]; nop.i	0x0; br.call.sptk.many	b0,fn400000000001C120; }
	{ adds	r1,0x0,r37; nop.m	0x0; addl	r38,94,r0; }
	{ addl	r39,-6524,r1; addl	r40,-10396,r1; nop.i	0x0 }
	{ ld8	r39,[r39]; ld8	r40,[r40]; br.call.sptk.many	b0,fn400000000001C120; }
	{ adds	r1,0x0,r37; nop.m	0x0; addl	r38,15,r0; }
	{ addl	r39,-8892,r1; addl	r40,-10676,r1; nop.i	0x0 }
	{ ld8	r39,[r39]; ld8	r40,[r40]; br.call.sptk.many	b0,fn400000000001C120; }
	{ adds	r1,0x0,r37; nop.m	0x0; addl	r38,22,r0; }
	{ addl	r39,-6884,r1; addl	r40,-10132,r1; nop.i	0x0 }
	{ ld8	r39,[r39]; ld8	r40,[r40]; br.call.sptk.many	b0,fn400000000001C120; }
	{ adds	r1,0x0,r37; addl	r14,10,r0; adds	r38,0x10,r12 }
	{ adds	r40,0x0,r0; addl	r39,-10396,r1; nop.i	0x0 }
	{ st1	[r33],r1,1; ld8	r39,[r39]; nop.i	0x0 }
	{ st1	[r0],r33; nop.m	0x0; br.call.sptk.many	b0,fn400000000001AC40; }
	{ adds	r1,0x0,r37; cmp.eq	p07,p06,r8,r34; (p06) br.cond.dptk.few	40000000000D5E80 }

l40000000000D6660:
	{ nop.m	0x0; nop.i	0x0; br.cond.sptk.few	40000000000D69F0; }

l40000000000D6670:
	{ addl	r39,-6940,r1; addl	r40,-10396,r1; addl	r38,9,r0; }
	{ nop.m	0x0; ld8	r39,[r39]; nop.i	0x0 }
	{ ld8	r40,[r40]; nop.m	0x0; br.call.sptk.many	b0,fn400000000001B800; }
	{ adds	r1,0x0,r37; nop.m	0x0; addl	r38,5,r0; }
	{ addl	r14,7788,r1; addl	r15,-10644,r1; nop.i	0x0 }
	{ addl	r16,-6404,r1; addl	r39,-6972,r1; addl	r40,-10132,r1; }
	{ ld4	r14,[r14]; ld8	r15,[r15]; nop.i	0x0; }
	{ nop.m	0x0; cmp4.eq	p06,p07,0x0,r14; nop.i	0x0 }
	{ ld8	r16,[r16]; ld8	r39,[r39]; nop.i	0x0; }
	{ (p07) addl	r14,-10612,r1; st8	[r16],r15; addl	r15,-7036,r1 }

l40000000000D6706:
	{ Invalid; Invalid; nop }
	{ chk.a.nc	r0,3FFFFFFFFF0D6F16; (p07) nop; (p48) cmp.ltu	p03,p06,r96,r3 }

l40000000000D6720:
	{ ld8	r15,[r15]; (p07) ld8	r14,[r14]; nop.i	0x0; }

l40000000000D672C:
	{ cmp4.eq.and	p00,p11,r1,r0; (p01) mov	pr,r3,0x4080; (p48) cmp4.ne.and	p03,p40,r3,r102 }

l40000000000D6736:
	{ chk.a.nc	f15,3FFFFFFFFF9A2816; (p07) addl	r44,813053,r0; (p01) addl	r96,13123,r3; }

l40000000000D673C:
	{ Invalid; (p48) cmp4.ne.and	p03,p08,r3,r102; (p01) cmp.eq	p35,p19,r63,r107; }

l40000000000D6740:
	{ (p06) st8	[r15],r14; (p06) addl	r14,-10612,r1; addl	r15,-6964,r1; }

l40000000000D6746:
	{ Invalid; (p07) cmp4.ne.or	p12,p15,r125,r73; (p33) nop; }

l40000000000D674C:
	{ (p38) cmp4.ne.and	p61,p41,r73,r79; (p01) cmp.eq.unc	p00,p08,r3,r6; Invalid; }

l40000000000D6756:
	{ (p07) fwb; addl	r0,49152,r1; (p33) br.call.sptk.few	b3,b0 }

l40000000000D6766:
	{ mf.a; (p07) nop; break.i	0x80000 }
	{ (p07) fwb; nop; nop }
	{ Invalid; (p07) nop; (p32) nop }
	{ (p07) fwb; nop; br.call.spnt.many	b0,b3 }
	{ break.m	0x4000; (p32) nop; (p16) nop }
	{ break.m	0x4000; Invalid; (p48) nop }
	{ Invalid; nop; (p48) nop }
	{ (p20) fwb; (p32) nop; (p16) nop }
	{ break.m	0x4000; Invalid; (p48) nop }
	{ Invalid; nop; (p48) nop }
	{ (p20) fwb; (p32) nop; (p16) nop }
	{ break.m	0x4000; Invalid; (p48) nop }
	{ Invalid; nop; (p48) nop }
	{ (p20) fwb; (p32) nop; (p16) nop }
	{ break.m	0x4000; Invalid; (p48) nop }
	{ Invalid; nop; (p48) nop }
	{ (p20) fwb; (p32) nop; (p16) nop }
	{ break.m	0x4000; Invalid; (p48) nop }
	{ Invalid; nop; (p48) nop }
	{ (p20) fwb; (p32) nop; (p16) nop }
	{ Invalid; (p07) nop; (p32) nop }
	{ (p07) fwb; nop; br.call.spnt.many	b0,b3 }
	{ break.m	0x4000; (p07) nop; (p32) nop }
	{ break.m	0x4000; (p32) nop; (p16) nop }
	{ Invalid; (p07) nop; (p32) nop }
	{ (p07) fwb; nop; br.call.spnt.many	b0,b3 }
	{ Invalid; (p07) nop; (p32) nop }
	{ (p07) fwb; nop; br.call.spnt.many	b0,b3 }
	{ Invalid; (p07) nop; (p32) nop }
	{ (p07) fwb; nop; br.call.spnt.many	b0,b3 }
	{ Invalid; (p07) nop; (p32) nop }
	{ (p07) fwb; nop; br.call.spnt.many	b0,b3 }
	{ break.m	0x4000; (p07) nop; nop }
	{ break.m	0x4000; nop; (p48) nop }

l40000000000D6980:
	{ addl	r39,-6900,r1; addl	r40,-10396,r1; adds	r38,0x10,r12; }
	{ nop.m	0x0; ld8	r39,[r39]; nop.i	0x0 }
	{ ld8	r40,[r40]; nop.m	0x0; br.call.sptk.many	b0,fn400000000001C180; }
	{ nop.m	0x0; adds	r1,0x0,r37; br.cond.sptk.few	40000000000D5FE0; }

l40000000000D69C0:
	{ addl	r39,-10396,r1; nop.m	0x0; addl	r38,13,r0; }
	{ ld8	r39,[r39]; nop.i	0x0; br.call.sptk.many	b0,fn400000000001ABC0; }
	{ nop.m	0x0; adds	r1,0x0,r37; br.cond.sptk.few	40000000000D5EC0; }

l40000000000D69F0:
	{ addl	r39,-10396,r1; nop.m	0x0; addl	r38,10,r0; }
	{ ld8	r39,[r39]; nop.i	0x0; br.call.sptk.many	b0,fn400000000001ABC0; }
	{ adds	r1,0x0,r37; nop.m	0x0; adds	r38,0x10,r12 }
	{ addl	r14,13,r0; nop.m	0x0; adds	r40,0x0,r0; }
	{ addl	r39,-10396,r1; st1	[r14],r38; nop.i	0x0; }
	{ ld8	r39,[r39]; nop.i	0x0; br.call.sptk.many	b0,fn400000000001AC40; }
	{ adds	r1,0x0,r37; cmp.eq	p07,p06,r8,r34; (p06) br.cond.dptk.few	40000000000D5EC0 }

l40000000000D6A60:
	{ nop.m	0x0; nop.i	0x0; br.cond.sptk.few	40000000000D69C0; }
40000000000D6A70 08 00 00 00 01 00 00 00 00 02 00 00 00 00 04 00 ................

;; bashline_reinitialize: 40000000000D6A80
;;   Called from:
;;     400000000001D14C (in main)
bashline_reinitialize proc
	{ nop.m	0x0; addl	r14,7796,r1; nop.i	0x0; }
	{ st4	[r0],r14; nop.i	0x0; br.ret	b0; }
40000000000D6AA0 08 00 00 00 01 00 00 00 00 02 00 00 00 00 04 00 ................
40000000000D6AB0 08 00 00 00 01 00 00 00 00 02 00 00 00 00 04 00 ................

;; bashline_reset: 40000000000D6AC0
;;   Called from:
;;     40000000000B493C (in throw_to_top_level)
bashline_reset proc
	{ alloc	r33,ar.pfs,0x3,0x0,0x3; mov	r32,b0; adds	r34,0x0,r1; }
	{ nop.m	0x0; nop.i	0x0; br.call.sptk.many	b0,tilde_initialize; }
	{ adds	r1,0x0,r34; nop.m	0x0; mov.i	ar.pfs,r33; }
	{ addl	r15,-10644,r1; addl	r16,-6404,r1; nop.b	0x0 }
	{ addl	r14,7788,r1; nop.m	0x0; mov.spnt	b0,r32,40000000000D6B00; }
	{ ld8	r15,[r15]; ld8	r16,[r16]; nop.i	0x0; }
	{ ld4	r14,[r14]; st8	[r16],r15; addl	r15,-10292,r1 }
	{ addl	r16,-6996,r1; cmp4.eq	p06,p07,0x0,r14; addl	r14,-10220,r1; }
	{ ld8	r15,[r15]; ld8	r16,[r16]; nop.i	0x0; }
	{ ld8	r14,[r14]; st8	[r0],r15; addl	r15,-10332,r1; }
	{ ld8	r15,[r15]; st8	[r16],r15; addl	r15,-7596,r1; }
	{ ld8	r15,[r15]; st8	[r15],r14; (p07) addl	r14,-10612,r1 }

l40000000000D6B80:
	{ addl	r15,-7036,r1; nop.i	0x0; (p06) addl	r14,-10196,r1 }

l40000000000D6B90:
	{ ld8	r15,[r15]; (p07) ld8	r14,[r14]; nop.i	0x0; }

l40000000000D6B9C:
	{ cmp4.eq.and	p00,p11,r1,r0; (p01) mov	pr,r3,0x4080; (p48) cmp4.ne.and	p03,p40,r3,r102 }

l40000000000D6BA6:
	{ chk.a.nc	f15,3FFFFFFFFF9A2C86; (p07) addl	r44,813053,r0; (p01) nop; }

l40000000000D6BAC:
	{ Invalid; Invalid; cmp4.eq.and	p00,p00,r32,r0; }

l40000000000D6BB0:
	{ (p06) st8	[r15],r14; nop.m	0x0; (p06) addl	r14,-10612,r1; }

l40000000000D6BB6:
	{ chk.a.nc	r0,3FFFFFFFFF0D73B6; (p07) cmp4.eq.or	p12,p15,0x7D,r45; (p33) addl	r3,832,r3 }

l40000000000D6BC0:
	{ (p07) ld8	r14,[r14]; (p06) ld8	r14,[r14]; nop.i	0x0; }

l40000000000D6BC6:
	{ (p07) fwb; nop; nop; }

l40000000000D6BCC:
	{ Invalid; Invalid; add	r0,r32,r0 }
	{ nop; break.m	0x1000; break.i	0x1000 }
40000000000D6BE0 08 00 00 00 01 00 00 00 00 02 00 00 00 00 04 00 ................
40000000000D6BF0 08 00 00 00 01 00 00 00 00 02 00 00 00 00 04 00 ................

;; bash_re_edit: 40000000000D6C00
;;   Called from:
;;     40000000000C95CC (in pre_process_line)
;;     40000000000C991C (in pre_process_line)
bash_re_edit proc
	{ alloc	r35,ar.pfs,0x7,0x0,0x5; addl	r33,8028,r1; nop.b	0x0 }
	{ adds	r36,0x0,r1; nop.m	0x0; mov	r34,b2; }
	{ nop.m	0x0; ld8	r37,[r33]; nop.i	0x0; }
	{ cmp.eq	p06,p07,0x0,r37; nop.i	0x0; (p06) br.cond.dpnt.few	40000000000D6C60; }

l40000000000D6C40:
	{ nop.m	0x0; nop.i	0x0; br.call.sptk.many	b0,fn400000000001A7E0; }
	{ adds	r1,0x0,r36; nop.m	0x0; nop.i	0x0 }

l40000000000D6C60:
	{ adds	r37,0x0,r32; nop.i	0x0; br.call.sptk.many	b0,fn400000000001B6C0; }
	{ adds	r1,0x0,r36; adds	r37,0x1,r8; br.call.sptk.many	b0,xmalloc; }
	{ adds	r1,0x0,r36; nop.m	0x0; adds	r37,0x0,r8 }
	{ adds	r38,0x0,r32; nop.m	0x0; br.call.sptk.many	b0,fn400000000001B180; }
	{ adds	r1,0x0,r36; st8	[r8],r33; mov.i	ar.pfs,r35 }
	{ nop.m	0x0; adds	r8,0x0,r0; nop.i	0x0; }
	{ addl	r14,-10516,r1; addl	r16,8020,r1; mov.spnt	b0,r34,40000000000D6CC0; }
	{ nop.m	0x0; ld8	r14,[r14]; nop.i	0x0; }
	{ ld8	r15,[r14]; st8	[r15],r16; addl	r15,-7052,r1; }
	{ nop.m	0x0; ld8	r15,[r15]; nop.i	0x0; }
	{ st8	[r15],r14; nop.i	0x0; br.ret	b0; }
40000000000D6D10 08 00 00 00 01 00 00 00 00 02 00 00 00 00 04 00 ................
40000000000D6D20 08 00 00 00 01 00 00 00 00 02 00 00 00 00 04 00 ................
40000000000D6D30 08 00 00 00 01 00 00 00 00 02 00 00 00 00 04 00 ................

;; get_hostname_list: 40000000000D6D40
get_hostname_list proc
	{ alloc	r33,ar.pfs,0x3,0x0,0x3; addl	r14,7780,r1; mov	r32,b0 }
	{ adds	r34,0x0,r1; ld4	r14,[r14]; mov.i	ar.pfs,r33; }
	{ cmp4.eq	p07,p06,0x0,r14; addl	r14,8004,r1; mov.spnt	b0,r32,40000000000D6D60 }
	{ nop.m	0x0; nop.m	0x0; (p07) br.cond.dpnt.few	40000000000D6D90; }

l40000000000D6D80:
	{ ld8	r8,[r14]; nop.i	0x0; br.ret	b0; }

l40000000000D6D90:
	{ nop.m	0x0; nop.i	0x0; br.call.sptk.many	b0,fn40000000000CF180; }
	{ adds	r1,0x0,r34; nop.m	0x0; mov.i	ar.pfs,r33; }
	{ addl	r14,8004,r1; nop.m	0x0; mov.spnt	b0,r32,40000000000D6DB0; }
	{ ld8	r8,[r14]; nop.i	0x0; br.ret	b0; }
40000000000D6DD0 08 00 00 00 01 00 00 00 00 02 00 00 00 00 04 00 ................
40000000000D6DE0 08 00 00 00 01 00 00 00 00 02 00 00 00 00 04 00 ................
40000000000D6DF0 08 00 00 00 01 00 00 00 00 02 00 00 00 00 04 00 ................

;; clear_hostname_list: 40000000000D6E00
;;   Called from:
;;     4000000000062C0C (in sv_hostfile)
clear_hostname_list proc
	{ alloc	r37,ar.pfs,0x9,0x0,0x8; addl	r34,7780,r1; nop.b	0x0 }
	{ addl	r35,8000,r1; mov	r39,LC; adds	r38,0x0,r1; }
	{ ld4	r14,[r34]; nop.m	0x0; mov	r36,b4; }
	{ cmp4.eq	p06,p07,0x0,r14; nop.i	0x0; (p06) br.cond.dpnt.few	40000000000D6EC0; }

l40000000000D6E40:
	{ nop.m	0x0; ld4	r14,[r35]; nop.i	0x0; }
	{ cmp4.lt	p06,p07,0x0,r14; adds	r15,0xFFFFFFFFFFFFFFFF,r14; (p07) br.cond.dpnt.few	40000000000D6EB0; }

l40000000000D6E60:
	{ (p06) addl	r14,8004,r1; nop.m	0x0; (p06) addp4	r15,r15,r0; }

l40000000000D6E66:
	{ adds	r0,0xFFFFFFFFFFFFE000,r1; Invalid; (p17) addl	r8,832,r3 }

l40000000000D6E70:
	{ (p06) ld8	r33,[r14]; (p06) mov.i	LC,r15; (p06) adds	r32,0x8,r33; }

l40000000000D6E76:
	{ chk.a.nc	r15,3FFFFFFFFF0EC286; (p16) nop; nop; }

l40000000000D6E7C:
	{ (p04) nop; nop }

l40000000000D6E80:
	{ ld8	r40,[r33]; nop.m	0x0; adds	r33,0x0,r32 }
	{ adds	r32,0x8,r32; nop.m	0x0; br.call.sptk.many	b0,fn400000000001A7E0; }
	{ nop.m	0x0; adds	r1,0x0,r38; br.cloop.sptk.few	40000000000D6E80 }

l40000000000D6EB0:
	{ st4	[r0],r34; st4	[r0],r35; nop.i	0x0 }

l40000000000D6EC0:
	{ nop.m	0x0; mov.i	ar.pfs,r37; mov.i	LC,r39; }
	{ nop.m	0x0; mov.spnt	b0,r36,40000000000D6ED0; br.ret	b0; }
40000000000D6EE0 08 00 00 00 01 00 00 00 00 02 00 00 00 00 04 00 ................
40000000000D6EF0 08 00 00 00 01 00 00 00 00 02 00 00 00 00 04 00 ................

;; bash_default_completion: 40000000000D6F00
;;   Called from:
;;     400000000011E20C (in compgen_builtin)
bash_default_completion proc
	{ alloc	r42,ar.pfs,0xE,0x0,0xC; ld1	r14,[r32]; mov	r41,b1 }
	{ adds	r43,0x0,r1; nop.m	0x0; sxt1	r14,r14; }
	{ cmp4.eq	p07,p06,0x24,r14; nop.i	0x0; (p07) br.cond.dpnt.few	40000000000D71C0; }

l40000000000D6F30:
	{ nop.m	0x0; cmp4.eq	p07,p06,0x7E,r14; (p07) br.cond.dpnt.few	40000000000D7400 }

l40000000000D6F40:
	{ addl	r14,6136,r1; ld4	r14,[r14]; nop.i	0x0; }
	{ nop.m	0x0; cmp4.eq	p07,p06,0x0,r14; (p07) br.cond.dptk.few	40000000000D6F80 }

l40000000000D6F60:
	{ ld1	r14,[r32]; nop.m	0x0; sxt1	r14,r14; }
	{ nop.m	0x0; cmp4.eq	p07,p06,0x40,r14; (p07) br.cond.dpnt.few	40000000000D7480; }

l40000000000D6F80:
	{ nop.m	0x0; tbit.z	p07,p06,r36,0x0; (p07) br.cond.dptk.few	40000000000D72C0 }

l40000000000D6F90:
	{ addl	r14,9188,r1; nop.m	0x0; nop.i	0x0; }
	{ nop.m	0x0; ld4	r14,[r14]; nop.i	0x0; }
	{ cmp4.eq	p06,p07,0x0,r14; nop.i	0x0; (p06) br.cond.dpnt.few	40000000000D6FD0; }

l40000000000D6FC0:
	{ nop.m	0x0; cmp4.eq	p07,p06,r33,r34; (p07) br.cond.dpnt.few	40000000000D7270 }

l40000000000D6FD0:
	{ addl	r40,8036,r1; addl	r45,-10036,r1; adds	r44,0x0,r32; }
	{ nop.m	0x0; ld8	r45,[r45]; nop.i	0x0 }
	{ st4	[r0],r40; nop.m	0x0; br.call.sptk.many	b0,fn400000000001A860; }
	{ adds	r39,0x8,r8; adds	r1,0x0,r43; nop.i	0x0 }
	{ cmp.eq	p07,p06,0x0,r8; adds	r37,0x0,r8; (p07) br.cond.dpnt.few	40000000000D75D0; }

l40000000000D7020:
	{ nop.m	0x0; ld8	r14,[r39]; nop.i	0x0; }
	{ nop.m	0x0; cmp.eq	p07,p06,0x0,r14; (p07) br.cond.dpnt.few	40000000000D74E0 }

l40000000000D7040:
	{ ld8	r38,[r37]; nop.m	0x0; nop.i	0x0; }

l40000000000D7050:
	{ cmp.eq	p06,p07,0x0,r38; nop.i	0x0; (p06) br.cond.dpnt.few	40000000000D71A0; }

l40000000000D7060:
	{ nop.m	0x0; ld8	r45,[r39]; nop.i	0x0; }
	{ cmp.eq	p06,p07,0x0,r45; nop.i	0x0; (p06) br.cond.dpnt.few	40000000000D71A0; }

l40000000000D7080:
	{ ld1	r15,[r38]; ld1	r14,[r45]; nop.i	0x0; }
	{ nop.m	0x0; sxt1	r15,r15; sxt1	r14,r14; }
	{ nop.m	0x0; cmp4.eq	p07,p06,r15,r14; (p06) br.cond.dptk.few	40000000000D71A0 }

l40000000000D70B0:
	{ adds	r44,0x0,r38; nop.i	0x0; br.call.sptk.many	b0,fn400000000001A540; }
	{ adds	r1,0x0,r43; cmp4.eq	p07,p06,0x0,r8; (p06) br.cond.dptk.few	40000000000D71A0 }

l40000000000D70D0:
	{ adds	r44,0x0,r38; nop.i	0x0; br.call.sptk.many	b0,absolute_pathname; }
	{ adds	r1,0x0,r43; cmp4.eq	p07,p06,0x0,r8; (p06) br.cond.dptk.few	40000000000D71A0 }

l40000000000D70F0:
	{ ld8	r44,[r37]; nop.i	0x0; br.call.sptk.many	b0,absolute_program; }
	{ adds	r1,0x0,r43; cmp4.eq	p07,p06,0x0,r8; (p06) br.cond.dptk.few	40000000000D71A0 }

l40000000000D7110:
	{ ld8	r44,[r37]; ld1	r14,[r44]; nop.i	0x0; }
	{ nop.m	0x0; sxt1	r14,r14; nop.i	0x0; }
	{ cmp4.eq	p06,p07,0x7E,r14; nop.i	0x0; (p06) br.cond.dpnt.few	40000000000D71A0; }

l40000000000D7140:
	{ nop.m	0x0; nop.i	0x0; br.call.sptk.many	b0,fn40000000000CA600; }
	{ adds	r1,0x0,r43; cmp4.eq	p06,p07,0x0,r8; (p06) br.cond.dptk.few	40000000000D71A0; }

l40000000000D7160:
	{ addl	r14,-10076,r1; nop.m	0x0; addl	r15,1,r0; }
	{ ld8	r14,[r14]; st4	[r15],r14; addl	r14,-10172,r1; }
	{ nop.m	0x0; ld8	r14,[r14]; nop.i	0x0; }
	{ st4	[r0],r14; nop.m	0x0; nop.i	0x0; }

l40000000000D71A0:
	{ adds	r8,0x0,r37; nop.m	0x0; mov.i	ar.pfs,r42; }
	{ nop.m	0x0; mov.spnt	b0,r41,40000000000D71B0; br.ret	b0 }

l40000000000D71C0:
	{ adds	r14,0x1,r32; nop.m	0x0; adds	r44,0x0,r32 }
	{ cmp4.eq	p06,p07,0x27,r35; nop.m	0x0; (p06) br.cond.dpnt.few	40000000000D7200; }

l40000000000D71E0:
	{ ld1	r14,[r14]; nop.m	0x0; sxt1	r14,r14; }
	{ nop.m	0x0; cmp4.eq	p07,p06,0x28,r14; (p07) br.cond.dpnt.few	40000000000D73B0 }

l40000000000D7200:
	{ nop.m	0x0; addl	r45,-7004,r1; nop.i	0x0; }
	{ ld8	r45,[r45]; nop.i	0x0; br.call.sptk.many	b0,fn400000000001A860; }
	{ adds	r37,0x0,r8; nop.m	0x0; adds	r1,0x0,r43; }
	{ nop.m	0x0; cmp.eq	p07,p06,0x0,r37; (p06) br.cond.sptk.few	40000000000D71A0 }

l40000000000D7240:
	{ ld1	r14,[r32]; nop.m	0x0; sxt1	r14,r14; }
	{ nop.m	0x0; cmp4.eq	p07,p06,0x7E,r14; (p06) br.cond.dptk.few	40000000000D6F40 }

l40000000000D7260:
	{ nop.m	0x0; nop.i	0x0; br.cond.sptk.few	40000000000D7400 }

l40000000000D7270:
	{ ld1	r14,[r32]; nop.m	0x0; sxt1	r14,r14; }
	{ nop.m	0x0; cmp4.eq	p07,p06,0x0,r14; (p06) br.cond.dptk.few	40000000000D6FD0 }

l40000000000D7290:
	{ addl	r14,-10332,r1; addl	r15,-9412,r1; nop.i	0x0 }
	{ ld8	r14,[r14]; ld8	r15,[r15]; nop.i	0x0; }
	{ st8	[r15],r14; nop.m	0x0; nop.i	0x0; }

l40000000000D72C0:
	{ adds	r44,0x0,r32; nop.i	0x0; br.call.sptk.many	b0,glob_pattern_p; }
	{ adds	r1,0x0,r43; cmp4.eq	p07,p06,0x0,r8; (p06) br.cond.dpnt.few	40000000000D7300 }

l40000000000D72E0:
	{ adds	r37,0x0,r0; nop.m	0x0; mov.i	ar.pfs,r42; }
	{ adds	r8,0x0,r37; mov.spnt	b0,r41,40000000000D72F0; br.ret	b0 }

l40000000000D7300:
	{ addl	r45,-7028,r1; nop.m	0x0; adds	r44,0x0,r32; }
	{ ld8	r45,[r45]; nop.i	0x0; br.call.sptk.many	b0,fn400000000001A860; }
	{ adds	r14,0x8,r8; adds	r1,0x0,r43; nop.i	0x0 }
	{ cmp.eq	p07,p06,0x0,r8; adds	r37,0x0,r8; (p07) br.cond.dpnt.few	40000000000D72E0; }

l40000000000D7340:
	{ nop.m	0x0; ld8	r14,[r14]; nop.i	0x0; }
	{ cmp.eq	p06,p07,0x0,r14; addl	r14,-10452,r1; (p06) br.cond.dpnt.few	40000000000D71A0; }

l40000000000D7360:
	{ ld8	r14,[r14]; ld4	r14,[r14]; nop.i	0x0; }
	{ nop.m	0x0; cmp4.eq	p07,p06,0x9,r14; (p06) br.cond.dptk.few	40000000000D71A0 }

l40000000000D7380:
	{ adds	r44,0x0,r8; adds	r37,0x0,r0; br.call.sptk.many	b0,strvec_dispose; }
	{ adds	r8,0x0,r37; adds	r1,0x0,r43; mov.i	ar.pfs,r42; }
	{ nop.m	0x0; mov.spnt	b0,r41,40000000000D73A0; br.ret	b0 }

l40000000000D73B0:
	{ nop.m	0x0; addl	r45,-7020,r1; nop.i	0x0; }
	{ ld8	r45,[r45]; nop.i	0x0; br.call.sptk.many	b0,fn400000000001A860; }
	{ adds	r37,0x0,r8; nop.m	0x0; adds	r1,0x0,r43; }
	{ nop.m	0x0; cmp.eq	p07,p06,0x0,r37; (p06) br.cond.sptk.few	40000000000D71A0 }

l40000000000D73F0:
	{ nop.m	0x0; nop.i	0x0; br.cond.sptk.few	40000000000D7240 }

l40000000000D7400:
	{ adds	r44,0x0,r32; addl	r45,47,r0; br.call.sptk.many	b0,mbschr; }
	{ adds	r1,0x0,r43; cmp.eq	p07,p06,0x0,r8; (p06) br.cond.dptk.few	40000000000D6F40; }

l40000000000D7420:
	{ addl	r45,-10308,r1; nop.m	0x0; adds	r44,0x0,r32; }
	{ ld8	r45,[r45]; nop.i	0x0; br.call.sptk.many	b0,fn400000000001A860; }
	{ nop.m	0x0; adds	r37,0x0,r8; adds	r1,0x0,r43 }
	{ nop.m	0x0; cmp.eq	p07,p06,0x0,r8; (p07) br.cond.sptk.few	40000000000D6F40; }

l40000000000D7460:
	{ adds	r8,0x0,r37; nop.m	0x0; mov.i	ar.pfs,r42; }
	{ nop.m	0x0; mov.spnt	b0,r41,40000000000D7470; br.ret	b0 }

l40000000000D7480:
	{ addl	r45,-7012,r1; nop.m	0x0; adds	r44,0x0,r32; }
	{ ld8	r45,[r45]; nop.i	0x0; br.call.sptk.many	b0,fn400000000001A860; }
	{ nop.m	0x0; adds	r37,0x0,r8; adds	r1,0x0,r43 }
	{ nop.m	0x0; cmp.eq	p06,p07,0x0,r8; (p06) br.cond.sptk.few	40000000000D6F80; }

l40000000000D74C0:
	{ adds	r8,0x0,r37; nop.m	0x0; mov.i	ar.pfs,r42; }
	{ nop.m	0x0; mov.spnt	b0,r41,40000000000D74D0; br.ret	b0; }

l40000000000D74E0:
	{ ld8	r44,[r8]; nop.i	0x0; br.call.sptk.many	b0,absolute_pathname; }
	{ adds	r1,0x0,r43; cmp4.eq	p07,p06,0x0,r8; (p06) br.cond.dptk.few	40000000000D7040 }

l40000000000D7500:
	{ ld8	r44,[r37]; nop.i	0x0; br.call.sptk.many	b0,absolute_program; }
	{ nop.m	0x0; adds	r1,0x0,r43; nop.i	0x0 }
	{ ld8	r38,[r37]; cmp4.eq	p07,p06,0x0,r8; (p06) br.cond.dptk.few	40000000000D7050; }

l40000000000D7530:
	{ ld1	r14,[r38]; adds	r44,0x0,r38; sxt1	r14,r14; }
	{ cmp4.eq	p06,p07,0x7E,r14; nop.i	0x0; (p06) br.cond.dpnt.few	40000000000D7050; }

l40000000000D7550:
	{ nop.m	0x0; nop.i	0x0; br.call.sptk.many	b0,fn40000000000CA600; }
	{ adds	r1,0x0,r43; cmp4.eq	p06,p07,0x0,r8; (p06) br.cond.dptk.few	40000000000D7040 }

l40000000000D7570:
	{ nop.m	0x0; ld4	r14,[r40]; nop.i	0x0; }
	{ nop.m	0x0; cmp4.eq	p07,p06,0x0,r14; (p06) br.cond.dptk.few	40000000000D7040 }

l40000000000D7590:
	{ addl	r14,-10076,r1; nop.m	0x0; addl	r15,1,r0; }
	{ ld8	r14,[r14]; st4	[r15],r14; addl	r14,-10172,r1; }
	{ nop.m	0x0; ld8	r14,[r14]; nop.i	0x0; }
	{ st4	[r0],r14; nop.i	0x0; br.cond.sptk.few	40000000000D71A0 }

l40000000000D75D0:
	{ addl	r14,-10332,r1; addl	r15,-9420,r1; adds	r44,0x0,r32; }
	{ ld8	r14,[r14]; ld8	r15,[r15]; nop.i	0x0; }
	{ st8	[r15],r14; nop.i	0x0; br.call.sptk.many	b0,glob_pattern_p; }
	{ adds	r1,0x0,r43; cmp4.eq	p07,p06,0x0,r8; (p07) br.cond.dptk.few	40000000000D72E0 }

l40000000000D7610:
	{ nop.m	0x0; nop.i	0x0; br.cond.sptk.few	40000000000D7300; }
40000000000D7620 08 00 00 00 01 00 00 00 00 02 00 00 00 00 04 00 ................
40000000000D7630 08 00 00 00 01 00 00 00 00 02 00 00 00 00 04 00 ................
40000000000D7640 08 58 4D 1C 80 05 C0 80 33 7E 46 E0 41 EA BF 9E .XM.....3~F.A...
40000000000D7650 09 80 B0 FA C9 27 E0 60 07 78 48 A0 44 ED B7 9E .....'.`.xH.D...
40000000000D7660 08 78 00 1E 18 10 30 FA 87 7E 46 A0 05 08 CA 00 .x....0..~F.....
40000000000D7670 09 60 01 02 00 21 00 01 40 30 20 00 00 00 04 00 .`...!..@0 .....
40000000000D7680 00 70 00 1C 10 10 A0 02 00 62 00 80 04 18 59 00 .p.......b....Y.
40000000000D7690 0A 28 01 4A 18 10 00 80 3C 30 23 E0 41 E9 C3 9E .(.J....<0#.A...
40000000000D76A0 09 30 00 1C 87 39 00 00 00 02 00 00 42 ED 13 9F .0...9......B...
40000000000D76B0 08 00 00 00 01 00 F0 00 3C 30 A0 C3 C1 E8 B7 9E ........<0......
40000000000D76C0 0B 80 00 20 18 90 E1 60 F5 61 4F 00 00 00 04 00 ... ...`.aO.....
40000000000D76D0 09 00 40 1E 98 D1 E1 00 38 30 20 E0 41 E8 27 9F ..@.....80 .A.'.
40000000000D76E0 C9 70 00 1C 18 10 F0 00 3C 30 20 00 00 00 04 00 .p......<0 .....
40000000000D76F0 E9 00 3C 1C 98 11 00 00 00 02 80 C3 C1 EA C3 9E ..<.............
40000000000D7700 C9 00 3C 1C 98 91 E1 60 F4 5B 4F E0 F1 27 FD 8C ..<....`.[O..'..
40000000000D7710 EB 70 00 1C 18 90 E1 00 38 30 20 C0 30 02 1C C2 .p......80 .0...
40000000000D7720 11 00 00 1C 98 11 E0 18 01 10 40 03 70 00 00 43 ..........@.p..C
40000000000D7730 09 80 00 4A 18 10 00 00 00 02 00 00 E0 08 AA 00 ...J............
40000000000D7740 09 70 40 48 00 20 00 00 00 02 00 E0 01 79 00 80 .p@H. .......y..
40000000000D7750 0B 70 00 1C 00 10 00 00 00 02 00 C0 01 70 50 00 .p...........pP.
40000000000D7760 09 38 24 1C 86 39 00 00 00 02 00 E0 05 70 00 84 .8$..9.......p..
40000000000D7770 11 00 00 00 01 00 70 00 39 8C 73 03 B0 01 00 43 ......p.9.s....C
40000000000D7780 10 20 3D 20 05 20 30 FA 8F 7E 46 A0 70 01 00 40 . = . 0..~F.p..@
40000000000D7790 08 30 FD F9 FF 27 00 00 00 02 00 00 00 00 04 00 .0...'..........
40000000000D77A0 09 00 00 00 01 00 E0 E0 04 8C 48 00 00 00 04 00 ..........H.....
40000000000D77B0 0B 00 00 00 01 00 F0 00 38 30 20 C0 C1 08 18 91 ........80 .....
40000000000D77C0 0B 00 00 00 01 00 E0 00 38 30 20 00 00 00 04 00 ........80 .....
40000000000D77D0 10 00 00 00 01 00 60 70 3C 0E 70 03 40 05 00 43 ......`p<.p.@..C
40000000000D77E0 08 18 01 00 00 21 00 00 00 02 00 00 00 00 04 00 .....!..........
40000000000D77F0 0B 70 00 40 00 10 00 00 00 02 00 C0 01 70 50 00 .p.@.........pP.
40000000000D7800 11 00 00 00 01 00 70 00 3B 0C F3 03 20 04 00 43 ......p.;... ..C
40000000000D7810 10 00 00 00 01 00 60 00 8C 0E 73 03 50 00 00 42 ......`...s.P..B
40000000000D7820 09 70 00 40 00 10 00 00 00 02 00 00 00 00 04 00 .p.@............
40000000000D7830 01 00 00 00 01 00 E0 00 38 28 00 00 00 00 04 00 ........8(......
40000000000D7840 11 00 00 00 01 00 70 00 38 0C 73 03 50 00 00 42 ......p.8.s.P..B
40000000000D7850 08 00 00 00 01 00 00 00 00 02 00 00 00 00 04 00 ................
40000000000D7860 0B 70 00 02 30 24 00 00 00 02 00 00 00 00 04 00 .p..0$..........
40000000000D7870 09 00 00 00 01 00 E0 00 38 20 20 00 00 00 04 00 ........8  .....
40000000000D7880 10 00 00 00 01 00 60 00 38 0E F3 03 C0 04 00 43 ......`.8......C
40000000000D7890 08 70 01 40 00 21 F0 02 84 00 42 00 06 10 01 84 .p.@.!....B.....
40000000000D78A0 19 88 01 4C 00 21 20 03 8C 00 42 00 68 F6 FF 58 ...L.! ...B.h..X
40000000000D78B0 08 08 00 58 00 21 00 00 00 02 00 00 00 00 04 00 ...X.!..........
40000000000D78C0 01 00 00 00 01 00 00 58 01 55 00 00 00 00 04 00 .......X.U......
40000000000D78D0 02 00 00 00 01 00 00 68 05 55 00 00 A0 0A 00 07 .......h.U......
40000000000D78E0 18 00 00 00 01 00 C0 80 30 00 42 80 08 00 84 00 ........0.B.....
40000000000D78F0 0B 70 FC 1F 01 16 00 00 00 02 00 C0 01 70 50 00 .p...........pP.
40000000000D7900 09 30 80 1C 87 39 00 00 00 02 00 E0 05 70 00 84 .0...9.......p..
40000000000D7910 11 00 00 00 01 00 60 48 38 8E 73 03 70 FE FF 4A ......`H8.s.p..J
40000000000D7920 09 30 88 5E 87 39 10 F9 8F 7E 46 C0 04 78 01 84 .0.^.9...~F..x..
40000000000D7930 09 30 9C 5E C7 39 00 00 00 02 00 40 12 01 20 80 .0.^.9.....@.. .
40000000000D7940 10 00 00 00 01 C0 61 FA F3 FF CF 03 20 01 00 42 ......a..... ..B
40000000000D7950 08 30 FC 23 87 3B 00 00 00 02 00 00 20 09 AA 00 .0.#.;...... ...
40000000000D7960 11 00 00 00 01 00 40 02 44 2C 00 03 40 FE FF 4B ......@.D,..@..K
40000000000D7970 09 70 40 48 00 20 00 00 00 02 00 E0 F1 27 FD 8C .p@H. .......'..
40000000000D7980 03 70 00 1C 00 10 F0 80 3C 00 40 C0 01 70 50 00 .p......<.@..pP.
40000000000D7990 09 38 80 1C 86 39 00 00 00 02 00 E0 05 70 00 84 .8...9.......p..
40000000000D79A0 11 00 00 00 01 00 70 48 38 8C 73 03 B0 00 00 43 ......pH8.s....C
40000000000D79B0 08 00 00 00 01 00 00 00 00 02 00 00 00 00 04 00 ................
40000000000D79C0 10 20 3D 20 05 20 10 F9 47 7E 46 A0 60 00 00 40 . = . ..G~F.`..@
40000000000D79D0 09 00 00 00 01 00 E0 E0 04 8C 48 00 00 00 04 00 ..........H.....
40000000000D79E0 0B 00 00 00 01 00 F0 00 38 30 20 C0 C1 08 18 91 ........80 .....
40000000000D79F0 0B 00 00 00 01 00 E0 00 38 30 20 00 00 00 04 00 ........80 .....
40000000000D7A00 10 00 00 00 01 00 60 70 3C 0E F0 03 E0 FD FF 4A ......`p<......J
40000000000D7A10 10 00 00 00 01 00 00 00 00 02 00 00 00 03 00 40 ...............@
40000000000D7A20 0B 70 FC 1F 01 16 00 00 00 02 00 C0 01 70 50 00 .p...........pP.
40000000000D7A30 09 30 80 1C 87 39 00 00 00 02 00 E0 05 70 00 84 .0...9.......p..
40000000000D7A40 10 00 00 00 01 00 60 48 38 8E 73 03 80 FF FF 4A ......`H8.s....J
40000000000D7A50 09 18 01 22 00 21 00 00 00 02 00 00 00 00 04 00 ...".!..........
40000000000D7A60 10 00 00 00 01 00 70 00 BC 0C F3 03 80 FD FF 4A ......p........J
40000000000D7A70 09 00 00 00 01 00 E0 E2 F7 89 4F 00 00 00 04 00 ..........O.....
40000000000D7A80 11 70 01 5C 18 10 00 00 00 02 00 00 48 FB 05 50 .p.\........H..P
40000000000D7A90 11 08 00 58 00 21 60 00 20 0E 72 03 50 FD FF 4B ...X.!`. .r.P..K
40000000000D7AA0 0B 70 01 4A 18 10 40 72 91 00 40 00 00 00 04 00 .p.J..@r..@.....
40000000000D7AB0 02 70 FC 49 01 16 00 00 00 02 00 C0 01 70 50 00 .p.I.........pP.
40000000000D7AC0 09 00 00 00 01 00 F0 00 90 00 20 00 00 00 04 00 .......... .....
40000000000D7AD0 11 38 98 1C 86 39 F0 00 3C 28 80 03 20 04 00 43 .8...9..<(.. ..C
40000000000D7AE0 09 00 00 00 01 00 60 E0 3B 0E 73 00 00 00 04 00 ......`.;.s.....
40000000000D7AF0 11 38 FA 1E C6 39 00 00 00 02 00 03 F0 FC FF 4B .8...9.........K
40000000000D7B00 09 00 00 00 01 00 60 D8 3B 0E 73 00 00 00 04 00 ......`.;.s.....
40000000000D7B10 10 00 00 00 01 00 70 24 3D 8C 73 03 D0 FC FF 4A ......p$=.s....J
40000000000D7B20 11 78 01 46 00 21 00 00 00 02 00 00 E8 52 FB 58 .x.F.!.......R.X
40000000000D7B30 10 08 00 58 00 21 70 00 20 0C 73 03 B0 FC FF 4A ...X.!p. .s....J
40000000000D7B40 03 70 01 4A 18 10 E0 00 8C 2C 00 C0 E1 72 00 80 .p.J.....,...r..
40000000000D7B50 0B 70 00 1C 00 10 00 00 00 02 00 C0 01 70 50 00 .p...........pP.
40000000000D7B60 10 00 00 00 01 00 60 00 3B 0E F3 03 B0 01 00 42 ......`.;......B
40000000000D7B70 0B 70 00 40 00 10 00 00 00 02 00 E0 01 70 50 00 .p.@.........pP.
40000000000D7B80 10 00 00 00 01 00 60 00 3F 0E F3 03 00 03 00 42 ......`.?......B
40000000000D7B90 09 78 D0 FA AD 27 00 00 00 02 00 60 14 00 00 90 .x...'.....`....
40000000000D7BA0 0B 78 00 1E 18 10 F0 00 3C 20 20 00 00 00 04 00 .x......<  .....
40000000000D7BB0 10 00 00 00 01 00 70 38 3D 0C F3 03 80 FC FF 4B ......p8=......K
40000000000D7BC0 09 78 51 FA C9 27 00 00 00 02 00 C0 05 00 01 84 .xQ..'..........
40000000000D7BD0 11 78 01 5E 18 10 00 00 00 02 00 00 98 2C F4 58 .x.^.........,.X
40000000000D7BE0 10 08 00 58 00 21 60 00 20 0E 72 03 30 FC FF 49 ...X.!`. .r.0..I
40000000000D7BF0 01 00 00 00 01 00 00 58 01 55 00 00 00 00 04 00 .......X.U......
40000000000D7C00 02 00 00 00 01 00 00 68 05 55 00 00 A0 0A 00 07 .......h.U......
40000000000D7C10 18 00 00 00 01 00 C0 80 30 00 42 80 08 00 84 00 ........0.B.....
40000000000D7C20 09 70 D0 FA AD 27 40 A2 F6 5B 4F 00 01 18 25 E6 .p...'@..[O...%.
40000000000D7C30 0B 70 00 1C 18 10 E0 00 38 20 20 00 00 00 04 00 .p......8  .....
40000000000D7C40 08 00 00 00 01 00 60 38 39 0E 73 00 00 00 04 00 ......`89.s.....
40000000000D7C50 17 00 00 00 00 88 01 E0 FD FF A5 04 70 FF FF 4A ............p..J
40000000000D7C60 09 20 01 48 18 10 00 00 00 02 00 00 00 00 04 00 . .H............
40000000000D7C70 09 80 31 FB C4 27 E0 02 90 30 20 E0 05 08 01 84 ..1..'...0 .....
40000000000D7C80 11 80 01 60 18 10 00 00 00 02 00 00 88 58 FB 58 ...`.........X.X
40000000000D7C90 11 08 00 58 00 21 60 00 20 0E 73 03 D0 FB FF 4A ...X.!`. .s....J
40000000000D7CA0 09 80 31 FB C4 27 E0 02 90 30 20 E0 05 10 01 84 ..1..'...0 .....
40000000000D7CB0 11 80 01 60 18 10 00 00 00 02 00 00 58 58 FB 58 ...`........XX.X
40000000000D7CC0 11 08 00 58 00 21 70 00 20 0C F3 03 A0 FB FF 4A ...X.!p. ......J
40000000000D7CD0 09 78 51 FA C9 27 00 00 00 02 00 C0 05 00 01 84 .xQ..'..........
40000000000D7CE0 11 78 01 5E 18 10 00 00 00 02 00 00 88 2B F4 58 .x.^.........+.X
40000000000D7CF0 10 08 00 58 00 21 60 00 20 0E F2 03 00 FF FF 48 ...X.!`. ......H
40000000000D7D00 10 00 00 00 01 00 00 00 00 02 00 00 10 FB FF 48 ...............H
40000000000D7D10 03 70 00 40 00 10 30 0A 00 00 48 C0 01 70 50 00 .p.@..0...H..pP.
40000000000D7D20 10 00 00 00 01 00 70 00 3B 0C 73 03 F0 FA FF 4A ......p.;.s....J
40000000000D7D30 10 00 00 00 01 00 00 00 00 02 00 00 F0 FE FF 48 ...............H
40000000000D7D40 11 00 00 00 01 00 00 00 00 02 00 00 C8 07 01 50 ...............P
40000000000D7D50 11 08 00 58 00 21 70 00 20 0C 63 03 40 FB FF 4B ...X.!p. .c.@..K
40000000000D7D60 09 00 00 00 01 00 E0 E0 04 8C 48 00 00 00 04 00 ..........H.....
40000000000D7D70 0B 00 00 00 01 00 F0 00 38 30 20 C0 C1 08 18 91 ........80 .....
40000000000D7D80 0B 00 00 00 01 00 E0 00 38 30 20 00 00 00 04 00 ........80 .....
40000000000D7D90 10 00 00 00 01 00 70 70 3C 0C 70 03 00 FB FF 4A ......pp<.p....J
40000000000D7DA0 09 38 91 02 3D 24 50 A2 F6 5B 4F 80 04 00 00 84 .8..=$P..[O.....
40000000000D7DB0 09 70 01 4E 18 10 50 02 94 30 20 00 00 00 04 00 .p.N..P..0 .....
40000000000D7DC0 11 30 00 5C 07 39 00 00 00 02 00 03 30 00 00 43 .0.\.9......0..C
40000000000D7DD0 11 00 00 00 01 00 00 00 00 02 00 00 18 2A F4 58 .............*.X
40000000000D7DE0 08 08 00 58 00 21 00 00 00 02 00 00 00 00 04 00 ...X.!..........
40000000000D7DF0 09 00 00 4E 98 11 E0 02 94 30 20 00 00 00 04 00 ...N.....0 .....
40000000000D7E00 09 80 F1 FB C4 27 F0 02 90 00 42 20 96 00 00 90 .....'....B ....
40000000000D7E10 11 80 01 60 18 10 00 00 00 02 00 00 38 43 FB 58 ...`........8C.X
40000000000D7E20 08 00 00 00 01 00 E0 02 94 30 20 C0 01 40 58 00 .........0 ..@X.
40000000000D7E30 19 08 00 58 00 21 70 08 21 0C E1 03 F0 00 00 43 ...X.!p.!......C
40000000000D7E40 0B 70 B8 1C 00 20 E0 00 38 00 20 00 00 00 04 00 .p... ..8. .....
40000000000D7E50 01 00 00 00 01 00 E0 00 38 28 00 00 00 00 04 00 ........8(......
40000000000D7E60 11 38 00 1C 86 39 00 00 00 02 80 03 C0 00 00 43 .8...9.........C
40000000000D7E70 10 00 00 00 01 00 40 0A 20 00 42 00 90 FF FF 48 ......@. .B....H
40000000000D7E80 09 80 31 FB C4 27 00 00 00 02 00 E0 05 10 01 84 ..1..'..........
40000000000D7E90 11 80 01 60 18 10 00 00 00 02 00 00 78 56 FB 58 ...`........xV.X
40000000000D7EA0 09 70 00 40 00 10 60 00 20 0E 73 20 00 60 01 84 .p.@..`. .s .`..
40000000000D7EB0 C9 40 00 00 00 21 00 00 00 02 00 C0 01 70 50 00 .@...!.......pP.
40000000000D7EC0 E9 40 04 00 00 24 00 00 00 02 00 E0 00 76 18 E6 .@...$.......v..
40000000000D7ED0 10 00 00 00 01 00 30 02 20 00 42 03 40 F9 FF 4A ......0. .B.@..J
40000000000D7EE0 10 00 00 00 01 00 00 00 00 02 00 00 40 FD FF 48 ............@..H
40000000000D7EF0 03 00 00 00 01 00 E0 00 3C 28 00 C0 D1 77 B0 88 ........<(...w..
40000000000D7F00 10 00 00 00 01 00 60 E0 39 0E F3 03 20 FC FF 4A ......`.9... ..J
40000000000D7F10 10 00 00 00 01 00 30 02 00 00 42 00 E0 F8 FF 48 ......0...B....H
40000000000D7F20 08 80 F1 FB C4 27 00 00 00 02 00 E0 05 10 01 84 .....'..........
40000000000D7F30 09 88 05 00 00 24 00 00 00 02 00 00 05 20 01 84 .....$....... ..
40000000000D7F40 11 80 01 60 18 10 00 00 00 02 00 00 08 42 FB 58 ...`.........B.X
40000000000D7F50 00 70 01 4A 18 10 F0 00 90 2C 00 20 00 60 01 84 .p.J.....,. .`..
40000000000D7F60 0B 48 01 10 00 21 E0 70 3D 00 40 E0 E1 7A 04 80 .H...!.p=.@..z..
40000000000D7F70 09 00 00 00 01 00 E0 00 38 00 20 00 00 00 04 00 ........8. .....
40000000000D7F80 03 00 00 00 01 00 E0 00 38 28 00 E0 00 72 18 E6 ........8(...r..
40000000000D7F90 10 00 00 00 01 00 70 48 38 8C 73 03 40 00 00 43 ......pH8.s.@..C
40000000000D7FA0 09 70 04 1E 00 14 00 00 00 02 00 80 14 20 01 84 .p........... ..
40000000000D7FB0 03 00 00 00 01 00 E0 00 38 28 00 C0 00 72 1C E6 ........8(...r..
40000000000D7FC0 10 00 00 00 01 00 60 48 38 8E 73 03 E0 FF FF 4A ......`H8.s....J
40000000000D7FD0 09 80 51 FB C8 27 F0 02 90 00 42 20 16 00 00 90 ..Q..'....B ....
40000000000D7FE0 11 80 01 60 18 10 00 00 00 02 00 00 68 41 FB 58 ...`........hA.X
40000000000D7FF0 08 00 00 00 01 00 10 00 B0 00 42 E0 05 20 01 84 ..........B.. ..
40000000000D8000 19 70 01 4A 18 10 00 03 20 00 42 00 08 14 00 50 .p.J.... .B....P
40000000000D8010 08 30 A4 50 87 38 80 00 A4 12 73 20 00 60 01 84 .0.P.8....s .`..
40000000000D8020 0B 20 01 10 00 A1 F1 08 00 00 48 C4 11 00 00 90 . ........H.....
40000000000D8030 E3 78 00 00 00 61 E2 00 00 00 42 C0 E1 78 30 80 .x...a....B..x0.
40000000000D8040 10 00 00 00 01 00 60 00 38 0E 73 03 B0 01 00 42 ......`.8.s....B
40000000000D8050 0B 70 00 40 00 10 00 00 00 02 00 C0 01 70 50 00 .p.@.........pP.
40000000000D8060 10 00 00 00 01 00 70 00 38 0C F3 03 40 01 00 43 ......p.8...@..C
40000000000D8070 09 00 00 00 01 00 E0 80 30 00 42 00 00 00 04 00 ........0.B.....
40000000000D8080 08 00 00 1C 90 11 00 00 00 02 00 00 00 00 04 00 ................
40000000000D8090 11 30 00 48 07 39 E0 02 90 00 42 03 30 00 00 43 .0.H.9....B.0..C
40000000000D80A0 11 00 00 00 01 00 00 00 00 02 00 00 48 27 F4 58 ............H'.X
40000000000D80B0 08 08 00 58 00 21 00 00 00 02 00 00 00 00 04 00 ...X.!..........
40000000000D80C0 0B 78 40 18 00 21 E0 02 3C 20 20 00 00 00 04 00 .x@..!..<  .....
40000000000D80D0 10 00 00 00 01 00 60 00 B8 0E 73 03 C0 F7 FF 4A ......`...s....J
40000000000D80E0 11 78 05 00 00 24 00 00 00 02 00 00 A8 F6 00 50 .x...$.........P
40000000000D80F0 03 08 00 58 00 21 E0 02 80 00 42 E0 C5 E9 0F 9F ...X.!....B.....
40000000000D8100 11 78 01 5E 18 10 00 00 00 02 00 00 68 27 F4 58 .x.^........h'.X
40000000000D8110 09 78 40 18 00 21 00 00 00 02 00 20 00 60 01 84 .x@..!..... .`..
40000000000D8120 0B 70 00 1E 10 10 00 00 00 02 00 E0 20 70 18 50 .p.......... p.P
40000000000D8130 E9 78 90 FB AF 27 00 00 00 02 80 03 12 00 00 90 .x...'..........
40000000000D8140 09 00 00 00 01 C0 F1 00 3C 30 20 00 00 00 04 00 ........<0 .....
40000000000D8150 F1 00 40 1E 90 11 70 00 20 0C 72 03 70 F7 FF 4A ..@...p. .r.p..J
40000000000D8160 08 70 01 40 00 21 F0 02 84 00 42 E0 A0 70 18 50 .p.@.!....B..p.P
40000000000D8170 19 80 01 44 00 21 10 03 98 00 C2 03 50 F7 FF 4B ...D.!......P..K
40000000000D8180 11 90 01 46 00 21 00 00 00 02 00 00 88 ED FF 58 ...F.!.........X
40000000000D8190 11 00 00 00 01 00 10 00 B0 00 42 00 30 F7 FF 48 ..........B.0..H
40000000000D81A0 08 70 71 FB C8 27 F0 02 80 00 42 00 00 00 04 00 .pq..'....B.....
40000000000D81B0 09 80 01 00 00 21 10 03 00 00 42 40 06 61 00 84 .....!....B@.a..
40000000000D81C0 11 70 01 5C 18 10 00 00 00 02 00 00 08 F7 00 50 .p.\...........P
40000000000D81D0 08 00 00 00 01 00 10 00 B0 00 42 00 00 00 04 00 ..........B.....
40000000000D81E0 18 00 20 4E 98 11 00 00 00 02 00 00 B0 FE FF 48 .. N...........H
40000000000D81F0 10 00 00 00 01 00 70 40 A5 0C 61 03 80 FE FF 4A ......p@..a....J
40000000000D8200 11 70 01 10 00 21 F0 02 00 00 42 00 C8 78 F6 58 .p...!....B..x.X
40000000000D8210 10 08 00 58 00 21 70 00 20 0C 73 03 60 FE FF 4A ...X.!p. .s.`..J
40000000000D8220 08 70 01 48 00 21 F0 02 80 00 42 00 06 40 01 84 .p.H.!....B..@..
40000000000D8230 19 88 01 52 00 21 20 83 30 00 42 00 98 F6 00 50 ...R.! .0.B....P
40000000000D8240 08 00 00 00 01 00 10 00 B0 00 42 00 00 00 04 00 ..........B.....
40000000000D8250 19 00 20 4E 98 11 00 00 00 02 00 00 40 FE FF 48 .. N........@..H
40000000000D8260 08 00 00 00 01 00 00 00 00 02 00 00 00 00 04 00 ................
40000000000D8270 08 00 00 00 01 00 00 00 00 02 00 00 00 00 04 00 ................

;; bash_servicename_completion_function: 40000000000D8280
bash_servicename_completion_function proc
	{ alloc	r43,ar.pfs,0x10,0x0,0xD; cmp4.eq	p07,p06,0x0,r33; nop.b	0x0 }
	{ addl	r34,8172,r1; mov	r42,b2; adds	r44,0x0,r1; }
	{ nop.m	0x0; (p06) addl	r39,8188,r1; (p06) br.cond.dptk.few	40000000000D83A0; }

l40000000000D82AC:
	{ (p08) nop; Invalid; cmp.eq	p00,p00,r32,r0 }

l40000000000D82B0:
	{ ld8	r45,[r34]; nop.m	0x0; addl	r39,8188,r1; }
	{ cmp.eq	p06,p07,0x0,r45; nop.i	0x0; (p06) br.cond.dpnt.few	40000000000D82F0; }

l40000000000D82D0:
	{ nop.m	0x0; nop.i	0x0; br.call.sptk.many	b0,fn400000000001A7E0; }
	{ adds	r1,0x0,r44; nop.m	0x0; nop.i	0x0; }

l40000000000D82F0:
	{ ld1	r14,[r32]; addl	r15,8180,r1; adds	r45,0x0,r32; }
	{ nop.m	0x0; sxt1	r14,r14; nop.i	0x0; }
	{ st4	[r14],r15; nop.i	0x0; br.call.sptk.many	b0,fn400000000001B6C0; }
	{ adds	r1,0x0,r44; adds	r45,0x1,r8; br.call.sptk.many	b0,xmalloc; }
	{ adds	r46,0x0,r32; nop.m	0x0; adds	r1,0x0,r44 }
	{ adds	r45,0x0,r8; nop.m	0x0; br.call.sptk.many	b0,fn400000000001B180; }
	{ adds	r1,0x0,r44; nop.m	0x0; adds	r45,0x0,r8 }
	{ st8	[r8],r34; nop.m	0x0; br.call.sptk.many	b0,fn400000000001B6C0; }
	{ adds	r1,0x0,r44; adds	r45,0x0,r0; addl	r14,8184,r1; }
	{ st4	[r8],r14; br.call.sptk.many	b0,fn400000000001B880; nop.b	0x0; }
	{ adds	r1,0x0,r44; nop.m	0x0; nop.i	0x0; }

l40000000000D83A0:
	{ nop.m	0x0; addl	r40,8184,r1; addl	r41,8172,r1 }

l40000000000D83B0:
	{ nop.m	0x0; nop.i	0x0; br.call.sptk.many	b0,fn400000000001ADA0; }
	{ nop.m	0x0; adds	r1,0x0,r44; adds	r34,0x0,r8 }
	{ st8	[r8],r39; cmp.eq	p07,p06,0x0,r8; (p07) br.cond.dpnt.few	40000000000D85F0; }

l40000000000D83E0:
	{ nop.m	0x0; ld4	r38,[r40]; nop.i	0x0; }
	{ cmp4.eq	p06,p07,0x0,r38; nop.i	0x0; (p06) br.cond.dpnt.few	40000000000D8590; }

l40000000000D8400:
	{ ld8	r37,[r41]; ld8	r46,[r34]; nop.i	0x0; }
	{ ld1	r36,[r37]; ld1	r14,[r46]; nop.i	0x0; }
	{ nop.m	0x0; sxt1	r36,r36; sxt1	r14,r14; }
	{ nop.m	0x0; cmp4.eq	p07,p06,r14,r36; (p07) br.cond.dpnt.few	40000000000D8570 }

l40000000000D8440:
	{ adds	r34,0x8,r34; nop.m	0x0; sxt4	r38,r38; }
	{ ld8	r35,[r34]; ld8	r34,[r35]; adds	r35,0x8,r35; }
	{ cmp.eq	p06,p07,0x0,r34; nop.i	0x0; (p06) br.cond.dpnt.few	40000000000D83B0; }

l40000000000D8470:
	{ ld1	r14,[r34]; nop.m	0x0; sxt1	r14,r14; }
	{ nop.m	0x0; cmp4.eq	p07,p06,r14,r36; (p07) br.cond.dpnt.few	40000000000D84E0; }

l40000000000D8490:
	{ nop.m	0x0; nop.m	0x0; nop.i	0x0 }

l40000000000D84A0:
	{ nop.m	0x0; ld8	r34,[r35],8; nop.i	0x0; }
	{ cmp.eq	p07,p06,0x0,r34; nop.i	0x0; (p07) br.cond.dpnt.few	40000000000D83B0; }

l40000000000D84C0:
	{ ld1	r14,[r34]; nop.m	0x0; sxt1	r14,r14; }
	{ nop.m	0x0; cmp4.eq	p07,p06,r14,r36; (p06) br.cond.dptk.few	40000000000D84A0 }

l40000000000D84E0:
	{ adds	r46,0x0,r34; nop.m	0x0; adds	r45,0x0,r37 }
	{ adds	r47,0x0,r38; nop.m	0x0; br.call.sptk.many	b0,fn400000000001C020; }
	{ adds	r1,0x0,r44; cmp4.eq	p06,p07,0x0,r8; (p07) br.cond.dptk.few	40000000000D84A0 }

l40000000000D8510:
	{ adds	r45,0x0,r34; nop.i	0x0; br.call.sptk.many	b0,fn400000000001B6C0; }
	{ adds	r1,0x0,r44; adds	r45,0x1,r8; br.call.sptk.many	b0,xmalloc; }
	{ adds	r1,0x0,r44; nop.m	0x0; adds	r45,0x0,r8 }
	{ adds	r46,0x0,r34; nop.m	0x0; br.call.sptk.many	b0,fn400000000001B180; }
	{ adds	r1,0x0,r44; nop.m	0x0; mov.i	ar.pfs,r43; }
	{ nop.m	0x0; mov.spnt	b0,r42,40000000000D8560; br.ret	b0; }

l40000000000D8570:
	{ adds	r45,0x0,r37; sxt4	r47,r38; br.call.sptk.many	b0,fn400000000001C020; }
	{ adds	r1,0x0,r44; cmp4.eq	p06,p07,0x0,r8; (p07) br.cond.dptk.few	40000000000D8440 }

l40000000000D8590:
	{ ld8	r45,[r34]; nop.i	0x0; br.call.sptk.many	b0,fn400000000001B6C0; }
	{ adds	r1,0x0,r44; adds	r45,0x1,r8; br.call.sptk.many	b0,xmalloc; }
	{ ld8	r14,[r39]; adds	r1,0x0,r44; adds	r45,0x0,r8; }
	{ ld8	r46,[r14]; nop.i	0x0; br.call.sptk.many	b0,fn400000000001B180; }
	{ adds	r1,0x0,r44; nop.m	0x0; mov.i	ar.pfs,r43; }
	{ nop.m	0x0; mov.spnt	b0,r42,40000000000D85E0; br.ret	b0; }

l40000000000D85F0:
	{ nop.m	0x0; nop.i	0x0; br.call.sptk.many	b0,fn400000000001C360; }
	{ adds	r8,0x0,r0; adds	r1,0x0,r44; mov.i	ar.pfs,r43; }
	{ nop.m	0x0; mov.spnt	b0,r42,40000000000D8610; br.ret	b0; }
40000000000D8620 08 00 00 00 01 00 00 00 00 02 00 00 00 00 04 00 ................
40000000000D8630 08 00 00 00 01 00 00 00 00 02 00 00 00 00 04 00 ................

;; bash_groupname_completion_function: 40000000000D8640
bash_groupname_completion_function proc
	{ alloc	r39,ar.pfs,0xC,0x0,0x9; cmp4.eq	p07,p06,0x0,r33; nop.b	0x0 }
	{ addl	r34,8196,r1; mov	r38,b6; adds	r40,0x0,r1; }
	{ nop.m	0x0; (p06) addl	r35,8212,r1; (p06) br.cond.dptk.few	40000000000D8740; }

l40000000000D866C:
	{ (p07) nop; Invalid; nop }

l40000000000D8670:
	{ ld8	r41,[r34]; nop.m	0x0; addl	r35,8212,r1; }
	{ cmp.eq	p06,p07,0x0,r41; nop.i	0x0; (p06) br.cond.dpnt.few	40000000000D86B0; }

l40000000000D8690:
	{ nop.m	0x0; nop.i	0x0; br.call.sptk.many	b0,fn400000000001A7E0; }
	{ adds	r1,0x0,r40; nop.m	0x0; nop.i	0x0 }

l40000000000D86B0:
	{ adds	r41,0x0,r32; nop.i	0x0; br.call.sptk.many	b0,fn400000000001B6C0; }
	{ adds	r1,0x0,r40; adds	r41,0x1,r8; br.call.sptk.many	b0,xmalloc; }
	{ adds	r42,0x0,r32; nop.m	0x0; adds	r1,0x0,r40 }
	{ adds	r41,0x0,r8; nop.m	0x0; br.call.sptk.many	b0,fn400000000001B180; }
	{ adds	r1,0x0,r40; nop.m	0x0; adds	r41,0x0,r8 }
	{ st8	[r8],r34; nop.m	0x0; br.call.sptk.many	b0,fn400000000001B6C0; }
	{ adds	r1,0x0,r40; addl	r14,8204,r1; nop.i	0x0; }
	{ st4	[r8],r14; br.call.sptk.many	b0,fn400000000001B960; nop.b	0x0; }
	{ adds	r1,0x0,r40; nop.m	0x0; nop.i	0x0; }

l40000000000D8740:
	{ nop.m	0x0; addl	r36,8204,r1; addl	r37,8196,r1; }
	{ nop.m	0x0; nop.m	0x0; nop.i	0x0 }

l40000000000D8760:
	{ nop.m	0x0; nop.i	0x0; br.call.sptk.many	b0,fn400000000001B9E0; }
	{ adds	r1,0x0,r40; st8	[r8],r35; nop.i	0x0 }
	{ adds	r34,0x0,r8; cmp.eq	p07,p06,0x0,r8; (p07) br.cond.dpnt.few	40000000000D8870; }

l40000000000D8790:
	{ nop.m	0x0; ld4	r43,[r36]; nop.i	0x0; }
	{ cmp4.eq	p06,p07,0x0,r43; nop.i	0x0; (p06) br.cond.dpnt.few	40000000000D8810; }

l40000000000D87B0:
	{ ld8	r41,[r37]; ld8	r42,[r34]; nop.i	0x0; }
	{ ld1	r15,[r41]; ld1	r14,[r42]; nop.i	0x0; }
	{ nop.m	0x0; sxt1	r15,r15; sxt1	r14,r14; }
	{ nop.m	0x0; cmp4.eq	p07,p06,r15,r14; (p06) br.cond.dptk.few	40000000000D8760 }

l40000000000D87F0:
	{ nop.m	0x0; sxt4	r43,r43; br.call.sptk.many	b0,fn400000000001C020; }
	{ adds	r1,0x0,r40; cmp4.eq	p06,p07,0x0,r8; (p07) br.cond.dptk.few	40000000000D8760 }

l40000000000D8810:
	{ ld8	r41,[r34]; nop.i	0x0; br.call.sptk.many	b0,fn400000000001B6C0; }
	{ adds	r1,0x0,r40; adds	r41,0x1,r8; br.call.sptk.many	b0,xmalloc; }
	{ ld8	r14,[r35]; adds	r1,0x0,r40; adds	r41,0x0,r8; }
	{ ld8	r42,[r14]; nop.i	0x0; br.call.sptk.many	b0,fn400000000001B180; }
	{ adds	r1,0x0,r40; nop.m	0x0; mov.i	ar.pfs,r39; }
	{ nop.m	0x0; mov.spnt	b0,r38,40000000000D8860; br.ret	b0; }

l40000000000D8870:
	{ nop.m	0x0; nop.i	0x0; br.call.sptk.many	b0,fn400000000001A380; }
	{ adds	r8,0x0,r0; adds	r1,0x0,r40; mov.i	ar.pfs,r39; }
	{ nop.m	0x0; mov.spnt	b0,r38,40000000000D8890; br.ret	b0; }
40000000000D88A0 08 00 00 00 01 00 00 00 00 02 00 00 00 00 04 00 ................
40000000000D88B0 08 00 00 00 01 00 00 00 00 02 00 00 00 00 04 00 ................

;; set_directory_hook: 40000000000D88C0
set_directory_hook proc
	{ addl	r14,7788,r1; nop.m	0x0; addl	r15,-7036,r1; }
	{ ld4	r14,[r14]; ld8	r15,[r15]; nop.i	0x0; }
	{ cmp4.eq	p06,p07,0x0,r14; (p07) addl	r14,-10612,r1; nop.i	0x0; }

l40000000000D88EC:
	{ cmp4.eq.and	p00,p11,r1,r0; (p01) cmp4.eq.and	p43,p51,r31,r108; Invalid }

l40000000000D88F6:
	{ (p07) fwb; addl	r0,49152,r1; (p33) cmp.ltu	p03,p06,r64,r3; }

l40000000000D88FC:
	{ cmp4.eq.and	p00,p11,r1,r0; (p01) mov	pr,r3,0x4080; (p48) cmp4.ne.and	p03,p40,r3,r102 }

l40000000000D8906:
	{ chk.a.nc	f15,3FFFFFFFFF9A49E6; (p07) addl	r44,813053,r0; (p01) nop; }

l40000000000D890C:
	{ Invalid; Invalid; cmp4.eq.and	p00,p00,r32,r0; }

l40000000000D8910:
	{ (p06) st8	[r15],r14; nop.m	0x0; (p06) addl	r14,-10612,r1; }

l40000000000D8916:
	{ chk.a.nc	r0,3FFFFFFFFF0D9116; (p07) cmp4.eq.or	p12,p15,0x7D,r45; (p33) addl	r3,832,r3 }

l40000000000D8920:
	{ (p07) ld8	r14,[r14]; (p06) ld8	r14,[r14]; nop.i	0x0; }

l40000000000D8926:
	{ (p07) fwb; nop; nop; }

l40000000000D892C:
	{ Invalid; Invalid; add	r0,r32,r0 }
	{ cmp.lt	p00,p24,r33,r0; Invalid; zxt2	r28,r79 }

;; bind_keyseq_to_unix_command: 40000000000D8940
;;   Called from:
;;     40000000000EA3DC (in bind_builtin)
bind_keyseq_to_unix_command proc
	{ alloc	r38,ar.pfs,0xC,0x0,0x8; adds	r12,0xFFFFFFFFFFFFFFF0,r12; nop.b	0x0 }
	{ addl	r34,8220,r1; mov	r37,b5; adds	r39,0x0,r1; }
	{ nop.m	0x0; ld8	r14,[r34]; nop.i	0x0; }
	{ nop.m	0x0; cmp.eq	p07,p06,0x0,r14; (p07) br.cond.dpnt.few	40000000000D8BA0 }

l40000000000D8980:
	{ nop.m	0x0; nop.i	0x0; br.call.sptk.many	b0,fn400000000001C100; }
	{ adds	r1,0x0,r39; adds	r36,0x0,r8; adds	r40,0x0,r32 }
	{ adds	r41,0x0,r0; addl	r42,1,r0; adds	r43,0x10,r12; }
	{ nop.m	0x0; nop.i	0x0; br.call.sptk.many	b0,fn40000000000CA6C0; }
	{ cmp4.lt	p07,p06,r8,r0; adds	r14,0x10,r12; adds	r1,0x0,r39 }
	{ adds	r33,0x0,r8; adds	r40,0x0,r32; (p07) br.cond.dpnt.few	40000000000D8C20; }

l40000000000D89E0:
	{ nop.m	0x0; adds	r42,0x0,r8; nop.i	0x0 }
	{ ld4	r41,[r14]; nop.m	0x0; br.call.sptk.many	b0,substring; }
	{ nop.m	0x0; sxt4	r15,r33; adds	r1,0x0,r39 }
	{ adds	r35,0x0,r8; add	r14,r32,r15; add	r15,r32,r15,0x1; }
	{ ld1	r14,[r14]; nop.m	0x0; sxt1	r14,r14; }
	{ cmp4.eq	p07,p06,0x3A,r14; nop.m	0x0; cmp4.eq	p09,p08,0x0,r14; }
	{ (p06) addl	r17,1,r0; nop.m	0x0; (p08) addl	r16,1,r0; }

l40000000000D8A46:
	{ Invalid; (p08) cmp4.eq.and	p01,p08,0x0,r0; (p17) nop }

l40000000000D8A50:
	{ (p07) adds	r17,0x0,r0; (p09) adds	r16,0x0,r0; and	r16,r16,r17; }

l40000000000D8A56:
	{ Invalid; (p08) nop; break.i	0x80000 }

l40000000000D8A5C:
	{ Invalid; cmp.lt	p00,p00,r32,r0; mov	pr,r100,0xE600 }
	{ (p02) nop; break.i	0x1000; break.b	0x1000 }

l40000000000D8A70:
	{ nop.m	0x0; nop.m	0x0; nop.i	0x0 }

l40000000000D8A80:
	{ ld1	r14,[r15],1; nop.m	0x0; adds	r33,0x1,r33; }
	{ nop.m	0x0; sxt1	r14,r14; cmp4.eq	p07,p06,0x0,r14; }
	{ nop.m	0x0; cmp4.eq.or.andcm	p07,p06,0x3A,r14; (p06) br.cond.dptk.few	40000000000D8A80; }

l40000000000D8AB0:
	{ cmp4.eq	p06,p07,0x3A,r14; adds	r43,0x10,r12; adds	r40,0x0,r32 }
	{ adds	r41,0x1,r33; adds	r42,0x0,r0; (p07) br.cond.dpnt.few	40000000000D8BD0; }

l40000000000D8AD0:
	{ nop.m	0x0; nop.i	0x0; br.call.sptk.many	b0,fn40000000000CA6C0; }
	{ cmp4.lt	p06,p07,r8,r0; adds	r14,0x10,r12; adds	r1,0x0,r39 }
	{ adds	r40,0x0,r32; adds	r42,0x0,r8; (p06) br.cond.dpnt.few	40000000000D8C20; }

l40000000000D8B00:
	{ ld4	r41,[r14]; nop.i	0x0; br.call.sptk.many	b0,substring; }
	{ nop.m	0x0; adds	r1,0x0,r39; adds	r41,0x0,r35 }
	{ ld8	r43,[r34]; adds	r42,0x0,r8; addl	r40,2,r0; }
	{ nop.m	0x0; nop.i	0x0; br.call.sptk.many	b0,fn400000000001ABA0; }
	{ adds	r1,0x0,r39; adds	r40,0x0,r35; adds	r42,0x0,r36; }
	{ nop.m	0x0; addl	r41,-6868,r1; nop.i	0x0; }
	{ ld8	r41,[r41]; nop.i	0x0; br.call.sptk.many	b0,fn400000000001C180; }
	{ adds	r8,0x0,r0; adds	r1,0x0,r39; mov.i	ar.pfs,r38; }
	{ nop.m	0x0; mov.spnt	b0,r37,40000000000D8B80; nop.i	0x0 }
	{ adds	r12,0x10,r12; nop.m	0x0; br.ret	b0; }

l40000000000D8BA0:
	{ nop.m	0x0; nop.i	0x0; br.call.sptk.many	b0,fn400000000001BC40; }
	{ nop.m	0x0; adds	r1,0x0,r39; nop.i	0x0 }
	{ st8	[r8],r34; nop.m	0x0; br.cond.sptk.few	40000000000D8980; }

l40000000000D8BD0:
	{ addl	r41,-7068,r1; addl	r42,5,r0; adds	r40,0x0,r0; }
	{ ld8	r41,[r41]; nop.i	0x0; br.call.sptk.many	b0,fn400000000001AB60; }
	{ adds	r1,0x0,r39; nop.m	0x0; adds	r40,0x0,r8 }
	{ adds	r41,0x0,r32; nop.m	0x0; br.call.sptk.many	b0,builtin_error; }
	{ adds	r1,0x0,r39; nop.m	0x0; nop.i	0x0 }

l40000000000D8C20:
	{ addl	r8,-1,r0; mov.i	ar.pfs,r38; mov.spnt	b0,r37,40000000000D8C20 }
	{ nop.m	0x0; adds	r12,0x10,r12; br.ret	b0; }

;; bash_directory_completion_matches: 40000000000D8C40
;;   Called from:
;;     40000000000E4D1C (in fn40000000000E4B40)
bash_directory_completion_matches proc
	{ alloc	r36,ar.pfs,0x8,0x0,0x6; addl	r14,-10164,r1; mov	r35,b3 }
	{ adds	r37,0x0,r1; nop.m	0x0; adds	r38,0x0,r32; }
	{ ld8	r14,[r14]; nop.m	0x0; adds	r39,0x0,r0; }
	{ ld4	r14,[r14]; cmp4.eq	p06,p07,0x0,r14; nop.i	0x0; }
	{ (p07) addl	r14,-10572,r1; (p07) ld8	r14,[r14]; nop.i	0x0; }

l40000000000D8C86:
	{ (p07) fwb; cmp4.eq	p00,p00,r0,r1; (p49) nop; }

l40000000000D8C8C:
	{ cmp4.eq.or.andcm	p00,p49,r1,r0; Invalid; break.i	0x1000 }

l40000000000D8C96:
	{ break.m	0x4000; (p32) nop; (p16) nop }
	{ Invalid; (p19) nop; break.i	0x80000 }
	{ Invalid; nop; (p48) br.call.sptk.few	b1,b0 }
	{ break.m	0x4000; (p32) nop; (p16) nop }
	{ add	r0,r0,r1; (p16) nop; (p32) nop }
	{ break.m	0x4000; (p32) nop; (p16) nop }
	{ break.m	0x4000; (p03) nop; (p32) nop }
	{ chk.a.nc	r0,3FFFFFFFFF0D9506; nop; break.i	0x80000 }

l40000000000D8D10:
	{ nop.m	0x0; ld8	r14,[r33]; nop.i	0x0; }
	{ cmp.eq	p06,p07,0x0,r14; nop.i	0x0; (p06) br.cond.dpnt.few	40000000000D8D50; }

l40000000000D8D30:
	{ nop.m	0x0; nop.i	0x0; br.call.sptk.many	b0,fn40000000000CA500; }
	{ adds	r1,0x0,r37; nop.m	0x0; nop.i	0x0 }

l40000000000D8D50:
	{ adds	r8,0x0,r33; nop.m	0x0; mov.i	ar.pfs,r36; }
	{ nop.m	0x0; mov.spnt	b0,r35,40000000000D8D60; br.ret	b0; }
40000000000D8D70 08 00 00 00 01 00 00 00 00 02 00 00 00 00 04 00 ................

;; bash_dequote_text: 40000000000D8D80
;;   Called from:
;;     40000000000E3F8C (in fn40000000000E3EC0)
;;     40000000000E5D4C (in gen_compspec_completions)
bash_dequote_text proc
	{ alloc	r16,ar.pfs,0x2,0x0,0x2; ld1	r14,[r32]; nop.i	0x0; }
	{ nop.m	0x0; sxt1	r14,r14; cmp4.eq	p07,p06,0x27,r14; }
	{ cmp4.eq.or.andcm	p07,p06,0x22,r14; (p07) adds	r33,0x0,r14; nop.i	0x0; }

l40000000000D8DAC:
	{ nop; nop; zxt1	r0,r64 }

l40000000000D8DBC:
	{ cmpxchg4.acq	r0,[r0],r1; Invalid; break.i	0x1000 }
	{ Invalid; break.m	0x1000; break.i	0x0 }
40000000000D8DD0 0D 00 00 00 01 00 00 00 00 00 00 00 00 00 04 00 ................
40000000000D8DE0 00 30 00 00 01 00 70 00 00 02 00 00 01 00 04 00 .0....p.........
40000000000D8DF0 00 30 00 00 01 00 70 00 00 02 00 00 01 00 04 00 .0....p.........

;; list_reverse: 40000000000D8E00
;;   Called from:
;;     4000000000021FBC (in fn4000000000021EC0)
;;     4000000000033B0C (in fn4000000000030880)
;;     400000000003DA2C (in parse_string_to_word_list)
;;     40000000000437AC (in make_case_command)
;;     400000000004386C (in make_pattern_list)
;;     4000000000044F4C (in clean_simple_command)
;;     4000000000044FCC (in clean_simple_command)
;;     400000000006F29C (in copy_word_list)
;;     400000000006F65C (in copy_redirects)
;;     400000000008370C (in stop_pipeline)
;;     400000000008FC3C (in list_rest_of_args)
;;     4000000000092AEC (in list_string)
;;     40000000000A7C2C (in fn40000000000A7940)
;;     40000000000A7EBC (in fn40000000000A7940)
;;     40000000000A7F6C (in fn40000000000A7940)
;;     40000000000A814C (in fn40000000000A7940)
;;     40000000000BC6AC (in array_to_word_list)
;;     40000000000BC85C (in array_keys_to_word_list)
;;     40000000000C230C (in fn40000000000C2180)
;;     40000000000C3CEC (in assoc_to_string)
;;     40000000000F981C (in fc_builtin)
;;     4000000000130B6C (in strvec_to_word_list)
list_reverse proc
	{ adds	r15,0x0,r0; cmp.eq	p06,p07,0x0,r32; (p06) br.cond.dpnt.few	40000000000D8E80; }

l40000000000D8E10:
	{ ld8	r14,[r32]; st8	[r15],r32; adds	r15,0x0,r32; }
	{ nop.m	0x0; cmp.eq	p07,p06,0x0,r14; (p07) br.cond.dpnt.few	40000000000D8E70; }

l40000000000D8E30:
	{ nop.m	0x0; nop.m	0x0; nop.i	0x0 }

l40000000000D8E40:
	{ nop.m	0x0; adds	r32,0x0,r14; nop.i	0x0; }
	{ ld8	r14,[r32]; st8	[r15],r32; adds	r15,0x0,r32; }
	{ nop.m	0x0; cmp.eq	p07,p06,0x0,r14; (p06) br.cond.dptk.few	40000000000D8E40 }

l40000000000D8E70:
	{ nop.m	0x0; adds	r8,0x0,r32; br.ret	b0; }

l40000000000D8E80:
	{ nop.m	0x0; adds	r8,0x0,r0; br.ret	b0; }
40000000000D8E90 08 00 00 00 01 00 00 00 00 02 00 00 00 00 04 00 ................
40000000000D8EA0 08 00 00 00 01 00 00 00 00 02 00 00 00 00 04 00 ................
40000000000D8EB0 08 00 00 00 01 00 00 00 00 02 00 00 00 00 04 00 ................

;; list_length: 40000000000D8EC0
;;   Called from:
;;     40000000000E5D1C (in gen_compspec_completions)
;;     400000000012FEEC (in strlist_from_word_list)
;;     400000000013082C (in strvec_from_word_list)
list_length proc
	{ adds	r8,0x0,r0; cmp.eq	p06,p07,0x0,r32; (p06) br.cond.dpnt.few	40000000000D8F10; }

l40000000000D8ED0:
	{ nop.m	0x0; nop.m	0x0; nop.i	0x0 }

l40000000000D8EE0:
	{ ld8	r32,[r32]; nop.m	0x0; adds	r8,0x1,r8; }
	{ nop.m	0x0; cmp.eq	p07,p06,0x0,r32; (p06) br.cond.dptk.few	40000000000D8EE0 }

l40000000000D8F00:
	{ nop.m	0x0; nop.i	0x0; br.ret	b0; }

l40000000000D8F10:
	{ nop.m	0x0; adds	r8,0x0,r0; br.ret	b0; }
40000000000D8F20 08 00 00 00 01 00 00 00 00 02 00 00 00 00 04 00 ................
40000000000D8F30 08 00 00 00 01 00 00 00 00 02 00 00 00 00 04 00 ................

;; list_append: 40000000000D8F40
;;   Called from:
;;     40000000000A7EEC (in fn40000000000A7940)
;;     40000000000A899C (in fn40000000000A7940)
list_append proc
	{ cmp.eq	p06,p07,0x0,r32; adds	r8,0x0,r33; (p06) br.ret	b0; }

l40000000000D8F50:
	{ (p07) adds	r15,0x0,r32; ld8	r14,[r15]; nop.i	0x0; }

l40000000000D8F56:
	{ (p07) fwb; nop; break.i	0x80000 }
	{ (p03) chk.a.clr	f0,3FFFFFFFFFD5C046; nop; break.b	0x80000 }

l40000000000D8F70:
	{ nop.m	0x0; nop.m	0x0; nop.i	0x0 }

l40000000000D8F80:
	{ adds	r15,0x0,r14; ld8	r14,[r15]; nop.i	0x0; }
	{ nop.m	0x0; cmp.eq	p07,p06,0x0,r14; (p06) br.cond.dptk.few	40000000000D8F80 }

l40000000000D8FA0:
	{ st8	[r8],r15; adds	r8,0x0,r32; br.ret	b0; }
40000000000D8FB0 00 30 00 00 01 00 70 00 00 02 00 00 01 00 04 00 .0....p.........

;; find_string_in_alist: 40000000000D8FC0
find_string_in_alist proc
	{ alloc	r37,ar.pfs,0xB,0x0,0x8; mov	r39,pr; nop.b	0x0 }
	{ ld8	r40,[r33]; adds	r38,0x0,r1; adds	r35,0x10,r33; }
	{ nop.m	0x0; cmp4.eq	p16,p17,0x0,r34; mov	r36,b4 }
	{ nop.m	0x0; cmp.eq	p07,p06,0x0,r40; (p07) br.cond.dpnt.few	40000000000D9070; }

l40000000000D9000:
	{ nop.m	0x0; nop.i	0x0; (p17) br.cond.dpnt.few	40000000000D90E0; }

l40000000000D9010:
	{ ld1	r14,[r40]; ld1	r15,[r32]; nop.i	0x0; }
	{ nop.m	0x0; sxt1	r15,r15; sxt1	r14,r14; }
	{ nop.m	0x0; cmp4.eq	p07,p06,r15,r14; (p07) br.cond.dpnt.few	40000000000D9090 }

l40000000000D9040:
	{ adds	r33,0x0,r35; adds	r35,0x10,r35; adds	r14,0xFFFFFFFFFFFFFFF0,r35; }
	{ nop.m	0x0; ld8	r40,[r14]; nop.i	0x0; }
	{ nop.m	0x0; cmp.eq	p07,p06,0x0,r40; (p06) br.cond.dptk.few	40000000000D9000; }

l40000000000D9070:
	{ addl	r8,-1,r0; mov	pr,r39,0xFFFFFFFFFFFFFFFE; mov.i	ar.pfs,r37; }
	{ nop.m	0x0; mov.spnt	b0,r36,40000000000D9080; br.ret	b0; }

l40000000000D9090:
	{ adds	r41,0x0,r40; adds	r40,0x0,r32; br.call.sptk.many	b0,fn400000000001A540; }
	{ adds	r1,0x0,r38; cmp4.eq	p06,p07,0x0,r8; (p07) br.cond.dptk.few	40000000000D9040; }

l40000000000D90B0:
	{ adds	r33,0x8,r33; nop.m	0x0; mov	pr,r39,0xFFFFFFFFFFFFFFFE; }
	{ ld4	r8,[r33]; nop.m	0x0; mov.i	ar.pfs,r37; }
	{ nop.m	0x0; mov.spnt	b0,r36,40000000000D90D0; br.ret	b0; }

l40000000000D90E0:
	{ adds	r41,0x0,r32; addl	r42,32,r0; br.call.sptk.many	b0,strmatch; }
	{ adds	r1,0x0,r38; cmp4.eq	p06,p07,0x1,r8; (p07) br.cond.spnt.few	40000000000D90B0; }

l40000000000D9100:
	{ adds	r33,0x0,r35; adds	r35,0x10,r35; adds	r14,0xFFFFFFFFFFFFFFF0,r35; }
	{ nop.m	0x0; ld8	r40,[r14]; nop.i	0x0; }
	{ nop.m	0x0; cmp.eq	p07,p06,0x0,r40; (p06) br.cond.dptk.few	40000000000D9000 }

l40000000000D9130:
	{ nop.m	0x0; nop.i	0x0; br.cond.sptk.few	40000000000D9070; }

;; find_token_in_alist: 40000000000D9140
;;   Called from:
;;     40000000000259AC (in fn4000000000025980)
;;     40000000000259FC (in fn4000000000025980)
find_token_in_alist proc
	{ alloc	r35,ar.pfs,0x7,0x0,0x5; ld8	r37,[r33]; mov	r34,b2 }
	{ adds	r15,0x8,r33; adds	r14,0x10,r33; adds	r36,0x0,r1; }
	{ cmp.eq	p06,p07,0x0,r37; nop.i	0x0; (p06) br.cond.dpnt.few	40000000000D9240; }

l40000000000D9170:
	{ nop.m	0x0; ld4	r15,[r15]; nop.i	0x0; }
	{ nop.m	0x0; cmp4.eq	p06,p07,r32,r15; (p06) br.cond.dpnt.few	40000000000D91E0; }

l40000000000D9190:
	{ nop.m	0x0; nop.m	0x0; nop.i	0x0 }

l40000000000D91A0:
	{ ld8	r37,[r14]; adds	r33,0x0,r14; adds	r14,0x10,r14; }
	{ adds	r15,0xFFFFFFFFFFFFFFF8,r14; cmp.eq	p07,p06,0x0,r37; (p07) br.cond.dpnt.few	40000000000D9240; }

l40000000000D91C0:
	{ nop.m	0x0; ld4	r15,[r15]; nop.i	0x0; }
	{ nop.m	0x0; cmp4.eq	p07,p06,r32,r15; (p06) br.cond.dptk.few	40000000000D91A0 }

l40000000000D91E0:
	{ nop.m	0x0; nop.i	0x0; br.call.sptk.many	b0,fn400000000001B6C0; }
	{ adds	r1,0x0,r36; adds	r37,0x1,r8; br.call.sptk.many	b0,xmalloc; }
	{ adds	r1,0x0,r36; nop.m	0x0; adds	r37,0x0,r8 }
	{ ld8	r38,[r33]; nop.m	0x0; br.call.sptk.many	b0,fn400000000001B180; }
	{ adds	r1,0x0,r36; nop.m	0x0; mov.i	ar.pfs,r35; }
	{ nop.m	0x0; mov.spnt	b0,r34,40000000000D9230; br.ret	b0 }

l40000000000D9240:
	{ adds	r8,0x0,r0; nop.m	0x0; mov.i	ar.pfs,r35; }
	{ nop.m	0x0; mov.spnt	b0,r34,40000000000D9250; br.ret	b0; }
40000000000D9260 08 00 00 00 01 00 00 00 00 02 00 00 00 00 04 00 ................
40000000000D9270 08 00 00 00 01 00 00 00 00 02 00 00 00 00 04 00 ................

;; find_index_in_alist: 40000000000D9280
find_index_in_alist proc
	{ alloc	r37,ar.pfs,0xB,0x0,0x8; mov	r39,pr; nop.b	0x0 }
	{ ld8	r40,[r33]; adds	r38,0x0,r1; adds	r33,0x10,r33; }
	{ adds	r35,0x0,r0; cmp4.eq	p16,p17,0x0,r34; mov	r36,b4 }
	{ nop.m	0x0; cmp.eq	p07,p06,0x0,r40; (p07) br.cond.dpnt.few	40000000000D9330; }

l40000000000D92C0:
	{ adds	r33,0x10,r33; nop.i	0x0; (p17) br.cond.dpnt.few	40000000000D93A0; }

l40000000000D92D0:
	{ ld1	r14,[r40]; ld1	r15,[r32]; nop.i	0x0; }
	{ nop.m	0x0; sxt1	r15,r15; sxt1	r14,r14; }
	{ nop.m	0x0; cmp4.eq	p07,p06,r15,r14; (p07) br.cond.dpnt.few	40000000000D9360 }

l40000000000D9300:
	{ adds	r14,0xFFFFFFFFFFFFFFF0,r33; nop.m	0x0; adds	r35,0x1,r35; }
	{ nop.m	0x0; ld8	r40,[r14]; nop.i	0x0; }
	{ nop.m	0x0; cmp.eq	p07,p06,0x0,r40; (p06) br.cond.dptk.few	40000000000D92C0 }

l40000000000D9330:
	{ addl	r35,-1,r0; nop.m	0x0; nop.i	0x0; }

l40000000000D9340:
	{ adds	r8,0x0,r35; mov	pr,r39,0xFFFFFFFFFFFFFFFE; mov.i	ar.pfs,r37; }
	{ nop.m	0x0; mov.spnt	b0,r36,40000000000D9350; br.ret	b0; }

l40000000000D9360:
	{ adds	r41,0x0,r40; adds	r40,0x0,r32; br.call.sptk.many	b0,fn400000000001A540; }
	{ adds	r1,0x0,r38; cmp4.eq	p07,p06,0x0,r8; (p06) br.cond.dptk.few	40000000000D9300; }

l40000000000D9380:
	{ adds	r8,0x0,r35; mov	pr,r39,0xFFFFFFFFFFFFFFFE; mov.i	ar.pfs,r37; }
	{ nop.m	0x0; mov.spnt	b0,r36,40000000000D9390; br.ret	b0; }

l40000000000D93A0:
	{ adds	r41,0x0,r32; addl	r42,32,r0; br.call.sptk.many	b0,strmatch; }
	{ adds	r14,0xFFFFFFFFFFFFFFF0,r33; nop.m	0x0; adds	r1,0x0,r38 }
	{ cmp4.eq	p07,p06,0x1,r8; nop.m	0x0; (p06) br.cond.spnt.few	40000000000D9340; }

l40000000000D93D0:
	{ ld8	r40,[r14]; nop.m	0x0; adds	r35,0x1,r35; }
	{ nop.m	0x0; cmp.eq	p07,p06,0x0,r40; (p06) br.cond.dptk.few	40000000000D92C0 }

l40000000000D93F0:
	{ nop.m	0x0; nop.i	0x0; br.cond.sptk.few	40000000000D9330; }

;; substring: 40000000000D9400
;;   Called from:
;;     400000000002D53C (in fn400000000002AC80)
;;     40000000000306DC (in yyerror)
;;     400000000003E94C (in xparse_dolparen)
;;     400000000004163C (in extract_colon_unit)
;;     400000000004336C (in make_arith_for_command)
;;     4000000000050ABC (in shell_execve)
;;     4000000000050C9C (in shell_execve)
;;     4000000000086BEC (in fn4000000000086900)
;;     40000000000870DC (in fn4000000000086900)
;;     4000000000087CDC (in extract_array_assignment_list)
;;     4000000000088F9C (in fn4000000000088B40)
;;     4000000000089B2C (in fn4000000000089000)
;;     400000000008E19C (in split_at_delims)
;;     40000000000973AC (in string_quote_removal)
;;     400000000009BBFC (in fn400000000009A180)
;;     40000000000A232C (in fn40000000000A1400)
;;     40000000000A259C (in fn40000000000A1400)
;;     40000000000B3B1C (in setup_ignore_patterns)
;;     40000000000BF99C (in expand_compound_array_assignment)
;;     40000000000C0B0C (in assign_compound_array_list)
;;     40000000000C55EC (in brace_expand)
;;     40000000000C594C (in brace_expand)
;;     40000000000C596C (in brace_expand)
;;     40000000000C5CAC (in brace_expand)
;;     40000000000C5DFC (in brace_expand)
;;     40000000000D89FC (in bind_keyseq_to_unix_command)
;;     40000000000D8B0C (in bind_keyseq_to_unix_command)
;;     40000000000E606C (in gen_compspec_completions)
;;     40000000000E70BC (in gen_compspec_completions)
;;     4000000000135F5C (in sh_modcase)
;;     40000000001364EC (in sh_modcase)
;;     400000000013681C (in sh_modcase)
substring proc
	{ alloc	r37,ar.pfs,0xA,0x0,0x7; sub	r34,r34,r33; mov	r36,b4 }
	{ adds	r38,0x0,r1; adds	r39,0x1,r34; sxt4	r34,r34; }
	{ nop.m	0x0; sxt4	r39,r39; br.call.sptk.many	b0,xmalloc; }
	{ nop.m	0x0; adds	r35,0x0,r8; sxt4	r40,r33 }
	{ adds	r1,0x0,r38; adds	r41,0x0,r34; adds	r39,0x0,r8; }
	{ add	r40,r32,r40; add	r34,r35,r34; br.call.sptk.many	b0,fn400000000001B920; }
	{ adds	r8,0x0,r35; adds	r1,0x0,r38; nop.b	0x0 }
	{ st1	[r0],r34; nop.m	0x0; mov.i	ar.pfs,r37; }
	{ nop.m	0x0; mov.spnt	b0,r36,40000000000D9480; br.ret	b0; }
40000000000D9490 08 00 00 00 01 00 00 00 00 02 00 00 00 00 04 00 ................
40000000000D94A0 08 00 00 00 01 00 00 00 00 02 00 00 00 00 04 00 ................
40000000000D94B0 08 00 00 00 01 00 00 00 00 02 00 00 00 00 04 00 ................

;; strsub: 40000000000D94C0
;;   Called from:
;;     40000000000F99AC (in fc_builtin)
strsub proc
	{ alloc	r51,ar.pfs,0x19,0x0,0x16; mov	r53,pr; nop.b	0x0 }
	{ adds	r52,0x0,r1; adds	r54,0x0,r33; adds	r48,0x1,r34; }
	{ adds	r42,0x0,r0; adds	r40,0x0,r0; mov	r50,b2 }
	{ addl	r43,1,r0; adds	r37,0x0,r0; br.call.sptk.many	b0,fn400000000001B6C0; }
	{ adds	r1,0x0,r52; adds	r38,0x0,r8; nop.i	0x0 }
	{ adds	r54,0x0,r34; adds	r36,0x0,r0; br.call.sptk.many	b0,fn400000000001B6C0; }
	{ cmp4.eq	p07,p06,0x0,r38; cmp4.eq	p09,p08,0x0,r35; adds	r1,0x0,r52 }
	{ adds	r45,0x0,r8; shladd	r44,r8,0x1,r0; cmp4.eq	p16,p17,0x0,r38; }
	{ cmp4.eq	p18,p19,0x0,r8; (p08) addl	r47,1,r0; sxt4	r49,r38 }

l40000000000D954C:
	{ Invalid; Invalid; Invalid }

l40000000000D9556:
	{ (p23) chk.a.clr	f0,3FFFFFFFFF159556; (p23) rfi; break.b	0x80000 }

l40000000000D955C:
	{ Invalid; Invalid; Invalid }

l40000000000D9560:
	{ nop.m	0x0; sxt4	r41,r40; adds	r39,0x1,r36 }
	{ cmp4.eq	p08,p09,0x0,r43; add	r41,r32,r41; nop.i	0x0; }
	{ ld1	r38,[r41]; nop.m	0x0; sxt1	r38,r38; }
	{ nop.m	0x0; cmp4.eq	p07,p06,0x0,r38; (p07) br.cond.dpnt.few	40000000000D96A0 }

l40000000000D95A0:
	{ nop.m	0x0; nop.i	0x0; (p08) br.cond.dptk.few	40000000000D95E0 }

l40000000000D95B0:
	{ nop.m	0x0; nop.i	0x0; (p16) br.cond.dptk.few	40000000000D9720 }

l40000000000D95C0:
	{ ld1	r14,[r33]; nop.m	0x0; sxt1	r14,r14; }
	{ nop.m	0x0; cmp4.eq	p07,p06,r14,r38; (p07) br.cond.dpnt.few	40000000000D96E0; }

l40000000000D95E0:
	{ sub	r15,r39,r37; adds	r14,0x10,r37; adds	r54,0x0,r42 }
	{ adds	r40,0x1,r40; cmp4.lt	p06,p07,r39,r37; (p06) br.cond.dptk.few	40000000000D9640; }

l40000000000D9600:
	{ nop.m	0x0; extr	r37,r15,4,28; shladd	r37,r37,0x4,r14; }
	{ nop.m	0x0; sxt4	r55,r37; br.call.sptk.many	b0,xrealloc; }
	{ nop.m	0x0; ld1	r38,[r41]; adds	r1,0x0,r52 }
	{ adds	r42,0x0,r8; nop.i	0x0; sxt1	r38,r38 }

l40000000000D9640:
	{ nop.m	0x0; sxt4	r14,r36; sxt4	r41,r40 }
	{ adds	r36,0x0,r39; cmp4.eq	p08,p09,0x0,r43; nop.b	0x0; }
	{ add	r14,r42,r14; add	r41,r32,r41; adds	r39,0x1,r36; }
	{ st1	[r38],r14; ld1	r38,[r41]; nop.i	0x0; }
	{ nop.m	0x0; sxt1	r38,r38; nop.i	0x0; }
	{ nop.m	0x0; cmp4.eq	p07,p06,0x0,r38; (p06) br.cond.dptk.few	40000000000D95A0; }

l40000000000D96A0:
	{ cmp.eq	p06,p07,0x0,r42; adds	r8,0x0,r42; mov.i	ar.pfs,r51 }
	{ nop.m	0x0; sxt4	r36,r36; (p06) br.cond.dpnt.few	40000000000D9800; }

l40000000000D96C0:
	{ add	r36,r42,r36; nop.m	0x0; mov	pr,r53,0xFFFFFFFFFFFFFFFE; }
	{ st1	[r0],r36; mov.spnt	b0,r50,40000000000D96D0; br.ret	b0; }

l40000000000D96E0:
	{ adds	r54,0x0,r41; nop.m	0x0; adds	r55,0x0,r33 }
	{ adds	r56,0x0,r49; nop.m	0x0; br.call.sptk.many	b0,fn400000000001C020; }
	{ adds	r1,0x0,r52; cmp4.eq	p07,p06,0x0,r8; (p06) br.cond.dptk.few	40000000000D95E0; }

l40000000000D9710:
	{ nop.m	0x0; nop.m	0x0; nop.i	0x0 }

l40000000000D9720:
	{ nop.m	0x0; add	r14,r36,r45; (p18) br.cond.dptk.few	40000000000D9740; }

l40000000000D9730:
	{ nop.m	0x0; cmp4.lt	p06,p07,r14,r37; (p07) br.cond.dptk.few	40000000000D97C0 }

l40000000000D9740:
	{ ld1	r14,[r34]; sxt4	r15,r36; adds	r16,0x0,r48; }
	{ nop.m	0x0; sxt1	r14,r14; add	r15,r42,r15; }
	{ nop.m	0x0; cmp4.eq	p06,p07,0x0,r14; (p06) br.cond.dpnt.few	40000000000D97B0; }

l40000000000D9770:
	{ nop.m	0x0; nop.m	0x0; nop.i	0x0 }

l40000000000D9780:
	{ st1	[r15],r1,1; nop.m	0x0; adds	r36,0x1,r36; }
	{ ld1	r14,[r16],1; nop.m	0x0; sxt1	r14,r14; }
	{ nop.m	0x0; cmp4.eq	p07,p06,0x0,r14; (p06) br.cond.dptk.few	40000000000D9780 }

l40000000000D97B0:
	{ add	r40,r40,r46; adds	r43,0x0,r47; br.cond.sptk.few	40000000000D9560 }

l40000000000D97C0:
	{ nop.m	0x0; add	r37,r37,r44; nop.i	0x0; }
	{ nop.m	0x0; cmp4.lt	p07,p06,r14,r37; (p06) br.cond.dptk.few	40000000000D97C0 }

l40000000000D97E0:
	{ adds	r54,0x0,r42; sxt4	r55,r37; br.call.sptk.many	b0,xrealloc; }
	{ adds	r1,0x0,r52; adds	r42,0x0,r8; br.cond.sptk.few	40000000000D9740 }

l40000000000D9800:
	{ adds	r54,0x0,r32; nop.i	0x0; br.call.sptk.many	b0,fn400000000001B6C0; }
	{ adds	r1,0x0,r52; adds	r54,0x1,r8; br.call.sptk.many	b0,xmalloc; }
	{ adds	r1,0x0,r52; nop.m	0x0; adds	r54,0x0,r8 }
	{ adds	r55,0x0,r32; nop.m	0x0; br.call.sptk.many	b0,fn400000000001B180; }
	{ adds	r42,0x0,r8; adds	r1,0x0,r52; mov	pr,r53,0xFFFFFFFFFFFFFFFE; }
	{ adds	r8,0x0,r42; nop.m	0x0; mov.i	ar.pfs,r51; }
	{ nop.m	0x0; mov.spnt	b0,r50,40000000000D9860; br.ret	b0; }
40000000000D9870 08 00 00 00 01 00 00 00 00 02 00 00 00 00 04 00 ................

;; strcreplace: 40000000000D9880
;;   Called from:
;;     40000000000C8D4C (in check_add_history)
;;     40000000000E47AC (in filter_stringlist)
strcreplace proc
	{ alloc	r44,ar.pfs,0x11,0x0,0xF; nop.m	0x0; mov	r46,pr }
	{ adds	r45,0x0,r1; nop.m	0x0; cmp.eq	p06,p07,0x0,r34; }
	{ nop.m	0x0; mov	r43,b3; (p06) br.cond.dpnt.few	40000000000D9AD0; }

l40000000000D98B0:
	{ ld1	r14,[r34]; nop.m	0x0; sxt1	r14,r14; }
	{ nop.m	0x0; cmp4.eq	p06,p07,0x0,r14; (p06) br.cond.dptk.few	40000000000D9AD0 }

l40000000000D98D0:
	{ adds	r14,0x1,r34; ld1	r14,[r14]; nop.i	0x0; }
	{ nop.m	0x0; sxt1	r14,r14; cmp4.eq	p06,p07,0x0,r14; }
	{ (p06) addl	r36,1,r0; (p06) addl	r40,1,r0; (p06) br.cond.dptk.few	40000000000D9940 }

l40000000000D98F6:
	{ (p20) chk.a.clr	r1,3FFFFFFFFF2D98F6; nop; (p32) nop; }

l40000000000D98FC:
	{ (p02) cmp.lt	p00,p11,r0,r33; (p33) cmp.lt.unc	p00,p16,r8,r64; (p01) rfi }

l40000000000D9900:
	{ adds	r14,0x2,r34; ld1	r14,[r14]; nop.i	0x0; }
	{ nop.m	0x0; sxt1	r14,r14; nop.i	0x0; }
	{ cmp4.eq	p06,p07,0x0,r14; nop.i	0x0; (p07) br.cond.dptk.few	40000000000D9D40; }

l40000000000D9930:
	{ nop.m	0x0; (p06) addl	r36,2,r0; (p06) addl	r40,2,r0; }

l40000000000D993C:
	{ (p01) addp4	r0,r0,r72; (p05) nop; }

l40000000000D9940:
	{ adds	r36,0x2,r36; adds	r47,0x0,r32; cmp4.eq	p16,p17,0x0,r40 }
	{ cmp4.eq	p18,p19,0x0,r35; sxt4	r41,r40; br.call.sptk.many	b0,fn400000000001B6C0; }
	{ add	r36,r36,r8; nop.m	0x0; adds	r1,0x0,r45; }
	{ nop.m	0x0; sxt4	r47,r36; br.call.sptk.many	b0,xmalloc; }
	{ cmp.eq	p06,p07,0x0,r32; adds	r1,0x0,r45; adds	r38,0x0,r8; }
	{ (p06) adds	r37,0x0,r8; nop.i	0x0; (p06) br.cond.dpnt.few	40000000000D9AA0; }

l40000000000D9996:
	{ chk.a.nc	r0,3FFFFFFFFF0DA196; Invalid; (p32) nop }

l40000000000D99A0:
	{ ld1	r14,[r32]; adds	r37,0x0,r8; sxt1	r14,r14; }
	{ nop.m	0x0; cmp4.eq	p06,p07,0x0,r14; (p06) br.cond.dpnt.few	40000000000D9AA0; }

l40000000000D99C0:
	{ cmp4.eq	p07,p06,r33,r14; adds	r39,0x1,r32; (p07) br.cond.dpnt.few	40000000000D9B20; }

l40000000000D99D0:
	{ cmp4.eq	p07,p06,0x5C,r14; nop.i	0x0; (p07) br.cond.dpnt.few	40000000000D9AE0; }

l40000000000D99E0:
	{ sub	r37,r37,r38; adds	r14,0x2,r37; nop.i	0x0; }
	{ nop.m	0x0; cmp4.lt	p06,p07,r14,r36; (p06) br.cond.dptk.few	40000000000D9A40; }

l40000000000D9A00:
	{ nop.m	0x0; shladd	r36,r36,0x1,r0; nop.i	0x0; }
	{ nop.m	0x0; cmp4.lt	p07,p06,r14,r36; (p06) br.cond.dptk.few	40000000000D9A00 }

l40000000000D9A20:
	{ adds	r47,0x0,r38; sxt4	r48,r36; br.call.sptk.many	b0,xrealloc; }
	{ nop.m	0x0; adds	r1,0x0,r45; adds	r38,0x0,r8 }

l40000000000D9A40:
	{ nop.m	0x0; sxt4	r37,r37; nop.i	0x0 }
	{ ld1	r14,[r32]; adds	r32,0x0,r39; add	r37,r38,r37 }
	{ nop.m	0x0; st1	[r37],r1,1; nop.i	0x0 }

l40000000000D9A70:
	{ cmp.eq	p06,p07,0x0,r32; nop.i	0x0; (p06) br.cond.dpnt.few	40000000000D9AA0; }

l40000000000D9A80:
	{ ld1	r14,[r32]; nop.m	0x0; sxt1	r14,r14; }
	{ nop.m	0x0; cmp4.eq	p07,p06,0x0,r14; (p06) br.cond.dptk.few	40000000000D99C0; }

l40000000000D9AA0:
	{ adds	r8,0x0,r38; st1	[r0],r37; mov	pr,r46,0xFFFFFFFFFFFFFFFE; }
	{ nop.m	0x0; mov.i	ar.pfs,r44; nop.i	0x0; }
	{ nop.m	0x0; mov.spnt	b0,r43,40000000000D9AC0; br.ret	b0 }

l40000000000D9AD0:
	{ adds	r36,0x0,r0; adds	r40,0x0,r0; br.cond.sptk.few	40000000000D9940 }

l40000000000D9AE0:
	{ ld1	r14,[r39]; sub	r37,r37,r38; sxt1	r14,r14; }
	{ cmp4.eq	p07,p06,r14,r33; adds	r14,0x2,r37; (p07) adds	r32,0x0,r39; }

l40000000000D9B00:
	{ (p07) adds	r39,0x1,r32; cmp4.lt	p06,p07,r14,r36; (p06) br.cond.dptk.few	40000000000D9A40 }

l40000000000D9B06:
	{ (p03) chk.a.clr	r14,3FFFFFFFFF91D546; nop; break.i	0x80000 }

l40000000000D9B10:
	{ nop.m	0x0; nop.i	0x0; br.cond.sptk.few	40000000000D9A00 }

l40000000000D9B20:
	{ nop.m	0x0; nop.i	0x0; (p16) br.cond.dptk.few	40000000000D9BE0 }

l40000000000D9B30:
	{ nop.m	0x0; sub	r37,r37,r38; (p19) br.cond.dpnt.few	40000000000D9BF0; }

l40000000000D9B40:
	{ nop.m	0x0; add	r14,r40,r37; nop.i	0x0; }
	{ nop.m	0x0; cmp4.lt	p06,p07,r14,r36; (p06) br.cond.dptk.few	40000000000D9BA0; }

l40000000000D9B60:
	{ nop.m	0x0; shladd	r36,r36,0x1,r0; nop.i	0x0; }
	{ nop.m	0x0; cmp4.lt	p07,p06,r14,r36; (p06) br.cond.dptk.few	40000000000D9B60 }

l40000000000D9B80:
	{ adds	r47,0x0,r38; sxt4	r48,r36; br.call.sptk.many	b0,xrealloc; }
	{ nop.m	0x0; adds	r1,0x0,r45; adds	r38,0x0,r8 }

l40000000000D9BA0:
	{ nop.m	0x0; sxt4	r37,r37; adds	r48,0x0,r34; }
	{ nop.m	0x0; add	r47,r38,r37; nop.i	0x0; }
	{ nop.m	0x0; add	r37,r47,r41; br.call.sptk.many	b0,fn400000000001B180; }
	{ adds	r1,0x0,r45; nop.m	0x0; nop.i	0x0 }

l40000000000D9BE0:
	{ nop.m	0x0; adds	r32,0x1,r32; br.cond.sptk.few	40000000000D9A70 }

l40000000000D9BF0:
	{ adds	r47,0x0,r34; nop.i	0x0; br.call.sptk.many	b0,glob_pattern_p; }
	{ cmp4.eq	p07,p06,0x0,r8; adds	r1,0x0,r45; nop.i	0x0 }
	{ adds	r47,0x0,r34; addl	r48,92,r0; (p06) br.cond.dpnt.few	40000000000D9C40; }

l40000000000D9C20:
	{ nop.m	0x0; nop.i	0x0; br.call.sptk.many	b0,fn400000000001B680; }
	{ adds	r1,0x0,r45; cmp.eq	p06,p07,0x0,r8; (p06) br.cond.dpnt.few	40000000000D9B40 }

l40000000000D9C40:
	{ adds	r47,0x0,r34; nop.i	0x0; br.call.sptk.many	b0,quote_globbing_chars; }
	{ adds	r1,0x0,r45; nop.m	0x0; adds	r39,0x0,r8 }
	{ adds	r47,0x0,r8; nop.m	0x0; br.call.sptk.many	b0,fn400000000001B6C0; }
	{ add	r14,r37,r8; adds	r1,0x0,r45; adds	r42,0x0,r8; }
	{ nop.m	0x0; cmp4.lt	p06,p07,r14,r36; (p06) br.cond.dptk.few	40000000000D9CE0; }

l40000000000D9C90:
	{ nop.m	0x0; nop.m	0x0; nop.i	0x0 }

l40000000000D9CA0:
	{ nop.m	0x0; shladd	r36,r36,0x1,r0; nop.i	0x0; }
	{ nop.m	0x0; cmp4.lt	p07,p06,r14,r36; (p06) br.cond.dptk.few	40000000000D9CA0 }

l40000000000D9CC0:
	{ adds	r47,0x0,r38; sxt4	r48,r36; br.call.sptk.many	b0,xrealloc; }
	{ nop.m	0x0; adds	r1,0x0,r45; adds	r38,0x0,r8 }

l40000000000D9CE0:
	{ nop.m	0x0; sxt4	r37,r37; nop.b	0x0 }
	{ adds	r48,0x0,r39; adds	r32,0x1,r32; sxt4	r42,r42; }
	{ nop.m	0x0; add	r37,r38,r37; nop.i	0x0; }
	{ adds	r47,0x0,r37; add	r37,r37,r42; br.call.sptk.many	b0,fn400000000001B180; }
	{ adds	r1,0x0,r45; adds	r47,0x0,r39; br.call.sptk.many	b0,fn400000000001A7E0; }
	{ nop.m	0x0; adds	r1,0x0,r45; br.cond.sptk.few	40000000000D9A70 }

l40000000000D9D40:
	{ adds	r47,0x0,r34; nop.i	0x0; br.call.sptk.many	b0,fn400000000001B6C0; }
	{ nop.m	0x0; adds	r1,0x0,r45; adds	r40,0x0,r8 }
	{ nop.m	0x0; adds	r36,0x0,r8; br.cond.sptk.few	40000000000D9940; }
40000000000D9D70 08 00 00 00 01 00 00 00 00 02 00 00 00 00 04 00 ................

;; strip_trailing: 40000000000D9D80
;;   Called from:
;;     40000000000951BC (in command_substitute)
strip_trailing proc
	{ addp4	r15,r33,r0; cmp4.lt	p07,p06,r33,r0; nop.b	0x0 }
	{ cmp4.eq	p08,p09,0x0,r34; mov	r2,LC; sxt4	r14,r33; }
	{ nop.m	0x0; (p07) add	r15,r32,r14; (p07) br.cond.dpnt.few	40000000000D9DF0; }

l40000000000D9DAC:
	{ (p02) nop.m	0x86000; break.i	0x1000; (p48) break.b	0x2A823 }

l40000000000D9DB0:
	{ nop.m	0x0; mov.i	LC,r15; nop.i	0x0; }

l40000000000D9DC0:
	{ add	r15,r32,r14; ld1	r16,[r15]; nop.i	0x0; }
	{ nop.m	0x0; sxt1	r16,r16; (p08) br.cond.dptk.few	40000000000D9E10; }

l40000000000D9DE0:
	{ nop.m	0x0; cmp4.eq	p06,p07,0xA,r16; (p06) br.cond.dpnt.few	40000000000D9E30 }

l40000000000D9DF0:
	{ adds	r15,0x1,r15; nop.m	0x0; mov.i	LC,r2; }
	{ st1	[r0],r15; nop.i	0x0; br.ret	b0 }

l40000000000D9E10:
	{ nop.m	0x0; cmp4.eq	p07,p06,0x9,r16; nop.i	0x0; }
	{ nop.m	0x0; cmp4.eq.or.andcm	p07,p06,0x20,r16; (p06) br.cond.dpnt.few	40000000000D9DF0 }

l40000000000D9E30:
	{ nop.m	0x0; adds	r14,0xFFFFFFFFFFFFFFFF,r14; br.cloop.sptk.few	40000000000D9DC0; }

l40000000000D9E40:
	{ adds	r15,0xFFFFFFFFFFFFFFFF,r32; mov.i	LC,r2; adds	r15,0x1,r15; }
	{ st1	[r0],r15; nop.i	0x0; br.ret	b0; }
40000000000D9E60 08 00 00 00 01 00 00 00 00 02 00 00 00 00 04 00 ................
40000000000D9E70 08 00 00 00 01 00 00 00 00 02 00 00 00 00 04 00 ................

;; xbcopy: 40000000000D9E80
;;   Called from:
;;     400000000002619C (in push_stream)
;;     40000000000ACB6C (in fn40000000000AC6C0)
;;     40000000000ACD8C (in fn40000000000AC6C0)
;;     40000000000B0F2C (in duplicate_buffered_stream)
;;     40000000000DF2EC (in fn40000000000DE580)
;;     40000000000F4B0C (in fn40000000000F4180)
;;     40000000000F4F0C (in fn40000000000F4180)
xbcopy proc
	{ alloc	r36,ar.pfs,0x9,0x0,0x6; adds	r37,0x0,r1; mov	r35,b3 }
	{ adds	r38,0x0,r33; adds	r39,0x0,r32; sxt4	r40,r34; }
	{ nop.m	0x0; nop.i	0x0; br.call.sptk.many	b0,fn400000000001A8A0; }
	{ adds	r1,0x0,r37; nop.m	0x0; mov.i	ar.pfs,r36; }
	{ nop.m	0x0; mov.spnt	b0,r35,40000000000D9EC0; br.ret	b0; }
40000000000D9ED0 00 30 00 00 01 00 70 00 00 02 00 00 01 00 04 00 .0....p.........
40000000000D9EE0 00 30 00 00 01 00 70 00 00 02 00 00 01 00 04 00 .0....p.........
40000000000D9EF0 00 30 00 00 01 00 70 00 00 02 00 00 01 00 04 00 .0....p.........

;; fn40000000000D9F00: 40000000000D9F00
;;   Called from:
;;     40000000000DA61C (in set_default_locale_vars)
;;     40000000000DAB3C (in fn40000000000DA980)
;;     40000000000DB17C (in set_locale_var)
;;     40000000000DB50C (in set_locale_var)
;;     40000000000DB58C (in set_locale_var)
;;     40000000000DB6BC (in set_locale_var)
;;     40000000000DB7EC (in set_locale_var)
fn40000000000D9F00 proc
	{ alloc	r41,ar.pfs,0xD,0x0,0xB; addl	r35,6148,r1; nop.b	0x0 }
	{ addl	r34,-18556,r1; mov	r40,b0; adds	r42,0x0,r1; }
	{ nop.m	0x0; adds	r33,0x0,r0; adds	r32,0x0,r0 }
	{ addl	r38,-8195,r0; addl	r39,-8193,r0; addl	r37,8194,r0; }
	{ nop.m	0x0; ld4	r14,[r35]; nop.i	0x0; }
	{ cmp4.lt	p06,p07,0x0,r14; nop.i	0x0; (p07) br.cond.dpnt.few	40000000000DA000; }

l40000000000D9F60:
	{ nop.m	0x0; nop.i	0x0; br.call.sptk.many	b0,fn400000000001C3C0; }
	{ nop.m	0x0; adds	r1,0x0,r42; adds	r36,0x0,r8; }

l40000000000D9F80:
	{ ld8	r14,[r36]; sxt4	r15,r32; cmp4.eq	p08,p09,0x0,r32; }
	{ add	r14,r14,r33; nop.m	0x0; shladd	r15,r15,0x2,r34; }
	{ nop.m	0x0; ld2	r14,[r14]; nop.i	0x0; }
	{ nop.m	0x0; tbit.z	p06,p07,r14,0x0; (p06) br.cond.dptk.few	40000000000DA020 }

l40000000000D9FC0:
	{ ld4	r14,[r15]; adds	r32,0x1,r32; adds	r33,0x2,r33; }
	{ nop.m	0x0; or	r14,r37,r14; nop.i	0x0; }
	{ st4	[r14],r15; ld4	r14,[r35]; nop.i	0x0; }
	{ nop.m	0x0; cmp4.lt	p06,p07,r32,r14; (p06) br.cond.dptk.few	40000000000D9F80 }

l40000000000DA000:
	{ nop.m	0x0; mov.i	ar.pfs,r41; nop.i	0x0; }
	{ nop.m	0x0; mov.spnt	b0,r40,40000000000DA010; br.ret	b0 }

l40000000000DA020:
	{ nop.m	0x0; nop.i	0x0; (p09) br.cond.dpnt.few	40000000000DA090 }

l40000000000DA030:
	{ nop.m	0x0; sxt4	r14,r32; adds	r32,0x1,r32 }
	{ adds	r33,0x2,r33; shladd	r14,r14,0x2,r34; nop.i	0x0; }
	{ ld4	r15,[r14]; and	r15,r38,r15; nop.i	0x0; }
	{ st4	[r15],r14; ld4	r14,[r35]; nop.i	0x0; }
	{ nop.m	0x0; cmp4.lt	p06,p07,r32,r14; (p06) br.cond.dptk.few	40000000000D9F80 }

l40000000000DA080:
	{ nop.m	0x0; nop.i	0x0; br.cond.sptk.few	40000000000DA000 }

l40000000000DA090:
	{ addl	r43,-4148,r1; nop.m	0x0; adds	r44,0x0,r32; }
	{ ld8	r43,[r43]; nop.i	0x0; br.call.sptk.many	b0,mbschr; }
	{ nop.m	0x0; sxt4	r14,r32; nop.i	0x0 }
	{ adds	r1,0x0,r42; cmp.eq	p06,p07,0x0,r8; (p06) br.cond.dpnt.few	40000000000DA030; }

l40000000000DA0D0:
	{ shladd	r14,r14,0x2,r34; adds	r32,0x1,r32; adds	r33,0x2,r33; }
	{ ld4	r15,[r14]; and	r15,r39,r15; nop.i	0x0; }
	{ nop.m	0x0; or	r15,0x2,r15; nop.i	0x0; }
	{ st4	[r15],r14; ld4	r14,[r35]; nop.i	0x0; }
	{ nop.m	0x0; cmp4.lt	p06,p07,r32,r14; (p06) br.cond.dptk.few	40000000000D9F80 }

l40000000000DA120:
	{ nop.m	0x0; nop.i	0x0; br.cond.sptk.few	40000000000DA000; }
40000000000DA130 08 00 00 00 01 00 00 00 00 02 00 00 00 00 04 00 ................

;; set_default_locale: 40000000000DA140
;;   Called from:
;;     400000000001CA7C (in main)
set_default_locale proc
	{ alloc	r34,ar.pfs,0x6,0x0,0x4; addl	r37,-4140,r1; nop.b	0x0 }
	{ adds	r35,0x0,r1; mov	r33,b1; addl	r32,8228,r1; }
	{ ld8	r37,[r37]; addl	r36,6,r0; br.call.sptk.many	b0,fn400000000001BC80; }
	{ cmp.eq	p06,p07,0x0,r8; adds	r1,0x0,r35; nop.i	0x0 }
	{ adds	r36,0x0,r8; st8	[r8],r32; (p06) br.cond.dpnt.few	40000000000DA1E0; }

l40000000000DA190:
	{ nop.m	0x0; nop.i	0x0; br.call.sptk.many	b0,fn400000000001B6C0; }
	{ adds	r1,0x0,r35; adds	r36,0x1,r8; br.call.sptk.many	b0,xmalloc; }
	{ adds	r1,0x0,r35; nop.m	0x0; adds	r36,0x0,r8 }
	{ ld8	r37,[r32]; nop.m	0x0; br.call.sptk.many	b0,fn400000000001B180; }
	{ adds	r1,0x0,r35; st8	[r8],r32; nop.i	0x0; }

l40000000000DA1E0:
	{ addl	r36,-4132,r1; addl	r37,-4124,r1; nop.i	0x0 }
	{ ld8	r37,[r37]; ld8	r36,[r36]; br.call.sptk.many	b0,fn400000000001C080; }
	{ adds	r1,0x0,r35; addl	r36,-4132,r1; nop.i	0x0; }
	{ ld8	r36,[r36]; nop.i	0x0; br.call.sptk.many	b0,fn400000000001AE80; }
	{ adds	r1,0x0,r35; nop.m	0x0; mov.i	ar.pfs,r34; }
	{ nop.m	0x0; mov.spnt	b0,r33,40000000000DA230; br.ret	b0; }

;; set_default_locale_vars: 40000000000DA240
set_default_locale_vars proc
	{ alloc	r35,ar.pfs,0x7,0x0,0x5; addl	r37,-4116,r1; nop.b	0x0 }
	{ adds	r36,0x0,r1; nop.m	0x0; mov	r34,b2; }
	{ ld8	r37,[r37]; nop.i	0x0; br.call.sptk.many	b0,get_string_value; }
	{ adds	r1,0x0,r36; cmp.eq	p07,p06,0x0,r8; (p07) br.cond.dpnt.few	40000000000DA5C0; }

l40000000000DA280:
	{ nop.m	0x0; addl	r37,-4108,r1; nop.i	0x0; }
	{ ld8	r37,[r37]; nop.i	0x0; br.call.sptk.many	b0,get_string_value; }
	{ adds	r1,0x0,r36; cmp.eq	p07,p06,0x0,r8; (p07) br.cond.dpnt.few	40000000000DA660; }

l40000000000DA2B0:
	{ nop.m	0x0; addl	r37,-4100,r1; nop.i	0x0; }
	{ ld8	r37,[r37]; nop.i	0x0; br.call.sptk.many	b0,get_string_value; }
	{ adds	r1,0x0,r36; cmp.eq	p07,p06,0x0,r8; (p07) br.cond.dpnt.few	40000000000DA6E0; }

l40000000000DA2E0:
	{ nop.m	0x0; addl	r37,-4092,r1; nop.i	0x0; }
	{ ld8	r37,[r37]; nop.i	0x0; br.call.sptk.many	b0,get_string_value; }
	{ adds	r1,0x0,r36; cmp.eq	p07,p06,0x0,r8; (p07) br.cond.dpnt.few	40000000000DA760; }

l40000000000DA310:
	{ nop.m	0x0; addl	r37,-4084,r1; nop.i	0x0; }
	{ ld8	r37,[r37]; nop.i	0x0; br.call.sptk.many	b0,get_string_value; }
	{ adds	r1,0x0,r36; cmp.eq	p07,p06,0x0,r8; (p07) br.cond.dpnt.few	40000000000DA7E0; }

l40000000000DA340:
	{ nop.m	0x0; addl	r37,-4076,r1; nop.i	0x0; }
	{ ld8	r37,[r37]; nop.i	0x0; br.call.sptk.many	b0,get_string_value; }
	{ adds	r1,0x0,r36; nop.m	0x0; cmp.eq	p06,p07,0x0,r8 }
	{ adds	r32,0x0,r8; nop.m	0x0; (p06) br.cond.dpnt.few	40000000000DA3A0; }

l40000000000DA380:
	{ ld1	r14,[r8]; nop.m	0x0; sxt1	r14,r14; }
	{ nop.m	0x0; cmp4.eq	p06,p07,0x0,r14; (p07) br.cond.dptk.few	40000000000DA4F0 }

l40000000000DA3A0:
	{ nop.m	0x0; addl	r37,-4068,r1; nop.i	0x0; }
	{ ld8	r37,[r37]; nop.i	0x0; br.call.sptk.many	b0,get_string_value; }
	{ adds	r1,0x0,r36; nop.m	0x0; cmp.eq	p07,p06,0x0,r8 }
	{ adds	r32,0x0,r8; nop.m	0x0; (p07) br.cond.dpnt.few	40000000000DA4D0; }

l40000000000DA3E0:
	{ ld1	r14,[r8]; addl	r33,8252,r1; sxt1	r14,r14; }
	{ cmp4.eq	p06,p07,0x0,r14; nop.i	0x0; (p06) br.cond.dpnt.few	40000000000DA4D0; }

l40000000000DA400:
	{ nop.m	0x0; ld8	r37,[r33]; nop.i	0x0; }
	{ cmp.eq	p06,p07,0x0,r37; nop.i	0x0; (p06) br.cond.dpnt.few	40000000000DA440; }

l40000000000DA420:
	{ nop.m	0x0; nop.i	0x0; br.call.sptk.many	b0,fn400000000001A7E0; }
	{ adds	r1,0x0,r36; nop.m	0x0; nop.i	0x0 }

l40000000000DA440:
	{ adds	r37,0x0,r32; nop.i	0x0; br.call.sptk.many	b0,fn400000000001B6C0; }
	{ adds	r1,0x0,r36; adds	r37,0x1,r8; br.call.sptk.many	b0,xmalloc; }
	{ adds	r1,0x0,r36; nop.m	0x0; adds	r37,0x0,r8 }
	{ adds	r38,0x0,r32; nop.m	0x0; br.call.sptk.many	b0,fn400000000001B180; }
	{ adds	r1,0x0,r36; st8	[r8],r33; nop.i	0x0; }
	{ addl	r14,8244,r1; ld8	r37,[r14]; nop.i	0x0; }
	{ cmp.eq	p06,p07,0x0,r37; nop.i	0x0; (p06) br.cond.dpnt.few	40000000000DA4D0; }

l40000000000DA4B0:
	{ ld1	r14,[r37]; nop.m	0x0; sxt1	r14,r14; }
	{ nop.m	0x0; cmp4.eq	p06,p07,0x0,r14; (p07) br.cond.dpnt.few	40000000000DA590 }

l40000000000DA4D0:
	{ nop.m	0x0; mov.i	ar.pfs,r35; nop.i	0x0; }
	{ nop.m	0x0; mov.spnt	b0,r34,40000000000DA4E0; br.ret	b0 }

l40000000000DA4F0:
	{ addl	r33,8244,r1; ld8	r37,[r33]; nop.i	0x0; }
	{ cmp.eq	p06,p07,0x0,r37; nop.i	0x0; (p06) br.cond.dpnt.few	40000000000DA530; }

l40000000000DA510:
	{ nop.m	0x0; nop.i	0x0; br.call.sptk.many	b0,fn400000000001A7E0; }
	{ adds	r1,0x0,r36; nop.m	0x0; nop.i	0x0 }

l40000000000DA530:
	{ adds	r37,0x0,r32; nop.i	0x0; br.call.sptk.many	b0,fn400000000001B6C0; }
	{ adds	r1,0x0,r36; adds	r37,0x1,r8; br.call.sptk.many	b0,xmalloc; }
	{ adds	r1,0x0,r36; nop.m	0x0; adds	r37,0x0,r8 }
	{ adds	r38,0x0,r32; nop.m	0x0; br.call.sptk.many	b0,fn400000000001B180; }
	{ nop.m	0x0; adds	r1,0x0,r36; nop.i	0x0 }
	{ st8	[r8],r33; nop.m	0x0; br.cond.sptk.few	40000000000DA3A0 }

l40000000000DA590:
	{ adds	r38,0x0,r8; nop.i	0x0; br.call.sptk.many	b0,fn400000000001C080; }
	{ adds	r1,0x0,r36; nop.m	0x0; mov.i	ar.pfs,r35; }
	{ nop.m	0x0; mov.spnt	b0,r34,40000000000DA5B0; br.ret	b0 }

l40000000000DA5C0:
	{ addl	r14,8236,r1; ld8	r38,[r14]; nop.i	0x0; }
	{ cmp.eq	p06,p07,0x0,r38; nop.i	0x0; (p06) br.cond.dpnt.few	40000000000DA280; }

l40000000000DA5E0:
	{ ld1	r14,[r38]; nop.m	0x0; sxt1	r14,r14; }
	{ nop.m	0x0; cmp4.eq	p06,p07,0x0,r14; (p06) br.cond.dptk.few	40000000000DA280 }

l40000000000DA600:
	{ adds	r37,0x0,r0; nop.i	0x0; br.call.sptk.many	b0,fn400000000001BC80; }
	{ adds	r1,0x0,r36; nop.i	0x0; br.call.sptk.many	b0,fn40000000000D9F00; }
	{ adds	r1,0x0,r36; addl	r37,-4108,r1; nop.i	0x0; }
	{ ld8	r37,[r37]; nop.i	0x0; br.call.sptk.many	b0,get_string_value; }
	{ adds	r1,0x0,r36; cmp.eq	p07,p06,0x0,r8; (p06) br.cond.dptk.few	40000000000DA2B0; }

l40000000000DA650:
	{ nop.m	0x0; nop.m	0x0; nop.i	0x0 }

l40000000000DA660:
	{ addl	r14,8236,r1; ld8	r38,[r14]; nop.i	0x0; }
	{ cmp.eq	p06,p07,0x0,r38; nop.i	0x0; (p06) br.cond.dpnt.few	40000000000DA2B0; }

l40000000000DA680:
	{ ld1	r14,[r38]; nop.m	0x0; sxt1	r14,r14; }
	{ nop.m	0x0; cmp4.eq	p06,p07,0x0,r14; (p06) br.cond.dptk.few	40000000000DA2B0 }

l40000000000DA6A0:
	{ addl	r37,3,r0; nop.i	0x0; br.call.sptk.many	b0,fn400000000001BC80; }
	{ adds	r1,0x0,r36; addl	r37,-4100,r1; nop.i	0x0; }
	{ ld8	r37,[r37]; nop.i	0x0; br.call.sptk.many	b0,get_string_value; }
	{ adds	r1,0x0,r36; cmp.eq	p07,p06,0x0,r8; (p06) br.cond.dptk.few	40000000000DA2E0; }

l40000000000DA6E0:
	{ addl	r14,8236,r1; ld8	r38,[r14]; nop.i	0x0; }
	{ cmp.eq	p06,p07,0x0,r38; nop.i	0x0; (p06) br.cond.dpnt.few	40000000000DA2E0; }

l40000000000DA700:
	{ ld1	r14,[r38]; nop.m	0x0; sxt1	r14,r14; }
	{ nop.m	0x0; cmp4.eq	p06,p07,0x0,r14; (p06) br.cond.dptk.few	40000000000DA2E0 }

l40000000000DA720:
	{ addl	r37,5,r0; nop.i	0x0; br.call.sptk.many	b0,fn400000000001BC80; }
	{ adds	r1,0x0,r36; addl	r37,-4092,r1; nop.i	0x0; }
	{ ld8	r37,[r37]; nop.i	0x0; br.call.sptk.many	b0,get_string_value; }
	{ adds	r1,0x0,r36; cmp.eq	p07,p06,0x0,r8; (p06) br.cond.dptk.few	40000000000DA310; }

l40000000000DA760:
	{ addl	r14,8236,r1; ld8	r38,[r14]; nop.i	0x0; }
	{ cmp.eq	p06,p07,0x0,r38; nop.i	0x0; (p06) br.cond.dpnt.few	40000000000DA310; }

l40000000000DA780:
	{ ld1	r14,[r38]; nop.m	0x0; sxt1	r14,r14; }
	{ nop.m	0x0; cmp4.eq	p06,p07,0x0,r14; (p06) br.cond.dptk.few	40000000000DA310 }

l40000000000DA7A0:
	{ addl	r37,1,r0; nop.i	0x0; br.call.sptk.many	b0,fn400000000001BC80; }
	{ adds	r1,0x0,r36; addl	r37,-4084,r1; nop.i	0x0; }
	{ ld8	r37,[r37]; nop.i	0x0; br.call.sptk.many	b0,get_string_value; }
	{ adds	r1,0x0,r36; cmp.eq	p07,p06,0x0,r8; (p06) br.cond.dptk.few	40000000000DA340; }

l40000000000DA7E0:
	{ addl	r14,8236,r1; ld8	r38,[r14]; nop.i	0x0; }
	{ cmp.eq	p06,p07,0x0,r38; nop.i	0x0; (p06) br.cond.dpnt.few	40000000000DA340; }

l40000000000DA800:
	{ ld1	r14,[r38]; nop.m	0x0; sxt1	r14,r14; }
	{ nop.m	0x0; cmp4.eq	p06,p07,0x0,r14; (p06) br.cond.dptk.few	40000000000DA340 }

l40000000000DA820:
	{ addl	r37,2,r0; nop.i	0x0; br.call.sptk.many	b0,fn400000000001BC80; }
	{ nop.m	0x0; adds	r1,0x0,r36; br.cond.sptk.few	40000000000DA340; }

;; get_locale_var: 40000000000DA840
;;   Called from:
;;     40000000000DAA0C (in fn40000000000DA980)
;;     40000000000DAA4C (in fn40000000000DA980)
;;     40000000000DAA8C (in fn40000000000DA980)
;;     40000000000DAACC (in fn40000000000DA980)
;;     40000000000DAB0C (in fn40000000000DA980)
;;     40000000000DB23C (in set_locale_var)
;;     40000000000DB2EC (in set_locale_var)
;;     40000000000DB3CC (in set_locale_var)
;;     40000000000DB48C (in set_locale_var)
;;     40000000000DB5FC (in set_locale_var)
;;     40000000000DB68C (in set_locale_var)
;;     40000000000DB71C (in set_locale_var)
;;     40000000000DB96C (in localetrans)
get_locale_var proc
	{ alloc	r34,ar.pfs,0x5,0x0,0x4; addl	r14,8236,r1; mov	r33,b1 }
	{ adds	r35,0x0,r1; nop.m	0x0; adds	r36,0x0,r32; }
	{ nop.m	0x0; ld8	r8,[r14]; nop.i	0x0; }
	{ cmp.eq	p06,p07,0x0,r8; nop.i	0x0; (p06) br.cond.dpnt.few	40000000000DA8A0; }

l40000000000DA880:
	{ ld1	r14,[r8]; nop.m	0x0; sxt1	r14,r14; }
	{ nop.m	0x0; cmp4.eq	p07,p06,0x0,r14; (p06) br.cond.dptk.few	40000000000DA930 }

l40000000000DA8A0:
	{ nop.m	0x0; nop.i	0x0; br.call.sptk.many	b0,get_string_value; }
	{ adds	r1,0x0,r35; cmp.eq	p06,p07,0x0,r8; (p06) br.cond.dpnt.few	40000000000DA8E0; }

l40000000000DA8C0:
	{ ld1	r14,[r8]; nop.m	0x0; sxt1	r14,r14; }
	{ nop.m	0x0; cmp4.eq	p07,p06,0x0,r14; (p06) br.cond.spnt.few	40000000000DA930 }

l40000000000DA8E0:
	{ addl	r14,8260,r1; ld8	r8,[r14]; nop.i	0x0; }
	{ cmp.eq	p06,p07,0x0,r8; nop.i	0x0; (p06) br.cond.dpnt.few	40000000000DA950; }

l40000000000DA900:
	{ ld1	r14,[r8]; nop.m	0x0; sxt1	r14,r14; }
	{ cmp4.eq	p06,p07,0x0,r14; nop.i	0x0; (p06) addl	r8,-4140,r1; }

l40000000000DA920:
	{ (p06) ld8	r8,[r8]; nop.m	0x0; nop.i	0x0 }

l40000000000DA926:
	{ break.m	0x4000; mov	pr,0x4000; break.i	0x80000 }

l40000000000DA930:
	{ nop.m	0x0; mov.i	ar.pfs,r34; nop.i	0x0; }

l40000000000DA932:
	{ ld1	r32,[r0]; (p04) break.i	0x550; Invalid }

l40000000000DA936:
	{ break.m	0xAA022; nop; break.i	0x80000 }

l40000000000DA93E:
	{ break.m	0x200; nop }
	{ (p04) cmp.eq.or.andcm	p32,p16,0xFFFFFFFFFFFFFF82,r32; (p04) nop }

l40000000000DA950:
	{ addl	r8,-4140,r1; nop.m	0x0; mov.i	ar.pfs,r34; }

l40000000000DA954:
	{ Invalid; Invalid; Invalid }
	{ rum	0x10002; (p14) break.m	0x108800; (p01) break.b	0x40 }
40000000000DA970 08 00 00 00 01 00 00 00 00 02 00 00 00 00 04 00 ................

;; fn40000000000DA980: 40000000000DA980
;;   Called from:
;;     40000000000DACDC (in set_lang)
;;     40000000000DB4FC (in set_locale_var)
fn40000000000DA980 proc
	{ alloc	r34,ar.pfs,0x6,0x0,0x4; addl	r32,8260,r1; mov	r33,b1 }
	{ adds	r35,0x0,r1; ld8	r37,[r32]; nop.i	0x0; }
	{ cmp.eq	p06,p07,0x0,r37; nop.i	0x0; (p06) br.cond.dpnt.few	40000000000DAB70; }

l40000000000DA9B0:
	{ ld1	r14,[r37]; nop.m	0x0; sxt1	r14,r14; }
	{ nop.m	0x0; cmp4.eq	p07,p06,0x0,r14; (p07) br.cond.dptk.few	40000000000DAB70 }

l40000000000DA9D0:
	{ addl	r36,6,r0; nop.i	0x0; br.call.sptk.many	b0,fn400000000001BC80; }
	{ adds	r1,0x0,r35; nop.m	0x0; cmp.eq	p06,p07,0x0,r8; }
	{ (p06) adds	r8,0x0,r0; addl	r36,-4116,r1; (p06) br.cond.dpnt.few	40000000000DAB50; }

l40000000000DA9F6:
	{ (p18) chk.a.clr	r108,3FFFFFFFFF4CA9C6; nop; nop }

l40000000000DAA00:
	{ ld8	r36,[r36]; nop.i	0x0; br.call.sptk.many	b0,get_locale_var; }
	{ adds	r1,0x0,r35; nop.m	0x0; adds	r37,0x0,r8 }
	{ adds	r36,0x0,r0; nop.m	0x0; br.call.sptk.many	b0,fn400000000001BC80; }
	{ adds	r1,0x0,r35; addl	r36,-4108,r1; nop.i	0x0; }
	{ ld8	r36,[r36]; nop.i	0x0; br.call.sptk.many	b0,get_locale_var; }
	{ adds	r1,0x0,r35; nop.m	0x0; adds	r37,0x0,r8 }
	{ addl	r36,3,r0; nop.m	0x0; br.call.sptk.many	b0,fn400000000001BC80; }
	{ adds	r1,0x0,r35; addl	r36,-4100,r1; nop.i	0x0; }
	{ ld8	r36,[r36]; nop.i	0x0; br.call.sptk.many	b0,get_locale_var; }
	{ adds	r1,0x0,r35; nop.m	0x0; adds	r37,0x0,r8 }
	{ addl	r36,5,r0; nop.m	0x0; br.call.sptk.many	b0,fn400000000001BC80; }
	{ adds	r1,0x0,r35; addl	r36,-4092,r1; nop.i	0x0; }
	{ ld8	r36,[r36]; nop.i	0x0; br.call.sptk.many	b0,get_locale_var; }
	{ adds	r1,0x0,r35; nop.m	0x0; adds	r37,0x0,r8 }
	{ addl	r36,1,r0; nop.m	0x0; br.call.sptk.many	b0,fn400000000001BC80; }
	{ adds	r1,0x0,r35; addl	r36,-4084,r1; nop.i	0x0; }
	{ ld8	r36,[r36]; nop.i	0x0; br.call.sptk.many	b0,get_locale_var; }
	{ adds	r1,0x0,r35; nop.m	0x0; addl	r36,2,r0 }
	{ adds	r37,0x0,r8; nop.m	0x0; br.call.sptk.many	b0,fn400000000001BC80; }
	{ adds	r1,0x0,r35; nop.i	0x0; br.call.sptk.many	b0,fn40000000000D9F00; }
	{ nop.m	0x0; adds	r1,0x0,r35; addl	r8,1,r0 }

l40000000000DAB50:
	{ nop.m	0x0; mov.i	ar.pfs,r34; nop.i	0x0; }
	{ nop.m	0x0; mov.spnt	b0,r33,40000000000DAB60; br.ret	b0; }

l40000000000DAB70:
	{ nop.m	0x0; nop.i	0x0; br.call.sptk.many	b0,maybe_make_export_env; }
	{ ld8	r37,[r32]; adds	r1,0x0,r35; cmp.eq	p07,p06,0x0,r37; }
	{ nop.m	0x0; (p07) addl	r37,-4140,r1; nop.i	0x0; }

l40000000000DAB9C:
	{ nop; Invalid; break.i	0x1000 }

l40000000000DABA6:
	{ break.m	0x4000; nop; break.i	0x80000 }
40000000000DABB0 08 00 00 00 01 00 00 00 00 02 00 00 00 00 04 00 ................

;; set_lang: 40000000000DABC0
;;   Called from:
;;     400000000006323C (in sv_locale)
;;     40000000000DB89C (in set_default_lang)
set_lang proc
	{ alloc	r36,ar.pfs,0x8,0x0,0x6; addl	r34,8260,r1; nop.b	0x0 }
	{ adds	r37,0x0,r1; nop.m	0x0; mov	r35,b3; }
	{ nop.m	0x0; ld8	r38,[r34]; nop.i	0x0; }
	{ cmp.eq	p06,p07,0x0,r38; nop.i	0x0; (p06) br.cond.dpnt.few	40000000000DAC20; }

l40000000000DAC00:
	{ nop.m	0x0; nop.i	0x0; br.call.sptk.many	b0,fn400000000001A7E0; }
	{ adds	r1,0x0,r37; nop.m	0x0; nop.i	0x0 }

l40000000000DAC20:
	{ cmp.eq	p06,p07,0x0,r33; adds	r38,0x0,r33; (p06) br.cond.dpnt.few	40000000000DAD00; }

l40000000000DAC30:
	{ nop.m	0x0; nop.i	0x0; br.call.sptk.many	b0,fn400000000001B6C0; }
	{ adds	r1,0x0,r37; adds	r38,0x1,r8; br.call.sptk.many	b0,xmalloc; }
	{ adds	r1,0x0,r37; nop.m	0x0; adds	r38,0x0,r8 }
	{ adds	r39,0x0,r33; nop.m	0x0; br.call.sptk.many	b0,fn400000000001B180; }
	{ adds	r1,0x0,r37; st8	[r8],r34; nop.i	0x0; }

l40000000000DAC80:
	{ addl	r14,8236,r1; ld8	r14,[r14]; nop.i	0x0; }
	{ cmp.eq	p06,p07,0x0,r14; nop.i	0x0; (p06) br.cond.dpnt.few	40000000000DACC0; }

l40000000000DACA0:
	{ ld1	r14,[r14]; nop.m	0x0; sxt1	r14,r14; }
	{ nop.m	0x0; cmp4.eq	p07,p06,0x0,r14; (p06) br.cond.dpnt.few	40000000000DACE0 }

l40000000000DACC0:
	{ nop.m	0x0; mov.spnt	b0,r35,40000000000DACC0; mov.i	ar.pfs,r36; }
	{ alloc	r2,ar.pfs,0x2,0x0,0x0; nop.i	0x0; br.cond.sptk.many	fn40000000000DA980 }

l40000000000DACE0:
	{ adds	r8,0x0,r0; nop.m	0x0; mov.i	ar.pfs,r36; }
	{ nop.m	0x0; mov.spnt	b0,r35,40000000000DACF0; br.ret	b0; }

l40000000000DAD00:
	{ addl	r38,1,r0; nop.i	0x0; br.call.sptk.many	b0,xmalloc; }
	{ nop.m	0x0; adds	r1,0x0,r37; nop.i	0x0 }
	{ st1	[r0],r8; st8	[r8],r34; br.cond.sptk.few	40000000000DAC80; }
40000000000DAD30 08 00 00 00 01 00 00 00 00 02 00 00 00 00 04 00 ................

;; set_locale_var: 40000000000DAD40
;;   Called from:
;;     40000000000631EC (in sv_locale)
;;     40000000000DB85C (in set_default_lang)
set_locale_var proc
	{ alloc	r39,ar.pfs,0xD,0x0,0x9; adds	r40,0x0,r1; mov	r38,b6; }
	{ nop.m	0x0; nop.i	0x0; br.call.sptk.many	b0,fn400000000001B840; }
	{ ld1.a	r14,[r32]; st4	[r0],r8; adds	r1,0x0,r40 }
	{ adds	r34,0x0,r8; ld1.c.clr	r14,[r32]; nop.i	0x0; }
	{ nop.m	0x0; sxt1	r14,r14; nop.i	0x0; }
	{ cmp4.eq	p07,p06,0x54,r14; adds	r14,0x3,r32; (p07) br.cond.dpnt.few	40000000000DAE40; }

l40000000000DADA0:
	{ ld1	r14,[r14]; nop.m	0x0; sxt1	r14,r14; }
	{ cmp4.eq	p07,p06,0x41,r14; nop.i	0x0; (p07) br.cond.dpnt.few	40000000000DB070; }

l40000000000DADC0:
	{ cmp4.eq	p07,p06,0x43,r14; nop.i	0x0; (p07) br.cond.dpnt.few	40000000000DB330; }

l40000000000DADD0:
	{ cmp4.eq	p07,p06,0x4D,r14; nop.i	0x0; (p07) br.cond.dpnt.few	40000000000DB1B0; }

l40000000000DADE0:
	{ cmp4.eq	p07,p06,0x4E,r14; nop.i	0x0; (p06) br.cond.dpnt.few	40000000000DB400; }

l40000000000DADF0:
	{ adds	r14,0x4,r32; ld1	r14,[r14]; nop.i	0x0; }
	{ nop.m	0x0; sxt1	r14,r14; nop.i	0x0; }
	{ nop.m	0x0; cmp4.eq	p07,p06,0x55,r14; (p07) br.cond.dpnt.few	40000000000DB5A0; }

l40000000000DAE20:
	{ addl	r35,1,r0; nop.m	0x0; mov.i	ar.pfs,r39; }
	{ adds	r8,0x0,r35; mov.spnt	b0,r38,40000000000DAE30; br.ret	b0 }

l40000000000DAE40:
	{ adds	r32,0xA,r32; ld1	r14,[r32]; nop.i	0x0; }
	{ nop.m	0x0; sxt1	r14,r14; nop.i	0x0; }
	{ nop.m	0x0; cmp4.eq	p07,p06,0x0,r14; (p06) br.cond.dptk.few	40000000000DAF40 }

l40000000000DAE70:
	{ addl	r34,8244,r1; ld8	r41,[r34]; nop.i	0x0; }
	{ cmp.eq	p06,p07,0x0,r41; nop.i	0x0; (p06) br.cond.dpnt.few	40000000000DAEB0; }

l40000000000DAE90:
	{ nop.m	0x0; nop.i	0x0; br.call.sptk.many	b0,fn400000000001A7E0; }
	{ adds	r1,0x0,r40; nop.m	0x0; nop.i	0x0 }

l40000000000DAEB0:
	{ cmp.eq	p06,p07,0x0,r33; nop.m	0x0; adds	r41,0x0,r33; }
	{ (p06) adds	r8,0x0,r0; nop.i	0x0; (p06) br.cond.dpnt.few	40000000000DAF20; }

l40000000000DAEC6:
	{ chk.a.nc	r0,3FFFFFFFFF0DB6C6; nop; break.i	0x80000 }

l40000000000DAED0:
	{ nop.m	0x0; nop.i	0x0; br.call.sptk.many	b0,fn400000000001B6C0; }
	{ adds	r1,0x0,r40; adds	r41,0x1,r8; br.call.sptk.many	b0,xmalloc; }
	{ adds	r1,0x0,r40; nop.m	0x0; adds	r41,0x0,r8 }
	{ adds	r42,0x0,r33; nop.m	0x0; br.call.sptk.many	b0,fn400000000001B180; }
	{ adds	r1,0x0,r40; nop.m	0x0; nop.i	0x0 }

l40000000000DAF20:
	{ addl	r35,1,r0; st8	[r8],r34; mov.i	ar.pfs,r39; }
	{ adds	r8,0x0,r35; mov.spnt	b0,r38,40000000000DAF30; br.ret	b0 }

l40000000000DAF40:
	{ addl	r34,8252,r1; ld8	r41,[r34]; nop.i	0x0; }
	{ cmp.eq	p06,p07,0x0,r41; nop.i	0x0; (p06) br.cond.dpnt.few	40000000000DAF80; }

l40000000000DAF60:
	{ nop.m	0x0; nop.i	0x0; br.call.sptk.many	b0,fn400000000001A7E0; }
	{ adds	r1,0x0,r40; nop.m	0x0; nop.i	0x0 }

l40000000000DAF80:
	{ cmp.eq	p06,p07,0x0,r33; nop.m	0x0; adds	r41,0x0,r33; }
	{ (p06) adds	r8,0x0,r0; nop.i	0x0; (p06) br.cond.dpnt.few	40000000000DAFF0; }

l40000000000DAF96:
	{ chk.a.nc	r0,3FFFFFFFFF0DB796; nop; break.i	0x80000 }

l40000000000DAFA0:
	{ nop.m	0x0; nop.i	0x0; br.call.sptk.many	b0,fn400000000001B6C0; }
	{ adds	r1,0x0,r40; adds	r41,0x1,r8; br.call.sptk.many	b0,xmalloc; }
	{ adds	r1,0x0,r40; nop.m	0x0; adds	r41,0x0,r8 }
	{ adds	r42,0x0,r33; nop.m	0x0; br.call.sptk.many	b0,fn400000000001B180; }
	{ adds	r1,0x0,r40; nop.m	0x0; nop.i	0x0; }

l40000000000DAFF0:
	{ addl	r14,8244,r1; st8	[r8],r34; nop.i	0x0; }
	{ nop.m	0x0; ld8	r41,[r14]; nop.i	0x0; }
	{ cmp.eq	p06,p07,0x0,r41; nop.i	0x0; (p06) br.cond.dpnt.few	40000000000DAE20; }

l40000000000DB020:
	{ ld1	r14,[r41]; nop.m	0x0; sxt1	r14,r14; }
	{ nop.m	0x0; cmp4.eq	p06,p07,0x0,r14; (p06) br.cond.dptk.few	40000000000DAE20 }

l40000000000DB040:
	{ adds	r42,0x0,r8; addl	r35,1,r0; br.call.sptk.many	b0,fn400000000001C080; }
	{ adds	r8,0x0,r35; adds	r1,0x0,r40; mov.i	ar.pfs,r39; }
	{ nop.m	0x0; mov.spnt	b0,r38,40000000000DB060; br.ret	b0 }

l40000000000DB070:
	{ addl	r35,8236,r1; ld8	r41,[r35]; nop.i	0x0; }
	{ cmp.eq	p06,p07,0x0,r41; nop.i	0x0; (p06) br.cond.dpnt.few	40000000000DB0B0; }

l40000000000DB090:
	{ nop.m	0x0; nop.i	0x0; br.call.sptk.many	b0,fn400000000001A7E0; }
	{ adds	r1,0x0,r40; nop.m	0x0; nop.i	0x0 }

l40000000000DB0B0:
	{ cmp.eq	p06,p07,0x0,r33; adds	r41,0x0,r33; (p06) br.cond.dpnt.few	40000000000DB4C0; }

l40000000000DB0C0:
	{ nop.m	0x0; nop.i	0x0; br.call.sptk.many	b0,fn400000000001B6C0; }
	{ adds	r1,0x0,r40; adds	r41,0x1,r8; br.call.sptk.many	b0,xmalloc; }
	{ adds	r1,0x0,r40; nop.m	0x0; adds	r41,0x0,r8 }
	{ adds	r42,0x0,r33; nop.m	0x0; br.call.sptk.many	b0,fn400000000001B180; }
	{ ld1	r14,[r8]; st8	[r8],r35; adds	r1,0x0,r40 }
	{ adds	r36,0x0,r8; addl	r41,6,r0; adds	r42,0x0,r8; }
	{ nop.m	0x0; sxt1	r14,r14; nop.i	0x0; }
	{ cmp4.eq	p07,p06,0x0,r14; nop.i	0x0; (p07) br.cond.dpnt.few	40000000000DB4F0; }

l40000000000DB140:
	{ nop.m	0x0; nop.i	0x0; br.call.sptk.many	b0,fn400000000001BC80; }
	{ cmp.eq	p09,p08,0x0,r8; cmp.eq	p06,p07,0x0,r8; adds	r1,0x0,r40; }
	{ (p08) addl	r35,1,r0; (p09) adds	r35,0x0,r0; nop.i	0x0 }

l40000000000DB166:
	{ Invalid; nop.b	0x104000; Invalid }

l40000000000DB16C:
	{ rsm	0x200080; mov	pr,r0,0x2000; Invalid }

l40000000000DB17C:
	{ (p44) nop; invala; break.b	0x1000 }
	{ nop; zxt1	r96,r64; break.i	0x1000 }

l40000000000DB190:
	{ adds	r8,0x0,r35; nop.m	0x0; mov.i	ar.pfs,r39; }
	{ nop.m	0x0; mov.spnt	b0,r38,40000000000DB1A0; br.ret	b0 }

l40000000000DB1B0:
	{ adds	r14,0x4,r32; ld1	r14,[r14]; nop.i	0x0; }
	{ nop.m	0x0; sxt1	r14,r14; nop.i	0x0; }
	{ nop.m	0x0; cmp4.eq	p07,p06,0x45,r14; (p06) br.cond.dptk.few	40000000000DAE20 }

l40000000000DB1E0:
	{ addl	r14,8236,r1; ld8	r14,[r14]; nop.i	0x0; }
	{ cmp.eq	p06,p07,0x0,r14; nop.i	0x0; (p06) br.cond.dpnt.few	40000000000DB220; }

l40000000000DB200:
	{ ld1	r14,[r14]; nop.m	0x0; sxt1	r14,r14; }
	{ nop.m	0x0; cmp4.eq	p07,p06,0x0,r14; (p06) br.cond.dptk.few	40000000000DAE20 }

l40000000000DB220:
	{ nop.m	0x0; addl	r41,-4100,r1; nop.i	0x0; }
	{ ld8	r41,[r41]; nop.i	0x0; br.call.sptk.many	b0,get_locale_var; }
	{ adds	r1,0x0,r40; nop.m	0x0; addl	r41,5,r0 }
	{ adds	r42,0x0,r8; nop.m	0x0; br.call.sptk.many	b0,fn400000000001BC80; }
	{ nop.m	0x0; adds	r1,0x0,r40; adds	r35,0x0,r8; }
	{ nop.m	0x0; nop.m	0x0; nop.i	0x0 }

l40000000000DB280:
	{ cmp.eq	p07,p06,0x0,r35; nop.i	0x0; (p06) br.cond.dpnt.few	40000000000DAE20; }

l40000000000DB290:
	{ nop.m	0x0; ld4	r14,[r34]; nop.i	0x0; }
	{ nop.m	0x0; cmp4.eq	p07,p06,0x0,r14; (p06) br.cond.dptk.few	40000000000DB6D0 }

l40000000000DB2B0:
	{ addl	r42,-4044,r1; addl	r43,5,r0; adds	r41,0x0,r0; }
	{ ld8	r42,[r42]; nop.i	0x0; br.call.sptk.many	b0,fn400000000001AB60; }
	{ adds	r1,0x0,r40; nop.m	0x0; adds	r34,0x0,r8 }
	{ adds	r41,0x0,r32; nop.m	0x0; br.call.sptk.many	b0,get_locale_var; }
	{ adds	r1,0x0,r40; adds	r43,0x0,r8; nop.i	0x0 }
	{ adds	r41,0x0,r34; adds	r42,0x0,r32; br.call.sptk.many	b0,internal_warning; }
	{ adds	r8,0x0,r35; adds	r1,0x0,r40; mov.i	ar.pfs,r39; }
	{ nop.m	0x0; mov.spnt	b0,r38,40000000000DB320; br.ret	b0 }

l40000000000DB330:
	{ adds	r14,0x4,r32; ld1	r14,[r14]; nop.i	0x0; }
	{ nop.m	0x0; sxt1	r14,r14; nop.i	0x0; }
	{ cmp4.eq	p07,p06,0x54,r14; nop.i	0x0; (p07) br.cond.dpnt.few	40000000000DB630; }

l40000000000DB360:
	{ nop.m	0x0; cmp4.eq	p07,p06,0x4F,r14; (p06) br.cond.dptk.few	40000000000DAE20 }

l40000000000DB370:
	{ addl	r14,8236,r1; ld8	r14,[r14]; nop.i	0x0; }
	{ cmp.eq	p06,p07,0x0,r14; nop.i	0x0; (p06) br.cond.dpnt.few	40000000000DB3B0; }

l40000000000DB390:
	{ ld1	r14,[r14]; nop.m	0x0; sxt1	r14,r14; }
	{ nop.m	0x0; cmp4.eq	p07,p06,0x0,r14; (p06) br.cond.dptk.few	40000000000DAE20 }

l40000000000DB3B0:
	{ nop.m	0x0; addl	r41,-4108,r1; nop.i	0x0; }
	{ ld8	r41,[r41]; nop.i	0x0; br.call.sptk.many	b0,get_locale_var; }
	{ adds	r1,0x0,r40; nop.m	0x0; addl	r41,3,r0 }
	{ adds	r42,0x0,r8; nop.m	0x0; br.call.sptk.many	b0,fn400000000001BC80; }
	{ adds	r1,0x0,r40; adds	r35,0x0,r8; br.cond.sptk.few	40000000000DB280 }

l40000000000DB400:
	{ cmp4.eq	p07,p06,0x54,r14; adds	r14,0x4,r32; (p06) br.cond.dpnt.few	40000000000DAE20; }

l40000000000DB410:
	{ ld1	r14,[r14]; nop.m	0x0; sxt1	r14,r14; }
	{ nop.m	0x0; cmp4.eq	p07,p06,0x49,r14; (p06) br.cond.dptk.few	40000000000DAE20 }

l40000000000DB430:
	{ addl	r14,8236,r1; ld8	r14,[r14]; nop.i	0x0; }
	{ cmp.eq	p06,p07,0x0,r14; nop.i	0x0; (p06) br.cond.dpnt.few	40000000000DB470; }

l40000000000DB450:
	{ ld1	r14,[r14]; nop.m	0x0; sxt1	r14,r14; }
	{ nop.m	0x0; cmp4.eq	p07,p06,0x0,r14; (p06) br.cond.dptk.few	40000000000DAE20 }

l40000000000DB470:
	{ nop.m	0x0; addl	r41,-4084,r1; nop.i	0x0; }
	{ ld8	r41,[r41]; nop.i	0x0; br.call.sptk.many	b0,get_locale_var; }
	{ adds	r1,0x0,r40; nop.m	0x0; addl	r41,2,r0 }
	{ adds	r42,0x0,r8; nop.m	0x0; br.call.sptk.many	b0,fn400000000001BC80; }
	{ adds	r1,0x0,r40; adds	r35,0x0,r8; br.cond.sptk.few	40000000000DB280 }

l40000000000DB4C0:
	{ addl	r41,1,r0; nop.i	0x0; br.call.sptk.many	b0,xmalloc; }
	{ adds	r1,0x0,r40; st8	[r8],r35; nop.i	0x0 }
	{ st1	[r0],r8; nop.m	0x0; nop.i	0x0 }

l40000000000DB4F0:
	{ nop.m	0x0; nop.i	0x0; br.call.sptk.many	b0,fn40000000000DA980; }
	{ adds	r1,0x0,r40; adds	r35,0x0,r8; br.call.sptk.many	b0,fn40000000000D9F00; }
	{ nop.m	0x0; adds	r1,0x0,r40; br.cond.sptk.few	40000000000DB190 }

l40000000000DB520:
	{ nop.m	0x0; ld4	r14,[r34]; nop.i	0x0; }
	{ nop.m	0x0; cmp4.eq	p07,p06,0x0,r14; (p06) br.cond.dptk.few	40000000000DB780 }

l40000000000DB540:
	{ addl	r42,-4060,r1; addl	r43,5,r0; adds	r41,0x0,r0; }
	{ ld8	r42,[r42]; nop.i	0x0; br.call.sptk.many	b0,fn400000000001AB60; }
	{ adds	r1,0x0,r40; nop.m	0x0; adds	r41,0x0,r8 }
	{ adds	r42,0x0,r36; nop.m	0x0; br.call.sptk.many	b0,internal_warning; }
	{ adds	r1,0x0,r40; nop.i	0x0; br.call.sptk.many	b0,fn40000000000D9F00; }
	{ nop.m	0x0; adds	r1,0x0,r40; br.cond.sptk.few	40000000000DB190; }

l40000000000DB5A0:
	{ addl	r14,8236,r1; ld8	r14,[r14]; nop.i	0x0; }
	{ cmp.eq	p06,p07,0x0,r14; nop.i	0x0; (p06) br.cond.dpnt.few	40000000000DB5E0; }

l40000000000DB5C0:
	{ ld1	r14,[r14]; nop.m	0x0; sxt1	r14,r14; }
	{ nop.m	0x0; cmp4.eq	p07,p06,0x0,r14; (p06) br.cond.dptk.few	40000000000DAE20 }

l40000000000DB5E0:
	{ nop.m	0x0; addl	r41,-4092,r1; nop.i	0x0; }
	{ ld8	r41,[r41]; nop.i	0x0; br.call.sptk.many	b0,get_locale_var; }
	{ adds	r1,0x0,r40; nop.m	0x0; addl	r41,1,r0 }
	{ adds	r42,0x0,r8; nop.m	0x0; br.call.sptk.many	b0,fn400000000001BC80; }
	{ adds	r1,0x0,r40; adds	r35,0x0,r8; br.cond.sptk.few	40000000000DB280; }

l40000000000DB630:
	{ addl	r14,8236,r1; ld8	r14,[r14]; nop.i	0x0; }
	{ cmp.eq	p06,p07,0x0,r14; nop.i	0x0; (p06) br.cond.dpnt.few	40000000000DB670; }

l40000000000DB650:
	{ ld1	r14,[r14]; nop.m	0x0; sxt1	r14,r14; }
	{ nop.m	0x0; cmp4.eq	p07,p06,0x0,r14; (p06) br.cond.dptk.few	40000000000DAE20 }

l40000000000DB670:
	{ nop.m	0x0; addl	r41,-4116,r1; nop.i	0x0; }
	{ ld8	r41,[r41]; nop.i	0x0; br.call.sptk.many	b0,get_locale_var; }
	{ adds	r1,0x0,r40; nop.m	0x0; adds	r41,0x0,r0 }
	{ adds	r42,0x0,r8; nop.m	0x0; br.call.sptk.many	b0,fn400000000001BC80; }
	{ adds	r1,0x0,r40; adds	r35,0x0,r8; br.call.sptk.many	b0,fn40000000000D9F00; }
	{ nop.m	0x0; adds	r1,0x0,r40; br.cond.sptk.few	40000000000DB280; }

l40000000000DB6D0:
	{ addl	r42,-4036,r1; nop.m	0x0; addl	r43,5,r0 }
	{ adds	r41,0x0,r0; nop.m	0x0; adds	r35,0x0,r0; }
	{ ld8	r42,[r42]; nop.i	0x0; br.call.sptk.many	b0,fn400000000001AB60; }
	{ adds	r1,0x0,r40; nop.m	0x0; adds	r37,0x0,r8 }
	{ adds	r41,0x0,r32; nop.m	0x0; br.call.sptk.many	b0,get_locale_var; }
	{ adds	r1,0x0,r40; nop.m	0x0; adds	r36,0x0,r8 }
	{ ld4	r41,[r34]; nop.m	0x0; br.call.sptk.many	b0,fn400000000001B4A0; }
	{ adds	r1,0x0,r40; adds	r44,0x0,r8; adds	r41,0x0,r37 }
	{ adds	r42,0x0,r32; adds	r43,0x0,r36; br.call.sptk.many	b0,internal_warning; }
	{ adds	r8,0x0,r35; adds	r1,0x0,r40; mov.i	ar.pfs,r39; }
	{ nop.m	0x0; mov.spnt	b0,r38,40000000000DB770; br.ret	b0 }

l40000000000DB780:
	{ addl	r42,-4052,r1; addl	r43,5,r0; adds	r41,0x0,r0; }
	{ ld8	r42,[r42]; nop.i	0x0; br.call.sptk.many	b0,fn400000000001AB60; }
	{ adds	r1,0x0,r40; nop.m	0x0; adds	r37,0x0,r8 }
	{ ld4	r41,[r34]; nop.m	0x0; br.call.sptk.many	b0,fn400000000001B4A0; }
	{ adds	r1,0x0,r40; adds	r41,0x0,r37; nop.i	0x0 }
	{ adds	r42,0x0,r36; adds	r43,0x0,r8; br.call.sptk.many	b0,internal_warning; }
	{ adds	r1,0x0,r40; nop.i	0x0; br.call.sptk.many	b0,fn40000000000D9F00; }
	{ nop.m	0x0; adds	r1,0x0,r40; br.cond.sptk.few	40000000000DB190; }

;; set_default_lang: 40000000000DB800
set_default_lang proc
	{ alloc	r36,ar.pfs,0x8,0x0,0x6; addl	r34,-4028,r1; nop.b	0x0 }
	{ addl	r32,-4020,r1; mov	r35,b3; adds	r37,0x0,r1; }
	{ ld8	r34,[r34]; ld8	r32,[r32]; nop.i	0x0; }
	{ adds	r38,0x0,r34; nop.i	0x0; br.call.sptk.many	b0,get_string_value; }
	{ adds	r1,0x0,r37; nop.m	0x0; adds	r38,0x0,r34 }
	{ adds	r39,0x0,r8; nop.m	0x0; br.call.sptk.many	b0,set_locale_var; }
	{ adds	r1,0x0,r37; adds	r38,0x0,r32; br.call.sptk.many	b0,get_string_value; }
	{ adds	r1,0x0,r37; adds	r33,0x0,r8; mov.spnt	b0,r35,40000000000DB870; }
	{ nop.m	0x0; mov.i	ar.pfs,r36; nop.i	0x0; }
	{ alloc	r2,ar.pfs,0x2,0x0,0x0; nop.i	0x0; br.cond.sptk.many	set_lang; }
40000000000DB8A0 0D 00 00 00 01 00 00 00 00 00 00 00 00 00 04 00 ................
40000000000DB8B0 08 00 00 00 01 00 00 00 00 02 00 00 00 00 04 00 ................

;; localetrans: 40000000000DB8C0
;;   Called from:
;;     40000000000DC26C (in localeexpand)
localetrans proc
	{ alloc	r39,ar.pfs,0xC,0x0,0x9; mov	r38,b6; nop.i	0x0 }
	{ cmp.eq	p06,p07,0x0,r32; adds	r40,0x0,r1; (p06) br.cond.dpnt.few	40000000000DB900; }

l40000000000DB8E0:
	{ ld1	r14,[r32]; nop.m	0x0; sxt1	r14,r14; }
	{ nop.m	0x0; cmp4.eq	p07,p06,0x0,r14; (p06) br.cond.dpnt.few	40000000000DB950; }

l40000000000DB900:
	{ nop.m	0x0; cmp.eq	p06,p07,0x0,r34; nop.i	0x0; }
	{ (p06) adds	r35,0x0,r0; nop.i	0x0; (p06) br.cond.dpnt.few	40000000000DB930; }

l40000000000DB916:
	{ chk.a.nc	r0,3FFFFFFFFF0DC116; nop; break.i	0x80000 }

l40000000000DB920:
	{ nop.m	0x0; st4	[r0],r34; adds	r35,0x0,r0; }

l40000000000DB930:
	{ adds	r8,0x0,r35; nop.m	0x0; mov.i	ar.pfs,r39; }
	{ nop.m	0x0; mov.spnt	b0,r38,40000000000DB940; br.ret	b0 }

l40000000000DB950:
	{ nop.m	0x0; addl	r41,-4100,r1; nop.i	0x0; }
	{ ld8	r41,[r41]; nop.i	0x0; br.call.sptk.many	b0,get_locale_var; }
	{ adds	r1,0x0,r40; cmp.eq	p06,p07,0x0,r8; (p06) br.cond.dpnt.few	40000000000DBAE0; }

l40000000000DB980:
	{ ld1	r14,[r8]; nop.m	0x0; sxt1	r14,r14; }
	{ nop.m	0x0; cmp4.eq	p06,p07,0x0,r14; (p06) br.cond.dptk.few	40000000000DBAE0; }

l40000000000DB9A0:
	{ cmp4.eq	p07,p06,0x43,r14; nop.i	0x0; (p07) br.cond.dpnt.few	40000000000DBBF0; }

l40000000000DB9B0:
	{ nop.m	0x0; cmp4.eq	p07,p06,0x50,r14; (p07) br.cond.dpnt.few	40000000000DBAA0 }

l40000000000DB9C0:
	{ addl	r14,8244,r1; ld8	r41,[r14]; nop.i	0x0; }
	{ cmp.eq	p07,p06,0x0,r41; nop.i	0x0; (p07) br.cond.dpnt.few	40000000000DBA00; }

l40000000000DB9E0:
	{ ld1	r14,[r41]; nop.m	0x0; sxt1	r14,r14; }
	{ nop.m	0x0; cmp4.eq	p06,p07,0x0,r14; (p07) br.cond.dpnt.few	40000000000DBB40 }

l40000000000DBA00:
	{ nop.m	0x0; adds	r41,0x1,r33; nop.i	0x0; }
	{ nop.m	0x0; sxt4	r41,r41; br.call.sptk.many	b0,xmalloc; }
	{ adds	r1,0x0,r40; adds	r35,0x0,r8; nop.i	0x0 }
	{ adds	r41,0x0,r8; adds	r42,0x0,r32; br.call.sptk.many	b0,fn400000000001B180; }
	{ nop.m	0x0; adds	r1,0x0,r40; cmp.eq	p07,p06,0x0,r34 }
	{ nop.m	0x0; nop.m	0x0; (p07) br.cond.dpnt.few	40000000000DB930; }

l40000000000DBA60:
	{ st4	[r33],r34; nop.m	0x0; nop.i	0x0; }
	{ nop.m	0x0; nop.m	0x0; nop.i	0x0 }

l40000000000DBA80:
	{ adds	r8,0x0,r35; nop.m	0x0; mov.i	ar.pfs,r39; }
	{ nop.m	0x0; mov.spnt	b0,r38,40000000000DBA90; br.ret	b0 }

l40000000000DBAA0:
	{ addl	r42,-4012,r1; nop.m	0x0; adds	r41,0x0,r8; }
	{ ld8	r42,[r42]; nop.i	0x0; br.call.sptk.many	b0,fn400000000001A540; }
	{ adds	r1,0x0,r40; cmp4.eq	p07,p06,0x0,r8; (p06) br.cond.dptk.few	40000000000DB9C0; }

l40000000000DBAD0:
	{ nop.m	0x0; nop.m	0x0; nop.i	0x0 }

l40000000000DBAE0:
	{ nop.m	0x0; adds	r41,0x1,r33; nop.i	0x0; }
	{ nop.m	0x0; sxt4	r41,r41; br.call.sptk.many	b0,xmalloc; }
	{ adds	r1,0x0,r40; adds	r35,0x0,r8; nop.i	0x0 }
	{ adds	r41,0x0,r8; adds	r42,0x0,r32; br.call.sptk.many	b0,fn400000000001B180; }
	{ adds	r1,0x0,r40; cmp.eq	p06,p07,0x0,r34; (p06) br.cond.dpnt.few	40000000000DB930 }

l40000000000DBB30:
	{ st4	[r33],r34; nop.i	0x0; br.cond.sptk.few	40000000000DBA80 }

l40000000000DBB40:
	{ adds	r42,0x0,r32; addl	r43,5,r0; br.call.sptk.many	b0,fn400000000001AB60; }
	{ adds	r41,0x0,r8; cmp.eq	p06,p07,r8,r32; nop.i	0x0 }
	{ adds	r1,0x0,r40; adds	r37,0x0,r8; (p06) br.cond.spnt.few	40000000000DBA00; }

l40000000000DBB70:
	{ nop.m	0x0; nop.i	0x0; br.call.sptk.many	b0,fn400000000001B6C0; }
	{ adds	r41,0x1,r8; adds	r1,0x0,r40; adds	r36,0x0,r8; }
	{ nop.m	0x0; sxt4	r41,r41; br.call.sptk.many	b0,xmalloc; }
	{ adds	r1,0x0,r40; adds	r35,0x0,r8; nop.i	0x0 }
	{ adds	r41,0x0,r8; adds	r42,0x0,r37; br.call.sptk.many	b0,fn400000000001B180; }
	{ cmp.eq	p06,p07,0x0,r34; adds	r8,0x0,r35; nop.b	0x0 }
	{ adds	r1,0x0,r40; nop.m	0x0; mov.i	ar.pfs,r39; }
	{ (p07) st4	[r36],r34; mov.spnt	b0,r38,40000000000DBBE0; br.ret	b0 }

l40000000000DBBE6:
	{ Invalid; (p34) nop; nop }

l40000000000DBBF0:
	{ adds	r8,0x1,r8; ld1	r14,[r8]; nop.i	0x0; }
	{ nop.m	0x0; sxt1	r14,r14; nop.i	0x0; }
	{ nop.m	0x0; cmp4.eq	p06,p07,0x0,r14; (p07) br.cond.dptk.few	40000000000DB9C0 }

l40000000000DBC20:
	{ nop.m	0x0; adds	r41,0x1,r33; nop.i	0x0; }
	{ nop.m	0x0; sxt4	r41,r41; br.call.sptk.many	b0,xmalloc; }
	{ adds	r1,0x0,r40; adds	r35,0x0,r8; nop.i	0x0 }
	{ adds	r41,0x0,r8; adds	r42,0x0,r32; br.call.sptk.many	b0,fn400000000001B180; }
	{ adds	r1,0x0,r40; cmp.eq	p06,p07,0x0,r34; (p07) br.cond.dptk.few	40000000000DBB30 }

l40000000000DBC70:
	{ nop.m	0x0; nop.i	0x0; br.cond.sptk.few	40000000000DB930; }

;; mk_msgstr: 40000000000DBC80
;;   Called from:
;;     40000000000DC0CC (in localeexpand)
mk_msgstr proc
	{ alloc	r35,ar.pfs,0x7,0x0,0x6; mov	r37,LC; nop.b	0x0 }
	{ adds	r36,0x0,r1; cmp.eq	p06,p07,0x0,r32; adds	r16,0x1,r32; }
	{ nop.m	0x0; mov	r34,b2; nop.i	0x0 }
	{ adds	r15,0x0,r0; sub	r17,r0,r16; (p06) br.cond.dpnt.few	40000000000DBF20; }

l40000000000DBCC0:
	{ ld1	r14,[r32]; nop.m	0x0; mov.i	LC,r17; }
	{ nop.m	0x0; sxt1	r14,r14; cmp4.eq	p06,p07,0x0,r14; }
	{ nop.m	0x0; (p06) addl	r38,3,r0; (p06) br.cond.dpnt.few	40000000000DBD50; }

l40000000000DBCEC:
	{ (p03) nop; break.i	0x1000; break.b	0x1000 }

l40000000000DBCF0:
	{ nop.m	0x0; nop.m	0x0; nop.i	0x0 }

l40000000000DBD00:
	{ cmp4.eq	p07,p06,0x5C,r14; cmp4.eq	p08,p09,0xA,r14; cmp4.eq.or.andcm	p07,p06,0x22,r14; }
	{ nop.m	0x0; (p07) adds	r15,0x2,r15; (p07) br.cond.dptk.few	40000000000DBD30; }

l40000000000DBD1C:
	{ (p01) cmp.eq	p00,p34,0x0,r33; zxt1	r96,r64; cmp.eq	p00,p00,0x20,r0 }

l40000000000DBD20:
	{ (p09) adds	r15,0x1,r15; nop.i	0x0; (p08) adds	r15,0x6,r15 }

l40000000000DBD26:
	{ addl	r0,0,r1; (p07) nop; break.i	0x80000 }

l40000000000DBD30:
	{ nop.m	0x0; nop.i	0x0; br.cloop.sptk.few	40000000000DBE30; }

l40000000000DBD40:
	{ adds	r15,0x3,r15; nop.i	0x0; sxt4	r38,r15 }

l40000000000DBD50:
	{ nop.m	0x0; nop.i	0x0; br.call.sptk.many	b0,xmalloc; }
	{ addl	r15,34,r0; adds	r14,0x0,r8; adds	r17,0x1,r32 }
	{ adds	r1,0x0,r36; addl	r18,92,r0; addl	r23,110,r0; }
	{ nop.m	0x0; st1	[r14],r1,1; sub	r16,r0,r17 }
	{ addl	r19,34,r0; cmp.eq	p10,p11,0x0,r33; addl	r24,1,r0; }
	{ ld1	r15,[r32]; mov.i	LC,r16; sxt1	r15,r15; }
	{ cmp4.eq	p06,p07,0x0,r15; adds	r16,0x0,r15; cmp4.eq	p09,p08,0xA,r15 }
	{ nop.b	0x0; (p06) br.cond.dpnt.few	40000000000DBE00; (p09) br.cond.dpnt.few	40000000000DBEB0; }

l40000000000DBDCC:
	{ (p07) cmp.eq	p00,p09,r64,r33; czx1.r	r119,r97; break.b	0x1000 }

l40000000000DBDD0:
	{ cmp4.eq	p07,p06,0x5C,r15; nop.m	0x0; nop.i	0x0; }

l40000000000DBDE0:
	{ cmp4.eq.or.andcm	p07,p06,0x22,r15; (p07) st1	[r14],r1,1; nop.i	0x0; }

l40000000000DBDEC:
	{ nop; Invalid; nop }
	{ (p04) cmp.eq	p00,p09,r0,r32; zxt4	r8,r0; break.i	0x1000 }

l40000000000DBE00:
	{ addl	r15,34,r0; nop.m	0x0; mov.i	ar.pfs,r35; }
	{ st1	[r14],r1,1; nop.m	0x0; mov.i	LC,r37; }
	{ st1	[r0],r14; mov.spnt	b0,r34,40000000000DBE20; br.ret	b0 }

l40000000000DBE30:
	{ ld1	r14,[r16],1; nop.m	0x0; sxt1	r14,r14; }
	{ nop.m	0x0; cmp4.eq	p07,p06,0x0,r14; (p06) br.cond.dptk.few	40000000000DBD00 }

l40000000000DBE50:
	{ nop.m	0x0; adds	r15,0x3,r15; nop.i	0x0; }
	{ nop.m	0x0; sxt4	r38,r15; br.cond.sptk.few	40000000000DBD50 }

l40000000000DBE70:
	{ ld1	r15,[r17],1; nop.m	0x0; sxt1	r15,r15; }
	{ cmp4.eq	p07,p06,0x0,r15; nop.m	0x0; adds	r16,0x0,r15 }
	{ cmp4.eq	p09,p08,0xA,r15; nop.m	0x0; (p07) br.cond.dpnt.few	40000000000DBE00; }

l40000000000DBEA0:
	{ nop.m	0x0; cmp4.eq	p07,p06,0x5C,r15; (p08) br.cond.dptk.few	40000000000DBDE0 }

l40000000000DBEB0:
	{ adds	r16,0x0,r14; adds	r22,0x2,r14; nop.i	0x0 }
	{ adds	r21,0x3,r14; adds	r20,0x4,r14; adds	r14,0x5,r14; }
	{ st1	[r16],r1,1; st1	[r19],r22; nop.i	0x0; }
	{ st1	[r23],r16; st1	[r15],r21; nop.i	0x0; }
	{ nop.m	0x0; st1	[r19],r20; nop.i	0x0 }
	{ (p11) st4	[r24],r33; nop.m	0x0; br.cloop.sptk.few	40000000000DBE70 }

l40000000000DBF06:
	{ add	r0,r0,r1; (p02) nop; break.i	0x80000 }

l40000000000DBF10:
	{ nop.m	0x0; nop.i	0x0; br.cond.sptk.few	40000000000DBE00 }

l40000000000DBF20:
	{ addl	r38,3,r0; nop.i	0x0; br.call.sptk.many	b0,xmalloc; }
	{ adds	r14,0x0,r8; addl	r15,34,r0; nop.b	0x0 }
	{ adds	r1,0x0,r36; nop.m	0x0; mov.i	ar.pfs,r35; }
	{ st1	[r14],r1,1; addl	r15,34,r0; mov.i	LC,r37; }
	{ st1	[r14],r1,1; nop.m	0x0; mov.spnt	b0,r34,40000000000DBF60; }
	{ st1	[r0],r14; nop.i	0x0; br.ret	b0; }

;; localeexpand: 40000000000DBF80
;;   Called from:
;;     400000000002CFDC (in fn400000000002AC80)
;;     400000000002EA3C (in fn400000000002D840)
;;     400000000003435C (in fn4000000000030880)
localeexpand proc
	{ alloc	r41,ar.pfs,0x12,0x0,0xC; adds	r12,0xFFFFFFFFFFFFFFF0,r12; nop.b	0x0 }
	{ sub	r44,r34,r33; adds	r42,0x0,r1; mov	r40,b0; }
	{ adds	r44,0x1,r44; adds	r37,0x14,r12; mov	r43,LC; }
	{ nop.m	0x0; sxt4	r44,r44; br.call.sptk.many	b0,xmalloc; }
	{ sub	r17,r34,r33,0x1; adds	r15,0x0,r8; sxt4	r16,r33 }
	{ adds	r14,0x0,r33; adds	r1,0x0,r42; adds	r38,0x0,r8; }
	{ nop.m	0x0; addp4	r17,r17,r0; add	r32,r32,r16 }
	{ st4	[r33],r37; cmp4.lt	p07,p06,r33,r34; (p06) br.cond.dpnt.few	40000000000DC2F0; }

l40000000000DC000:
	{ nop.m	0x0; mov.i	LC,r17; nop.i	0x0; }
	{ nop.m	0x0; nop.m	0x0; nop.i	0x0 }

l40000000000DC020:
	{ ld1	r16,[r32],1; adds	r14,0x1,r14; nop.i	0x0 }
	{ st1	[r15],r1,1; st4	[r14],r37; br.cloop.sptk.few	40000000000DC020 }

l40000000000DC040:
	{ sub	r33,r14,r33; nop.i	0x0; sxt4	r14,r33; }

l40000000000DC050:
	{ add	r14,r38,r14; st1	[r0],r14; addl	r14,8900,r1; }
	{ nop.m	0x0; ld4	r14,[r14]; nop.i	0x0; }
	{ nop.m	0x0; cmp4.eq	p06,p07,0x0,r14; (p06) br.cond.dptk.few	40000000000DC1C0 }

l40000000000DC080:
	{ addl	r14,8884,r1; nop.m	0x0; nop.i	0x0; }
	{ nop.m	0x0; ld4	r14,[r14]; nop.i	0x0; }
	{ nop.m	0x0; cmp4.eq	p06,p07,0x0,r14; (p06) br.cond.dptk.few	40000000000DC210 }

l40000000000DC0B0:
	{ adds	r45,0x10,r12; nop.m	0x0; adds	r44,0x0,r38; }
	{ st4	[r0],r45; nop.i	0x0; br.call.sptk.many	b0,mk_msgstr; }
	{ adds	r15,0x10,r12; adds	r1,0x0,r42; adds	r37,0x0,r8; }
	{ ld4	r14,[r15]; cmp4.eq	p06,p07,0x0,r14; nop.i	0x0; }
	{ (p06) addl	r39,-4140,r1; (p07) addl	r39,-4004,r1; nop.i	0x0; }

l40000000000DC0F6:
	{ Invalid; nop; Invalid; }

l40000000000DC0FC:
	{ nop; cmp4.eq.or.andcm	p00,p00,r32,r0; Invalid }

l40000000000DC10C:
	{ cmp4.eq.or.andcm	p00,p49,r1,r0; Invalid; break.i	0x1000 }

l40000000000DC116:
	{ break.m	0x4000; (p32) nop; (p16) nop }
	{ Invalid; (p23) nop; nop.b	0x2700C }
	{ Invalid; (p22) nop; break.b	0x80000 }
	{ Invalid; nop; (p16) br.call.sptk.few	b3,b0 }
	{ break.m	0x4000; (p32) nop; (p16) nop }
	{ Invalid; (p32) nop; (p32) nop }
	{ add	r0,r0,r1; cmp.eq.or	p00,p02,r42,r0; (p01) nop }

l40000000000DC186:
	{ break.m	0x4000; Invalid; nop }

l40000000000DC190:
	{ adds	r8,0x0,r38; mov.i	ar.pfs,r41; mov.i	LC,r43; }
	{ nop.m	0x0; mov.spnt	b0,r40,40000000000DC1A0; nop.i	0x0 }
	{ adds	r12,0x10,r12; nop.m	0x0; br.ret	b0 }

l40000000000DC1C0:
	{ ld1	r14,[r38]; adds	r8,0x0,r38; sxt1	r14,r14; }
	{ cmp4.eq	p06,p07,0x0,r14; nop.i	0x0; (p07) br.cond.dpnt.few	40000000000DC250; }

l40000000000DC1E0:
	{ cmp.eq	p06,p07,0x0,r36; (p07) st4	[r0],r36; mov.i	ar.pfs,r41; }

l40000000000DC1EC:
	{ Invalid; break.i	0x1000; (p48) break.b	0x2A82A }
	{ (p20) nop; add	r0,r32,r0; (p01) shladd	r4,r3,0x1,r64 }
	{ nop; (p05) shladd	r59,r31,0x4,r120; (p21) cmp.lt	p00,p18,r0,r0 }

l40000000000DC210:
	{ addl	r45,-3988,r1; addl	r44,1,r0; adds	r46,0x0,r38; }
	{ ld8	r45,[r45]; nop.i	0x0; br.call.sptk.many	b0,fn400000000001BB80; }
	{ cmp.eq	p06,p07,0x0,r36; nop.m	0x0; adds	r1,0x0,r42; }
	{ (p07) st4	[r33],r36; nop.i	0x0; br.cond.sptk.few	40000000000DC190 }

l40000000000DC246:
	{ break.m	0x4000; nop; nop }

l40000000000DC250:
	{ adds	r44,0x0,r38; nop.m	0x0; adds	r45,0x0,r33 }
	{ adds	r46,0x0,r37; nop.m	0x0; br.call.sptk.many	b0,localetrans; }
	{ adds	r44,0x0,r38; nop.m	0x0; adds	r39,0x0,r8 }
	{ adds	r1,0x0,r42; nop.m	0x0; br.call.sptk.many	b0,fn400000000001A7E0; }
	{ cmp.eq	p06,p07,0x0,r36; nop.m	0x0; adds	r1,0x0,r42; }
	{ (p06) adds	r38,0x0,r39; nop.i	0x0; (p06) br.cond.dpnt.few	40000000000DC190; }

l40000000000DC2A6:
	{ chk.a.nc	r0,3FFFFFFFFF0DCAA6; nop; (p32) nop }

l40000000000DC2B0:
	{ ld4	r14,[r37]; nop.m	0x0; adds	r38,0x0,r39; }
	{ adds	r8,0x0,r38; st4	[r14],r36; mov.i	ar.pfs,r41; }
	{ nop.m	0x0; mov.i	LC,r43; mov.spnt	b0,r40,40000000000DC2D0 }
	{ nop.m	0x0; adds	r12,0x10,r12; br.ret	b0 }

l40000000000DC2F0:
	{ adds	r14,0x0,r0; adds	r33,0x0,r0; br.cond.sptk.few	40000000000DC050; }

;; fn40000000000DC300: 40000000000DC300
;;   Called from:
;;     40000000000DCD5C (in fn40000000000DCB80)
;;     40000000000DCE8C (in fn40000000000DCB80)
;;     40000000000DD90C (in user_command_matches)
fn40000000000DC300 proc
	{ alloc	r35,ar.pfs,0x7,0x0,0x5; mov	r34,b2; nop.b	0x0 }
	{ adds	r36,0x0,r1; adds	r38,0x0,r33; adds	r37,0x0,r32; }
	{ nop.m	0x0; nop.i	0x0; br.call.sptk.many	b0,extract_colon_unit; }
	{ adds	r1,0x0,r36; cmp.eq	p06,p07,0x0,r8; (p06) br.cond.dpnt.few	40000000000DC360; }

l40000000000DC340:
	{ ld1	r14,[r8]; nop.m	0x0; sxt1	r14,r14; }
	{ nop.m	0x0; cmp4.eq	p07,p06,0x0,r14; (p07) br.cond.dpnt.few	40000000000DC380 }

l40000000000DC360:
	{ nop.m	0x0; mov.i	ar.pfs,r35; nop.i	0x0; }
	{ nop.m	0x0; mov.spnt	b0,r34,40000000000DC370; br.ret	b0; }

l40000000000DC380:
	{ adds	r37,0x0,r8; nop.i	0x0; br.call.sptk.many	b0,fn400000000001A7E0; }
	{ adds	r1,0x0,r36; addl	r37,2,r0; br.call.sptk.many	b0,xmalloc; }
	{ adds	r14,0x0,r8; addl	r15,46,r0; nop.b	0x0 }
	{ adds	r1,0x0,r36; nop.m	0x0; mov.i	ar.pfs,r35; }
	{ st1	[r14],r1,1; nop.m	0x0; mov.spnt	b0,r34,40000000000DC3C0; }
	{ st1	[r0],r14; nop.i	0x0; br.ret	b0; }
40000000000DC3E0 08 00 00 00 01 00 00 00 00 02 00 00 00 00 04 00 ................
40000000000DC3F0 08 00 00 00 01 00 00 00 00 02 00 00 00 00 04 00 ................

;; file_status: 40000000000DC400
;;   Called from:
;;     400000000006DC5C (in initialize_shell_variables)
;;     40000000000DC56C (in fn40000000000DC540)
;;     40000000000DC70C (in fn40000000000DC640)
;;     40000000000DCA6C (in executable_file)
;;     40000000000DCB2C (in is_directory)
;;     40000000000DD16C (in executable_or_directory)
;;     40000000000DD43C (in search_for_command)
;;     400000000010ED9C (in describe_command)
;;     400000000010ED9C (in describe_command)
;;     400000000010EEFC (in describe_command)
file_status proc
	{ alloc	r35,ar.pfs,0x8,0x0,0x5; adds	r12,0xFFFFFFFFFFFFFF70,r12; mov	r34,b2 }
	{ adds	r36,0x0,r1; adds	r38,0x0,r32; adds	r39,0x10,r12 }
	{ addl	r37,1,r0; addl	r33,17,r0; br.call.sptk.many	b0,fn400000000001AFE0; }
	{ cmp4.lt	p06,p07,r8,r0; adds	r14,0x28,r12; adds	r1,0x0,r36; }
	{ (p06) adds	r33,0x0,r0; nop.i	0x0; (p06) br.cond.dpnt.few	40000000000DC480; }

l40000000000DC446:
	{ chk.a.nc	r0,3FFFFFFFFF0DCC46; nop; (p48) nop }

l40000000000DC450:
	{ ld4	r15,[r14]; nop.m	0x0; addl	r14,61440,r0; }
	{ and	r15,r14,r15; nop.m	0x0; addl	r14,16384,r0; }
	{ nop.m	0x0; cmp4.eq	p06,p07,r14,r15; (p07) br.cond.dpnt.few	40000000000DC4A0 }
