;;; Segment .text (400000000001C480)

l40000000000DC480:
	{ adds	r8,0x0,r33; mov.i	ar.pfs,r35; mov.spnt	b0,r34,40000000000DC480 }
	{ nop.m	0x0; adds	r12,0x90,r12; br.ret	b0; }
40000000000DC4A0 11 28 01 40 00 21 60 0A 00 00 48 00 E8 E6 F3 58 .(.@.!`...H....X
40000000000DC4B0 08 30 00 10 87 39 00 00 00 02 00 20 00 20 01 84 .0...9..... . ..
40000000000DC4C0 03 28 01 40 00 21 60 22 00 00 C8 23 14 00 00 90 .(.@.!`"...#....
40000000000DC4D0 D1 08 0D 00 00 24 00 00 00 02 00 00 B8 E6 F3 58 .....$.........X
40000000000DC4E0 03 38 00 10 86 39 10 00 90 00 C2 23 04 0C B9 80 .8...9.....#....
40000000000DC4F0 02 40 00 42 00 21 00 18 01 55 00 00 20 0A 00 07 .@.B.!...U.. ...
40000000000DC500 19 00 00 00 01 00 C0 80 30 02 42 80 08 00 84 00 ........0.B.....
40000000000DC510 08 00 00 00 01 00 00 00 00 02 00 00 00 00 04 00 ................
40000000000DC520 08 00 00 00 01 00 00 00 00 02 00 00 00 00 04 00 ................
40000000000DC530 08 00 00 00 01 00 00 00 00 02 00 00 00 00 04 00 ................
40000000000DC540 08 18 1D 0A 80 05 00 00 00 02 00 40 04 00 C4 00 ...........@....
40000000000DC550 09 20 01 02 00 21 00 00 00 02 00 A0 04 00 01 84 . ...!..........
40000000000DC560 11 00 00 00 01 00 00 00 00 02 00 00 A8 FE FF 58 ...............X
40000000000DC570 00 00 00 00 01 00 60 00 20 0E 28 00 00 00 04 00 ......`. .(.....
40000000000DC580 19 08 00 48 00 21 50 02 80 00 42 03 A0 00 00 43 ...H.!P...B....C
40000000000DC590 11 00 00 00 01 00 70 00 84 0C 28 03 30 00 00 43 ......p...(.0..C
40000000000DC5A0 11 00 00 00 01 00 60 30 84 0E 28 03 80 00 00 43 ......`0..(....C
40000000000DC5B0 10 00 00 00 01 00 60 10 20 0E 28 03 70 00 00 43 ......`. .(.p..C
40000000000DC5C0 11 00 00 00 01 00 00 00 00 02 00 00 08 F1 F3 58 ...............X
40000000000DC5D0 11 08 00 48 00 21 50 0A 20 00 42 00 F8 C6 00 50 ...H.!P. .B....P
40000000000DC5E0 08 08 00 48 00 21 00 00 00 02 00 A0 04 40 00 84 ...H.!.......@..
40000000000DC5F0 19 30 01 40 00 21 00 00 00 02 00 00 98 EB F3 58 .0.@.!.........X
40000000000DC600 09 08 00 48 00 21 00 00 00 02 00 00 30 02 AA 00 ...H.!......0...
40000000000DC610 10 00 00 00 01 00 00 10 05 80 03 80 08 00 84 00 ................
40000000000DC620 09 40 00 00 00 21 00 00 00 02 00 00 30 02 AA 00 .@...!......0...
40000000000DC630 11 00 00 00 01 00 00 10 05 80 03 80 08 00 84 00 ................
40000000000DC640 08 48 41 18 80 05 E0 00 84 00 20 60 05 00 CC 00 .HA....... `....
40000000000DC650 09 00 00 00 01 00 A0 02 04 00 42 00 00 00 04 00 ..........B.....
40000000000DC660 01 00 00 00 01 00 80 02 00 62 00 C0 01 70 50 00 .........b...pP.
40000000000DC670 11 00 00 00 01 00 70 F0 3B 0C F3 03 50 03 00 43 ......p.;...P..C
40000000000DC680 C8 20 01 42 00 21 00 00 00 02 00 00 00 00 04 00 . .B.!..........
40000000000DC690 0B 28 31 03 40 24 E0 00 94 20 20 00 00 00 04 00 .(1.@$...  .....
40000000000DC6A0 10 00 00 00 01 00 70 00 38 0C 73 03 30 00 00 42 ......p.8.s.0..B
40000000000DC6B0 0B 70 00 48 00 10 00 00 00 02 00 C0 01 70 50 00 .p.H.........pP.
40000000000DC6C0 10 00 00 00 01 00 70 70 39 0C F3 03 20 03 00 43 ......pp9... ..C
40000000000DC6D0 08 68 01 40 00 21 00 00 00 02 00 C0 05 00 00 84 .h.@.!..........
40000000000DC6E0 19 60 01 48 00 21 00 00 00 02 00 00 E8 01 05 50 .`.H.!.........P
40000000000DC6F0 08 08 00 54 00 21 00 00 00 02 00 A0 04 40 00 84 ...T.!.......@..
40000000000DC700 19 60 01 10 00 21 00 00 00 02 00 00 08 FD FF 58 .`...!.........X
40000000000DC710 08 30 90 42 07 38 10 00 A8 00 42 00 00 00 04 00 .0.B.8....B.....
40000000000DC720 19 30 01 10 00 21 C0 02 90 00 42 03 30 00 00 43 .0...!....B.0..C
40000000000DC730 11 00 00 00 01 00 00 00 00 02 00 00 B8 E0 F3 58 ...............X
40000000000DC740 08 08 00 54 00 21 00 00 00 02 00 00 00 00 04 00 ...T.!..........
40000000000DC750 11 00 00 00 01 00 70 00 98 0C A8 03 70 01 00 43 ......p.....p..C
40000000000DC760 11 00 00 00 01 00 70 00 88 0C 28 03 C0 00 00 43 ......p...(....C
40000000000DC770 10 00 00 00 01 00 00 61 88 22 A8 08 D0 00 00 42 .......a.".....B
40000000000DC780 11 20 31 44 2C 20 60 10 98 0E 28 03 F0 00 00 42 . 1D, `...(....B
40000000000DC790 11 00 00 00 01 00 60 00 90 0E 73 03 E0 00 00 42 ......`...s....B
40000000000DC7A0 11 00 00 00 01 00 60 50 88 0E 28 03 20 00 00 42 ......`P..(. ..B
40000000000DC7B0 10 00 00 00 01 00 70 40 98 0C 28 03 C0 00 00 42 ......p@..(....B
40000000000DC7C0 0B 20 51 03 40 24 C0 02 90 30 20 00 00 00 04 00 . Q.@$...0 .....
40000000000DC7D0 11 30 00 58 07 39 00 00 00 02 00 03 30 00 00 43 .0.X.9......0..C
40000000000DC7E0 11 00 00 00 01 00 00 00 00 02 00 00 08 E0 F3 58 ...............X
40000000000DC7F0 08 08 00 54 00 21 00 00 00 02 00 00 00 00 04 00 ...T.!..........
40000000000DC800 09 00 00 48 98 11 00 00 00 02 00 00 00 00 04 00 ...H............
40000000000DC810 08 00 00 00 01 00 00 00 00 02 00 00 00 00 04 00 ................
40000000000DC820 03 40 00 4A 00 21 F0 5F C1 BF 05 00 90 02 AA 00 .@.J.!._........
40000000000DC830 10 00 00 00 01 00 00 40 05 80 03 80 08 00 84 00 .......@........
40000000000DC840 00 00 00 00 01 00 70 60 98 0C 28 80 C4 10 B1 80 ......p`..(.....
40000000000DC850 19 00 00 00 01 00 00 00 00 02 00 03 D0 FF FF 4B ...............K
40000000000DC860 11 00 00 00 01 00 60 10 98 0E A8 03 30 FF FF 4A ......`.....0..J
40000000000DC870 11 00 00 00 01 00 60 20 88 0E A8 03 A0 00 00 42 ......` .......B
40000000000DC880 11 38 00 48 86 39 00 00 00 02 00 03 40 00 00 43 .8.H.9......@..C
40000000000DC890 11 00 00 00 01 00 60 50 88 0E A8 03 00 01 00 42 ......`P.......B
40000000000DC8A0 00 00 00 00 01 00 70 60 98 0C 28 00 00 00 04 00 ......p`..(.....
40000000000DC8B0 16 00 00 00 00 08 04 B8 FF FF 25 03 70 FF FF 4A ..........%.p..J
40000000000DC8C0 08 00 00 00 01 00 C0 02 94 00 42 A0 04 00 00 84 ..........B.....
40000000000DC8D0 19 00 00 00 01 00 00 00 00 02 00 00 18 DF F3 58 ...............X
40000000000DC8E0 08 08 00 54 00 21 00 00 00 02 00 00 00 00 04 00 ...T.!..........
40000000000DC8F0 03 40 00 4A 00 21 F0 5F C1 BF 05 00 90 02 AA 00 .@.J.!._........
40000000000DC900 10 00 00 00 01 00 00 40 05 80 03 80 08 00 84 00 .......@........
40000000000DC910 0B 38 51 03 40 24 E0 00 9C 30 20 00 00 00 04 00 .8Q.@$...0 .....
40000000000DC920 10 00 00 00 01 00 70 00 38 0C 72 03 60 FF FF 4A ......p.8.r.`..J
40000000000DC930 11 60 01 4A 00 21 00 00 00 02 00 00 98 ED F3 58 .`.J.!.........X
40000000000DC940 11 08 00 54 00 21 C0 0A 20 00 42 00 88 C3 00 50 ...T.!.. .B....P
40000000000DC950 08 08 00 54 00 21 00 00 00 02 00 80 05 40 00 84 ...T.!.......@..
40000000000DC960 19 68 01 4A 00 21 00 00 00 02 00 00 28 E8 F3 58 .h.J.!......(..X
40000000000DC970 08 00 00 00 01 00 10 00 A8 00 42 00 00 00 04 00 ..........B.....
40000000000DC980 18 00 20 4E 98 11 00 00 00 02 00 00 00 FF FF 48 .. N...........H
40000000000DC990 10 00 00 00 01 00 70 40 98 0C A8 03 10 FF FF 4A ......p@.......J
40000000000DC9A0 11 60 01 4A 00 21 50 02 00 00 42 00 48 DE F3 58 .`.J.!P...B.H..X
40000000000DC9B0 10 00 00 00 01 00 10 00 A8 00 42 00 40 FF FF 48 ..........B.@..H
40000000000DC9C0 11 60 01 42 00 21 D0 02 00 00 42 00 08 52 F6 58 .`.B.!....B..R.X
40000000000DC9D0 11 08 00 54 00 21 40 02 20 00 42 00 C0 FC FF 48 ...T.!@. .B....H
40000000000DC9E0 08 60 91 FB DD 27 00 00 00 02 00 A0 05 20 01 84 .`...'....... ..
40000000000DC9F0 09 70 01 46 00 21 00 00 00 02 00 E0 05 00 00 84 .p.F.!..........
40000000000DCA00 11 60 01 58 18 10 00 00 00 02 00 00 C8 37 F6 58 .`.X.........7.X
40000000000DCA10 08 00 00 00 01 00 10 00 A8 00 42 00 00 00 04 00 ..........B.....
40000000000DCA20 19 00 20 4A 90 11 00 00 00 02 00 00 B0 FC FF 48 .. J...........H
40000000000DCA30 08 00 00 00 01 00 00 00 00 02 00 00 00 00 04 00 ................

;; executable_file: 40000000000DCA40
executable_file proc
	{ alloc	r35,ar.pfs,0x6,0x0,0x5; nop.m	0x0; mov	r34,b2 }
	{ adds	r36,0x0,r1; nop.m	0x0; adds	r37,0x0,r32; }
	{ nop.m	0x0; nop.i	0x0; br.call.sptk.many	b0,file_status; }
	{ adds	r33,0x0,r8; nop.m	0x0; adds	r1,0x0,r36; }
	{ nop.m	0x0; tbit.z	p06,p07,r33,0x4; (p06) br.cond.dpnt.few	40000000000DCAC0; }

l40000000000DCA90:
	{ nop.m	0x0; nop.i	0x0; br.call.sptk.many	b0,400000000001B840; }
	{ addl	r14,21,r0; nop.m	0x0; adds	r1,0x0,r36; }
	{ st4	[r14],r8; nop.m	0x0; nop.i	0x0 }

l40000000000DCAC0:
	{ and	r33,0x12,r33; nop.m	0x0; mov.i	ar.pfs,r35; }
	{ cmp4.eq	p06,p07,0x2,r33; mov.spnt	b0,r34,40000000000DCAD0; (p06) addl	r8,1,r0; }

l40000000000DCAE0:
	{ nop.m	0x0; (p07) adds	r8,0x0,r0; br.ret	b0; }

l40000000000DCAEC:
	{ nop; break.m	0x1000; break.i	0x1000 }
	{ ld2	r0,[r0]; Invalid; nop }

;; is_directory: 40000000000DCB00
is_directory proc
	{ alloc	r34,ar.pfs,0x5,0x0,0x4; nop.m	0x0; mov	r33,b1 }
	{ adds	r35,0x0,r1; nop.m	0x0; adds	r36,0x0,r32; }
	{ nop.m	0x0; nop.i	0x0; br.call.sptk.many	b0,file_status; }
	{ adds	r1,0x0,r35; and	r8,0x10,r8; mov.i	ar.pfs,r34; }
	{ nop.m	0x0; mov.spnt	b0,r33,40000000000DCB40; br.ret	b0; }
40000000000DCB50 08 00 00 00 01 00 00 00 00 02 00 00 00 00 04 00 ................
40000000000DCB60 08 00 00 00 01 00 00 00 00 02 00 00 00 00 04 00 ................
40000000000DCB70 08 00 00 00 01 00 00 00 00 02 00 00 00 00 04 00 ................

l40000000000DCB80:
	{ alloc	r42,ar.pfs,0x10,0x0,0xC; adds	r12,0xFFFFFFFFFFFFFF60,r12; mov	r41,b1 }
	{ addl	r14,8268,r1; adds	r43,0x0,r1; adds	r44,0x0,r32; }
	{ st4	[r0],r14; nop.i	0x0; br.call.sptk.many	b0,absolute_program; }
	{ cmp4.eq	p06,p07,0x0,r8; nop.m	0x0; adds	r1,0x0,r43 }
	{ adds	r44,0x0,r32; nop.m	0x0; (p07) br.cond.dpnt.few	40000000000DCFB0; }

l40000000000DCBD0:
	{ cmp.eq	p06,p07,0x0,r33; nop.i	0x0; (p06) br.cond.dpnt.few	40000000000DCC00; }

l40000000000DCBE0:
	{ ld1	r14,[r33]; nop.m	0x0; sxt1	r14,r14; }
	{ nop.m	0x0; cmp4.eq	p07,p06,0x0,r14; (p06) br.cond.dpnt.few	40000000000DCC70 }

l40000000000DCC00:
	{ nop.m	0x0; nop.i	0x0; br.call.sptk.many	b0,400000000001B6C0; }
	{ adds	r1,0x0,r43; adds	r44,0x1,r8; br.call.sptk.many	b0,xmalloc; }
	{ adds	r1,0x0,r43; nop.m	0x0; adds	r44,0x0,r8 }
	{ adds	r45,0x0,r32; nop.m	0x0; br.call.sptk.many	b0,400000000001B180; }
	{ nop.m	0x0; adds	r1,0x0,r43; adds	r36,0x0,r8; }

l40000000000DCC50:
	{ adds	r8,0x0,r36; mov.i	ar.pfs,r42; mov.spnt	b0,r41,40000000000DCC50 }
	{ nop.m	0x0; adds	r12,0xA0,r12; br.ret	b0; }

l40000000000DCC70:
	{ addl	r40,8276,r1; addl	r45,-4380,r1; addl	r38,7676,r1 }
	{ addl	r39,7684,r1; adds	r37,0xA0,r12; addl	r44,1,r0; }
	{ adds	r46,0x10,r12; st8	[r0],r40; nop.i	0x0 }
	{ ld8	r45,[r45]; nop.m	0x0; nop.i	0x0; }
	{ nop.m	0x0; nop.i	0x0; br.call.sptk.many	b0,400000000001AFE0; }
	{ adds	r1,0x0,r43; st4	[r0],r37; adds	r14,0x0,r0; }
	{ nop.m	0x0; nop.m	0x0; nop.i	0x0 }

l40000000000DCCE0:
	{ nop.m	0x0; sxt4	r14,r14; add	r14,r33,r14; }
	{ ld1	r14,[r14]; nop.m	0x0; sxt1	r14,r14; }
	{ cmp4.eq	p07,p06,0x0,r14; nop.i	0x0; (p07) br.cond.dpnt.few	40000000000DCEC0; }

l40000000000DCD10:
	{ nop.m	0x0; ld4.acq	r14,[r38]; nop.i	0x0; }
	{ cmp4.eq	p06,p07,0x0,r14; nop.i	0x0; (p07) br.cond.dpnt.few	40000000000DCF40; }

l40000000000DCD30:
	{ nop.m	0x0; ld4.acq	r14,[r39]; nop.i	0x0; }
	{ nop.m	0x0; cmp4.eq	p06,p07,0x0,r14; (p07) br.cond.dpnt.few	40000000000DCE60 }

l40000000000DCD50:
	{ adds	r44,0x0,r33; adds	r45,0x0,r37; br.call.sptk.many	b0,40000000000DC300; }
	{ adds	r46,0x0,r34; adds	r35,0x0,r8; adds	r45,0x0,r8 }
	{ adds	r47,0x10,r12; adds	r44,0x0,r32; adds	r1,0x0,r43; }
	{ nop.m	0x0; cmp.eq	p07,p06,0x0,r8; (p07) br.cond.dpnt.few	40000000000DCEC0 }

l40000000000DCD90:
	{ nop.m	0x0; nop.i	0x0; br.call.sptk.many	b0,40000000000DC640; }
	{ adds	r1,0x0,r43; nop.m	0x0; adds	r36,0x0,r8 }
	{ adds	r44,0x0,r35; nop.m	0x0; br.call.sptk.many	b0,400000000001A7E0; }
	{ cmp.eq	p06,p07,0x0,r36; nop.m	0x0; adds	r1,0x0,r43 }
	{ adds	r44,0x0,r36; nop.m	0x0; (p06) br.cond.dpnt.few	40000000000DCFA0; }

l40000000000DCDE0:
	{ nop.m	0x0; nop.i	0x0; br.call.sptk.many	b0,is_directory; }
	{ adds	r1,0x0,r43; cmp4.eq	p06,p07,0x0,r8; (p07) br.cond.dpnt.few	40000000000DCF80; }

l40000000000DCE00:
	{ nop.m	0x0; ld8	r44,[r40]; nop.i	0x0; }
	{ cmp.eq	p06,p07,0x0,r44; nop.i	0x0; (p06) br.cond.dpnt.few	40000000000DCC50; }

l40000000000DCE20:
	{ nop.m	0x0; nop.i	0x0; br.call.sptk.many	b0,400000000001A7E0; }
	{ adds	r8,0x0,r36; adds	r1,0x0,r43; mov.i	ar.pfs,r42; }
	{ nop.m	0x0; mov.spnt	b0,r41,40000000000DCE40; nop.i	0x0 }
	{ adds	r12,0xA0,r12; nop.m	0x0; br.ret	b0; }

l40000000000DCE60:
	{ nop.m	0x0; nop.i	0x0; br.call.sptk.many	b0,throw_to_top_level; }
	{ adds	r1,0x0,r43; nop.m	0x0; adds	r44,0x0,r33 }
	{ adds	r45,0x0,r37; nop.m	0x0; br.call.sptk.many	b0,40000000000DC300; }
	{ adds	r1,0x0,r43; adds	r35,0x0,r8; adds	r45,0x0,r8 }
	{ adds	r46,0x0,r34; adds	r47,0x10,r12; adds	r44,0x0,r32; }
	{ nop.m	0x0; cmp.eq	p07,p06,0x0,r8; (p06) br.cond.dptk.few	40000000000DCD90; }

l40000000000DCEC0:
	{ ld8	r36,[r40]; nop.m	0x0; tbit.z	p08,p09,r34,0x5; }
	{ cmp.eq	p07,p06,0x0,r36; (p07) br.cond.dpnt.few	40000000000DCC50; (p08) br.cond.dptk.few	40000000000DCC50 }

l40000000000DCEDC:
	{ (p44) shladd	r127,r63,0x2,r37; zxt1	r0,r64; break.i	0x1000 }

l40000000000DCEE2:
	{ break.m	0x42009; tbit.z	p32,p00,r0,0x0; Invalid; }
	{ Invalid; cmp.lt.unc	p34,p01,r97,r92; (p58) nop }
	{ Invalid; cmp.ltu	p00,p00,r64,r16; (p49) break.i	0x1AC79E; }
	{ Invalid; nop; (p26) break.i	0x48800 }
	{ (p32) ld1	r3,[r8]; (p05) nop; Invalid }
	{ Invalid; (p04) nop; nop }

l40000000000DCF40:
	{ ld4.acq	r44,[r38]; nop.i	0x0; br.call.sptk.many	b0,termsig_handler; }
	{ ld4.acq	r14,[r39]; nop.m	0x0; adds	r1,0x0,r43; }
	{ nop.m	0x0; cmp4.eq	p06,p07,0x0,r14; (p06) br.cond.dptk.few	40000000000DCD50 }

l40000000000DCF70:
	{ nop.m	0x0; nop.i	0x0; br.cond.sptk.few	40000000000DCE60 }

l40000000000DCF80:
	{ nop.m	0x0; adds	r44,0x0,r36; br.call.sptk.many	b0,400000000001A7E0; }
	{ adds	r1,0x0,r43; nop.m	0x0; nop.i	0x0 }

l40000000000DCFA0:
	{ ld4	r14,[r37]; nop.i	0x0; br.cond.sptk.few	40000000000DCCE0 }

l40000000000DCFB0:
	{ adds	r45,0x0,r34; nop.i	0x0; br.call.sptk.many	b0,40000000000DC540; }
	{ adds	r36,0x0,r8; nop.m	0x0; adds	r1,0x0,r43; }
	{ adds	r8,0x0,r36; mov.i	ar.pfs,r42; mov.spnt	b0,r41,40000000000DCFD0 }
	{ nop.m	0x0; adds	r12,0xA0,r12; br.ret	b0; }
40000000000DCFF0 08 00 00 00 01 00 00 00 00 02 00 00 00 00 04 00 ................

;; fn40000000000DD000: 40000000000DD000
;;   Called from:
;;     40000000000DD1DC (in find_user_command)
;;     40000000000DD21C (in find_path_file)
fn40000000000DD000 proc
	{ alloc	r37,ar.pfs,0x9,0x0,0x7; addl	r39,-4372,r1; mov	r36,b4 }
	{ adds	r38,0x0,r1; adds	r35,0x0,r32; adds	r34,0x0,r33; }
	{ ld8	r39,[r39]; addl	r40,1,r0; br.call.sptk.many	b0,find_variable_internal; }
	{ adds	r14,0x8,r8; adds	r1,0x0,r38; nop.i	0x0 }
	{ adds	r39,0x0,r32; cmp.eq	p06,p07,0x0,r8; (p06) br.cond.dpnt.few	40000000000DD090; }

l40000000000DD050:
	{ nop.m	0x0; ld8	r33,[r14]; nop.i	0x0; }
	{ cmp.eq	p06,p07,0x0,r33; nop.i	0x0; (p06) br.cond.spnt.few	40000000000DD090; }

l40000000000DD070:
	{ ld1	r15,[r33]; nop.m	0x0; sxt1	r15,r15; }
	{ nop.m	0x0; cmp4.eq	p07,p06,0x0,r15; (p06) br.cond.dpnt.few	40000000000DD0F0 }

l40000000000DD090:
	{ nop.m	0x0; nop.i	0x0; br.call.sptk.many	b0,400000000001B6C0; }
	{ adds	r1,0x0,r38; adds	r39,0x1,r8; br.call.sptk.many	b0,xmalloc; }
	{ adds	r1,0x0,r38; nop.m	0x0; adds	r39,0x0,r8 }
	{ adds	r40,0x0,r35; nop.m	0x0; br.call.sptk.many	b0,400000000001B180; }
	{ adds	r1,0x0,r38; nop.m	0x0; mov.i	ar.pfs,r37; }
	{ nop.m	0x0; mov.spnt	b0,r36,40000000000DD0E0; br.ret	b0; }

l40000000000DD0F0:
	{ nop.m	0x0; mov.spnt	b0,r36,40000000000DD0F0; mov.i	ar.pfs,r37; }
	{ alloc	r2,ar.pfs,0x3,0x0,0x0; nop.i	0x0; br.cond.sptk.many	40000000000DCB80; }
40000000000DD110 0D 00 00 00 01 00 00 00 00 00 00 00 00 00 04 00 ................
40000000000DD120 08 00 00 00 01 00 00 00 00 02 00 00 00 00 04 00 ................
40000000000DD130 08 00 00 00 01 00 00 00 00 02 00 00 00 00 04 00 ................

;; executable_or_directory: 40000000000DD140
executable_or_directory proc
	{ alloc	r34,ar.pfs,0x5,0x0,0x4; nop.m	0x0; mov	r33,b1 }
	{ adds	r35,0x0,r1; nop.m	0x0; adds	r36,0x0,r32; }
	{ nop.m	0x0; nop.i	0x0; br.call.sptk.many	b0,file_status; }
	{ and	r8,0x12,r8; adds	r1,0x0,r35; mov.i	ar.pfs,r34; }
	{ cmp4.eq	p07,p06,0x0,r8; mov.spnt	b0,r33,40000000000DD180; (p06) addl	r8,1,r0; }

l40000000000DD190:
	{ nop.m	0x0; (p07) adds	r8,0x0,r0; br.ret	b0; }

l40000000000DD19C:
	{ nop; break.m	0x1000; break.i	0x1000 }
	{ nop; break.i	0x1000; break.i	0x1000 }
	{ Invalid; (p34) nop; zxt4	r9,r0 }

;; find_user_command: 40000000000DD1C0
find_user_command proc
	{ alloc	r16,ar.pfs,0x2,0x0,0x2; addl	r33,36,r0; nop.i	0x0; }
	{ alloc	r2,ar.pfs,0x2,0x0,0x0; nop.i	0x0; br.cond.sptk.many	fn40000000000DD000; }
40000000000DD1E0 0D 00 00 00 01 00 00 00 00 00 00 00 00 00 04 00 ................
40000000000DD1F0 08 00 00 00 01 00 00 00 00 02 00 00 00 00 04 00 ................

;; find_path_file: 40000000000DD200
find_path_file proc
	{ alloc	r16,ar.pfs,0x2,0x0,0x2; addl	r33,64,r0; nop.i	0x0; }
	{ alloc	r2,ar.pfs,0x2,0x0,0x0; nop.i	0x0; br.cond.sptk.many	fn40000000000DD000; }
40000000000DD220 0D 00 00 00 01 00 00 00 00 00 00 00 00 00 04 00 ................
40000000000DD230 08 00 00 00 01 00 00 00 00 02 00 00 00 00 04 00 ................

;; search_for_command: 40000000000DD240
search_for_command proc
	{ alloc	r36,ar.pfs,0xA,0x0,0x6; adds	r12,0xFFFFFFFFFFFFFFF0,r12; nop.b	0x0 }
	{ addl	r38,-4372,r1; adds	r37,0x0,r1; mov	r35,b3; }
	{ ld8	r38,[r38]; addl	r39,1,r0; br.call.sptk.many	b0,find_variable_internal; }
	{ adds	r14,0x28,r8; adds	r1,0x0,r37; nop.i	0x0 }
	{ adds	r33,0x0,r8; cmp.eq	p06,p07,0x0,r8; (p06) br.cond.dpnt.few	40000000000DD380; }

l40000000000DD290:
	{ nop.m	0x0; ld4	r14,[r14]; nop.i	0x0; }
	{ nop.m	0x0; tbit.z	p07,p06,r14,0x14; (p07) br.cond.dptk.few	40000000000DD380 }

l40000000000DD2B0:
	{ addl	r34,1,r0; nop.m	0x0; nop.i	0x0 }
	{ adds	r38,0x0,r32; nop.i	0x0; br.call.sptk.many	b0,absolute_program; }
	{ cmp4.eq	p07,p06,0x0,r8; adds	r1,0x0,r37; (p06) br.cond.dpnt.few	40000000000DD580; }

l40000000000DD2E0:
	{ nop.m	0x0; cmp4.eq	p06,p07,0x0,r34; (p06) br.cond.dptk.few	40000000000DD4E0 }

l40000000000DD2F0:
	{ adds	r33,0x8,r33; adds	r38,0x0,r32; addl	r40,36,r0; }
	{ ld8	r39,[r33]; br.call.sptk.many	b0,40000000000DCB80; nop.b	0x0; }
	{ adds	r1,0x0,r37; nop.m	0x0; nop.i	0x0; }

l40000000000DD320:
	{ addl	r14,5864,r1; cmp.eq	p06,p07,0x0,r8; (p06) br.cond.dpnt.few	40000000000DD360; }

l40000000000DD330:
	{ nop.m	0x0; ld4	r14,[r14]; nop.i	0x0; }
	{ cmp4.eq	p06,p07,0x0,r14; nop.i	0x0; (p06) br.cond.dpnt.few	40000000000DD360; }

l40000000000DD350:
	{ nop.m	0x0; cmp4.eq	p07,p06,0x0,r34; (p07) br.cond.dpnt.few	40000000000DD520 }

l40000000000DD360:
	{ nop.m	0x0; mov.i	ar.pfs,r36; mov.spnt	b0,r35,40000000000DD360 }
	{ nop.m	0x0; adds	r12,0x10,r12; br.ret	b0; }

l40000000000DD380:
	{ adds	r38,0x0,r32; nop.i	0x0; br.call.sptk.many	b0,absolute_program; }
	{ cmp4.eq	p07,p06,0x0,r8; nop.m	0x0; adds	r1,0x0,r37; }
	{ (p06) adds	r34,0x0,r0; (p06) adds	r33,0x0,r0; (p06) br.cond.dptk.few	40000000000DD2C0 }

l40000000000DD3A6:
	{ (p16) chk.a.clr	r0,3FFFFFFFFF15D3A6; nop; (p32) nop.b	0x20009; }

l40000000000DD3AC:
	{ (p57) cmp.lt.unc	p63,p17,r63,r37; zxt1	r0,r64; break.i	0x1000 }

l40000000000DD3B2:
	{ break.m	0x42008; nop; Invalid; }
	{ (p16) break.m	0x42009; chk.s.i	r0,40000000008DD5C2; Invalid }
	{ break.m	0x42002; nop; Invalid; }
	{ (p23) break.m	0x48640; break.i	0x20; Invalid }
	{ Invalid; (p32) break.i	0x20203; nop }
	{ (p32) nop; (p30) nop; Invalid }
	{ Invalid; (p32) break.i	0x20203; Invalid }
	{ Invalid; (p32) cmp.lt.unc	p35,p01,r97,r92; (p01) nop }
	{ (p16) break.m	0x42008; nop; (p31) deposit	r127,r15,r43,63,2; }
	{ invala; (p16) frsqrta	f9,p16,f16; nop }
	{ break.m	0x730E2; nop; Invalid }
	{ break.m	0x20; tbit.z	p32,p00,r0,0x0; Invalid }
	{ invala; (p16) chk.s.i	r64,3FFFFFFFFF8E5502; Invalid }
	{ break.m	0x20; cmp.ltu	p32,p00,r0,r0; Invalid }
	{ (p16) break.m	0x42009; break.i	0x20; nop }
	{ break.m	0x42008; cmp.ltu	p32,p00,r0,r0; Invalid; }
	{ Invalid; zxt1	r66,r28; Invalid }
	{ break.m	0x20; add	r32,r0,r64,0x1; (p01) nop }
	{ break.m	0x42000; break.i	0x20; nop; }

l40000000000DD4E0:
	{ adds	r38,0x0,r32; nop.i	0x0; br.call.sptk.many	b0,find_user_command; }
	{ nop.m	0x0; adds	r1,0x0,r37; br.cond.sptk.few	40000000000DD320 }
40000000000DD500 02 40 00 42 00 21 00 20 01 55 00 00 30 0A 00 07 .@.B.!. .U..0...
40000000000DD510 18 00 00 00 01 00 C0 80 30 00 42 80 08 00 84 00 ........0.B.....

l40000000000DD520:
	{ addl	r14,8268,r1; adds	r39,0x0,r8; adds	r38,0x0,r32 }
	{ addl	r41,1,r0; ld4	r40,[r14]; adds	r14,0x10,r12; }
	{ st8	[r8],r14; nop.i	0x0; br.call.sptk.many	b0,phash_insert; }
	{ adds	r14,0x10,r12; nop.m	0x0; adds	r1,0x0,r37; }
	{ ld8	r8,[r14]; mov.i	ar.pfs,r36; mov.spnt	b0,r35,40000000000DD560 }
	{ nop.m	0x0; adds	r12,0x10,r12; br.ret	b0; }

l40000000000DD580:
	{ adds	r38,0x0,r32; nop.i	0x0; br.call.sptk.many	b0,400000000001B6C0; }
	{ adds	r1,0x0,r37; adds	r38,0x1,r8; br.call.sptk.many	b0,xmalloc; }
	{ adds	r1,0x0,r37; nop.m	0x0; adds	r38,0x0,r8 }
	{ adds	r39,0x0,r32; nop.m	0x0; br.call.sptk.many	b0,400000000001B180; }
	{ adds	r1,0x0,r37; mov.i	ar.pfs,r36; mov.spnt	b0,r35,40000000000DD5C0 }
	{ nop.m	0x0; adds	r12,0x10,r12; br.ret	b0; }
40000000000DD5E0 08 00 00 00 01 00 00 00 00 02 00 00 00 00 04 00 ................
40000000000DD5F0 08 00 00 00 01 00 00 00 00 02 00 00 00 00 04 00 ................

;; user_command_matches: 40000000000DD600
user_command_matches proc
	{ alloc	r46,ar.pfs,0x15,0x0,0x11; adds	r12,0xFFFFFFFFFFFFFF60,r12; nop.b	0x0 }
	{ addl	r37,8296,r1; mov	r48,LC; adds	r47,0x0,r1; }
	{ nop.m	0x0; mov	r45,b5; addl	r41,8284,r1 }
	{ nop.m	0x0; cmp4.eq	p06,p07,0x0,r34; (p06) br.cond.dptk.few	40000000000DD6B0; }

l40000000000DD640:
	{ ld4	r14,[r37]; ld8	r16,[r41]; nop.i	0x0; }
	{ nop.m	0x0; sxt4	r15,r14; adds	r14,0x1,r14; }
	{ shladd	r15,r15,0x3,r0; add	r15,r16,r15; nop.i	0x0; }
	{ ld8	r8,[r15]; cmp.eq	p06,p07,0x0,r8; nop.i	0x0; }
	{ (p07) st4	[r14],r37; mov.i	ar.pfs,r46; mov.i	LC,r48; }

l40000000000DD686:
	{ break.m	0xAA02E; break.i	0xAA0B0; break.i	0x80000 }
	{ Invalid; nop; nop }
	{ break.m	0x4000; (p34) nop; (p32) nop }

l40000000000DD6B0:
	{ addl	r42,8292,r1; ld8	r14,[r41]; nop.i	0x0; }
	{ cmp.eq	p07,p06,0x0,r14; nop.i	0x0; (p07) br.cond.dpnt.few	40000000000DDA70; }

l40000000000DD6D0:
	{ nop.m	0x0; ld4	r14,[r42]; nop.i	0x0; }
	{ cmp4.lt	p06,p07,0x0,r14; adds	r16,0xFFFFFFFFFFFFFFFF,r14; (p07) br.cond.dpnt.few	40000000000DD720; }

l40000000000DD6F0:
	{ (p06) ld8	r15,[r41]; nop.m	0x0; (p06) addp4	r16,r16,r0; }

l40000000000DD6F6:
	{ chk.a.nc	r0,3FFFFFFFFF0DDEF6; (p08) nop; add	r0,r0,r32 }

l40000000000DD702:
	{ Invalid; (p49) nop.i	0x42003; Invalid }
	{ Invalid; (p32) cmp.eq.and	p03,p16,r64,r16; (p01) nop }

l40000000000DD720:
	{ addl	r37,8296,r1; nop.m	0x0; adds	r49,0x0,r32; }
	{ st4	[r0],r37; nop.i	0x0; br.call.sptk.many	b0,absolute_program; }
	{ adds	r49,0x0,r32; nop.m	0x0; adds	r50,0x0,r33 }
	{ adds	r1,0x0,r47; cmp4.eq	p07,p06,0x0,r8; (p07) br.cond.dptk.few	40000000000DD820 }

l40000000000DD760:
	{ ld8	r35,[r41]; nop.i	0x0; br.call.sptk.many	b0,40000000000DC540; }
	{ ld8	r14,[r41]; adds	r1,0x0,r47; adds	r14,0x8,r14 }
	{ st8	[r8],r35; st8	[r0],r14; nop.i	0x0 }

l40000000000DD790:
	{ ld8	r16,[r41]; adds	r15,0x0,r0; adds	r14,0x0,r0 }
	{ st4	[r0],r37; add	r15,r16,r15; adds	r14,0x1,r14; }
	{ ld8	r8,[r15]; cmp.eq	p06,p07,0x0,r8; nop.i	0x0; }
	{ (p07) st4	[r14],r37; mov.i	ar.pfs,r46; mov.i	LC,r48; }

l40000000000DD7C6:
	{ break.m	0xAA02E; break.i	0xAA0B0; break.i	0x80000 }
	{ Invalid; nop; nop }
	{ break.m	0x4000; (p34) nop; (p32) nop }
	{ mf.a; nop; break.i	0x80000 }
	{ Invalid; (p02) nop; break.b	0x80000 }
	{ break.m	0x4000; nop; (p32) nop }

l40000000000DD820:
	{ addl	r14,8268,r1; addl	r40,8276,r1; addl	r50,-4380,r1 }
	{ adds	r51,0x10,r12; addl	r49,1,r0; adds	r38,0xA0,r12; }
	{ ld8	r50,[r50]; st4	[r0],r14; nop.i	0x0 }
	{ st8	[r0],r40; adds	r43,0x0,r37; br.call.sptk.many	b0,400000000001AFE0; }
	{ adds	r1,0x0,r47; addl	r49,-4372,r1; nop.i	0x0; }
	{ ld8	r49,[r49]; nop.i	0x0; br.call.sptk.many	b0,get_string_value; }
	{ nop.m	0x0; adds	r1,0x0,r47; adds	r39,0x0,r8 }
	{ st4	[r0],r38; cmp.eq	p07,p06,0x0,r8; (p07) br.cond.spnt.few	40000000000DD790; }

l40000000000DD8A0:
	{ addl	r44,8292,r1; nop.m	0x0; nop.i	0x0; }
	{ nop.m	0x0; nop.m	0x0; nop.i	0x0 }

l40000000000DD8C0:
	{ ld4	r15,[r38]; adds	r49,0x0,r39; adds	r50,0x0,r38; }
	{ nop.m	0x0; sxt4	r14,r15; add	r14,r39,r14; }
	{ ld1	r14,[r14]; nop.m	0x0; sxt1	r14,r14; }
	{ cmp4.eq	p07,p06,0x0,r14; nop.i	0x0; (p07) br.cond.dpnt.few	40000000000DD790; }

l40000000000DD900:
	{ nop.m	0x0; nop.i	0x0; br.call.sptk.many	b0,40000000000DC300; }
	{ cmp.eq	p06,p07,0x0,r8; adds	r1,0x0,r47; adds	r50,0x0,r8 }
	{ adds	r35,0x0,r8; adds	r51,0x0,r33; (p06) br.cond.dpnt.few	40000000000DD790; }

l40000000000DD930:
	{ adds	r52,0x10,r12; adds	r49,0x0,r32; br.call.sptk.many	b0,40000000000DC640; }
	{ adds	r1,0x0,r47; nop.m	0x0; adds	r36,0x0,r8 }
	{ adds	r49,0x0,r35; nop.m	0x0; br.call.sptk.many	b0,400000000001A7E0; }
	{ adds	r1,0x0,r47; cmp.eq	p06,p07,0x0,r36; (p06) br.cond.dpnt.few	40000000000DD8C0; }

l40000000000DD970:
	{ ld4	r50,[r37]; ld4	r16,[r42]; nop.i	0x0; }
	{ nop.m	0x0; adds	r14,0x1,r50; nop.i	0x0; }
	{ nop.m	0x0; cmp4.eq	p06,p07,r16,r14; (p06) br.cond.dpnt.few	40000000000DDA20; }

l40000000000DD9A0:
	{ (p07) ld8	r8,[r41]; nop.m	0x0; nop.i	0x0 }

l40000000000DD9A6:
	{ break.m	0x4000; break.i	0x4000; break.i	0x80000 }

l40000000000DD9B0:
	{ nop.m	0x0; sxt4	r15,r50; sxt4	r17,r14 }

l40000000000DD9B2:
	{ Invalid; Invalid; Invalid }

l40000000000DD9B6:
	{ (p07) add	r0,r50,r22; (p08) nop; (p16) br.call.sptk.few	b4,b0 }

l40000000000DD9BC:
	{ nop; Invalid; Invalid }
	{ cmp.eq	p00,p09,r0,r16; (p49) cmp.lt	p03,p16,r66,r4; czx1.r	r32,r65 }
	{ (p08) nop; Invalid; rfi; }
	{ rsm	0x200080; mov	pr,r0,0x2000; Invalid }
	{ (p47) nop; invala; break.b	0x1000 }
	{ invala; Invalid; break.i	0x1000 }
	{ (p53) cmp.lt.unc	p63,p09,r63,r36; (p49) nop; (p06) br.cond.sptk.few	40000000002E0ABC }

l40000000000DDA20:
	{ adds	r14,0xB,r50; ld8	r49,[r41]; adds	r50,0xC,r50; }
	{ st4	[r14],r44; nop.i	0x0; br.call.sptk.many	b0,strvec_resize; }
	{ nop.m	0x0; ld4	r50,[r43]; adds	r1,0x0,r47 }
	{ nop.m	0x0; st8	[r8],r41; nop.i	0x0; }
	{ nop.m	0x0; adds	r14,0x1,r50; br.cond.sptk.few	40000000000DD9B0; }

l40000000000DDA70:
	{ addl	r14,5,r0; nop.m	0x0; addl	r49,5,r0; }
	{ st4	[r14],r42; nop.i	0x0; br.call.sptk.many	b0,strvec_create; }
	{ ld4	r14,[r42]; st8	[r8],r41; adds	r1,0x0,r47; }
	{ cmp4.lt	p06,p07,0x0,r14; nop.m	0x0; adds	r16,0xFFFFFFFFFFFFFFFF,r14; }
	{ (p06) ld8	r15,[r41]; nop.m	0x0; (p06) addp4	r16,r16,r0; }

l40000000000DDAB6:
	{ chk.a.nc	r0,3FFFFFFFFF0DE2B6; (p08) nop; (p33) nop }

l40000000000DDAC2:
	{ (p49) nop.m	0x42003; (p18) nop; Invalid }

l40000000000DDAC8:
	{ (p40) nop; break.x	0x8A57FE00008 }

l40000000000DDACE:
	{ Invalid; Invalid; Invalid }
	{ Invalid; Invalid; Invalid }
	{ break.m	0x60000; break.x	0x380000880000 }
	{ nop; nop.x	0x107002C0010244 }
	{ (p06) nop.m	0x130120; nop.x	0x1080040000 }
	{ (p01) ldfe	f48,[r0],2; Invalid; nop.i	0x70240 }
	{ (p32) ldfe	f48,[r24],132; (p32) break.i	0x101; (p04) nop }
	{ (p07) br.call.sptk.few	b3,b2; (p01) br.cond.sptk.few	40000000000F9B7E; rfi }
	{ (p05) break.m	0x120; (p04) break.m	0x80000; break.i	0x210 }
	{ Invalid; nop }
	{ (p56) break.m	0x120; (p04) pshr4.u	r0,r72,r0; break.i	0x101 }
	{ addl	r64,1183746,r0; break.x	0x881017000101 }
	{ ldf8.a	f64,[r0],-256; break.x	0x8C8000000 }
	{ Invalid; (p32) nop }
	{ (p04) break.m	0x100; break.x	0x800000 }
	{ nop; nop.x	0x10002C0020210 }
	{ (p06) nop.m	0x140120; nop.x	0x1080160000 }
	{ (p02) break.m	0x120; (p04) break.m	0xE0000; (p33) break.b	0x101; }
	{ ldfe	f32,[r20],132; (p04) nop }
	{ (p07) ld1.acq	r11,[r60]; nop; (p01) bsw.0 }
	{ (p05) ld1	r32,[r28]; (p24) nop; zxt1	r72,r0 }
	{ (p08) ldfe	f40,[r60],-254; (p32) break.i	0xE0101; mov	pr,0x9000210 }
	{ Invalid; (p48) break.i	0x200; Invalid }
	{ (p32) ldfe	f80,[r28],-252; Invalid; Invalid }
	{ (p04) cmp4.eq.or.andcm	p32,p44,0x2,r56; (p04) nop }
	{ (p05) ldfe	f32,[r32],4; Invalid; Invalid }
	{ (p04) break.m	0x100; break.x	0x800000 }
	{ nop; break.x	0x43802C0000318 }
	{ nop.m	0x1C0024; nop.i	0xA0210; (p04) nop.i	0xD0003 }
	{ Invalid; (p01) break.i	0x210; (p04) nop.i	0xE0000; }
	{ (p32) nop; break.i	0x240; (p04) cmp4.ge.or	p00,p14,r0,r0 }
	{ (p07) break.m	0x10B; (p04) br.cond.sptk.few	4000000000123CBE; nop; }
	{ (p32) break.m	0x310; Invalid; (p24) mov	pr,r62,0x8010; }
	{ (p24) nop.m	0x50108; nop.i	0xD0210; (p01) break.i	0x210 }
	{ rum	0xE0320; nop }
	{ (p07) break.m	0x10B; nop; Invalid; }
	{ (p27) cmpxchg1.acq	r42,[r32],r2; nop; nop }
	{ (p32) chk.a.clr	f80,3FFFFFFFFF525D1E; break.i	0x244; Invalid }
	{ (p34) nop; (p01) nop; (p33) break.b	0x101 }
	{ nop; (p04) movl	r0,0x8000002100405100 }
	{ (p07) br.wtop.spnt.few	40000000004F9D6E; nop; (p01) br.cond.sptk.few	4000000000129D8E }
	{ (p32) cmpxchg1.acq	r112,[r52],r2; Invalid; break.i	0x101 }
	{ break.m	0x120; break.x	0x780000800202 }
	{ Invalid; (p04) nop }
	{ (p07) break.m	0x10B; (p04) ldfe	f0,[r4]; Invalid; }
	{ (p27) cmpxchg1.acq	r42,[r28],r2; nop; (p01) break.b	0x70119 }
	{ (p48) break.m	0x3C; (p04) nop; (p16) break.b	0x1F1; }
	{ break.m	0x200; (p01) nop }
	{ Invalid; nop; (p33) nop.i	0x101 }
	{ (p32) break.m	0x330; (p04) break.i	0x0; (p04) nop }
	{ (p07) br.wtop.sptk.few	40000000000E9E0E; (p29) rfi; (p37) br.cond.spnt.few	40000000004F9E4E }
	{ (p32) ldfe	f80,[r4]; Invalid; Invalid }
	{ ldfe	f114,[r64],2; break.i	0x12501; break.i	0x21E10 }
	{ (p32) addl	r80,1188352,r0; Invalid; (p56) addl	r2,524292,r0 }
	{ Invalid; (p04) nop }
	{ (p08) nop; (p33) break.i	0x318; (p04) nop }
	{ (p05) ldfe.a	f16,[r0],74; break.m	0x119; (p04) break.b	0x0 }
	{ Invalid; (p28) nop }
	{ (p49) sum	0x48013C; (p37) ld8.bias	r24,[r0]; (p32) break.i	0x119; }
	{ break.m	0x100; nop }
	{ break.m	0x172; (p04) break.i	0x12400; nop.i	0x12E10 }
	{ (p32) break.m	0x110; (p04) add	r0,r0,r72; (p32) chk.s.i	r2,3FFFFFFFFF21FEAE }
	{ (p01) ld1	r80,[r68],r2; (p33) break.i	0x180101; (p37) break.b	0x398; }
	{ nop; break.x	0x8CC200119 }
	{ nop; break.x	0x1C0008CC200119 }
	{ break.m	0x2C0; break.x	0x4010400001D04 }
	{ (p24) nop; (p25) break.i	0x318; (p04) mov	pr,0x5800000 }
	{ (p05) ld1.nt1	r32,[r24]; Invalid; chk.s.i	r48,40000000005DE0BE }
	{ (p24) break.m	0x128; Invalid; break.i	0x101 }
	{ break.m	0x220; (p28) nop }
	{ (p24) break.m	0x228; (p04) break.i	0x81800; Invalid }
	{ (p04) nop; nop.x	0x1781200000101 }
	{ (p32) break.m	0x330; (p04) break.i	0x0; (p04) nop }
	{ (p07) break.b	0x10B; nop; (p01) br.cond.spnt.few	40000000004F9F9E }
	{ (p32) ld8.bias	r80,[r0]; (p32) chk.s.i	r2,3FFFFFFFFFD000FE; (p28) chk.s.i	r4,3FFFFFFFFF4FE39E }
	{ (p06) ldfe	f82,[r80],2; break.f	0x101; Invalid }
	{ (p05) break.m	0x170; (p04) ldfs.a	f0,[r0],0; break.b	0x119 }
	{ add	r32,r2,r76; break.x	0x90080C000101 }
	{ nop; break.x	0x8CC200119 }
	{ break.m	0x100; break.x	0x8000000800119 }
	{ nop; (p04) nop }
	{ Invalid; Invalid; Invalid }
	{ Invalid; break.i	0x240; (p04) nop.i	0x0; }
	{ (p32) nop; (p33) break.i	0x101; (p04) nop }
	{ (p07) br.wtop.spnt.few	40000000004FA02E; br.cond.sptk.few	3FFFFFFFFF0FE04E; nop }
	{ (p32) ldfe	f16,[r60],2; deposit	r1,r2,r0,59,0; (p32) break.i	0x119; }
	{ ld1.s	r96,[r0],r0; (p04) nop }
	{ Invalid; break.m	0x119; (p04) break.b	0x0 }
	{ Invalid; (p04) nop }
	{ rum	0xF0332; break.i	0x240; (p04) cmp4.eq.or	p00,p34,0x0,r0 }
	{ (p07) break.m	0x8012B; nop; (p01) nop; }
	{ (p05) break.m	0x220; Invalid; Invalid }
	{ (p04) nop.m	0xD0100; nop.x	0x10802E0000 }
	{ (p32) nop; break.i	0x240; (p04) cmp4.eq.or	p00,p18,0x0,r0 }
	{ (p07) break.m	0x10B; nop; (p01) br.cond.sptk.few	40000000001240EE; }
	{ (p32) break.m	0x330; Invalid; (p24) nop }
	{ Invalid; Invalid; Invalid }
	{ (p32) ldfe	f48,[r56],132; (p33) break.i	0x101; (p04) cmp4.gt.and	p00,p34,r0,r0 }
	{ (p07) ldfe	f43,[r4]; (p01) br.cond.sptk.few	400000000013812E; nop; }
	{ (p07) cmp4.eq.or.andcm	p43,p60,0x2,r32; (p63) ldfe	f127,[r4]; (p01) nop; }
	{ (p05) break.m	0x220; Invalid; Invalid }
	{ (p04) break.m	0x100; break.x	0x800000 }
	{ break.m	0x100; break.x	0x800000 }
	{ Invalid; break.x	0x6002C0000233 }
	{ nop.m	0x180024; nop.i	0x60210; (p04) nop.i	0xA0003 }
	{ (p32) rum	0x90230; nop; (p04) cmp4.lt	p16,p34,0xFFFFFFFFFFFFFF84,r0; }
	{ (p07) ld1	r11,[r4]; (p01) br.cond.sptk.few	40000000000EC1AE; (p24) epc; }
	{ (p16) setf.sig	f8,r2; (p04) nop.i	0x30210; nop.i	0x4025E }
	{ (p32) cmp4.eq.or.andcm	p50,p61,0x2,r40; (p47) nop.i	0x9027F; (p01) mov	pr,r4,0xCA20 }
	{ nop; (p01) nop; Invalid }
	{ (p01) nop; (p24) break.i	0x388; (p04) br.cond	b0 }
	{ (p24) break.m	0x228; (p04) break.i	0x0; (p04) cmp4.eq.or	p00,p10,r0,r0 }
	{ (p07) cmpxchg1.acq	r11,[r8],r2; br.cond	b4; (p28) br.cond.sptk.few	40000000000E022E; }
	{ (p32) rum	0x90330; nop; chk.s.i	r52,40000000002DE2DE; }
	{ Invalid; (p01) break.i	0x210; (p04) cmp.eq.or	p00,p54,r0,r0 }
	{ (p07) nop; br.cond.sptk.few	40000000000E023E; (p01) br.cond.sptk.few	40000000000EA23E; }
	{ (p48) nop.m	0x9033C; (p01) nop; (p04) nop }
	{ (p24) ldfe	f40,[r56],2; nop; nop.i	0xA0210 }
	{ (p32) break.m	0x130; Invalid; (p48) break.i	0x200; }
	{ nop; (p04) nop }
	{ (p24) nop; Invalid; (p48) break.i	0x200 }
	{ nop; break.x	0x1C43A01800 }
	{ (p24) break.m	0x228; (p04) break.i	0x0; (p04) nop }
	{ (p07) br.wtop.sptk.few	40000000000E02BE; (p01) br.cond.sptk.few	40000000000EA2BE; (p28) nop }
	{ Invalid; (p01) mov	pr,0x3800210; (p42) mov	pr,0xB000002 }
	{ (p56) break.m	0x300; (p04) nop; Invalid }
	{ (p04) cmp4.eq.or.andcm	p00,p60,0x2,r56; nop.x	0x13FDEA0000 }
	{ nop.m	0x90072; (p12) nop }
	{ Invalid; (p57) break.i	0x200; Invalid; }
	{ (p07) break.m	0x10B; (p04) br.cond.sptk.few	40000000000E02DE; (p01) br.cond.sptk.few	400000000012231E; }
	{ (p32) break.m	0x310; Invalid; (p24) nop }
	{ Invalid; Invalid; Invalid }
	{ (p07) ld1	r43,[r56]; break.b	0x101; (p04) br.cond.sptk.few	40000000000E030E; }
	{ (p32) break.m	0x210; Nyi; (p24) nop; }
	{ Invalid; Invalid; Invalid }
	{ Invalid; (p42) nop }
	{ (p56) break.m	0x320; (p04) nop; Invalid }
	{ Invalid; (p63) nop }
	{ (p07) ld1	r43,[r4]; (p01) break.b	0x210; Invalid; }
	{ Invalid; break.b	0x240; (p04) br.cond.sptk.few	40000000000E037E; }
	{ (p32) ld8.s	r48,[r0]; nop; (p01) mov	pr,0x3800210; }
	{ (p05) break.m	0x0; Invalid; break.i	0x1C }
	{ nop; (p04) nop }
	{ (p04) cmpxchg2.rel	r0,[r24],r2; nop.x	0x11002C0050244 }

;; redirection_expand: 40000000000DE3C0
redirection_expand proc
	{ alloc	r38,ar.pfs,0xA,0x0,0x8; addl	r34,9208,r1; mov	r37,b5 }
	{ adds	r39,0x0,r1; nop.m	0x0; adds	r40,0x0,r32; }
	{ nop.m	0x0; adds	r36,0x0,r0; br.call.sptk.many	b0,copy_word; }
	{ adds	r1,0x0,r39; nop.m	0x0; adds	r14,0x8,r8 }
	{ adds	r41,0x0,r0; adds	r40,0x0,r8; addl	r15,6456,r1; }
	{ nop.m	0x0; ld4	r15,[r15]; nop.i	0x0; }
	{ cmp4.eq	p06,p07,0x0,r15; (p07) ld4	r15,[r14]; nop.i	0x0; }

l40000000000DE42C:
	{ nop; cmp4.eq.or.andcm	p00,p32,r32,r0; zxt1	r100,r11 }
	{ Invalid; Invalid; break.i	0x1000 }
	{ cmp.lt.unc	p09,p08,r61,r44; (p17) invala.e	r0; nop }
	{ ldfp8	f39,f0,[r66]; zxt1	r0,r64; break.i	0x1000 }
	{ Invalid; break.x	0x8C8221C001000; }
	{ (p36) nop; nop; (p04) epc }
	{ nop; zxt1	r96,r64; Invalid }
	{ (p57) cmp.lt.unc	p26,p09,r61,r44; nop; epc }
	{ pshladd2	r33,r0,1,r66; break.x	0x10800000801000; }
	{ (p02) nop; cmp.lt	p00,p00,r32,r0; (p01) rfi }
	{ cmp.lt	p00,p17,r1,r0; czx1.r	r64,r65; mov	pr,r32,0x0 }
	{ Invalid; break.i	0x1000; break.b	0x1000 }
	{ (p55) nop; invala; break.i	0x1000 }
	{ nop; zxt1	r0,r64; break.i	0x1000 }
	{ Invalid; break.i	0x1000; (p16) add	r41,r0,r112 }
	{ Invalid; (p05) invala; break.i	0x1000 }
	{ (p57) nop; invala; add	r0,r32,r0 }
	{ nop; break.x	0x10802100A01000 }
	{ Invalid; nop; zxt1	r96,r64 }
	{ (p61) nop; break.i	0x1000; break.b	0x1000 }
	{ nop; break.i	0x1000; break.i	0x1000 }
	{ nop; (p21) cmp.lt	p37,p02,r4,r96; (p05) shladd	r0,r3,0x1,r64 }
	{ (p48) nop; zxt1	r5,r64; (p02) cmp.lt	p06,p16,r8,r64; }
	{ (p16) ld1	r32,[r66]; Invalid; (p06) cmp.lt	p00,p00,r96,r12; }
	{ (p04) cmp.eq	p32,p25,r0,r66; (p01) nop }
	{ nop; nop; (p04) cmp.lt.unc	p00,p08,r3,r6 }
	{ (p03) nop; czx1.r	r68,r100; (p05) cmp.lt.unc	p00,p08,r3,r4 }
	{ (p57) nop; (p04) cmp.eq	p34,p16,r72,r11; Invalid; }
	{ nop; (p04) nop; }
	{ cmp.gt	p00,p17,r0,r0; czx1.r	r0,r113; mov	pr,r32,0x0 }
	{ (p05) cmp.eq	p00,p17,r64,r33; czx1.r	r68,r97; br.cond	b0 }
	{ (p05) invala; cmp.lt	p00,p00,r32,r0; (p48) mov	pr,r104,0xD688 }
	{ (p02) ldfp8	f0,f0,[r33]; zxt1	r0,r64; break.b	0x1000 }
	{ Invalid; (p01) cmp.eq.unc	p32,p16,r8,r64; (p15) nop.i	0xDFE0C }
	{ (p22) break.m	0x1540; break.i	0x1000; break.b	0xC002B }
	{ shladdp4	r0,r1,0x1,r0; zxt1	r64,r64; add	r0,r32,r0 }
	{ cmp.lt	p00,p09,r33,r0; (p01) invala.e	f45; cmp.eq	p00,p00,r32,r0 }
	{ (p17) cmp.lt	p00,p11,r8,r64; (p01) cmp.lt.unc	p00,p08,r3,r6; zxt1	r67,r4; }
	{ cmp.eq	p00,p11,r1,r0; (p01) cmp.lt.unc	p00,p08,r3,r6; zxt1	r99,r0 }
	{ Invalid; cmp.lt	p00,p00,r32,r0; (p32) break.i	0xC0023 }
	{ (p03) nop; zxt1	r96,r64; break.i	0x1000 }
	{ (p40) nop; invala; Invalid }
	{ ldfpd	f8,f6,[r114]; zxt1	r0,r64; mov	pr,r32,0x0 }
	{ (p59) cmp.lt	p02,p11,r64,r32; Invalid; Invalid }
	{ invala; cmp.eq	p00,p00,r32,r0; (p16) mov	pr,r67,0xE696; }
	{ (p02) cmp.lt	p00,p11,r0,r33; (p17) cmp.lt	p00,p16,r2,r64; Invalid }
	{ nop.m	0x80; cmp.lt	p00,p00,r32,r0; (p01) break.i	0x141C0 }
	{ invala; cmp.eq	p00,p00,r32,r0; mov	pr,r67,0xE680 }
	{ (p24) nop; zxt1	r96,r64; break.i	0x1000 }
	{ (p38) cmp.lt.unc	p01,p08,r61,r44; cmp.lt	p00,p28,r98,r97; (p01) epc }
	{ nop; nop; (p06) mov	pr,r8,0x84C0 }
	{ (p43) cmp.eq	p01,p17,r64,r33; czx1.r	r67,r97; break.b	0x1000 }
	{ (p16) nop; cmp.lt	p00,p00,r32,r0; (p01) rfi }
	{ Invalid; cmp.eq	p00,p00,r32,r0; mov	pr,r67,0x5080 }
	{ (p15) cmp.eq	p02,p17,r64,r33; czx1.r	r0,r97; break.b	0x1000 }
	{ (p15) shladd	r2,r64,0x2,r33; Invalid; break.i	0x1000 }
	{ (p63) nop; nop; (p06) deposit	r0,r9,r64,62,0 }
	{ Invalid; Invalid; Invalid }
	{ Invalid; Invalid; break.i	0x1000; }
	{ (p63) nop; nop; Invalid }
	{ Invalid; (p06) nop }
	{ (p63) cmpxchg2.acq	r119,[r44],r60; (p04) nop; nop.b	0x1000 }
	{ cmp.eq	p47,p17,r0,r66; czx1.r	r66,r97; mov	pr,r32,0x0 }
	{ (p21) nop; padd2	r0,r32,r0; (p04) epc }
	{ nop; Invalid; break.i	0x1000 }
	{ cmp.lt	p00,p08,r1,r0; zxt1	r101,r64; cmp.eq	p00,p00,r32,r0 }
	{ (p04) nop; Invalid; nop; }
	{ Invalid; Invalid; Invalid }
	{ invala.e	f0; Invalid; Invalid }
	{ nop; zxt1	r96,r64; break.i	0x1000 }
	{ invala; cmp.lt	p00,p00,r32,r0; (p48) mov	pr,r104,0xD688 }
	{ Invalid; break.i	0x1000; break.i	0x1000 }
	{ Invalid; (p04) cmp.lt	p04,p16,r8,r64; nop }
	{ (p44) nop; cmp.lt	p00,p00,r32,r0; Invalid }
	{ Invalid; cmp.lt	p00,p00,r32,r0; mov	pr,r99,0x5080 }
	{ (p35) invala; cmp.lt	p00,p00,r32,r0; (p32) nop }
	{ (p22) nop; zxt1	r0,r64; br.cond.sptk.few	40000000000DEAEC }
	{ nop; (p06) epc; break.b	0x1000 }
	{ (p55) cmp.lt.unc	p57,p08,r60,r44; (p48) nop; nop }
	{ Invalid; Invalid; Invalid }
	{ Invalid; break.i	0x1000; break.b	0x1000 }
	{ (p26) nop; cmp.eq.unc	p32,p16,r11,r64; nop }
	{ (p19) invala; cmp.lt	p00,p00,r32,r0; nop }
	{ Invalid; nop; (p06) epc }
	{ (p15) nop; invala; break.i	0x1000 }
	{ cmp.lt	p00,p09,r1,r0; zxt4	r53,r17; cmp.eq	p00,p00,r32,r0 }
	{ nop; break.i	0x1000; break.b	0x1000; }
	{ Invalid; Invalid; break.i	0x1000 }
	{ (p53) ldfp8	f121,f60,[r44]; (p04) nop; nop }
	{ invala; cmp.eq	p00,p00,r32,r0; mov	pr,r72,0xE6C0 }
	{ (p36) ldfp8	f127,f63,[r37]; zxt4	r5,r0; (p01) cmp.eq.unc	p32,p16,r8,r64 }
	{ Invalid; break.m	0x1000; (p16) break.f	0x2A80B; }
	{ (p22) nop; add	r0,r32,r0; (p01) shladd	r64,r11,0x1,r64 }
	{ invala; cmp.lt	p00,p00,r32,r0; mov	pr,r104,0x5040 }
	{ (p33) nop; (p04) cmp.lt	p04,p16,r8,r64; (p01) rfi }
	{ Invalid; cmp.lt	p00,p00,r32,r0; mov	pr,r99,0x5080 }
	{ (p46) cmp.eq	p02,p17,r64,r33; czx1.r	r9,r33; br.cond	b0 }
	{ (p32) invala; cmp.lt	p00,p00,r32,r0; (p32) mov	pr,r104,0x5040 }
	{ (p51) nop; zxt1	r0,r64; break.b	0x1000 }
	{ (p45) cmp.lt	p37,p09,r63,r44; (p01) nop; nop.b	0x1000 }
	{ invala; cmp.lt	p00,p00,r32,r0; mov	pr,r99,0x5080 }
	{ (p19) nop; (p06) deposit	r0,r8,r64,62,0; zxt1	r0,r64 }
	{ (p10) cmp.eq.unc	p62,p17,r63,r44; nop; mov	pr,r11,0x84C0 }
	{ (p43) nop; cmp.eq	p00,p00,r32,r0; czx1.r	r67,r97 }
	{ invala; cmp.eq	p00,p00,r32,r0; (p32) mov	pr,r72,0xE782 }
	{ (p57) nop; zxt1	r0,r64; br.cond.sptk.few	40000000000DECBC }
	{ nop; (p06) epc; break.b	0x1000 }
	{ (p40) cmp.lt.unc	p57,p17,r60,r44; (p16) nop; epc }
	{ (p01) cmp.lt	p00,p17,r64,r33; czx1.l	r0,r97; br.cond	b0 }
	{ Invalid; cmp.lt	p00,p00,r32,r0; nop }
	{ (p03) invala; cmp.eq	p00,p00,r32,r0; (p32) mov	pr,r73,0xC600 }
	{ (p02) nop; zxt1	r0,r64; br.cond.sptk.few	40000000000DED1C }
	{ Invalid; Invalid; Invalid }
	{ (p37) nop; invala; break.b	0x1000 }
	{ nop; break.i	0x1000; break.i	0x1000 }
	{ sum	0x80; break.i	0x1000; (p16) cmp.lt	p01,p00,r0,r0 }
	{ cmp.eq	p00,p11,r0,r48; (p01) cmp.eq	p32,p08,r9,r6; zxt1	r99,r3; }
	{ invala; cmp.eq	p00,p00,r32,r0; (p32) mov	pr,r67,0xE0C6 }
	{ (p52) nop; deposit	r0,r32,r0,63,0; zxt2	r92,r79 }
	{ invala; cmp.lt	p00,p00,r32,r0; (p16) mov	pr,r104,0xD680 }
	{ (p20) nop; (p06) nop; (p04) epc }
	{ (p04) nop; nop; (p06) epc }
	{ (p60) nop; nop; zxt1	r0,r64 }
	{ (p13) nop; (p01) nop; Invalid }
	{ Invalid; break.m	0x1000; (p16) break.f	0x2A80B; }
	{ (p22) nop; add	r0,r32,r0; (p01) shladd	r64,r11,0x1,r64 }
	{ cmp.eq	p00,p11,r33,r0; (p04) invala.e	r46; break.i	0x1000 }
	{ nop; cmp.lt	p00,p00,r32,r0; Invalid }
	{ invala; cmp.lt	p00,p00,r32,r0; mov	pr,r99,0xE680 }
	{ (p03) cmp.lt	p00,p11,r0,r33; zxt4	r60,r12; break.i	0x1000 }
	{ cmp.lt	p00,p11,r1,r0; (p01) cmp.eq.unc	p00,p08,r3,r4; czx1.r	r64,r97 }
	{ cmp4.eq.and	p00,p43,r1,r0; (p01) nop; Invalid }
	{ nop; cmp4.eq.or.andcm	p00,p32,r32,r0; zxt1	r40,r11 }
	{ Invalid; Invalid; break.i	0x1000 }
	{ nop; zxt1	r96,r64; break.i	0x1000 }
	{ (p57) cmp.lt.unc	p62,p09,r63,r44; (p01) nop; Invalid }
	{ invala; nop }
	{ (p02) cmp.lt	p00,p11,r0,r33; zxt4	r60,r12; break.b	0x1000 }
	{ cmp.lt	p00,p11,r1,r0; (p01) cmp.eq.unc	p00,p08,r3,r4; czx1.r	r64,r97 }
	{ nop; nop; zxt1	r98,r64 }
	{ Invalid; Invalid; break.i	0x1000 }
	{ cmp.lt	p00,p17,r1,r0; (p01) cmp.lt	p46,p18,r32,r14; mov	pr,r105,0xE480 }
	{ Invalid; cmp.lt	p00,p00,r32,r0; Invalid }
	{ cmp.lt	p00,p17,r1,r0; czx1.r	r64,r97; mov	pr,r32,0x0 }
	{ (p03) nop; cmp.lt	p00,p00,r32,r0; nop }
	{ cmp.lt	p00,p17,r1,r0; czx1.r	r66,r113; mov	pr,r32,0x0 }
	{ (p60) nop; cmp.lt	p00,p00,r32,r0; (p32) nop }
	{ cmp.lt	p00,p17,r1,r0; czx1.r	r64,r113; mov	pr,r32,0x0 }
	{ (p59) nop; cmp.eq	p00,p00,r32,r0; nop }
	{ invala; cmp.eq	p00,p00,r32,r0; (p48) mov	pr,r72,0xE788 }
	{ (p58) ld2	r2,[r33]; (p06) nop; (p04) nop }
	{ Invalid; Invalid; Invalid }
	{ Invalid; break.i	0x1000; break.i	0x1000 }
	{ (p16) nop; cmp.lt.unc	p32,p16,r11,r64; nop }
	{ nop; (p06) deposit	r64,r9,r64,62,0; (p06) mov	pr,r8,0x84C0 }
	{ (p31) cmp.lt	p01,p11,r64,r33; zxt4	r54,r14; break.i	0x1000 }
	{ nop; cmp.lt	p00,p00,r32,r0; Invalid }
	{ Invalid; cmp.lt	p00,p00,r32,r0; mov	pr,r99,0xE680 }
	{ (p01) nop; cmp.eq	p00,p00,r32,r0; (p32) nop }
	{ invala; cmp.eq	p00,p00,r32,r0; mov	pr,r72,0xE780 }
	{ (p46) ldfps	f2,f64,[r33]; zxt4	r13,r0; break.b	0x1000 }
	{ (p53) nop; nop; nop }
	{ nop; break.x	0x10802600C01000 }
	{ (p12) nop; cmp.lt.unc	p32,p16,r11,r64; (p32) nop }
	{ (p63) break.m	0x97FFE; deposit	r0,r32,r0,63,0; (p02) cmp.eq	p32,p10,r104,r4 }
	{ (p17) nop; break.i	0x1000; br.cond	b0 }
	{ (p46) invala; chk.s.i	r32,3FFFFFFFFF0DEE8C; (p50) chk.s.i	r41,3FFFFFFFFF7F0F0C }
	{ (p40) nop; (p04) cmp.lt	p04,p16,r8,r64; (p01) rfi }
	{ Invalid; cmp.lt	p00,p00,r32,r0; mov	pr,r99,0x5080 }
	{ (p30) break.m	0x86002; cmp.lt	p00,p00,r32,r0; (p32) nop }
	{ Invalid; Invalid; Invalid }
	{ (p26) invala.e	f1; czx1.r	r8,r36; (p32) rfi }
	{ (p08) cmp.lt.unc	p57,p08,r60,r44; (p48) nop; nop }
	{ Invalid; Invalid; Invalid }
	{ Invalid; break.i	0x1000; break.i	0x1000 }
	{ (p43) nop; invala; break.b	0x1000 }
	{ invala; cmp.eq	p00,p00,r32,r0; mov	pr,r64,0xC204 }
	{ (p23) cmp.lt	p01,p09,r0,r33; Invalid; nop.b	0x1000 }
	{ Invalid; Invalid; Invalid }
	{ Invalid; break.i	0x1000; break.i	0x1000 }
	{ Invalid; nop; zxt1	r96,r64 }
	{ (p16) cmp.lt.unc	p63,p08,r63,r36; cmp.lt.unc	p32,p28,r104,r65; (p04) nop }
	{ nop; (p06) deposit	r57,r31,r110,62,3; (p22) mov	pr,r0,0x9002 }
	{ (p53) nop; nop; zxt1	r64,r64 }
	{ nop; Invalid; break.i	0x1000 }
	{ (p58) cmp.eq	p30,p08,r1,r40; nop; Invalid }
	{ nop; nop }
	{ Invalid; break.i	0x1000; break.i	0x1000 }
	{ (p03) nop; cmp.eq	p00,p00,r32,r0; (p04) nop }
	{ (p04) nop; nop }
	{ cmp.lt	p08,p17,r0,r66; break.x	0x1C83A700001000; }
	{ (p50) cmp.lt	p00,p17,r64,r33; czx1.r	r65,r97; break.b	0x1000 }
	{ (p39) nop; cmp.lt	p00,p00,r32,r0; (p01) rfi }
	{ invala; cmp.lt	p00,p00,r32,r0; (p32) mov	pr,r99,0x5080 }
	{ (p49) ldf8	f1,[r33]; (p04) cmp.lt	p62,p18,r96,r17; (p17) nop }
	{ Invalid; Invalid; Invalid }
	{ Invalid; Invalid; break.i	0x1000 }
	{ cmp.lt.unc	p54,p08,r62,r44; nop; nop }
	{ nop; (p06) nop; }
	{ Invalid; break.i	0x1000; break.b	0x1000 }
	{ (p32) nop; cmp.lt.unc	p32,p16,r11,r64; czx1.l	r2,r33 }
	{ ldfpd	f0,f1,[r0]; (p04) nop; (p06) mov	pr,r2,0x8400 }
	{ (p10) nop; deposit	r0,r32,r0,63,0; (p06) nop }
	{ cmpxchg4.acq	r0,[r0],r1; Invalid; break.i	0x1000 }
	{ (p25) cmp.lt.unc	p54,p08,r60,r44; (p01) nop; zxt1	r96,r64 }
	{ cmp.lt	p00,p25,r1,r0; cmp.eq	p00,p28,r98,r65; (p04) mov	pr,r2,0x8400 }
	{ (p07) cmp.lt	p03,p09,r64,r33; Invalid; nop }
	{ nop; (p05) nop }
	{ nop; zxt1	r32,r64; break.i	0x1000 }
	{ (p44) nop; nop; br.cond.sptk.many	40000000004FF1EC }
	{ nop; break.x	0x8000001000; }
	{ break.m	0x80; deposit	r0,r32,r0,63,0; (p06) nop }
	{ Invalid; (p06) brp.sptk	b1,40000000000DF76C; (p06) epc }
	{ (p52) nop; nop; (p06) epc }
	{ (p63) nop; cmp.lt.unc	p32,p16,r11,r64; mov	pr,r98,0xE600 }
	{ (p35) nop; nop; Invalid }
	{ cmp.lt	p00,p17,r1,r0; (p01) cmp.eq.unc	p34,p16,r8,r64; mov	pr,r72,0xE4C0 }
	{ (p15) cmp.lt	p03,p11,r64,r33; (p01) nop; (p05) rfi }
	{ nop; zxt1	r32,r64; break.i	0x1000 }
	{ (p39) cmp.lt.unc	p56,p08,r60,r44; (p48) nop; br.cond.sptk.many	40000000004FF28C }
	{ nop; (p06) nop; }
	{ Invalid; break.i	0x1000; break.b	0x1000 }
	{ Invalid; nop; zxt1	r96,r64 }
	{ (p58) cmp.lt.unc	p63,p08,r63,r36; (p01) shladd	r61,r0,0x3,r16; (p04) br.cond.sptk.many	40000000002E22AC }
	{ Invalid; (p06) epc; nop }
	{ Invalid; Invalid; Invalid }
	{ (p44) cmp.eq.unc	p10,p08,r61,r44; (p04) invala; nop }
	{ nop; zxt1	r96,r64; break.i	0x1000 }
	{ (p44) nop; (p05) invala; nop }
	{ cmpxchg2.acq.nt1	r47,[r66],r0; (p04) cmp.eq	p00,p08,r10,r4; czx1.r	r66,r97 }
	{ nop; padd2	r0,r32,r0; zxt1	r104,r64 }
	{ nop; Invalid; mov	pr,r32,0x0 }
	{ (p45) nop; break.i	0x1000; break.i	0x1000 }
	{ Invalid; (p01) shladd	r24,r99,0x2,r79; (p04) nop }
	{ Invalid; Invalid; Invalid }
	{ cmpxchg4.acq	r0,[r0],r1; zxt1	r96,r64; break.i	0x1000 }
	{ (p29) cmpxchg2.acq	r117,[r44],r63; (p04) nop; nop }
	{ nop; Invalid; break.i	0x1000 }
	{ (p30) nop; break.m	0x1000; (p49) nop }
	{ cmpxchg2.acq.nt1	r47,[r66],r0; (p06) cmp.lt.unc	p00,p08,r8,r22; zxt2	r28,r11 }
	{ Invalid; (p01) nop; zxt1	r4,r64 }
	{ nop; break.i	0x1000; Invalid }
	{ cmpxchg4.acq	r0,[r0],r1; Invalid; break.i	0x1000 }
	{ (p49) cmp.lt.unc	p55,p08,r60,r44; (p01) cmp.eq.unc	p37,p16,r9,r64; (p01) brp.sptk	b1,40000000000DF97C }
	{ cmpxchg2.acq	r47,[r66],r0; Invalid; (p05) nop }
	{ Invalid; Invalid; Invalid }
	{ Invalid; Invalid; break.i	0x1000 }
	{ (p19) invala; nop; epc }
	{ (p39) nop; zxt1	r0,r64; break.b	0x1000 }
	{ (p14) nop; nop; (p06) epc }
	{ (p04) nop; nop; zxt1	r0,r64 }
	{ (p33) nop; nop; (p06) epc }
	{ (p47) nop; cmp.eq.unc	p32,p16,r11,r64; mov	pr,r64,0xC204 }
	{ Invalid; cmp.lt	p00,p00,r32,r0; (p32) mov	pr,r104,0x5042 }
	{ Invalid; break.i	0x1000; break.b	0x1000 }
	{ (p33) cmp.lt.unc	p56,p09,r60,r44; (p01) nop; Invalid }
	{ nop; cmp.eq	p00,p00,r32,r0; nop; }
	{ cmp.eq	p00,p17,r1,r0; (p16) cmp.lt.unc	p01,p28,r67,r113; (p01) mov	pr,r64,0x916A }
	{ (p15) nop; nop; (p04) rfi }
	{ cmp.lt	p00,p11,r1,r0; czx1.r	r96,r97; Invalid }
	{ ldfs	f0,[r0]; (p20) break.i	0x40064; break.i	0x1000 }
	{ invala; break.i	0x1000; mov	pr,r32,0x0 }
	{ Invalid; (p01) cmp.eq.unc	p32,p16,r8,r64; (p15) nop }
	{ (p22) break.m	0x1540; break.i	0x1000; break.b	0xC002B }
	{ shladdp4	r0,r1,0x2,r0; zxt1	r64,r64; add	r0,r32,r0 }
	{ addp4	r0,r33,r0; (p04) nop; nop }
	{ Invalid; Invalid; Invalid }
	{ (p61) nop; cmp.lt.unc	p32,p16,r11,r64; nop }
	{ (p02) cmp.eq	p00,p11,r0,r33; Invalid; cmp.lt	p00,p00,r32,r0 }
	{ cmp.eq	p15,p11,r22,r0; (p32) cmp4.ne.and	p35,p60,r67,r1; zxt4	r61,r16; }
	{ Invalid; Invalid; mov	pr,r32,0x0 }
	{ (p01) cmp.lt	p00,p09,r64,r33; zxt4	r61,r16; Invalid }
	{ (p63) nop; Invalid; break.b	0x1000; }
	{ cmp.lt	p00,p17,r1,r0; czx1.r	r67,r97; mov	pr,r32,0x0 }
	{ Invalid; cmp.lt	p00,p00,r32,r0; (p32) mov	pr,r104,0xD686 }
	{ (p58) cmp.lt	p00,p18,r0,r33; czx1.r	r68,r97; (p48) mov	pr,r0,0x439E }
	{ (p20) nop; nop; (p06) br.cond.sptk.few	40000000004FF5FC }
	{ Invalid; Invalid; Invalid }
	{ (p18) nop; nop; cmp.eq.unc	p32,p16,r11,r64 }
	{ Invalid; (p06) nop }
	{ (p18) cmpxchg1.acq.nt1	r118,[r44],r60; (p04) nop; cmp.eq.unc	p32,p16,r11,r64 }
	{ (p05) nop; padd2	r0,r32,r0; zxt1	r104,r64 }
	{ nop; Invalid; mov	pr,r32,0x0 }
	{ (p19) invala; break.i	0x1000; break.b	0x1000 }
	{ (p39) nop; Invalid; nop }
	{ Invalid; Invalid; Invalid }
	{ Invalid; Invalid; break.i	0x1000 }
	{ (p01) nop; nop; brp.sptk	b3,40000000000DFC1C }
	{ Invalid; Invalid; Invalid }
	{ (p44) nop; invala; break.b	0x1000 }
	{ invala; break.i	0x1000; Invalid }
	{ (p03) ld2	r2,[r33]; zxt1	r0,r64; nop }
	{ Invalid; Invalid; Invalid }
	{ (p51) cmp.eq.unc	p55,p08,r60,r44; nop; epc }
	{ cmp.eq	p00,p25,r1,r0; (p04) nop; (p06) mov	pr,r9,0x8440 }
	{ (p47) nop; zxt1	r4,r64; break.i	0x1000 }
	{ (p37) nop; nop; zxt1	r96,r64 }
	{ nop; Invalid; break.i	0x1000 }
	{ (p26) cmp.eq.unc	p55,p17,r60,r44; nop; mov	pr,r11,0x84C0 }
	{ (p49) nop; Invalid; break.i	0x1000 }
	{ (p08) cmp.lt.unc	p54,p09,r60,r44; (p01) nop; nop }
	{ Invalid; cmp.lt	p00,p00,r32,r0; mov	pr,r99,0x5080 }
	{ nop.m	0x86001; cmp.eq	p00,p00,r32,r0; nop }
	{ invala; mov	pr,r32,0x0; (p50) mov	pr,r41,0xE212 }
	{ (p16) break.m	0x84000; cmp.lt	p00,p00,r32,r0; (p32) nop }
	{ Invalid; Invalid; Invalid }
	{ (p09) invala.e	f0; czx1.r	r9,r36; Invalid }
	{ (p04) cmp.lt.unc	p56,p08,r60,r44; (p48) nop; brp.sptk	b3,40000000000DFD5C }
	{ Invalid; Invalid; Invalid }
	{ Invalid; break.i	0x1000; break.b	0x1000 }
	{ (p40) nop; invala; break.i	0x1000 }
	{ invala; cmp.eq	p00,p00,r32,r0; mov	pr,r64,0xC204 }
	{ (p06) cmp.lt	p00,p09,r0,r33; Invalid; nop }
	{ Invalid; Invalid; Invalid }
	{ Invalid; break.i	0x1000; break.b	0x1000 }
	{ (p27) nop; nop; Invalid }
	{ ldfp8	f0,f0,[r72]; (p04) cmp.lt	p00,p08,r10,r20; Invalid; }
	{ Invalid; break.i	0x1000; Invalid }
	{ ldfs	f0,[r0]; (p20) break.i	0x40056; break.i	0x1000 }
	{ invala; break.i	0x1000; mov	pr,r32,0x0 }
	{ Invalid; (p01) cmp.eq.unc	p32,p16,r8,r64; (p15) nop }
	{ (p22) break.m	0x1540; break.i	0x1000; break.b	0xC002B }
	{ shladdp4	r0,r1,0x2,r0; zxt1	r64,r64; add	r0,r32,r0 }
	{ nop; (p06) invala; break.i	0x1000 }
	{ (p61) cmp.lt	p35,p08,r63,r44; (p01) nop; nop }
	{ nop; zxt1	r96,r64; deposit	r0,r32,r0,63,0 }
	{ Invalid; Invalid; Invalid }
	{ (p23) invala.e	f1; czx1.r	r9,r36; Invalid }
	{ (p46) nop; cmp.eq.unc	p32,p16,r11,r64; mov	pr,r64,0xC204 }
	{ (p61) nop; (p06) deposit	r96,r9,r64,62,0; zxt1	r0,r64 }
	{ (p38) nop; cmp.lt.unc	p32,p16,r11,r64; mov	pr,r104,0x5042 }
	{ (p02) invala; cmp.eq	p00,p00,r32,r0; (p32) nop }
	{ (p02) nop; zxt1	r0,r64; deposit	r0,r32,r0,63,0 }
	{ Invalid; Invalid; Invalid }
	{ (p55) nop; invala; break.i	0x1000 }
	{ nop; zxt1	r96,r64; nop }
	{ rsm	0x308000; nop }
	{ (p04) nop; (p01) nop; Invalid }
	{ Invalid; break.m	0x1000; (p16) break.f	0x2A80B; }
	{ (p22) nop; add	r0,r32,r0; (p01) shladd	r64,r11,0x1,r64 }
	{ nop; (p06) ldfs	f96,[r64]; Invalid }
	{ (p51) nop; (p01) nop; Invalid }
	{ Invalid; break.m	0x1000; (p16) break.f	0x2A80B; }
	{ (p22) nop; add	r0,r32,r0; (p01) shladd	r64,r11,0x1,r64 }
	{ Invalid; (p49) cmp.lt	p30,p17,r98,r79; Invalid }
	{ invala; nop; (p52) mov	pr,r127,0x9F3E }
	{ (p36) nop; zxt1	r64,r64; break.b	0x1000 }
	{ (p63) nop; invala; nop }
	{ nop; break.x	0x10802600C01000 }
	{ (p47) nop; cmp.lt.unc	p32,p16,r11,r64; (p32) nop }
	{ (p35) invala; break.i	0x1000; break.b	0x1000 }
	{ (p33) nop; zxt1	r0,r64; break.b	0x1000 }
	{ (p47) cmp.eq	p35,p17,r63,r44; (p16) nop; mov	pr,r11,0x84C0 }
	{ (p14) invala; cmp.eq	p00,p00,r32,r0; (p32) nop }
	{ (p04) cmp.lt	p00,p11,r0,r33; (p04) cmp.lt	p57,p19,r31,r107; Invalid }
	{ nop; Invalid; break.i	0x1000 }
	{ (p11) nop; cmp.eq.unc	p32,p16,r11,r64; (p32) mov	pr,r66,0xE600 }
	{ (p02) nop; Invalid; break.b	0x1000 }
	{ (p32) nop; nop; zxt1	r96,r64 }
	{ nop; Invalid; break.i	0x1000 }
	{ (p55) nop; invala; break.i	0x1000 }
	{ cmp.lt	p00,p09,r1,r0; (p01) nop; (p06) deposit	r96,r8,r64,62,0 }
	{ Invalid; Invalid; Invalid }
	{ (p59) invala.e	f1; czx1.r	r8,r36; (p32) rfi }
	{ (p28) nop; cmp.eq.unc	p32,p16,r11,r64; mov	pr,r64,0xC204 }
	{ (p10) nop; cmp.eq	p00,p00,r32,r0; (p48) nop }
	{ invala; cmp.eq	p00,p00,r32,r0; (p16) mov	pr,r72,0xE780 }
	{ (p02) nop; nop; (p06) deposit	r96,r8,r64,62,0 }
	{ Invalid; Invalid; Invalid }
	{ (p18) nop; invala; break.b	0x1000 }
	{ Invalid; cmp.lt	p00,p00,r32,r0; mov	pr,r104,0x5042 }
	{ (p02) invala; cmp.eq	p00,p00,r32,r0; (p32) nop }
	{ (p02) nop; zxt1	r0,r64; deposit	r0,r32,r0,63,0 }
	{ Invalid; Invalid; Invalid }
	{ (p35) nop; invala; break.i	0x1000 }
	{ cmp.lt	p00,p17,r1,r0; (p49) nop; zxt1	r96,r64 }
	{ (p02) nop; cmp.eq	p00,p00,r32,r0; (p16) nop }
	{ invala; cmp.lt	p00,p00,r32,r0; (p48) mov	pr,r104,0xE784 }
	{ Invalid; break.i	0x1000; break.i	0x1000 }
	{ (p47) nop; invala; break.b	0x1000 }
	{ cmp.lt	p00,p09,r1,r0; (p32) nop; (p22) deposit	r0,r0,r0,62,2 }
	{ Invalid; Invalid; Invalid }
	{ Invalid; cmp.lt	p00,p00,r32,r0; (p32) nop }
	{ Invalid; break.i	0x1000; break.i	0x1000 }
	{ (p18) nop; cmp.eq.unc	p32,p16,r11,r64; mov	pr,r64,0xC204 }
	{ Invalid; break.i	0x1000; break.i	0x1000 }
	{ (p32) ldfp8	f119,f60,[r44]; (p04) nop; nop }
	{ Invalid; (p01) cmp.eq.unc	p32,p16,r8,r64; (p15) nop.i	0xDFE0C }
	{ (p22) break.m	0x1540; break.i	0x1000; break.b	0xC002B }
	{ shladdp4	r0,r1,0x1,r0; zxt1	r64,r64; add	r0,r32,r0 }
	{ Invalid; cmp.lt	p00,p00,r32,r0; (p16) mov	pr,r104,0xE686 }
	{ (p27) nop; nop; (p06) deposit	r0,r9,r64,62,0 }
	{ Invalid; Invalid; Invalid }
	{ (p24) nop; cmp.eq.unc	p32,p16,r11,r64; (p04) epc }
	{ (p07) nop; (p06) deposit	r0,r10,r64,62,0; zxt1	r0,r64 }
	{ (p12) cmp.eq.unc	p54,p17,r60,r44; nop; nop }
	{ (p59) nop; cmp.eq	p00,p00,r32,r0; czx1.r	r67,r97 }
	{ invala; cmp.eq	p00,p00,r32,r0; (p32) mov	pr,r72,0xE782 }
	{ (p46) invala; break.i	0x1000; break.i	0x1000 }
	{ Invalid; break.i	0x1000; break.b	0x1000 }
	{ (p49) invala; nop; zxt1	r96,r64 }
	{ (p54) nop; cmp.lt	p00,p00,r32,r0; Invalid }
	{ nop; Invalid; break.i	0x1000 }
	{ (p63) cmp.lt	p04,p08,r62,r44; (p01) nop; epc }
	{ cmp.lt	p00,p25,r1,r0; nop; (p06) mov	pr,r2,0x8400 }
	{ (p06) nop; cmp.lt	p00,p00,r32,r0; (p01) rfi }
	{ Invalid; cmp.eq	p00,p00,r32,r0; mov	pr,r67,0x508C }
	{ Invalid; break.i	0x1000; break.b	0x1000 }
	{ (p17) nop; cmp.lt.unc	p32,p16,r11,r64; czx1.r	r0,r65 }
	{ nop; (p06) deposit	r0,r2,r64,62,0; (p06) mov	pr,r107,0x8CB8 }
	{ (p04) cmp.lt	p00,p11,r64,r32; Invalid; cmp.lt	p00,p00,r32,r0 }
	{ cmp.lt	p14,p17,r20,r0; czx1.r	r64,r97; mov	pr,r32,0x0; }
	{ Invalid; break.i	0x1000; break.i	0x1000 }
	{ (p52) cmp.lt	p62,p08,r61,r44; Invalid; nop.b	0x1000 }
	{ cmp.lt	p47,p25,r0,r66; czx1.l	r2,r33; mov	pr,r32,0x0 }
	{ (p01) nop; add	r0,r32,r0; (p04) rfi }
	{ invala; cmp.lt	p00,p00,r32,r0; mov	pr,r96,0xC212 }
	{ (p21) ldfp8	f125,f63,[r36]; Invalid; Invalid }
	{ Invalid; break.m	0x1000; (p16) break.f	0x2A80B; }
	{ (p22) nop; add	r0,r32,r0; (p01) shladd	r64,r11,0x1,r64 }
	{ nop; (p06) invala; break.i	0x1000 }
	{ (p02) invala; ldfe	f0,[r0]; (p04) break.b	0x16100 }
	{ nop; nop; (p06) deposit	r32,r9,r64,62,0 }
	{ Invalid; Invalid; Invalid }
	{ (p05) nop; cmp.lt.unc	p32,p16,r11,r64; mov	pr,r104,0xC0C4 }
	{ (p61) nop; Invalid; (p02) nop }
	{ nop; zxt4	r7,r0; nop }
	{ nop; Invalid; break.i	0x1000 }
	{ invala; break.i	0x1000; break.i	0x101000 }
	{ (p59) invala; break.i	0x1000; break.b	0x1000 }
	{ (p62) nop; zxt1	r96,r64; deposit	r0,r32,r0,63,0 }
	{ Invalid; Invalid; Invalid }
	{ (p06) ldf8	f119,[r44]; (p04) nop; nop }
	{ shladdp4	r47,r0,0x2,r66; (p04) cmp.eq	p00,p16,r2,r64; mov	pr,r64,0xC204 }
	{ (p62) cmpxchg2.acq	r126,[r37],r63; (p06) nop; (p22) nop }
	{ Invalid; Invalid; Invalid }
	{ (p32) nop; nop; zxt1	r0,r64 }
	{ (p26) nop; nop; (p06) epc }
	{ (p30) nop; cmp.eq.unc	p32,p16,r11,r64; (p17) cmp.eq	p00,p18,r0,r0 }
	{ cmp.lt	p35,p11,r6,r115; zxt4	r53,r17; break.i	0x1000 }
	{ invala; Invalid; mov	pr,r32,0x0 }
	{ Invalid; (p01) cmp.eq.unc	p32,p16,r8,r64; (p15) nop.i	0xDFE0C }
	{ (p22) break.m	0x1540; break.i	0x1000; break.b	0xC002B }
	{ shladdp4	r0,r1,0x2,r0; zxt1	r64,r64; add	r0,r32,r0 }
	{ nop; (p06) invala; deposit	r0,r32,r0,63,0 }
	{ Invalid; Invalid; Invalid }
	{ (p63) nop; shladd	r96,r11,0x1,r64; zxt1	r0,r64 }
	{ (p01) nop; ldfe	f0,[r0]; (p04) nop }
	{ nop; cmp.eq	p00,p00,r32,r0; mov	pr,r64,0xC212 }
	{ (p16) cmpxchg2.acq	r125,[r37],r63; (p06) nop; (p22) nop }
	{ Invalid; Invalid; Invalid }
	{ (p24) nop; nop; (p06) epc }
	{ (p19) nop; cmp.eq.unc	p32,p16,r11,r64; (p17) cmp.eq	p00,p18,r0,r0 }
	{ cmp.lt	p35,p11,r6,r115; zxt4	r53,r17; break.i	0x1000 }
	{ invala; Invalid; mov	pr,r32,0x0 }
	{ (p57) invala; break.i	0x1000; break.b	0x1000 }
	{ (p09) nop; zxt1	r0,r64; br.cond.sptk.few	40000000000E02AC }
	{ nop; (p06) epc; break.b	0x1000 }
	{ (p57) cmp.lt.unc	p54,p08,r60,r44; (p48) nop; nop }
	{ Invalid; Invalid; Invalid }
	{ Invalid; break.i	0x1000; break.b	0x1000 }
	{ (p28) nop; invala; break.b	0x1000 }
	{ cmp.eq	p00,p17,r1,r0; cmp.lt	p02,p24,r64,r33; (p17) mov	pr,r104,0x8CB8 }
	{ (p17) invala; cmp.eq	p00,p00,r32,r0; (p16) mov	pr,r67,0xD680 }
	{ (p09) nop; zxt1	r0,r64; br.cond.sptk.few	40000000000E032C }
	{ nop; (p06) epc; break.b	0x1000 }
	{ (p53) cmp.lt.unc	p54,p08,r60,r44; (p48) nop; nop }
	{ Invalid; Invalid; Invalid }
	{ Invalid; break.i	0x1000; break.b	0x1000 }
	{ (p24) cmp.eq.unc	p59,p08,r63,r44; nop; nop.b	0x1000 }
	{ nop; zxt1	r0,r64; mov	pr,r32,0x0 }
	{ Invalid; break.i	0x1000; break.b	0x1000 }
	{ (p51) cmp.lt	p34,p09,r63,r44; (p01) nop; nop }
	{ invala; cmp.lt	p00,p00,r32,r0; mov	pr,r99,0x5080 }
	{ (p24) invala; break.i	0x1000; break.b	0x1000 }
	{ (p05) nop; (p06) deposit	r0,r10,r64,62,0; (p06) epc }
	{ (p29) invala; nop; zxt1	r96,r64 }
	{ (p06) cmp.lt.unc	p61,p09,r63,r36; czx1.l	r0,r97; break.b	0x1000 }
	{ (p04) cmp4.eq.or.andcm	p40,p09,r9,r99; zxt4	r0,r0; Invalid; }
	{ cmp4.eq.or.andcm	p00,p35,r0,r72; (p01) cmp.lt	p00,p48,0x0,r64; Invalid; }
	{ (p07) invala; cmp.lt	p00,p00,r32,r0; mov	pr,r99,0xE680; }
	{ (p11) nop; zxt1	r0,r64; deposit	r0,r32,r0,63,0 }
	{ Invalid; Invalid; Invalid }
	{ (p44) invala; nop; epc }
	{ (p09) nop; zxt1	r96,r64; br.cond.sptk.few	40000000000E046C }
	{ Invalid; Invalid; Invalid }
	{ (p43) nop; shladd	r96,r11,0x1,r64; zxt1	r0,r64 }
	{ (p45) nop; cmp.lt	p00,p00,r32,r0; (p04) nop }
	{ nop; cmp.eq	p00,p00,r32,r0; mov	pr,r64,0xC212 }
	{ (p32) cmpxchg2.acq	r125,[r37],r63; (p06) nop; (p22) nop }
	{ Invalid; Invalid; Invalid }
	{ (p04) nop; nop; (p06) epc }
	{ (p63) nop; nop; zxt1	r96,r64 }
	{ (p02) nop; cmp.eq.unc	p32,p16,r11,r64; Invalid }
	{ cmp.lt	p00,p09,r0,r72; zxt4	r53,r17; nop; }
	{ nop; break.x	0x8000001000 }
	{ Invalid; Invalid; mov	pr,r32,0x0; }
	{ (p53) nop.m	0x97FFC; cmp.eq	p00,p00,r32,r0; (p15) nop.i	0xDFE0C }
	{ Invalid; break.i	0x1000; (p16) break.i	0x2A80B }
	{ (p22) nop; add	r0,r32,r0; (p01) shladd	r64,r11,0x1,r64 }
	{ nop; (p06) ld4	r0,[r64]; zxt1	r0,r64 }
	{ (p02) cmp.eq.unc	p59,p09,r63,r44; nop; nop.b	0x1000 }
	{ invala; mov	pr,r32,0x0; (p50) mov	pr,r41,0xE212 }
	{ (p41) nop; (p06) nop; (p04) epc }
	{ (p61) nop; nop; zxt1	r96,r64 }
	{ (p60) nop; (p01) nop; Invalid }
	{ Invalid; break.m	0x1000; (p16) break.f	0x2A80B; }
	{ (p22) nop; add	r0,r32,r0; (p01) shladd	r64,r11,0x1,r64 }
	{ Invalid; break.m	0x1000; break.i	0x1000 }
	{ (p42) cmp.lt.unc	p59,p08,r63,r44; (p32) nop; epc }
	{ ldfpd	f0,f1,[r0]; (p04) nop; (p06) mov	pr,r9,0x8480 }
	{ Invalid; break.i	0x1000; break.b	0x1000 }
	{ (p30) invala; nop; zxt1	r96,r64 }
	{ Invalid; cmp.eq	p00,p00,r32,r0; (p32) mov	pr,r72,0x5042 }
	{ (p54) invala; cmp.lt	p00,p00,r32,r0; nop }
	{ (p56) invala; break.i	0x1000; break.b	0x1000 }
	{ (p53) nop; zxt4	r0,r0; br.cond.sptk.few	40000000000E066C }
	{ Invalid; Invalid; Invalid }
	{ nop; invala; nop }
	{ br.cond.sptk.few	400000000074449C; (p38) nop; break.b	0x1000 }
	{ (p14) nop; cmp.eq.unc	p32,p16,r11,r64; mov	pr,r64,0xC204 }
	{ (p12) invala; break.i	0x1000; break.i	0x1000 }
	{ (p60) nop; (p06) nop; Invalid }
	{ (p24) nop; (p01) nop; Invalid }
	{ Invalid; break.m	0x1000; (p16) break.f	0x2A80B; }
	{ (p22) nop; add	r0,r32,r0; (p01) shladd	r64,r11,0x1,r64 }
	{ nop; (p05) cmp.lt	p62,p18,r96,r17; (p17) nop }
	{ Invalid; Invalid; Invalid }
	{ Invalid; Invalid; break.i	0x1000 }
	{ (p24) nop; invala; rfi }
	{ ldfpd	f0,f1,[r0]; zxt1	r0,r64; czx1.r	r0,r68 }
	{ (p34) cmp.lt	p00,p11,r64,r33; Invalid; Invalid }
	{ invala; cmp.lt	p00,p00,r32,r0; mov	pr,r99,0xE680; }
	{ (p33) cmp.lt	p00,p11,r0,r33; (p17) cmp.lt	p00,p16,r2,r64; (p01) rfi }
	{ Invalid; cmp.lt	p00,p00,r32,r0; (p01) cmp.lt.unc	p00,p00,r3,r5 }
	{ nop; (p22) deposit	r0,r0,r0,50,2; (p21) mov	pr,r0,0x9000 }
	{ (p03) cmp.lt	p00,p11,r0,r33; (p33) cmp.lt	p00,p16,r2,r64; Invalid }
	{ Invalid; cmp.lt	p00,p00,r32,r0; (p01) cmp.lt.unc	p00,p00,r3,r5 }
	{ nop; (p38) deposit	r0,r0,r0,50,2; (p37) mov	pr,r0,0x9000 }
	{ (p01) nop; zxt1	r0,r64; break.b	0x1000 }
	{ (p07) nop; ld4	r96,[r64]; (p05) nop }
	{ Invalid; Invalid; Invalid }
	{ (p10) nop; nop; cmp.eq.unc	p32,p16,r11,r64 }
	{ nop; nop }
	{ (p03) ld2	r0,[r33]; Invalid; nop }
	{ Invalid; Invalid; Invalid }
	{ Invalid; Invalid; Invalid }
	{ (p07) nop; nop; Invalid }
	{ nop; break.x	0x8000001000 }
	{ nop; (p05) nop; mov	r96,ip }
	{ (p11) nop; cmp.lt.unc	p32,p16,r11,r64; (p32) mov	pr,r105,0xE2D4 }
	{ Invalid; break.i	0x1000; (p02) nop }
	{ (p61) nop; zxt4	r7,r0; break.b	0x1000 }
	{ nop; zxt1	r32,r64; break.i	0x1000 }
	{ (p36) nop; nop; zxt1	r96,r64 }
	{ nop; Invalid; break.i	0x1000 }
	{ (p25) nop; nop; zxt1	r96,r64 }
	{ nop; Invalid; break.i	0x1000 }
	{ (p07) nop; invala; Invalid }
	{ cmp.lt	p00,p09,r1,r0; zxt4	r59,r16; nop }
	{ (p62) nop; break.x	0x8C80E52001000 }
	{ Invalid; (p01) cmp.eq.unc	p32,p16,r8,r64; (p15) nop.i	0xDFE0C }
	{ (p22) break.m	0x1540; break.i	0x1000; break.b	0xC002B }
	{ shladdp4	r0,r1,0x2,r0; zxt1	r64,r64; add	r0,r32,r0 }
	{ nop; (p06) invala; break.i	0x1000 }
	{ (p30) nop; nop; (p06) epc }
	{ (p30) nop; nop; cmp.eq.unc	p32,p16,r11,r64 }
	{ ldfp8	f0,f0,[r72]; (p04) cmp.lt	p00,p08,r10,r20; Invalid; }
	{ Invalid; break.i	0x1000; Invalid }
	{ ldfs	f0,[r0]; (p04) break.i	0x40018; break.i	0x1000 }
	{ invala.e	r0; mov	pr,r32,0x0; Invalid }
	{ invala; break.i	0x1000; break.i	0x1000 }
	{ (p15) ldfps	f124,f63,[r36]; (p04) nop; (p06) epc }
	{ (p26) nop; (p01) nop; Invalid }
	{ Invalid; break.m	0x1000; (p16) break.f	0x2A80B; }
	{ (p22) nop; add	r0,r32,r0; (p01) shladd	r64,r11,0x1,r64 }
	{ nop; (p06) invala; break.i	0x1000 }
	{ (p24) nop; nop; (p06) epc }
	{ (p57) ldfps	f124,f63,[r36]; (p04) nop; zxt1	r96,r64 }
	{ (p23) nop; (p01) nop; Invalid }
	{ Invalid; break.m	0x1000; (p16) break.f	0x2A80B; }
	{ (p22) nop; add	r0,r32,r0; (p01) shladd	r64,r11,0x1,r64 }
	{ nop; (p06) nop; nop }
	{ (p62) cmp.lt.unc	p60,p17,r127,r79; break.x	0x1C83B100001000 }
	{ Invalid; break.i	0x1000; break.b	0x1000 }
	{ (p57) nop; invala; break.b	0x1000 }
	{ (p60) nop; nop; Invalid }
	{ nop; cmp.lt	p00,p00,r32,r0; zxt4	r59,r16 }
	{ invala; Invalid; break.i	0x1000 }
	{ (p50) nop; zxt1	r0,r64; break.b	0x1000 }
	{ (p16) invala; nop; zxt1	r96,r64 }
	{ (p52) nop; nop; (p06) br.cond.sptk.few	40000000005009AC }
	{ nop; Invalid; (p06) epc }
	{ (p52) nop; cmp.eq.unc	p32,p16,r11,r64; (p04) epc }
	{ (p35) nop; nop; (p06) deposit	r0,r9,r64,62,0 }
	{ nop; Invalid; (p06) epc }
	{ (p51) nop; cmp.eq.unc	p32,p16,r11,r64; zxt1	r0,r64 }
	{ (p33) nop; zxt1	r0,r64; break.b	0x1000 }
	{ (p12) invala; nop; zxt1	r96,r64 }
	{ (p45) ldf8	f124,[r36]; (p06) deposit	r0,r0,r64,62,0; zxt1	r0,r64 }
	{ nop; (p06) deposit	r32,r9,r64,62,0; zxt1	r96,r64 }
	{ (p44) nop; nop; Invalid }
	{ nop; nop }
	{ (p37) invala; break.i	0x1000; break.b	0x1000 }
	{ Invalid; nop; (p06) epc }
	{ (p10) nop; invala; break.b	0x1000 }
	{ nop; nop; Invalid }
	{ invala; break.i	0x1000; czx1.r	r32,r100 }
	{ (p34) invala; break.i	0x1000; break.i	0x1000 }
	{ (p36) nop; (p06) deposit	r0,r8,r64,62,0; (p06) epc }
	{ (p12) cmp.eq.unc	p58,p09,r63,r44; nop; (p04) nop }
	{ invala; mov	pr,r32,0x0; (p50) mov	pr,r41,0xE210 }
	{ (p05) nop; zxt1	r0,r64; break.i	0x1000 }
	{ (p06) nop; invala; nop.b	0x1000 }
	{ Invalid; Invalid; Invalid }
	{ (p05) nop; (p01) nop; Invalid }
	{ Invalid; break.m	0x1000; (p16) break.f	0x2A80B; }
	{ (p22) nop; add	r0,r32,r0; (p01) shladd	r64,r11,0x1,r64 }
	{ ldfps	f0,f33,[r0]; (p04) invala.e	f31; break.i	0x1000 }
	{ (p43) nop; nop; (p05) rfi }
	{ nop; cmp.lt	p00,p00,r32,r0; zxt4	r59,r16 }
	{ invala; Invalid; break.i	0x1000 }
	{ Invalid; break.i	0x1000; break.i	0x1000 }
	{ (p63) invala; nop; epc }
	{ (p47) cmp.lt.unc	p62,p02,r63,r36; (p01) cmp.eq	p32,p08,r9,r4; Invalid }
	{ cmp.lt	p14,p25,r7,r40; zxt4	r53,r17; mov	pr,r32,0x0 }
	{ (p49) nop; break.i	0x1000; break.i	0x1000 }
	{ Invalid; Invalid; break.i	0x1000 }
	{ (p39) ldfp8	f117,f60,[r44]; (p04) nop; nop }
	{ invala; cmp.eq	p00,p00,r32,r0; mov	pr,r72,0xE6C0 }
	{ (p22) invala; break.i	0x1000; break.i	0x1000 }
	{ (p50) nop; zxt1	r96,r64; break.i	0x1000 }
	{ (p01) nop; nop; zxt1	r96,r64 }
	{ (p20) nop; cmp.lt.unc	p32,p16,r11,r64; nop }
	{ (p21) nop; nop; Invalid }
	{ Invalid; (p02) nop; (p05) nop }
	{ invala; Invalid; break.i	0x1000 }
	{ (p24) cmp.lt.unc	p62,p11,r63,r36; (p04) cmp.lt	p59,p19,r127,r107; Invalid }
	{ nop; Invalid; break.i	0x1000 }
	{ (p61) nop; cmp.lt.unc	p32,p16,r11,r64; (p16) nop }
	{ (p53) nop; Invalid; break.i	0x1000 }
	{ (p18) nop; nop; epc }
	{ nop; Invalid; break.i	0x1000 }
	{ (p41) invala; nop; epc }
	{ (p51) nop; Invalid; nop }
	{ (p62) nop; break.x	0x80C2600C01000 }
	{ (p44) nop; nop; zxt1	r96,r64 }
	{ nop; Invalid; break.i	0x1000 }
	{ (p26) nop; nop; zxt1	r32,r64 }
	{ (p52) nop; invala; (p16) rfi }
	{ nop; cmp.lt	p00,p00,r32,r0; zxt4	r59,r16 }
	{ invala; Invalid; break.i	0x1000 }
	{ (p19) nop; (p05) nop; zxt1	r96,r64 }
	{ (p50) nop; nop; epc }
	{ nop; Invalid; break.i	0x1000 }
	{ (p22) nop; nop; epc }
	{ nop; Invalid; break.i	0x1000 }
	{ (p15) nop; zxt1	r64,r64; break.b	0x1000 }
	{ (p21) nop; (p01) nop; cmp.eq.unc	p32,p16,r11,r64 }
	{ Invalid; break.m	0x1000; (p16) break.f	0x2A80B; }
	{ (p22) nop; add	r0,r32,r0; (p01) shladd	r64,r11,0x1,r64 }
	{ nop; ldfe	f0,[r0]; Invalid }
	{ invala; cmp.lt	p00,p00,r32,r0; czx1.r	r96,r97 }
	{ (p55) nop; nop; (p04) rfi }
	{ invala; cmp.eq	p00,p00,r32,r0; czx1.r	r96,r97 }
	{ (p19) nop; nop; (p04) rfi }
	{ Invalid; cmp.eq	p00,p00,r32,r0; czx1.r	r96,r97 }
	{ (p16) nop; break.i	0x1000; break.i	0x1000 }
	{ nop; break.i	0x1000; break.i	0x1000 }
	{ cmp.lt	p00,p08,r1,r0; (p52) cmp.lt	p02,p02,r2,r96; (p01) nop }

;; redirection_error: 40000000000E0E00
redirection_error proc
	{ alloc	r38,ar.pfs,0xB,0x0,0x8; adds	r14,0x10,r32; mov	r37,b5 }
	{ adds	r39,0x0,r1; ld4	r14,[r14]; nop.i	0x0; }
	{ nop.m	0x0; tbit.z	p06,p07,r14,0x0; adds	r14,0x8,r32 }
	{ nop.m	0x0; nop.m	0x0; (p07) br.cond.dpnt.few	40000000000E10B0; }

l40000000000E0E40:
	{ ld4	r40,[r14]; nop.m	0x0; adds	r14,0x18,r32; }
	{ cmp4.lt	p07,p06,r40,r0; nop.i	0x0; (p07) br.cond.dpnt.few	40000000000E1570; }

l40000000000E0E60:
	{ ld4	r14,[r14]; cmp4.eq	p07,p06,0x9,r33; (p07) br.cond.dpnt.few	40000000000E1400; }

l40000000000E0E70:
	{ nop.m	0x0; cmp4.ltu	p06,p07,0x13,r14; (p07) br.cond.dptk.few	40000000000E0F90 }

l40000000000E0E80:
	{ adds	r32,0x20,r32; ld4	r40,[r32]; nop.i	0x0; }
	{ cmp4.lt	p06,p07,r40,r0; sxt4	r40,r40; (p06) br.cond.dpnt.few	40000000000E1220; }

l40000000000E0EA0:
	{ nop.m	0x0; nop.i	0x0; br.call.sptk.many	b0,itos; }
	{ adds	r1,0x0,r39; adds	r34,0x0,r8; adds	r35,0x0,r8 }
	{ nop.m	0x0; adds	r14,0x5,r33; nop.i	0x0; }
	{ nop.m	0x0; cmp4.ltu	p06,p07,0x4,r14; (p07) br.cond.dptk.few	40000000000E1060; }

l40000000000E0EE0:
	{ adds	r40,0x0,r33; nop.i	0x0; br.call.sptk.many	b0,400000000001B4A0; }
	{ adds	r1,0x0,r39; adds	r41,0x0,r35; adds	r42,0x0,r8; }
	{ addl	r40,-9044,r1; nop.i	0x0; nop.i	0x0 }
	{ ld8	r40,[r40]; nop.m	0x0; br.call.sptk.many	b0,internal_error; }
	{ adds	r1,0x0,r39; nop.m	0x0; nop.i	0x0; }
	{ nop.m	0x0; nop.m	0x0; nop.i	0x0 }

l40000000000E0F40:
	{ cmp.eq	p06,p07,0x0,r34; adds	r40,0x0,r34; (p06) br.cond.dpnt.few	40000000000E0F70; }

l40000000000E0F50:
	{ nop.m	0x0; nop.i	0x0; br.call.sptk.many	b0,400000000001A7E0; }
	{ adds	r1,0x0,r39; nop.m	0x0; nop.i	0x0 }

l40000000000E0F70:
	{ nop.m	0x0; mov.i	ar.pfs,r38; nop.i	0x0; }
	{ nop.m	0x0; mov.spnt	b0,r37,40000000000E0F80; br.ret	b0 }

l40000000000E0F90:
	{ addl	r15,1,r0; sxt4	r14,r14; shl	r14,r15,r14 }
	{ addl	r15,949263,r0; and	r14,r15,r14; nop.i	0x0; }
	{ nop.m	0x0; cmp.eq	p07,p06,0x0,r14; (p07) br.cond.dptk.few	40000000000E0E80 }

l40000000000E0FC0:
	{ addl	r35,6456,r1; nop.m	0x0; nop.i	0x0; }
	{ nop.m	0x0; ld4	r14,[r35]; nop.i	0x0; }
	{ nop.m	0x0; cmp4.eq	p07,p06,0x0,r14; (p06) br.cond.dptk.few	40000000000E1180; }

l40000000000E0FF0:
	{ (p07) adds	r32,0x20,r32; nop.m	0x0; nop.i	0x0; }

l40000000000E0FF6:
	{ break.m	0x4000; nop; nop }
	{ break.m	0x4000; (p32) nop; (p32) nop }

l40000000000E1012:
	{ (p48) invala; Invalid; Invalid }

l40000000000E1018:
	{ (p04) sum	0x80840; (p01) break.f	0x11840; nop }

l40000000000E101E:
	{ (p32) break.m	0x230; Invalid; (p28) chk.s.i	r63,40000000002E119E }

l40000000000E1024:
	{ nop; (p12) break.i	0x2003F; (p04) deposit	r90,r0,r7,47,0; }

l40000000000E1030:
	{ cmp.eq	p07,p06,0x0,r34; (p07) ld8	r14,[r32]; nop.i	0x0; }

l40000000000E103C:
	{ setf.s	f0,r1; (p04) cmp.lt.unc	p00,p08,r3,r6; (p17) mov	pr,r8,0x8442 }

l40000000000E1048:
	{ (p04) nop; (p08) nop }

l40000000000E104E:
	{ Invalid; Invalid; Invalid }
	{ Invalid; Invalid; Invalid }

l40000000000E1060:
	{ addl	r15,-9028,r1; addp4	r14,r14,r0; addl	r42,5,r0 }
	{ adds	r40,0x0,r0; ld8	r15,[r15]; nop.i	0x0; }
	{ shladd	r14,r14,0x3,r15; ld8	r15,[r14]; nop.i	0x0; }
	{ nop.m	0x0; add	r14,r14,r15; nop.i	0x0; }
	{ nop.m	0x0; mov.spnt	b6,r14,40000000000E10A0; br.cond	b6; }

l40000000000E10B0:
	{ adds	r32,0x8,r32; nop.m	0x0; adds	r34,0x0,r0; }
	{ nop.m	0x0; ld8	r14,[r32]; nop.i	0x0; }
	{ ld8	r40,[r14]; nop.i	0x0; br.call.sptk.many	b0,400000000001B6C0; }
	{ adds	r1,0x0,r39; adds	r40,0x1,r8; br.call.sptk.many	b0,xmalloc; }
	{ ld8	r14,[r32]; adds	r1,0x0,r39; adds	r40,0x0,r8; }
	{ ld8	r41,[r14]; nop.i	0x0; br.call.sptk.many	b0,400000000001B180; }
	{ adds	r14,0x5,r33; adds	r1,0x0,r39; adds	r35,0x0,r8; }
	{ nop.m	0x0; cmp4.ltu	p06,p07,0x4,r14; (p06) br.cond.dptk.few	40000000000E0EE0 }

l40000000000E1130:
	{ nop.m	0x0; nop.i	0x0; br.cond.sptk.few	40000000000E1060 }
40000000000E1140 0B 70 C0 03 32 24 00 00 00 02 00 00 00 00 04 00 .p..2$..........
40000000000E1150 0B 70 00 1C 10 10 70 00 38 0C 73 00 00 00 04 00 .p....p.8.s.....
40000000000E1160 EB 70 00 40 18 D0 E1 40 38 00 42 00 00 00 04 00 .p.@...@8.B.....
40000000000E1170 F0 00 90 1C 90 11 00 00 00 02 00 00 C0 FE FF 48 ...............H

l40000000000E1180:
	{ addl	r14,6512,r1; nop.m	0x0; adds	r32,0x20,r32; }
	{ nop.m	0x0; ld8.a	r40,[r32]; nop.i	0x0; }
	{ ld4	r14,[r14]; cmp4.eq	p07,p06,0x0,r14; nop.i	0x0; }
	{ (p07) ld8	r14,[r32]; (p07) adds	r14,0x8,r14; nop.i	0x0; }

l40000000000E11B6:
	{ Invalid; cmp4.ltu	p00,p00,0x0,r1; (p01) cmp.ltu	p09,p04,r64,r3; }
	{ Invalid; nop; Invalid; }
	{ mf.a; nop; nop; }
	{ break.m	0x4000; (p32) nop; (p32) nop }
	{ Invalid; (p17) nop; break.b	0x80000 }
	{ (p03) chk.a.clr	r0,3FFFFFFFFFDA4AE6; nop; break.i	0x80000 }
	{ break.m	0x4000; nop; (p48) nop }

l40000000000E1220:
	{ addl	r35,-9092,r1; adds	r14,0x5,r33; adds	r34,0x0,r0; }
	{ ld8	r35,[r35]; cmp4.ltu	p06,p07,0x4,r14; (p06) br.cond.dptk.few	40000000000E0EE0 }

l40000000000E1240:
	{ nop.m	0x0; nop.i	0x0; br.cond.sptk.few	40000000000E1060 }
40000000000E1250 09 00 00 00 01 00 90 62 F4 73 4F 00 00 00 04 00 .......b.sO.....
40000000000E1260 11 48 01 52 18 10 00 00 00 02 00 00 08 99 F3 58 .H.R...........X
40000000000E1270 08 08 00 4E 00 21 00 00 00 02 00 00 05 40 00 84 ...N.!.......@..
40000000000E1280 19 48 01 46 00 21 00 00 00 02 00 00 08 FE F8 58 .H.F.!.........X
40000000000E1290 11 00 00 00 01 00 10 00 9C 00 42 00 B0 FC FF 48 ..........B....H
40000000000E12A0 09 00 00 00 01 00 90 A2 F4 73 4F 00 00 00 04 00 .........sO.....
40000000000E12B0 11 48 01 52 18 10 00 00 00 02 00 00 B8 98 F3 58 .H.R...........X
40000000000E12C0 08 08 00 4E 00 21 00 00 00 02 00 00 05 40 00 84 ...N.!.......@..
40000000000E12D0 19 48 01 46 00 21 00 00 00 02 00 00 B8 FD F8 58 .H.F.!.........X
40000000000E12E0 11 00 00 00 01 00 10 00 9C 00 42 00 60 FC FF 48 ..........B.`..H
40000000000E12F0 09 00 00 00 01 00 90 E2 F4 73 4F 00 00 00 04 00 .........sO.....
40000000000E1300 11 48 01 52 18 10 00 00 00 02 00 00 68 98 F3 58 .H.R........h..X
40000000000E1310 03 08 00 4E 00 21 30 02 20 00 42 C0 C1 0E 00 91 ...N.!0. .B.....
40000000000E1320 11 40 01 1C 10 10 00 00 00 02 00 00 88 A1 F3 58 .@.............X
40000000000E1330 08 08 00 4E 00 21 00 00 00 02 00 00 05 18 01 84 ...N.!..........
40000000000E1340 19 48 01 10 00 21 00 00 00 02 00 00 48 FD F8 58 .H...!......H..X
40000000000E1350 11 00 00 00 01 00 10 00 9C 00 42 00 F0 FB FF 48 ..........B....H
40000000000E1360 09 00 00 00 01 00 90 22 F5 73 4F 00 00 00 04 00 .......".sO.....
40000000000E1370 11 48 01 52 18 10 00 00 00 02 00 00 F8 97 F3 58 .H.R...........X
40000000000E1380 08 08 00 4E 00 21 00 00 00 02 00 00 05 40 00 84 ...N.!.......@..
40000000000E1390 19 48 01 46 00 21 00 00 00 02 00 00 F8 FC F8 58 .H.F.!.........X
40000000000E13A0 11 00 00 00 01 00 10 00 9C 00 42 00 A0 FB FF 48 ..........B....H
40000000000E13B0 09 00 00 00 01 00 90 22 F4 73 4F 00 00 00 04 00 .......".sO.....
40000000000E13C0 11 48 01 52 18 10 00 00 00 02 00 00 A8 97 F3 58 .H.R...........X
40000000000E13D0 08 08 00 4E 00 21 00 00 00 02 00 00 05 40 00 84 ...N.!.......@..
40000000000E13E0 19 48 01 46 00 21 00 00 00 02 00 00 A8 FC F8 58 .H.F.!.........X
40000000000E13F0 10 00 00 00 01 00 10 00 9C 00 42 00 50 FB FF 48 ..........B.P..H

l40000000000E1400:
	{ nop.m	0x0; cmp4.ltu	p06,p07,0x10,r14; (p06) br.cond.dptk.few	40000000000E1500 }

l40000000000E1410:
	{ addl	r15,1,r0; sxt4	r14,r14; shl	r14,r15,r14 }
	{ addl	r15,98496,r0; and	r15,r15,r14; nop.i	0x0; }
	{ nop.m	0x0; cmp.eq	p07,p06,0x0,r15; (p06) br.cond.dptk.few	40000000000E14E0; }

l40000000000E1440:
	{ nop.m	0x0; tbit.z	p07,p06,r14,0xE; (p06) br.cond.dptk.few	40000000000E15D0; }

l40000000000E1450:
	{ nop.m	0x0; tbit.z	p07,p06,r14,0xD; (p07) br.cond.dptk.few	40000000000E1500; }

l40000000000E1460:
	{ nop.m	0x0; cmp4.eq	p07,p06,0x0,r40; (p06) br.cond.dpnt.few	40000000000E1500 }

l40000000000E1470:
	{ adds	r32,0x20,r32; adds	r40,0x0,r33; adds	r34,0x0,r0; }
	{ nop.m	0x0; ld8	r14,[r32]; nop.i	0x0; }
	{ ld8	r35,[r14]; nop.i	0x0; br.call.sptk.many	b0,400000000001B4A0; }
	{ adds	r1,0x0,r39; adds	r41,0x0,r35; adds	r42,0x0,r8; }
	{ nop.m	0x0; addl	r40,-9044,r1; nop.i	0x0; }
	{ ld8	r40,[r40]; nop.i	0x0; br.call.sptk.many	b0,internal_error; }
	{ nop.m	0x0; adds	r1,0x0,r39; br.cond.sptk.few	40000000000E0F40 }

l40000000000E14E0:
	{ nop.m	0x0; adds	r32,0x20,r32; nop.i	0x0; }
	{ ld4	r40,[r32]; nop.m	0x0; nop.i	0x0; }

l40000000000E1500:
	{ nop.m	0x0; sxt4	r40,r40; br.call.sptk.many	b0,itos; }
	{ adds	r1,0x0,r39; adds	r34,0x0,r8; adds	r35,0x0,r8 }

l40000000000E1520:
	{ adds	r40,0x0,r33; nop.i	0x0; br.call.sptk.many	b0,400000000001B4A0; }
	{ adds	r1,0x0,r39; adds	r41,0x0,r35; adds	r42,0x0,r8; }
	{ nop.m	0x0; addl	r40,-9044,r1; nop.i	0x0; }
	{ ld8	r40,[r40]; nop.i	0x0; br.call.sptk.many	b0,internal_error; }
	{ nop.m	0x0; adds	r1,0x0,r39; br.cond.sptk.few	40000000000E0F40; }

l40000000000E1570:
	{ addl	r41,-9092,r1; nop.m	0x0; adds	r40,0x0,r0 }
	{ addl	r42,5,r0; nop.m	0x0; adds	r34,0x0,r0; }
	{ ld8	r41,[r41]; nop.i	0x0; br.call.sptk.many	b0,400000000001AB60; }
	{ adds	r14,0x5,r33; adds	r1,0x0,r39; adds	r35,0x0,r8; }
	{ nop.m	0x0; cmp4.ltu	p06,p07,0x4,r14; (p06) br.cond.dptk.few	40000000000E0EE0 }

l40000000000E15C0:
	{ nop.m	0x0; nop.i	0x0; br.cond.sptk.few	40000000000E1060; }

l40000000000E15D0:
	{ cmp4.eq	p06,p07,0x1,r40; sxt4	r40,r40; (p06) br.cond.dpnt.few	40000000000E1470; }

l40000000000E15E0:
	{ nop.m	0x0; nop.i	0x0; br.call.sptk.many	b0,itos; }
	{ nop.m	0x0; adds	r1,0x0,r39; adds	r34,0x0,r8 }
	{ nop.m	0x0; adds	r35,0x0,r8; br.cond.sptk.few	40000000000E1520; }
40000000000E1610 08 00 00 00 01 00 00 00 00 02 00 00 00 00 04 00 ................
40000000000E1620 08 00 00 00 01 00 00 00 00 02 00 00 00 00 04 00 ................
40000000000E1630 08 00 00 00 01 00 00 00 00 02 00 00 00 00 04 00 ................

;; do_redirections: 40000000000E1640
do_redirections proc
	{ alloc	r37,ar.pfs,0x9,0x0,0x7; adds	r12,0xFFFFFFFFFFFFFFF0,r12; mov	r36,b4 }
	{ addl	r35,7068,r1; adds	r38,0x0,r1; adds	r34,0x0,r32; }
	{ nop.m	0x0; tbit.z	p07,p06,r33,0x1; (p07) br.cond.dptk.few	40000000000E1700; }

l40000000000E1670:
	{ nop.m	0x0; ld8	r14,[r35]; nop.i	0x0; }
	{ cmp.eq	p06,p07,0x0,r14; adds	r39,0x0,r14; (p06) br.cond.dpnt.few	40000000000E16B0; }

l40000000000E1690:
	{ nop.m	0x0; nop.i	0x0; br.call.sptk.many	b0,dispose_redirects; }
	{ adds	r1,0x0,r38; st8	[r0],r35; nop.i	0x0; }

l40000000000E16B0:
	{ addl	r14,7060,r1; nop.m	0x0; nop.i	0x0; }
	{ nop.m	0x0; ld8	r14,[r14]; nop.i	0x0; }
	{ cmp.eq	p06,p07,0x0,r14; nop.i	0x0; (p06) br.cond.dpnt.few	40000000000E1700; }

l40000000000E16E0:
	{ nop.m	0x0; nop.i	0x0; br.call.sptk.many	b0,dispose_exec_redirects; }
	{ adds	r1,0x0,r38; nop.m	0x0; nop.i	0x0 }

l40000000000E1700:
	{ nop.m	0x0; cmp.eq	p07,p06,0x0,r32; (p07) br.cond.dpnt.few	40000000000E1760; }

l40000000000E1710:
	{ nop.m	0x0; nop.m	0x0; nop.i	0x0 }

l40000000000E1720:
	{ adds	r39,0x0,r34; adds	r40,0x0,r33; br.call.sptk.many	b0,40000000000DE580; }
	{ adds	r1,0x0,r38; cmp4.eq	p06,p07,0x0,r8; (p07) br.cond.dpnt.few	40000000000E1780; }

l40000000000E1740:
	{ nop.m	0x0; ld8	r34,[r34]; nop.i	0x0; }
	{ nop.m	0x0; cmp.eq	p07,p06,0x0,r34; (p06) br.cond.dptk.few	40000000000E1720 }

l40000000000E1760:
	{ adds	r8,0x0,r0; mov.i	ar.pfs,r37; mov.spnt	b0,r36,40000000000E1760 }
	{ nop.m	0x0; adds	r12,0x10,r12; br.ret	b0; }

l40000000000E1780:
	{ adds	r14,0x10,r12; adds	r40,0x0,r8; adds	r39,0x0,r34; }
	{ st8	[r8],r14; nop.i	0x0; br.call.sptk.many	b0,redirection_error; }
	{ adds	r14,0x10,r12; nop.m	0x0; adds	r1,0x0,r38; }
	{ ld8	r8,[r14]; mov.i	ar.pfs,r37; mov.spnt	b0,r36,40000000000E17B0 }
	{ nop.m	0x0; adds	r12,0x10,r12; br.ret	b0; }
40000000000E17D0 08 00 00 00 01 00 00 00 00 02 00 00 00 00 04 00 ................
40000000000E17E0 08 00 00 00 01 00 00 00 00 02 00 00 00 00 04 00 ................
40000000000E17F0 08 00 00 00 01 00 00 00 00 02 00 00 00 00 04 00 ................

;; stdin_redirects: 40000000000E1800
stdin_redirects proc
	{ adds	r8,0x0,r0; addl	r19,1,r0; addl	r20,2358,r0 }
	{ addl	r21,8768,r0; adds	r14,0x0,r32; cmp.eq	p06,p07,0x0,r32; }
	{ nop.m	0x0; nop.i	0x0; (p06) br.cond.dpnt.few	40000000000E1960; }

l40000000000E1830:
	{ nop.m	0x0; nop.m	0x0; nop.i	0x0 }

l40000000000E1840:
	{ adds	r15,0x10,r14; adds	r17,0x18,r14; adds	r16,0x8,r14; }
	{ nop.m	0x0; ld4	r15,[r15]; nop.i	0x0; }
	{ nop.m	0x0; tbit.z	p07,p06,r15,0x0; (p06) br.cond.dptk.few	40000000000E1910 }

l40000000000E1870:
	{ ld4	r15,[r17]; ld4	r17,[r16]; nop.i	0x0; }
	{ nop.m	0x0; sxt4	r16,r15; nop.i	0x0 }
	{ cmp4.ltu	p06,p07,0xD,r15; nop.m	0x0; (p06) br.cond.dptk.few	40000000000E1940; }

l40000000000E18A0:
	{ nop.m	0x0; shl	r16,r19,r16; addl	r15,1,r0; }
	{ and	r18,r20,r16; nop.m	0x0; and	r16,r21,r16; }
	{ nop.m	0x0; cmp.eq	p07,p06,0x0,r18; (p06) br.cond.dptk.few	40000000000E1900; }

l40000000000E18D0:
	{ cmp4.eq	p06,p07,0x0,r17; cmp.eq	p09,p08,0x0,r16; (p09) br.cond.dptk.few	40000000000E1940; }

l40000000000E18E0:
	{ nop.m	0x0; (p06) addl	r17,1,r0; nop.i	0x0; }

l40000000000E18EC:
	{ nop; zxt1	r0,r64; cmp.eq	p00,p00,r32,r0 }
	{ nop; zxt1	r98,r0; break.i	0x1000; }

l40000000000E1900:
	{ add	r8,r8,r15; nop.m	0x0; nop.i	0x0 }

l40000000000E1910:
	{ nop.m	0x0; ld8	r14,[r14]; nop.i	0x0; }
	{ nop.m	0x0; cmp.eq	p07,p06,0x0,r14; (p06) br.cond.dptk.few	40000000000E1840 }

l40000000000E1930:
	{ nop.m	0x0; nop.i	0x0; br.ret	b0 }

l40000000000E1940:
	{ nop.m	0x0; adds	r15,0x0,r0; nop.i	0x0; }
	{ nop.m	0x0; add	r8,r8,r15; br.cond.sptk.few	40000000000E1910; }

l40000000000E1960:
	{ nop.m	0x0; adds	r8,0x0,r0; br.ret	b0; }
40000000000E1970 00 30 00 00 01 00 70 00 00 02 00 00 01 00 04 00 .0....p.........
40000000000E1980 08 20 21 0E 80 05 F0 A0 F4 AD 4E C0 04 08 CA 00 . !.......N.....
40000000000E1990 09 00 00 00 01 00 50 02 04 00 42 00 00 00 04 00 ......P...B.....
40000000000E19A0 09 00 00 00 01 00 10 02 00 00 42 60 04 00 C4 00 ..........B`....
40000000000E19B0 09 00 00 00 01 00 E0 00 3C 30 20 00 00 00 04 00 ........<0 .....
40000000000E19C0 11 00 00 00 01 00 60 00 38 0E 72 03 30 01 00 43 ......`.8.r.0..C
40000000000E19D0 08 00 00 00 01 00 00 00 00 02 00 00 00 00 04 00 ................
40000000000E19E0 0B 08 05 42 00 21 00 00 00 02 00 40 04 08 59 00 ...B.!.....@..Y.
40000000000E19F0 0B 70 88 1E 13 20 E0 00 38 30 20 00 00 00 04 00 .p... ..80 .....
40000000000E1A00 10 00 00 00 01 00 70 00 38 0C 72 03 E0 FF FF 4A ......p.8.r....J
40000000000E1A10 11 38 01 42 00 21 00 00 00 02 00 00 38 D1 04 50 .8.B.!......8..P
40000000000E1A20 09 08 00 4A 00 21 00 F9 87 7E 46 C0 01 00 00 84 ...J.!...~F.....
40000000000E1A30 09 78 50 FA 56 27 00 00 00 02 00 00 02 01 20 80 .xP.V'........ .
40000000000E1A40 09 00 00 00 01 00 00 00 00 02 00 00 00 09 AA 00 ................
40000000000E1A50 08 00 00 00 01 00 00 00 00 02 00 00 00 00 04 00 ................
40000000000E1A60 09 80 00 10 18 10 10 81 3C 30 28 00 00 00 04 00 ........<0(.....
40000000000E1A70 09 80 40 1C 00 20 00 00 00 02 00 C0 81 70 00 84 ..@.. .......p..
40000000000E1A80 10 00 44 20 98 11 00 00 00 02 00 A0 E0 FF FF 48 ..D ...........H
40000000000E1A90 18 70 00 10 00 21 F0 00 80 20 20 00 00 00 00 20 .p...!...  .... 
40000000000E1AA0 09 10 89 00 12 20 00 00 00 02 00 00 40 02 AA 00 ..... ......@...
40000000000E1AB0 09 80 30 1C 18 14 F0 00 3D 5C 40 00 60 0A AA 00 ..0.....=\@.`...
40000000000E1AC0 09 10 41 44 00 20 00 08 39 20 23 00 30 0A 00 07 ..AD. ..9 #.0...
40000000000E1AD0 09 00 00 44 98 11 00 79 80 20 2B 00 00 00 04 00 ...D...y. +.....
40000000000E1AE0 11 00 20 40 98 11 80 00 00 00 42 80 08 00 84 00 .. @......B.....
40000000000E1AF0 08 38 01 00 00 21 00 00 00 02 00 40 04 00 00 84 .8...!.....@....
40000000000E1B00 19 08 01 00 00 21 00 00 00 02 00 00 48 D0 04 50 .....!......H..P
40000000000E1B10 18 70 00 10 00 21 F0 00 80 20 20 00 00 00 00 20 .p...!...  .... 
40000000000E1B20 09 08 00 4A 00 21 00 00 00 02 00 00 40 02 AA 00 ...J.!......@...
40000000000E1B30 09 80 30 1C 18 14 F0 00 3D 5C 40 00 60 0A AA 00 ..0.....=\@.`...
40000000000E1B40 09 10 41 44 00 20 00 08 39 20 23 00 30 0A 00 07 ..AD. ..9 #.0...
40000000000E1B50 09 00 00 44 98 11 00 79 80 20 2B 00 00 00 04 00 ...D...y. +.....
40000000000E1B60 11 00 20 40 98 11 80 00 00 00 42 80 08 00 84 00 .. @......B.....
40000000000E1B70 08 00 00 00 01 00 00 00 00 02 00 00 00 00 04 00 ................
40000000000E1B80 08 18 19 0A 80 05 10 62 04 60 48 40 04 00 C4 00 .......b.`H@....
40000000000E1B90 0B 20 01 02 00 21 00 00 00 02 00 00 00 00 04 00 . ...!..........
40000000000E1BA0 11 28 01 42 10 10 00 00 00 02 00 00 A8 CF 04 50 .(.B...........P
40000000000E1BB0 08 78 00 42 10 10 10 00 90 00 42 C0 01 00 00 84 .x.B......B.....
40000000000E1BC0 02 80 00 00 00 21 60 01 20 00 42 A0 F2 7F FC 8C .....!`. .B.....
40000000000E1BD0 19 A0 50 02 30 24 70 00 3C 0C 63 03 50 01 00 43 ..P.0$p.<.c.P..C
40000000000E1BE0 09 A8 54 00 08 20 00 00 00 02 00 00 00 00 04 00 ..T.. ..........
40000000000E1BF0 09 00 00 00 01 00 50 09 54 00 42 00 00 00 04 00 ......P.T.B.....
40000000000E1C00 03 A8 54 2A 10 20 00 00 00 02 00 A0 52 01 4C 80 ..T*. ......R.L.
40000000000E1C10 08 00 00 00 01 00 00 00 00 02 00 00 00 00 04 00 ................
40000000000E1C20 02 78 00 28 18 10 30 01 40 2C 00 E0 F1 70 00 80 .x.(..0.@,...p..
40000000000E1C30 0A 70 C0 1C 00 21 10 41 3C 00 42 40 02 79 00 84 .p...!.A<.B@.y..
40000000000E1C40 0B 38 54 1C 06 38 10 01 44 30 20 00 00 00 04 00 .8T..8..D0 .....
40000000000E1C50 11 40 00 22 09 39 00 00 00 02 00 04 50 00 00 43 .@.".9......P..C
40000000000E1C60 0B 88 00 24 10 10 00 00 00 02 00 00 01 88 24 50 ...$..........$P
40000000000E1C70 08 00 00 00 01 40 12 01 58 30 A0 04 12 80 00 84 .....@..X0......
40000000000E1C80 23 79 00 1E 18 10 00 00 00 02 80 64 32 89 48 80 #y.........d2.H.
40000000000E1C90 28 01 3C 26 98 11 00 00 00 02 00 00 00 00 04 00 (.<&............
40000000000E1CA0 10 00 00 00 01 00 00 00 00 02 00 03 80 FF FF 4A ...............J
40000000000E1CB0 18 70 00 2C 00 21 F0 00 80 20 20 00 00 00 00 20 .p.,.!...  .... 
40000000000E1CC0 01 40 00 00 00 21 00 18 01 55 00 20 02 80 58 00 .@...!...U. ..X.
40000000000E1CD0 18 90 30 1C 18 14 10 89 00 24 40 00 00 00 00 20 ..0......$@.... 
40000000000E1CE0 09 78 80 1E 2E 20 00 00 00 02 00 00 20 0A 00 07 .x... ...... ...
40000000000E1CF0 09 88 48 22 00 20 00 80 38 20 23 00 00 00 04 00 ..H". ..8 #.....
40000000000E1D00 09 00 00 22 98 11 00 79 80 20 2B 00 00 00 04 00 ..."...y. +.....
40000000000E1D10 10 00 58 40 98 11 00 00 00 02 00 80 08 00 84 00 ..X@............
40000000000E1D20 08 70 00 2C 00 21 F0 00 80 20 20 00 30 02 AA 00 .p.,.!...  .0...
40000000000E1D30 09 88 00 00 00 21 00 01 00 00 42 00 01 00 00 84 .....!....B.....
40000000000E1D40 09 90 30 1C 18 14 F0 00 3D 5C 40 00 20 0A 00 07 ..0.....=\@. ...
40000000000E1D50 09 88 48 22 00 20 00 80 38 20 23 00 00 00 04 00 ..H". ..8 #.....
40000000000E1D60 09 00 00 22 98 11 00 79 80 20 2B 00 00 00 04 00 ..."...y. +.....
40000000000E1D70 11 00 58 40 98 11 00 00 00 02 00 80 08 00 84 00 ..X@............
40000000000E1D80 08 18 19 0A 80 05 10 62 04 60 48 40 04 00 C4 00 .......b.`H@....
40000000000E1D90 0B 20 01 02 00 21 00 00 00 02 00 00 00 00 04 00 . ...!..........
40000000000E1DA0 11 28 01 42 10 10 00 00 00 02 00 00 A8 CD 04 50 .(.B...........P
40000000000E1DB0 08 78 00 42 10 10 10 00 90 00 42 C0 01 00 00 84 .x.B......B.....
40000000000E1DC0 02 80 00 00 00 21 60 01 20 00 42 A0 F2 7F FC 8C .....!`. .B.....
40000000000E1DD0 19 A0 50 02 30 24 70 00 3C 0C 63 03 50 01 00 43 ..P.0$p.<.c.P..C
40000000000E1DE0 09 A8 54 00 08 20 00 00 00 02 00 00 00 00 04 00 ..T.. ..........
40000000000E1DF0 09 00 00 00 01 00 50 09 54 00 42 00 00 00 04 00 ......P.T.B.....
40000000000E1E00 03 A8 54 2A 10 20 00 00 00 02 00 A0 52 01 4C 80 ..T*. ......R.L.
40000000000E1E10 08 00 00 00 01 00 00 00 00 02 00 00 00 00 04 00 ................
40000000000E1E20 02 78 00 28 18 10 30 01 40 2C 00 E0 F1 70 00 80 .x.(..0.@,...p..
40000000000E1E30 0A 70 C0 1C 00 21 10 41 3C 00 42 40 02 79 00 84 .p...!.A<.B@.y..
40000000000E1E40 0B 38 54 1C 06 38 10 01 44 30 20 00 00 00 04 00 .8T..8..D0 .....
40000000000E1E50 11 40 00 22 09 39 00 00 00 02 00 04 50 00 00 43 .@.".9......P..C
40000000000E1E60 0B 88 00 24 10 10 00 00 00 02 00 20 01 88 20 50 ...$....... .. P
40000000000E1E70 08 00 00 00 01 40 12 01 58 30 A0 04 12 80 00 84 .....@..X0......
40000000000E1E80 23 79 00 1E 18 10 00 00 00 02 80 64 32 89 48 80 #y.........d2.H.
40000000000E1E90 28 01 3C 26 98 11 00 00 00 02 00 00 00 00 04 00 (.<&............
40000000000E1EA0 10 00 00 00 01 00 00 00 00 02 00 03 80 FF FF 4A ...............J
40000000000E1EB0 18 70 00 2C 00 21 F0 00 80 20 20 00 00 00 00 20 .p.,.!...  .... 
40000000000E1EC0 01 40 00 00 00 21 00 18 01 55 00 20 02 80 58 00 .@...!...U. ..X.
40000000000E1ED0 18 90 30 1C 18 14 10 89 00 24 40 00 00 00 00 20 ..0......$@.... 
40000000000E1EE0 09 78 80 1E 2E 20 00 00 00 02 00 00 20 0A 00 07 .x... ...... ...
40000000000E1EF0 09 88 48 22 00 20 00 80 38 20 23 00 00 00 04 00 ..H". ..8 #.....
40000000000E1F00 09 00 00 22 98 11 00 79 80 20 2B 00 00 00 04 00 ..."...y. +.....
40000000000E1F10 10 00 58 40 98 11 00 00 00 02 00 80 08 00 84 00 ..X@............
40000000000E1F20 08 70 00 2C 00 21 F0 00 80 20 20 00 30 02 AA 00 .p.,.!...  .0...
40000000000E1F30 09 88 00 00 00 21 00 01 00 00 42 00 01 00 00 84 .....!....B.....
40000000000E1F40 09 90 30 1C 18 14 F0 00 3D 5C 40 00 20 0A 00 07 ..0.....=\@. ...
40000000000E1F50 09 88 48 22 00 20 00 80 38 20 23 00 00 00 04 00 ..H". ..8 #.....
40000000000E1F60 09 00 00 22 98 11 00 79 80 20 2B 00 00 00 04 00 ..."...y. +.....
40000000000E1F70 11 00 58 40 98 11 00 00 00 02 00 80 08 00 84 00 ..X@............
40000000000E1F80 08 18 19 0A 80 05 10 62 04 60 48 40 04 00 C4 00 .......b.`H@....
40000000000E1F90 0B 20 01 02 00 21 00 00 00 02 00 00 00 00 04 00 . ...!..........
40000000000E1FA0 11 28 01 42 10 10 00 00 00 02 00 00 A8 CB 04 50 .(.B...........P
40000000000E1FB0 08 80 00 42 10 10 10 00 90 00 42 C0 01 00 00 84 ...B......B.....
40000000000E1FC0 02 78 00 00 00 21 30 01 20 00 42 A0 F2 87 FC 8C .x...!0. .B.....
40000000000E1FD0 19 A0 50 02 30 24 70 00 40 0C 63 03 20 01 00 43 ..P.0$p.@.c. ..C
40000000000E1FE0 09 A8 54 00 08 20 00 00 00 02 00 00 00 00 04 00 ..T.. ..........
40000000000E1FF0 09 00 00 00 01 00 50 09 54 00 42 00 00 00 04 00 ......P.T.B.....
40000000000E2000 03 A8 54 2A 10 20 00 00 00 02 00 A0 52 01 4C 80 ..T*. ......R.L.
40000000000E2010 08 00 00 00 01 00 00 00 00 02 00 00 00 00 04 00 ................
40000000000E2020 02 80 00 28 18 10 20 01 3C 2C 00 00 02 71 00 80 ...(.. .<,...q..
40000000000E2030 0B 70 C0 1C 00 21 10 41 40 00 42 E0 50 71 18 E0 .p...!.A@.B.Pq..
40000000000E2040 0B 88 00 22 18 10 80 00 44 12 72 00 00 00 04 00 ..."....D.r.....
40000000000E2050 08 00 00 00 01 40 12 01 4C 30 A0 E4 11 78 00 84 .....@..L0...x..
40000000000E2060 2B 81 00 20 18 50 22 91 44 24 40 00 00 00 04 00 +.. .P".D$@.....
40000000000E2070 30 01 40 24 98 11 00 00 00 02 00 03 B0 FF FF 4A 0.@$...........J
40000000000E2080 18 70 00 26 00 21 00 01 80 20 20 00 00 00 00 20 .p.&.!...  .... 
40000000000E2090 01 40 00 00 00 21 00 18 01 55 00 20 02 78 58 00 .@...!...U. .xX.
40000000000E20A0 18 90 30 1C 18 14 10 89 00 24 40 00 00 00 00 20 ..0......$@.... 
40000000000E20B0 09 80 80 20 2E 20 00 00 00 02 00 00 20 0A 00 07 ... . ...... ...
40000000000E20C0 09 88 48 22 00 20 00 78 38 20 23 00 00 00 04 00 ..H". .x8 #.....
40000000000E20D0 09 00 00 22 98 11 00 81 80 20 2B 00 00 00 04 00 ..."..... +.....
40000000000E20E0 10 00 4C 40 98 11 00 00 00 02 00 80 08 00 84 00 ..L@............
40000000000E20F0 08 70 00 26 00 21 00 01 80 20 20 00 30 02 AA 00 .p.&.!...  .0...
40000000000E2100 09 88 00 00 00 21 F0 00 00 00 42 00 01 00 00 84 .....!....B.....
40000000000E2110 09 90 30 1C 18 14 00 01 41 5C 40 00 20 0A 00 07 ..0.....A\@. ...
40000000000E2120 09 88 48 22 00 20 00 78 38 20 23 00 00 00 04 00 ..H". .x8 #.....
40000000000E2130 09 00 00 22 98 11 00 81 80 20 2B 00 00 00 04 00 ..."..... +.....
40000000000E2140 11 00 4C 40 98 11 00 00 00 02 00 80 08 00 84 00 ..L@............
40000000000E2150 08 00 00 00 01 00 00 00 00 02 00 00 00 00 04 00 ................
40000000000E2160 08 00 00 00 01 00 00 00 00 02 00 00 00 00 04 00 ................
40000000000E2170 08 00 00 00 01 00 00 00 00 02 00 00 00 00 04 00 ................
40000000000E2180 08 58 3D 1A 80 05 E0 40 84 30 28 40 05 00 C4 00 .X=....@.0(@....
40000000000E2190 02 60 01 02 00 21 00 00 00 02 00 C0 E0 08 00 07 .`...!..........
40000000000E21A0 19 08 E0 43 19 16 40 02 00 00 42 00 68 00 80 10 ...C..@...B.h...
40000000000E21B0 08 28 21 10 00 21 10 00 B0 00 42 00 00 00 04 00 .(!..!....B.....
40000000000E21C0 19 30 00 10 07 39 30 02 20 00 42 03 F0 01 00 43 .0...90. .B....C
40000000000E21D0 09 70 00 4A 00 21 F0 00 20 30 20 00 00 00 04 00 .p.J.!.. 0 .....
40000000000E21E0 11 00 00 00 01 00 70 00 3C 0C F2 03 70 01 00 43 ......p.<...p..C
40000000000E21F0 08 00 00 00 01 00 00 00 00 02 00 00 00 00 04 00 ................
40000000000E2200 09 40 39 46 05 20 F0 40 38 30 28 80 14 20 01 84 .@9F. .@80(.. ..
40000000000E2210 10 00 00 00 01 00 70 00 3C 0C 72 03 F0 FF FF 4A ......p.<.r....J
40000000000E2220 08 48 FD 49 3F 23 00 00 00 02 00 A0 15 20 01 84 .H.I?#....... ..
40000000000E2230 19 10 01 46 00 21 00 00 00 02 00 00 18 C9 04 50 ...F.!.........P
40000000000E2240 08 48 A5 00 08 20 10 00 B0 00 42 00 00 00 04 00 .H... ....B.....
40000000000E2250 03 38 01 10 00 21 00 00 00 02 00 20 95 2A 49 80 .8...!..... .*I.
40000000000E2260 08 28 89 46 05 20 00 00 00 02 00 C0 04 10 01 84 .(.F. ..........
40000000000E2270 09 78 20 44 18 14 E0 00 9C 30 20 00 00 00 04 00 .x D.....0 .....
40000000000E2280 09 00 00 00 01 00 50 72 94 00 40 00 00 00 04 00 ......Pr..@.....
40000000000E2290 11 68 01 1E 18 10 00 00 00 02 00 00 38 94 F3 58 .h..........8..X
40000000000E22A0 11 08 00 58 00 21 D0 0A 20 00 42 00 28 6A 00 50 ...X.!.. .B.(j.P
40000000000E22B0 09 70 00 4C 18 10 10 00 B0 00 42 A0 05 40 00 84 .p.L......B..@..
40000000000E22C0 11 70 01 1C 18 10 00 00 00 02 00 00 C8 8E F3 58 .p.............X
40000000000E22D0 08 00 00 00 01 00 10 00 B0 00 42 E0 90 12 19 E0 ..........B.....
40000000000E22E0 18 00 00 00 01 00 00 40 94 30 23 03 80 FF FF 4A .......@.0#....J
40000000000E22F0 09 70 00 4E 00 21 00 00 00 02 00 00 04 01 01 84 .p.N.!..........
40000000000E2300 09 00 00 00 01 00 F0 60 38 30 28 00 00 00 04 00 .......`80(.....
40000000000E2310 09 40 3D 50 00 20 00 20 39 20 23 00 00 00 04 00 .@=P. . 9 #.....
40000000000E2320 08 00 00 50 98 11 00 38 81 30 23 00 00 00 04 00 ...P...8.0#.....
40000000000E2330 01 00 00 00 01 00 00 58 01 55 00 00 00 00 04 00 .......X.U......
40000000000E2340 11 00 00 00 01 00 00 50 05 80 03 80 08 00 84 00 .......P........
40000000000E2350 08 68 05 00 00 24 80 02 00 00 42 00 00 00 04 00 .h...$....B.....
40000000000E2360 19 20 01 00 00 21 00 82 80 00 42 00 E8 C7 04 50 . ...!....B....P
40000000000E2370 03 38 01 10 00 21 10 00 B0 00 42 C0 01 38 01 84 .8...!....B..8..
40000000000E2380 02 78 30 1C 18 14 00 00 00 02 00 00 F5 40 01 80 .x0..........@..
40000000000E2390 02 00 90 1C 90 11 00 00 00 02 00 00 00 00 04 00 ................
40000000000E23A0 18 00 00 50 98 11 00 38 81 30 23 00 90 FF FF 48 ...P...8.0#....H
40000000000E23B0 09 00 41 40 00 21 00 00 00 02 00 00 B0 02 AA 00 ..A@.!..........
40000000000E23C0 11 00 00 40 98 11 00 50 05 80 03 80 08 00 84 00 ...@...P........
40000000000E23D0 08 00 00 00 01 00 00 00 00 02 00 00 00 00 04 00 ................
40000000000E23E0 08 00 00 00 01 00 00 00 00 02 00 00 00 00 04 00 ................
40000000000E23F0 08 00 00 00 01 00 00 00 00 02 00 00 00 00 04 00 ................
40000000000E2400 10 10 19 08 80 05 10 02 00 62 00 00 00 00 00 20 .........b..... 
40000000000E2410 09 28 F1 FB B4 27 30 02 04 00 42 80 04 00 01 84 .(...'0...B.....
40000000000E2420 11 28 01 4A 18 10 00 00 00 02 00 00 68 FD FF 58 .(.J........h..X
40000000000E2430 09 40 00 00 00 21 10 00 8C 00 42 00 20 02 AA 00 .@...!....B. ...
40000000000E2440 11 00 00 00 01 00 00 08 05 80 03 80 08 00 84 00 ................
40000000000E2450 08 00 00 00 01 00 00 00 00 02 00 00 00 00 04 00 ................
40000000000E2460 08 00 00 00 01 00 00 00 00 02 00 00 00 00 04 00 ................
40000000000E2470 08 00 00 00 01 00 00 00 00 02 00 00 00 00 04 00 ................
40000000000E2480 10 10 19 08 80 05 10 02 00 62 00 00 00 00 00 20 .........b..... 
40000000000E2490 09 28 91 FA B2 27 30 02 04 00 42 80 04 00 01 84 .(...'0...B.....
40000000000E24A0 11 28 01 4A 18 10 00 00 00 02 00 00 E8 FC FF 58 .(.J...........X
40000000000E24B0 09 40 00 00 00 21 10 00 8C 00 42 00 20 02 AA 00 .@...!....B. ...
40000000000E24C0 11 00 00 00 01 00 00 08 05 80 03 80 08 00 84 00 ................
40000000000E24D0 08 00 00 00 01 00 00 00 00 02 00 00 00 00 04 00 ................
40000000000E24E0 08 00 00 00 01 00 00 00 00 02 00 00 00 00 04 00 ................
40000000000E24F0 08 00 00 00 01 00 00 00 00 02 00 00 00 00 04 00 ................
40000000000E2500 10 10 19 08 80 05 10 02 00 62 00 00 00 00 00 20 .........b..... 
40000000000E2510 09 28 71 FA B4 27 30 02 04 00 42 80 04 00 01 84 .(q..'0...B.....
40000000000E2520 11 28 01 4A 18 10 00 00 00 02 00 00 68 FC FF 58 .(.J........h..X
40000000000E2530 09 40 00 00 00 21 10 00 8C 00 42 00 20 02 AA 00 .@...!....B. ...
40000000000E2540 11 00 00 00 01 00 00 08 05 80 03 80 08 00 84 00 ................
40000000000E2550 08 00 00 00 01 00 00 00 00 02 00 00 00 00 04 00 ................
40000000000E2560 08 00 00 00 01 00 00 00 00 02 00 00 00 00 04 00 ................
40000000000E2570 08 00 00 00 01 00 00 00 00 02 00 00 00 00 04 00 ................
40000000000E2580 10 10 19 08 80 05 10 02 00 62 00 00 00 00 00 20 .........b..... 
40000000000E2590 09 28 91 FA B3 27 30 02 04 00 42 80 04 00 01 84 .(...'0...B.....
40000000000E25A0 11 28 01 4A 18 10 00 00 00 02 00 00 E8 FB FF 58 .(.J...........X
40000000000E25B0 09 40 04 00 00 24 10 00 8C 00 42 00 20 02 AA 00 .@...$....B. ...
40000000000E25C0 11 00 00 00 01 00 00 08 05 80 03 80 08 00 84 00 ................
40000000000E25D0 08 00 00 00 01 00 00 00 00 02 00 00 00 00 04 00 ................
40000000000E25E0 08 00 00 00 01 00 00 00 00 02 00 00 00 00 04 00 ................
40000000000E25F0 08 00 00 00 01 00 00 00 00 02 00 00 00 00 04 00 ................
40000000000E2600 10 50 3D 1A 80 05 C0 02 00 66 00 00 00 00 00 20 .P=......f..... 
40000000000E2610 09 40 04 42 89 39 B0 02 04 00 42 C0 00 08 1D E6 .@.B.9....B.....
40000000000E2620 00 00 00 00 01 00 90 02 00 62 00 00 00 00 04 00 .........b......
40000000000E2630 19 30 05 00 00 24 00 00 00 02 00 03 20 00 00 42 .0...$...... ..B
40000000000E2640 02 31 09 00 00 24 00 00 00 02 80 C4 F4 E7 FF 9F .1...$..........
40000000000E2650 09 10 F1 FA 5E 27 30 A2 04 74 48 00 F2 0F 45 EE ....^'0..tH...E.
40000000000E2660 09 00 00 00 01 00 00 00 00 02 00 00 00 00 04 00 ................
40000000000E2670 09 00 00 00 01 00 20 E2 88 00 42 00 00 00 04 00 ...... ...B.....
40000000000E2680 11 68 01 44 10 10 00 00 00 02 00 00 C8 C4 04 50 .h.D...........P
40000000000E2690 08 70 00 44 10 10 00 00 00 02 00 E0 C4 40 00 84 .p.D.........@..
40000000000E26A0 09 08 00 56 00 21 00 00 00 02 00 00 05 40 00 84 ...V.!.......@..
40000000000E26B0 02 70 FC 1D 3F 23 00 00 00 02 00 40 04 70 58 00 .p..?#.....@.pX.
40000000000E26C0 19 78 38 00 08 20 70 70 00 0C E1 03 C0 00 00 43 .x8.. pp.......C
40000000000E26D0 09 20 89 1E 05 20 00 00 00 02 00 40 24 02 48 80 . ... .....@$.H.
40000000000E26E0 03 20 91 00 12 20 00 00 00 02 00 80 84 27 FD 8C . ... .......'..
40000000000E26F0 08 00 00 00 01 00 00 00 00 02 00 00 00 00 04 00 ................
40000000000E2700 0B 70 00 46 18 10 E0 70 88 00 40 00 00 00 04 00 .p.F...p..@.....
40000000000E2710 02 70 00 1C 18 10 00 00 00 02 00 E0 81 70 00 84 .p...........p..
40000000000E2720 19 80 50 1C 00 21 60 00 38 0E 72 03 40 00 00 43 ..P..!`.8.r.@..C
40000000000E2730 11 78 00 1E 18 10 00 00 00 02 00 08 80 00 00 43 .x.............C
40000000000E2740 09 00 00 00 01 00 E0 00 40 20 20 00 00 00 04 00 ........@  .....
40000000000E2750 10 00 00 00 01 00 70 30 39 0C F1 03 60 00 00 43 ......p09...`..C
40000000000E2760 09 00 00 00 01 00 20 C2 8B 7E 46 00 00 00 04 00 ...... ..~F.....
40000000000E2770 11 00 00 00 01 00 70 20 89 0C 70 03 90 FF FF 4A ......p ..p....J
40000000000E2780 09 00 41 40 00 21 80 00 00 00 42 E0 CF 82 7F 0B ..A@.!....B.....
40000000000E2790 09 00 A0 40 98 11 00 00 00 02 00 00 A0 02 AA 00 ...@............
40000000000E27A0 10 00 00 00 01 00 00 48 05 80 03 80 08 00 84 00 .......H........
40000000000E27B0 09 00 00 00 01 00 50 C2 3C 00 42 00 00 00 04 00 ......P.<.B.....
40000000000E27C0 11 68 01 4A 18 10 00 00 00 02 00 00 08 8F F3 58 .h.J...........X
40000000000E27D0 11 08 00 56 00 21 D0 0A 20 00 42 00 F8 64 00 50 ...V.!.. .B..d.P
40000000000E27E0 08 08 00 56 00 21 00 00 00 02 00 A0 05 40 00 84 ...V.!.......@..
40000000000E27F0 19 70 01 4A 18 10 00 00 00 02 00 00 98 89 F3 58 .p.J...........X
40000000000E2800 09 70 00 10 00 10 10 00 AC 00 42 E0 11 40 00 84 .p........B..@..
40000000000E2810 01 00 00 00 01 00 E0 00 38 28 00 00 00 00 04 00 ........8(......
40000000000E2820 11 30 00 1C 87 39 00 00 00 02 00 03 B0 00 00 43 .0...9.........C
40000000000E2830 11 30 80 1C 87 39 00 00 00 02 00 03 00 01 00 43 .0...9.........C
40000000000E2840 11 30 24 1C 87 39 00 00 00 02 00 03 F0 00 00 43 .0$..9.........C
40000000000E2850 11 00 00 00 01 00 60 50 38 0E 73 03 E0 00 00 43 ......`P8.s....C
40000000000E2860 09 80 00 1E 00 21 E0 08 3C 00 28 00 00 00 04 00 .....!..<.(.....
40000000000E2870 01 00 00 00 01 00 E0 00 38 28 00 00 00 00 04 00 ........8(......
40000000000E2880 11 30 00 1C 87 39 00 00 00 02 00 03 50 00 00 43 .0...9......P..C
40000000000E2890 11 30 80 1C 87 39 00 00 00 02 00 03 30 00 00 43 .0...9......0..C
40000000000E28A0 11 30 24 1C 87 39 00 00 00 02 00 03 20 00 00 43 .0$..9...... ..C
40000000000E28B0 10 00 00 00 01 00 70 50 38 0C 73 03 B0 FF FF 4A ......pP8.s....J
40000000000E28C0 08 00 00 20 80 11 00 00 00 02 00 00 00 00 04 00 ... ............
40000000000E28D0 08 00 00 00 01 00 E0 00 9C 20 20 40 84 17 FD 8C .........  @....
40000000000E28E0 0A 78 00 50 18 10 00 00 00 02 00 00 02 70 58 00 .x.P.........pX.
40000000000E28F0 09 70 04 1C 00 21 00 00 00 02 00 E0 40 12 19 E0 .p...!......@...
40000000000E2900 02 78 40 1E 12 20 00 00 00 02 00 00 00 00 04 00 .x@.. ..........
40000000000E2910 18 00 20 1E 98 11 00 70 9C 20 23 03 F0 FD FF 4A .. ....p. #....J
40000000000E2920 10 00 00 00 01 00 00 00 00 02 00 00 60 FE FF 48 ............`..H
40000000000E2930 09 00 00 00 01 00 00 01 20 00 42 00 00 00 04 00 ........ .B.....
40000000000E2940 11 00 00 20 80 11 00 00 00 02 00 00 90 FF FF 48 ... ...........H
40000000000E2950 08 00 00 00 01 00 00 00 00 02 00 00 00 00 04 00 ................
40000000000E2960 08 00 00 00 01 00 00 00 00 02 00 00 00 00 04 00 ................
40000000000E2970 08 00 00 00 01 00 00 00 00 02 00 00 00 00 04 00 ................
40000000000E2980 0B 80 08 04 80 05 10 0A 00 00 48 00 00 00 04 00 ..........H.....
40000000000E2990 11 10 08 00 80 05 00 00 00 02 00 00 78 FC FF 48 ............x..H
40000000000E29A0 0D 00 00 00 01 00 00 00 00 00 00 00 00 00 04 00 ................
40000000000E29B0 08 00 00 00 01 00 00 00 00 02 00 00 00 00 04 00 ................
40000000000E29C0 0B 80 08 04 80 05 10 02 00 00 42 00 00 00 04 00 ..........B.....
40000000000E29D0 11 10 08 00 80 05 00 00 00 02 00 00 38 FC FF 48 ............8..H
40000000000E29E0 0D 00 00 00 01 00 00 00 00 00 00 00 00 00 04 00 ................
40000000000E29F0 08 00 00 00 01 00 00 00 00 02 00 00 00 00 04 00 ................
40000000000E2A00 0B 80 08 04 80 05 10 FA F3 FF 4F 00 00 00 04 00 ..........O.....
40000000000E2A10 11 10 08 00 80 05 00 00 00 02 00 00 F8 FB FF 48 ...............H
40000000000E2A20 0D 00 00 00 01 00 00 00 00 00 00 00 00 00 04 00 ................
40000000000E2A30 08 00 00 00 01 00 00 00 00 02 00 00 00 00 04 00 ................
40000000000E2A40 01 20 1D 0C 80 05 30 02 00 62 00 A0 04 08 00 84 . ....0..b......
40000000000E2A50 11 30 01 00 00 21 00 00 00 02 00 00 F8 C0 04 50 .0...!.........P
40000000000E2A60 09 08 00 4A 00 21 10 02 20 00 42 40 04 40 00 84 ...J.!.. .B@.@..
40000000000E2A70 0B 30 11 FA 5F 27 00 00 00 02 00 00 00 00 04 00 .0.._'..........
40000000000E2A80 11 60 98 42 98 15 00 00 00 02 00 00 C8 D7 04 50 .`.B...........P
40000000000E2A90 18 70 00 40 10 10 00 40 84 20 23 00 00 00 00 20 .p.@...@. #.... 
40000000000E2AA0 09 08 00 4A 00 21 80 00 00 00 42 00 40 02 AA 00 ...J.!....B.@...
40000000000E2AB0 09 70 40 1C 2E 20 00 00 00 02 00 00 30 0A 00 07 .p@.. ......0...
40000000000E2AC0 09 00 00 00 01 00 00 71 80 20 2B 00 00 00 04 00 .......q. +.....
40000000000E2AD0 11 00 88 40 98 11 00 00 00 02 00 80 08 00 84 00 ...@............
40000000000E2AE0 08 00 00 00 01 00 00 00 00 02 00 00 00 00 04 00 ................
40000000000E2AF0 08 00 00 00 01 00 00 00 00 02 00 00 00 00 04 00 ................
40000000000E2B00 01 20 1D 0C 80 05 30 02 00 62 00 A0 04 08 00 84 . ....0..b......
40000000000E2B10 11 30 01 00 00 21 00 00 00 02 00 00 38 C0 04 50 .0...!......8..P
40000000000E2B20 11 10 01 10 00 21 10 00 94 00 42 00 28 0F 03 50 .....!....B.(..P
40000000000E2B30 09 08 01 44 00 21 10 00 94 00 42 C0 04 40 00 84 ...D.!....B..@..
40000000000E2B40 11 60 20 42 98 15 00 00 00 02 00 00 08 D7 04 50 .` B...........P
40000000000E2B50 08 00 00 00 01 00 E0 00 80 20 20 E0 01 01 01 84 .........  .....
40000000000E2B60 09 00 20 42 90 11 10 00 94 00 42 00 01 00 00 84 .. B......B.....
40000000000E2B70 09 70 80 1C 2E 20 00 10 3D 30 23 00 40 02 AA 00 .p... ..=0#.@...
40000000000E2B80 11 00 38 40 90 11 00 18 05 80 03 80 08 00 84 00 ..8@............
40000000000E2B90 08 00 00 00 01 00 00 00 00 02 00 00 00 00 04 00 ................
40000000000E2BA0 08 00 00 00 01 00 00 00 00 02 00 00 00 00 04 00 ................
40000000000E2BB0 08 00 00 00 01 00 00 00 00 02 00 00 00 00 04 00 ................
40000000000E2BC0 01 20 1D 0C 80 05 30 02 00 62 00 A0 04 08 00 84 . ....0..b......
40000000000E2BD0 11 30 01 00 00 21 00 00 00 02 00 00 78 BF 04 50 .0...!......x..P
40000000000E2BE0 11 10 01 10 00 21 10 00 94 00 42 00 68 66 02 50 .....!....B.hf.P
40000000000E2BF0 09 08 01 44 00 21 10 00 94 00 42 C0 04 40 00 84 ...D.!....B..@..
40000000000E2C00 11 60 20 42 98 15 00 00 00 02 00 00 48 D6 04 50 .` B........H..P
40000000000E2C10 08 00 00 00 01 00 E0 00 80 20 20 E0 01 01 01 84 .........  .....
40000000000E2C20 09 00 20 42 90 11 10 00 94 00 42 00 01 00 00 84 .. B......B.....
40000000000E2C30 09 70 80 1C 2E 20 00 10 3D 30 23 00 40 02 AA 00 .p... ..=0#.@...
40000000000E2C40 11 00 38 40 90 11 00 18 05 80 03 80 08 00 84 00 ..8@............
40000000000E2C50 08 00 00 00 01 00 00 00 00 02 00 00 00 00 04 00 ................
40000000000E2C60 08 00 00 00 01 00 00 00 00 02 00 00 00 00 04 00 ................
40000000000E2C70 08 00 00 00 01 00 00 00 00 02 00 00 00 00 04 00 ................
40000000000E2C80 01 18 19 0A 80 05 20 02 00 62 00 80 04 08 00 84 ...... ..b......
40000000000E2C90 11 28 01 00 00 21 00 00 00 02 00 00 B8 BE 04 50 .(...!.........P
40000000000E2CA0 11 08 00 48 00 21 10 02 20 00 42 00 A8 40 FF 58 ...H.!.. .B..@.X
40000000000E2CB0 08 30 00 10 07 39 00 00 00 02 00 20 00 20 01 84 .0...9..... . ..
40000000000E2CC0 09 00 20 42 98 11 00 00 00 02 00 A0 04 40 00 84 .. B.........@..
40000000000E2CD0 D1 70 00 00 00 21 00 00 00 02 00 03 30 00 00 43 .p...!......0..C
40000000000E2CE0 11 00 00 00 01 00 00 00 00 02 00 00 68 D5 04 50 ............h..P
40000000000E2CF0 08 00 00 00 01 00 10 00 90 00 42 C0 01 40 00 84 ..........B..@..
40000000000E2D00 08 78 00 40 10 10 20 61 84 00 42 00 30 02 AA 00 .x.@.. a..B.0...
40000000000E2D10 09 88 20 42 00 21 00 81 80 00 42 00 01 00 00 84 .. B.!....B.....
40000000000E2D20 18 78 C0 1E 2E 20 00 70 48 20 23 00 00 00 00 20 .x... .pH #.... 
40000000000E2D30 02 00 38 22 90 11 00 10 05 80 03 00 00 00 04 00 ..8"............
40000000000E2D40 19 00 84 20 98 11 00 78 80 20 23 80 08 00 84 00 ... ...x. #.....
40000000000E2D50 08 00 00 00 01 00 00 00 00 02 00 00 00 00 04 00 ................
40000000000E2D60 08 00 00 00 01 00 00 00 00 02 00 00 00 00 04 00 ................
40000000000E2D70 08 00 00 00 01 00 00 00 00 02 00 00 00 00 04 00 ................
40000000000E2D80 01 20 1D 0C 80 05 30 02 00 62 00 A0 04 08 00 84 . ....0..b......
40000000000E2D90 11 00 00 00 01 00 00 00 00 02 00 00 B8 7B F3 58 .............{.X
40000000000E2DA0 08 08 00 4A 00 21 00 00 00 02 00 40 04 40 00 84 ...J.!.....@.@..
40000000000E2DB0 19 30 01 00 00 21 00 00 00 02 00 00 98 BD 04 50 .0...!.........P
40000000000E2DC0 08 70 00 10 00 21 10 02 20 00 42 20 00 28 01 84 .p...!.. .B .(..
40000000000E2DD0 0B 30 01 44 00 21 80 10 39 30 2B 00 00 00 04 00 .0.D.!..90+.....
40000000000E2DE0 11 00 00 1C 90 11 00 00 00 02 00 00 68 D4 04 50 ............h..P
40000000000E2DF0 18 70 00 40 10 10 F0 60 84 00 42 00 00 00 00 20 .p.@...`..B.... 
40000000000E2E00 09 08 00 4A 00 21 00 00 00 02 00 00 40 02 AA 00 ...J.!......@...
40000000000E2E10 08 70 80 1C 2E 20 00 40 3C 20 23 00 30 0A 00 07 .p... .@< #.0...
40000000000E2E20 0B 40 00 00 00 21 00 71 80 20 2B 00 00 00 04 00 .@...!.q. +.....
40000000000E2E30 11 00 84 40 98 11 00 00 00 02 00 80 08 00 84 00 ...@............
40000000000E2E40 01 48 35 16 80 05 80 02 00 62 00 40 05 08 00 84 .H5......b.@....
40000000000E2E50 11 18 01 00 00 21 00 00 00 02 00 00 F8 6A FD 58 .....!.......j.X
40000000000E2E60 08 20 21 10 00 21 10 00 A8 00 42 00 00 00 04 00 . !..!....B.....
40000000000E2E70 19 30 00 10 07 39 20 02 20 00 42 03 30 02 00 43 .0...9 . .B.0..C
40000000000E2E80 09 70 00 48 00 21 F0 00 20 30 20 00 00 00 04 00 .p.H.!.. 0 .....
40000000000E2E90 11 00 00 00 01 00 70 00 3C 0C F2 03 90 01 00 43 ......p.<......C
40000000000E2EA0 09 30 39 44 05 20 F0 40 38 30 28 60 14 18 01 84 .09D. .@80(`....
40000000000E2EB0 10 00 00 00 01 00 70 00 3C 0C 72 03 F0 FF FF 4A ......p.<.r....J
40000000000E2EC0 08 38 FD 47 3F 23 00 00 00 02 00 60 15 18 01 84 .8.G?#.....`....
40000000000E2ED0 19 08 01 44 00 21 00 00 00 02 00 00 78 BC 04 50 ...D.!......x..P
40000000000E2EE0 08 38 9D 00 08 20 10 00 A8 00 42 00 00 00 04 00 .8... ....B.....
40000000000E2EF0 03 28 01 10 00 21 00 00 00 02 00 E0 74 22 49 80 .(...!......t"I.
40000000000E2F00 08 00 00 00 01 00 E0 00 84 30 20 80 14 12 15 80 .........0 .....
40000000000E2F10 0B 78 00 4A 18 10 40 7A 90 00 40 00 00 00 04 00 .x.J..@z..@.....
40000000000E2F20 0B 70 00 1C 18 10 60 00 38 0E 72 60 05 70 00 84 .p....`.8.r`.p..
40000000000E2F30 D1 40 00 00 00 21 00 00 00 02 00 03 60 00 00 43 .@...!......`..C
40000000000E2F40 11 00 00 00 01 00 00 00 00 02 00 00 88 87 F3 58 ...............X
40000000000E2F50 11 08 00 54 00 21 B0 0A 20 00 42 00 78 5D 00 50 ...T.!.. .B.x].P
40000000000E2F60 09 70 00 42 18 10 10 00 A8 00 42 60 05 40 00 84 .p.B......B`.@..
40000000000E2F70 13 60 01 1C 18 10 00 0C C1 79 2C 00 00 00 00 20 .`.......y,.... 
40000000000E2F80 08 08 00 54 00 21 00 00 00 02 00 00 00 00 04 00 ...T.!..........
40000000000E2F90 09 08 21 42 00 21 00 40 90 30 23 00 00 00 04 00 ..!B.!.@.0#.....
40000000000E2FA0 10 00 00 00 01 00 70 38 85 0C 70 03 60 FF FF 4A ......p8..p.`..J
40000000000E2FB0 08 70 00 4A 00 21 F0 40 94 00 42 00 04 01 01 84 .p.J.!.@..B.....
40000000000E2FC0 0B 40 04 00 00 24 00 61 38 30 28 00 00 00 04 00 .@...$.a80(.....
40000000000E2FD0 09 00 00 00 01 00 60 82 98 00 40 00 00 00 04 00 ......`...@.....
40000000000E2FE0 09 00 00 4C 98 11 00 18 39 20 23 00 00 00 04 00 ...L....9 #.....
40000000000E2FF0 08 00 8C 1E 90 11 00 28 81 30 23 00 00 00 04 00 .......(.0#.....
40000000000E3000 01 00 00 00 01 00 00 48 01 55 00 00 00 00 04 00 .......H.U......
40000000000E3010 11 00 00 00 01 00 00 40 05 80 03 80 08 00 84 00 .......@........
40000000000E3020 08 58 05 00 00 24 60 02 00 00 42 00 00 00 04 00 .X...$`...B.....
40000000000E3030 19 18 01 00 00 21 00 82 80 00 42 00 18 BB 04 50 .....!....B....P
40000000000E3040 09 28 01 10 00 21 10 00 A8 00 42 00 11 00 00 90 .(...!....B.....
40000000000E3050 09 70 00 4A 00 21 00 00 00 02 00 E0 81 28 01 84 .p.J.!.......(..
40000000000E3060 0B 80 30 1C 18 14 60 82 98 00 40 00 00 00 04 00 ..0...`...@.....
40000000000E3070 09 00 00 4C 98 11 00 18 39 20 23 00 00 00 04 00 ...L....9 #.....
40000000000E3080 08 00 00 00 01 00 00 18 3D 20 23 00 00 00 04 00 ........= #.....
40000000000E3090 18 00 94 40 98 11 00 00 00 02 00 00 70 FF FF 48 ...@........p..H
40000000000E30A0 09 00 41 40 00 21 80 00 00 00 42 00 90 02 AA 00 ..A@.!....B.....
40000000000E30B0 11 00 00 40 98 11 00 40 05 80 03 80 08 00 84 00 ...@...@........
40000000000E30C0 08 10 15 08 80 05 40 E2 F4 F7 4F 20 04 00 C4 00 ......@...O ....
40000000000E30D0 09 00 00 00 01 00 30 02 04 00 42 00 00 00 04 00 ......0...B.....
40000000000E30E0 11 20 01 48 18 10 00 00 00 02 00 00 68 8C F8 58 . .H........h..X
40000000000E30F0 0B 08 00 46 00 21 40 22 F5 F7 4F 00 00 00 04 00 ...F.!@"..O.....
40000000000E3100 11 20 01 48 18 10 00 00 00 02 00 00 48 8C F8 58 . .H........H..X
40000000000E3110 0B 08 00 46 00 21 40 62 F5 F7 4F 00 00 00 04 00 ...F.!@b..O.....
40000000000E3120 11 20 01 48 18 10 00 00 00 02 00 00 28 8C F8 58 . .H........(..X
40000000000E3130 0B 08 00 46 00 21 40 A2 F5 F7 4F 00 00 00 04 00 ...F.!@...O.....
40000000000E3140 11 20 01 48 18 10 00 00 00 02 00 00 08 8C F8 58 . .H...........X
40000000000E3150 0B 08 00 46 00 21 40 E2 F5 F7 4F 00 00 00 04 00 ...F.!@...O.....
40000000000E3160 11 20 01 48 18 10 00 00 00 02 00 00 E8 8B F8 58 . .H...........X
40000000000E3170 0B 08 00 46 00 21 40 22 F6 F7 4F 00 00 00 04 00 ...F.!@"..O.....
40000000000E3180 11 20 01 48 18 10 00 00 00 02 00 00 C8 8B F8 58 . .H...........X
40000000000E3190 09 30 00 40 87 39 10 00 8C 00 42 00 20 02 AA 00 .0.@.9....B. ...
40000000000E31A0 E9 70 50 02 2D E4 F1 08 00 00 48 00 10 0A 00 07 .pP.-.....H.....
40000000000E31B0 09 00 00 00 01 00 00 00 00 02 00 00 00 00 04 00 ................
40000000000E31C0 F1 00 3C 1C 90 11 00 00 00 02 00 80 08 00 84 00 ..<.............
40000000000E31D0 08 00 00 00 01 00 00 00 00 02 00 00 00 00 04 00 ................
40000000000E31E0 08 00 00 00 01 00 00 00 00 02 00 00 00 00 04 00 ................
40000000000E31F0 08 00 00 00 01 00 00 00 00 02 00 00 00 00 04 00 ................
40000000000E3200 08 38 35 14 80 05 C0 80 33 7E 46 20 05 00 CC 00 .85.....3~F ....
40000000000E3210 09 50 71 FA FB 27 80 02 04 00 42 20 02 20 41 E6 .Pq..'....B . A.
40000000000E3220 10 00 00 00 01 00 60 02 00 62 00 00 00 00 00 20 ......`..b..... 
40000000000E3230 09 50 01 54 18 10 B0 02 80 00 42 80 05 00 00 84 .P.T......B.....
40000000000E3240 11 2A 05 00 00 24 00 00 00 02 00 00 88 51 F8 58 .*...$.......Q.X
40000000000E3250 08 38 00 10 06 79 54 02 00 00 42 80 C5 00 00 90 .8...yT...B.....
40000000000E3260 09 08 00 50 00 21 B0 82 30 00 42 40 05 08 59 00 ...P.!..0.B@..Y.
40000000000E3270 CB 70 04 00 00 E4 E1 00 00 00 42 00 00 00 04 00 .p........B.....
40000000000E3280 0B 70 38 4A 0C 20 60 00 38 0E 73 00 00 00 04 00 .p8J. `.8.s.....
40000000000E3290 EB 40 A0 10 00 E1 E1 00 20 20 20 00 00 00 04 00 .@......   .....
40000000000E32A0 09 00 00 00 01 C0 E1 08 38 5C 40 00 00 00 04 00 ........8\@.....
40000000000E32B0 F1 00 38 10 90 11 00 00 00 02 00 00 98 67 04 50 ..8..........g.P
40000000000E32C0 03 08 00 50 00 21 B0 02 20 00 42 40 45 EA EF 9F ...P.!.. .B@E...
40000000000E32D0 11 50 01 54 18 10 00 00 00 02 00 00 F8 54 F8 58 .P.T.........T.X
40000000000E32E0 08 38 00 10 06 39 00 00 00 02 00 20 00 40 01 84 .8...9..... .@..
40000000000E32F0 03 60 31 00 00 24 B0 82 30 00 42 C3 11 00 00 90 .`1..$..0.B.....
40000000000E3300 EB 70 00 00 00 21 E0 70 94 18 40 00 00 00 04 00 .p...!.p..@.....
40000000000E3310 0B 30 00 1C 87 F9 81 40 21 00 42 00 00 00 04 00 .0.....@!.B.....
40000000000E3320 09 00 00 00 01 C0 E1 00 20 20 20 00 00 00 04 00 ........   .....
40000000000E3330 EB 70 04 1C 2E E0 01 70 20 20 23 C0 C1 EA BB 9E .p.....p  #.....
40000000000E3340 0B 70 00 1C 18 10 A0 02 38 20 20 00 00 00 04 00 .p......8  .....
40000000000E3350 11 00 00 00 01 00 A0 02 A8 2C 00 00 F8 66 04 50 .........,...f.P
40000000000E3360 03 08 00 50 00 21 B0 02 20 00 42 40 C5 EA EF 9F ...P.!.. .B@....
40000000000E3370 11 50 01 54 18 10 00 00 00 02 00 00 58 54 F8 58 .P.T........XT.X
40000000000E3380 08 38 00 10 06 39 00 00 00 02 00 20 00 40 01 84 .8...9..... .@..
40000000000E3390 03 58 41 18 00 21 C0 62 00 00 48 C3 11 00 00 90 .XA..!.b..H.....
40000000000E33A0 EB 70 00 00 00 21 E0 70 94 18 40 00 00 00 04 00 .p...!.p..@.....
40000000000E33B0 0B 30 00 1C 87 F9 81 40 21 00 42 00 00 00 04 00 .0.....@!.B.....
40000000000E33C0 09 00 00 00 01 C0 E1 00 20 20 20 00 00 00 04 00 ........   .....
40000000000E33D0 EB 70 04 1C 2E E0 01 70 20 20 23 C0 41 EB BF 9E .p.....p  #.A...
40000000000E33E0 0B 70 00 1C 18 10 A0 02 38 20 20 00 00 00 04 00 .p......8  .....
40000000000E33F0 11 00 00 00 01 00 A0 02 A8 2C 00 00 58 66 04 50 .........,..Xf.P
40000000000E3400 03 08 00 50 00 21 B0 02 20 00 42 40 45 EB EF 9F ...P.!.. .B@E...
40000000000E3410 11 50 01 54 18 10 00 00 00 02 00 00 B8 53 F8 58 .P.T.........S.X
40000000000E3420 03 38 00 10 06 39 10 00 A0 00 42 C3 11 00 00 90 .8...9....B.....
40000000000E3430 EB 70 00 00 00 21 50 72 94 18 40 00 00 00 04 00 .p...!Pr..@.....
40000000000E3440 10 00 00 00 01 00 60 00 94 0E 73 03 80 00 00 42 ......`...s....B
40000000000E3450 0B 40 A0 10 00 21 E0 00 20 20 20 00 00 00 04 00 .@...!..   .....
40000000000E3460 09 00 00 00 01 00 E0 08 38 5C 40 00 00 00 04 00 ........8\@.....
40000000000E3470 08 00 38 10 90 11 00 00 00 02 00 00 00 00 04 00 ..8.............
40000000000E3480 09 70 50 02 2D 24 00 00 00 02 00 E0 11 00 00 90 .pP.-$..........
40000000000E3490 0B 00 00 00 01 00 00 78 38 20 23 E0 9F 82 7F 0B .......x8 #.....
40000000000E34A0 02 00 00 00 01 00 00 38 01 55 00 00 60 0A 00 07 .......8.U..`...
40000000000E34B0 18 00 00 00 01 00 C0 80 30 00 42 80 08 00 84 00 ........0.B.....
40000000000E34C0 10 00 00 00 01 00 00 00 00 02 00 08 C0 FF FF 4A ...............J
40000000000E34D0 09 00 00 00 01 00 A0 E2 F5 F7 4F 00 00 00 04 00 ..........O.....
40000000000E34E0 11 50 01 54 18 10 00 00 00 02 00 00 68 F0 F7 58 .P.T........h..X
40000000000E34F0 08 78 A0 10 00 21 00 00 00 02 00 20 00 40 01 84 .x...!..... .@..
40000000000E3500 19 38 00 10 06 39 00 00 00 02 80 03 B0 01 00 43 .8...9.........C
40000000000E3510 09 00 00 00 01 00 E0 00 3C 20 20 00 00 00 04 00 ........<  .....
40000000000E3520 03 00 00 00 01 00 60 10 38 0E A8 03 D2 77 B0 88 ......`.8....w..
40000000000E3530 E9 70 00 20 00 E1 01 80 3C 20 23 00 00 00 04 00 .p. ....< #.....
40000000000E3540 10 00 00 00 01 00 70 20 38 0C A8 03 D0 00 00 43 ......p 8......C
40000000000E3550 08 50 01 10 00 21 00 00 00 02 00 60 05 10 01 84 .P...!.....`....
40000000000E3560 19 60 01 00 00 21 00 00 00 02 00 00 28 BC FD 58 .`...!......(..X
40000000000E3570 08 40 A0 10 00 21 F0 F8 F3 BF 4F 20 00 40 01 84 .@...!....O .@..
40000000000E3580 09 58 41 18 00 21 C0 62 00 00 48 40 05 18 59 00 .XA..!.b..H@..Y.
40000000000E3590 0B 70 00 10 10 10 E0 78 38 18 40 00 00 00 04 00 .p.....x8.@.....
40000000000E35A0 11 00 38 10 90 11 00 00 00 02 00 00 A8 64 04 50 ..8..........d.P
40000000000E35B0 03 08 00 50 00 21 B0 02 20 00 42 40 45 EC EF 9F ...P.!.. .B@E...
40000000000E35C0 13 50 01 54 18 10 00 04 29 7C 2C 00 00 00 00 20 .P.T....)|,.... 
40000000000E35D0 08 08 00 50 00 21 00 00 00 02 00 00 00 00 04 00 ...P.!..........
40000000000E35E0 01 00 00 00 01 00 F0 4F C1 BF 05 00 00 00 04 00 .......O........
40000000000E35F0 02 00 00 00 01 00 00 38 01 55 00 00 60 0A 00 07 .......8.U..`...
40000000000E3600 19 00 00 00 01 00 C0 80 30 00 42 80 08 00 84 00 ........0.B.....
40000000000E3610 11 50 01 10 00 21 00 00 00 02 00 00 B8 B2 FD 58 .P...!.........X
40000000000E3620 08 08 00 50 00 21 B0 02 88 00 42 00 00 00 04 00 ...P.!....B.....
40000000000E3630 19 50 01 10 00 21 C0 02 00 00 42 00 58 BB FD 58 .P...!....B.X..X
40000000000E3640 08 40 A0 10 00 21 F0 F8 F3 BF 4F 20 00 40 01 84 .@...!....O .@..
40000000000E3650 09 58 41 18 00 21 C0 62 00 00 48 40 05 18 59 00 .XA..!.b..H@..Y.
40000000000E3660 0B 70 00 10 10 10 E0 78 38 18 40 00 00 00 04 00 .p.....x8.@.....
40000000000E3670 11 00 38 10 90 11 00 00 00 02 00 00 D8 63 04 50 ..8..........c.P
40000000000E3680 03 08 00 50 00 21 B0 02 20 00 42 40 45 EC EF 9F ...P.!.. .B@E...
40000000000E3690 11 50 01 54 18 10 00 00 00 02 00 00 38 51 F8 58 .P.T........8Q.X
40000000000E36A0 11 00 00 00 01 00 10 00 A0 00 42 00 40 FF FF 48 ..........B.@..H
40000000000E36B0 09 00 00 00 01 00 A0 E2 F5 F7 4F 00 00 00 04 00 ..........O.....
40000000000E36C0 11 50 01 54 18 10 00 00 00 02 00 00 88 43 F8 58 .P.T.........C.X
40000000000E36D0 09 78 A0 10 00 21 00 00 00 02 00 20 00 40 01 84 .x...!..... .@..
40000000000E36E0 09 00 00 00 01 00 E0 00 3C 20 20 00 00 00 04 00 ........<  .....
40000000000E36F0 03 00 00 00 01 00 60 10 38 0E A8 03 D2 77 B0 88 ......`.8....w..
40000000000E3700 E9 70 00 20 00 E1 01 80 3C 20 23 00 00 00 04 00 .p. ....< #.....
40000000000E3710 10 00 00 00 01 00 70 20 38 0C 28 03 40 FE FF 4A ......p 8.(.@..J
40000000000E3720 11 00 00 00 01 00 00 00 00 02 00 00 F0 FE FF 48 ...............H
40000000000E3730 08 00 00 00 01 00 00 00 00 02 00 00 00 00 04 00 ................
40000000000E3740 08 40 35 16 80 05 00 00 00 02 00 E0 04 00 C4 00 .@5.............
40000000000E3750 09 48 01 02 00 21 00 00 00 02 00 60 05 00 01 84 .H...!.....`....
40000000000E3760 11 00 00 00 01 00 A0 02 04 65 00 00 E8 F3 F5 58 .........e.....X
40000000000E3770 08 08 00 52 00 21 00 00 00 02 00 60 05 40 00 84 ...R.!.....`.@..
40000000000E3780 19 60 01 00 00 21 00 00 00 02 00 00 C8 F4 F5 58 .`...!.........X
40000000000E3790 08 70 20 44 00 21 10 00 A4 00 42 00 00 00 04 00 .p D.!....B.....
40000000000E37A0 19 20 01 10 00 21 60 00 88 0E 72 03 A0 01 00 43 . ...!`...r....C
40000000000E37B0 09 00 00 00 01 00 E0 00 38 30 20 00 00 00 04 00 ........80 .....
40000000000E37C0 11 30 00 1C 07 39 B0 02 38 00 42 03 90 02 00 43 .0...9..8.B....C
40000000000E37D0 11 00 00 00 01 00 00 00 00 02 00 00 F8 B7 F8 58 ...............X
40000000000E37E0 08 60 01 00 00 21 00 00 00 02 00 20 00 48 01 84 .`...!..... .H..
40000000000E37F0 19 58 01 10 00 21 00 00 00 02 00 00 58 F4 F5 58 .X...!......X..X
40000000000E3800 08 08 00 52 00 21 60 02 20 00 42 00 00 00 04 00 ...R.!`. .B.....
40000000000E3810 19 58 01 42 00 21 00 40 90 30 23 00 38 F3 F5 58 .X.B.!.@.0#.8..X
40000000000E3820 08 08 00 52 00 21 00 00 00 02 00 60 05 40 00 84 ...R.!.....`.@..
40000000000E3830 19 60 01 00 00 21 00 00 00 02 00 00 18 F4 F5 58 .`...!.........X
40000000000E3840 08 78 F4 47 3F 23 E0 00 88 00 42 60 F4 1F FD 8C .x.G?#....B`....
40000000000E3850 09 08 00 52 00 21 00 40 98 30 23 A0 04 40 00 84 ...R.!.@.0#..@..
40000000000E3860 08 00 00 00 01 00 F0 78 00 10 40 E0 10 18 19 C6 .......x..@.....
40000000000E3870 19 00 00 00 01 00 00 00 00 02 00 03 10 02 00 43 ...............C
40000000000E3880 01 00 00 00 01 00 00 78 04 55 00 00 00 00 04 00 .......x.U......
40000000000E3890 08 00 00 00 01 00 00 00 00 02 00 00 00 00 04 00 ................
40000000000E38A0 09 00 00 00 01 00 E0 00 38 30 20 00 00 00 04 00 ........80 .....
40000000000E38B0 12 30 00 1C 07 B9 01 98 00 80 21 A0 F0 FF FF 48 .0........!....H
40000000000E38C0 0B 70 20 1C 00 21 B0 02 38 30 20 00 00 00 04 00 .p ..!..80 .....
40000000000E38D0 11 38 00 56 06 39 00 00 00 02 80 03 10 01 00 43 .8.V.9.........C
40000000000E38E0 11 00 00 00 01 00 00 00 00 02 00 00 E8 B6 F8 58 ...............X
40000000000E38F0 08 08 00 52 00 21 00 00 00 02 00 60 05 40 00 84 ...R.!.....`.@..
40000000000E3900 19 60 01 00 00 21 00 00 00 02 00 00 48 F3 F5 58 .`...!......H..X
40000000000E3910 08 08 00 52 00 21 00 40 94 30 23 00 80 02 AA 00 ...R.!.@.0#.....
40000000000E3920 0B 40 00 48 00 21 00 00 00 02 00 00 A0 0A AA 00 .@.H.!..........
40000000000E3930 10 00 00 00 01 00 00 38 05 80 03 80 08 00 84 00 .......8........
40000000000E3940 09 00 00 00 01 00 B0 62 F6 F7 4F 00 00 00 04 00 .......b..O.....
40000000000E3950 11 58 01 56 18 10 00 00 00 02 00 00 F8 F1 F5 58 .X.V...........X
40000000000E3960 08 60 01 00 00 21 00 00 00 02 00 20 00 48 01 84 .`...!..... .H..
40000000000E3970 19 58 01 10 00 21 00 00 00 02 00 00 D8 F2 F5 58 .X...!.........X
40000000000E3980 08 08 00 52 00 21 60 02 20 00 42 00 00 00 04 00 ...R.!`. .B.....
40000000000E3990 19 58 01 42 00 21 00 40 90 30 23 00 B8 F1 F5 58 .X.B.!.@.0#....X
40000000000E39A0 08 08 00 52 00 21 00 00 00 02 00 60 05 40 00 84 ...R.!.....`.@..
40000000000E39B0 19 60 01 00 00 21 00 00 00 02 00 00 98 F2 F5 58 .`...!.........X
40000000000E39C0 08 08 00 52 00 21 00 00 00 02 00 A0 04 40 00 84 ...R.!.......@..
40000000000E39D0 09 00 20 4C 98 11 00 00 00 02 00 00 00 00 04 00 .. L............
40000000000E39E0 09 00 00 00 01 00 B0 62 F6 F7 4F 00 00 00 04 00 .......b..O.....
40000000000E39F0 11 58 01 56 18 10 00 00 00 02 00 00 58 F1 F5 58 .X.V........X..X
40000000000E3A00 08 08 00 52 00 21 00 00 00 02 00 60 05 40 00 84 ...R.!.....`.@..
40000000000E3A10 19 60 01 00 00 21 00 00 00 02 00 00 38 F2 F5 58 .`...!......8..X
40000000000E3A20 08 08 00 52 00 21 00 40 94 30 23 00 80 02 AA 00 ...R.!.@.0#.....
40000000000E3A30 0B 40 00 48 00 21 00 00 00 02 00 00 A0 0A AA 00 .@.H.!..........
40000000000E3A40 10 00 00 00 01 00 00 38 05 80 03 80 08 00 84 00 .......8........
40000000000E3A50 09 00 00 00 01 00 B0 62 F6 F7 4F 00 00 00 04 00 .......b..O.....
40000000000E3A60 11 58 01 56 18 10 00 00 00 02 00 00 E8 F0 F5 58 .X.V...........X
40000000000E3A70 10 00 00 00 01 00 00 00 00 02 00 00 70 FD FF 48 ............p..H
40000000000E3A80 11 00 00 00 01 00 E0 00 88 00 42 00 40 FE FF 48 ..........B.@..H
40000000000E3A90 08 00 00 00 01 00 00 00 00 02 00 00 00 00 04 00 ................
40000000000E3AA0 08 00 00 00 01 00 00 00 00 02 00 00 00 00 04 00 ................
40000000000E3AB0 08 00 00 00 01 00 00 00 00 02 00 00 00 00 04 00 ................
40000000000E3AC0 18 20 21 0C 80 05 20 E2 07 80 48 00 00 00 00 20 . !... ...H.... 
40000000000E3AD0 09 30 00 42 87 39 50 02 04 00 42 60 04 00 C4 00 .0.B.9P...B`....
40000000000E3AE0 09 00 00 00 01 C0 E1 00 88 00 42 00 00 00 04 00 ..........B.....
40000000000E3AF0 F1 30 01 1C 18 10 00 00 00 02 80 03 00 01 00 43 .0.............C
40000000000E3B00 09 00 00 00 01 00 60 02 88 30 20 00 00 00 04 00 ......`..0 .....
40000000000E3B10 11 30 00 4C 07 39 00 00 00 02 00 03 30 00 00 43 .0.L.9......0..C
40000000000E3B20 11 00 00 00 01 00 00 00 00 02 00 00 C8 6C F3 58 .............l.X
40000000000E3B30 09 08 00 4A 00 21 00 00 00 02 00 00 00 00 04 00 ...J.!..........
40000000000E3B40 09 70 70 FB AE 27 00 00 00 02 00 C0 04 00 01 84 .pp..'..........
40000000000E3B50 0B 70 00 1C 18 10 E0 00 38 20 20 00 00 00 04 00 .p......8  .....
40000000000E3B60 00 00 00 00 01 00 60 E0 38 0E 28 C0 C1 EB C3 9E ......`.8.(.....
40000000000E3B70 19 00 00 00 01 00 00 00 00 02 00 03 B0 00 00 43 ...............C
40000000000E3B80 0B 70 00 1C 18 10 80 00 38 30 20 C0 41 EB B7 9E .p......80 .A...
40000000000E3B90 11 30 00 10 07 39 00 00 00 02 00 03 90 00 00 43 .0...9.........C
40000000000E3BA0 09 00 00 00 01 00 E0 00 38 30 20 00 00 00 04 00 ........80 .....
40000000000E3BB0 09 38 01 1C 10 10 E0 40 20 30 28 00 00 00 04 00 .8.....@ 0(.....
40000000000E3BC0 11 08 00 10 18 10 60 70 04 80 03 00 68 00 80 10 ......`p....h...
40000000000E3BD0 08 08 00 4A 00 21 00 00 00 02 00 C0 04 40 00 84 ...J.!.......@..
40000000000E3BE0 08 00 20 44 98 11 00 00 00 02 00 00 00 00 04 00 .. D............
40000000000E3BF0 11 38 01 42 00 21 00 00 00 02 00 00 98 70 F3 58 .8.B.!.......p.X
40000000000E3C00 09 08 00 4A 00 21 00 00 00 02 00 00 40 02 AA 00 ...J.!......@...
40000000000E3C10 11 00 00 00 01 00 00 18 05 80 03 80 08 00 84 00 ................
40000000000E3C20 11 00 00 00 01 00 00 00 00 02 00 00 A8 7A F3 58 .............z.X
40000000000E3C30 11 08 00 4A 00 21 60 0A 20 00 42 00 98 50 00 50 ...J.!`. .B..P.P
40000000000E3C40 08 08 00 4A 00 21 00 00 00 02 00 E0 04 00 01 84 ...J.!..........
40000000000E3C50 19 30 01 10 00 21 00 00 00 02 00 00 38 75 F3 58 .0...!......8u.X
40000000000E3C60 08 00 00 00 01 00 10 00 94 00 42 C0 04 40 00 84 ..........B..@..
40000000000E3C70 19 00 20 44 98 11 70 02 84 00 42 00 18 70 F3 58 .. D..p...B..p.X
40000000000E3C80 09 08 00 4A 00 21 00 00 00 02 00 00 40 02 AA 00 ...J.!......@...
40000000000E3C90 11 00 00 00 01 00 00 18 05 80 03 80 08 00 84 00 ................
40000000000E3CA0 08 00 00 00 01 00 00 00 00 02 00 00 00 00 04 00 ................
40000000000E3CB0 08 00 00 00 01 00 00 00 00 02 00 00 00 00 04 00 ................

;; set_itemlist_dirty: 40000000000E3CC0
set_itemlist_dirty proc
	{ ld4	r14,[r32]; or	r14,0x2,r14; nop.i	0x0; }
	{ st4	[r14],r32; nop.i	0x0; br.ret	b0; }
40000000000E3CE0 08 00 00 00 01 00 00 00 00 02 00 00 00 00 04 00 ................
40000000000E3CF0 08 00 00 00 01 00 00 00 00 02 00 00 00 00 04 00 ................

;; initialize_itemlist: 40000000000E3D00
initialize_itemlist proc
	{ alloc	r34,ar.pfs,0x5,0x0,0x4; adds	r14,0x8,r32; mov	r33,b1 }
	{ adds	r35,0x0,r1; nop.m	0x0; adds	r36,0x0,r32; }
	{ ld8	r8,[r14]; ld8	r14,[r8],8; nop.i	0x0; }
	{ nop.m	0x0; mov.spnt	b6,r14,40000000000E3D30; nop.i	0x0 }
	{ ld8	r1,[r8]; nop.m	0x0; br.call.sptk.many	b0,b6; }
	{ ld4	r14,[r32]; adds	r1,0x0,r35; mov.i	ar.pfs,r34; }
	{ and	r14,0xFD,r14; mov.spnt	b0,r33,40000000000E3D60; or	r14,0x4,r14; }
	{ st4	[r14],r32; nop.i	0x0; br.ret	b0; }

;; clean_itemlist: 40000000000E3D80
clean_itemlist proc
	{ alloc	r36,ar.pfs,0x7,0x0,0x6; adds	r34,0x10,r32; mov	r35,b3 }
	{ adds	r37,0x0,r1; ld8	r33,[r34]; nop.i	0x0; }
	{ cmp.eq	p06,p07,0x0,r33; nop.i	0x0; (p06) br.cond.dpnt.few	40000000000E3E00; }

l40000000000E3DB0:
	{ ld4	r14,[r32]; and	r15,0x30,r14; nop.i	0x0; }
	{ cmp4.eq	p07,p06,0x0,r15; nop.i	0x0; (p07) br.cond.dpnt.few	40000000000E3E60; }

l40000000000E3DD0:
	{ nop.m	0x0; tbit.z	p07,p06,r14,0x4; (p07) br.cond.dpnt.few	40000000000E3E30 }

l40000000000E3DE0:
	{ nop.m	0x0; adds	r38,0x0,r33; br.call.sptk.many	b0,400000000001A7E0; }
	{ adds	r1,0x0,r37; nop.m	0x0; nop.i	0x0 }

l40000000000E3E00:
	{ ld4	r14,[r32]; st8	[r0],r34; mov.i	ar.pfs,r36; }
	{ and	r14,0xC9,r14; nop.m	0x0; mov.spnt	b0,r35,40000000000E3E10; }
	{ st4	[r14],r32; nop.i	0x0; br.ret	b0; }

l40000000000E3E30:
	{ ld8	r38,[r33]; nop.i	0x0; br.call.sptk.many	b0,400000000001A7E0; }
	{ adds	r1,0x0,r37; adds	r38,0x0,r33; br.call.sptk.many	b0,400000000001A7E0; }
	{ nop.m	0x0; adds	r1,0x0,r37; br.cond.sptk.few	40000000000E3E00 }

l40000000000E3E60:
	{ ld8	r38,[r33]; nop.i	0x0; br.call.sptk.many	b0,strvec_flush; }
	{ ld4	r14,[r32]; nop.m	0x0; adds	r1,0x0,r37; }
	{ nop.m	0x0; tbit.z	p07,p06,r14,0x4; (p06) br.cond.dptk.few	40000000000E3DE0 }

l40000000000E3E90:
	{ nop.m	0x0; nop.i	0x0; br.cond.sptk.few	40000000000E3E30; }
40000000000E3EA0 08 00 00 00 01 00 00 00 00 02 00 00 00 00 04 00 ................
40000000000E3EB0 08 00 00 00 01 00 00 00 00 02 00 00 00 00 04 00 ................
40000000000E3EC0 08 68 4D 20 80 05 E0 00 80 30 20 E0 05 00 CC 00 .hM .....0 .....
40000000000E3ED0 0B 70 01 02 00 21 E0 38 38 58 40 80 05 00 C4 00 .p...!.88X@.....
40000000000E3EE0 11 38 10 1C 06 39 00 00 00 02 80 03 40 00 00 43 .8...9......@..C
40000000000E3EF0 0B 70 00 40 10 10 F0 18 38 58 40 00 00 00 04 00 .p.@....8X@.....
40000000000E3F00 11 30 00 1E 87 39 00 00 00 02 80 03 60 04 00 43 .0...9......`..C
40000000000E3F10 10 00 00 00 01 00 70 20 38 0C A8 03 E0 03 00 43 ......p 8......C
40000000000E3F20 09 00 00 00 01 00 00 82 80 00 42 00 00 00 04 00 ..........B.....
40000000000E3F30 0B 70 00 40 18 10 60 00 38 0E 72 C0 C1 70 00 84 .p.@..`.8.r..p..
40000000000E3F40 D1 50 01 00 00 21 00 00 00 02 00 03 90 02 00 43 .P...!.........C
40000000000E3F50 09 00 00 00 01 00 00 03 38 20 20 00 00 00 04 00 ........8  .....
40000000000E3F60 11 80 05 60 00 21 00 00 00 02 00 00 E8 AB 04 50 ...`.!.........P
40000000000E3F70 08 00 00 00 01 00 10 00 B8 00 42 40 05 40 00 84 ..........B@.@..
40000000000E3F80 19 30 01 40 18 10 00 03 84 00 42 00 08 4E FF 58 .0.@......B..N.X
40000000000E3F90 08 08 00 5C 00 21 00 00 00 02 00 20 05 40 00 84 ...\.!..... .@..
40000000000E3FA0 19 90 00 10 13 39 00 00 00 02 00 09 50 02 00 43 .....9......P..C
40000000000E3FB0 0B 70 00 10 00 10 00 00 00 02 00 C0 01 70 50 00 .p...........pP.
40000000000E3FC0 10 00 00 00 01 00 60 00 38 0E 73 03 30 02 00 42 ......`.8.s.0..B
40000000000E3FD0 0B 70 04 10 00 21 E0 00 38 00 20 00 00 00 04 00 .p...!..8. .....
40000000000E3FE0 03 00 00 00 01 00 E0 00 38 28 00 C0 00 70 1C E6 ........8(...p..
40000000000E3FF0 10 00 00 00 01 80 81 08 00 00 48 03 50 00 00 42 ..........H.P..B
40000000000E4000 0B 70 08 52 00 21 E0 00 38 00 20 00 00 00 04 00 .p.R.!..8. .....
40000000000E4010 01 00 00 00 01 00 E0 00 38 28 00 00 00 00 04 00 ........8(......
40000000000E4020 11 00 00 00 01 00 60 00 38 0E F3 03 80 03 00 42 ......`.8......B
40000000000E4030 C9 40 08 00 00 24 00 00 00 02 00 00 00 00 04 00 .@...$..........
40000000000E4040 08 38 31 4C 00 21 20 02 00 00 42 80 04 00 00 84 .81L.! ...B.....
40000000000E4050 09 18 01 00 00 21 10 01 20 20 73 60 05 40 58 00 .....!..  s`.@X.
40000000000E4060 09 00 00 00 01 00 E0 00 9C 20 20 00 00 00 04 00 .........  .....
40000000000E4070 11 00 00 00 01 00 70 00 38 0C 63 03 50 03 00 43 ......p.8.c.P..C
40000000000E4080 00 00 00 00 01 00 E0 00 90 2C 00 00 00 00 04 00 .........,......
40000000000E4090 19 78 00 4C 18 10 00 00 00 02 00 08 70 01 00 42 .x.L........p..B
40000000000E40A0 09 78 3C 44 00 20 80 02 A8 30 20 00 00 00 04 00 .x<D. ...0 .....
40000000000E40B0 09 28 01 1E 18 10 00 00 00 02 00 00 E5 40 49 80 .(...........@I.
40000000000E40C0 09 38 00 4A 06 39 00 00 00 02 00 00 06 28 01 84 .8.J.9.......(..
40000000000E40D0 F1 40 00 00 00 21 00 00 00 02 80 03 70 00 00 43 .@...!......p..C
40000000000E40E0 11 00 00 00 01 00 00 00 00 02 00 00 E8 75 F3 58 .............u.X
40000000000E40F0 11 08 00 5C 00 21 00 0B 20 00 42 00 D8 4B 00 50 ...\.!.. .B..K.P
40000000000E4100 09 70 00 4C 18 10 10 00 B8 00 42 00 06 40 00 84 .p.L......B..@..
40000000000E4110 02 70 38 44 00 20 00 00 00 02 00 00 00 00 04 00 .p8D. ..........
40000000000E4120 19 88 01 1C 18 10 00 00 00 02 00 00 68 70 F3 58 ............hp.X
40000000000E4130 08 08 00 5C 00 21 00 00 00 02 00 00 00 00 04 00 ...\.!..........
40000000000E4140 08 00 00 00 01 00 00 40 A0 30 23 80 14 20 01 84 .......@.0#.. ..
40000000000E4150 09 18 05 46 00 21 E0 00 9C 20 20 40 84 10 01 84 ...F.!...  @....
40000000000E4160 10 00 00 00 01 00 60 18 39 0E 61 03 20 FF FF 4A ......`.9.a. ..J
40000000000E4170 02 00 00 00 01 00 F0 00 90 2C 00 E0 F1 00 48 80 .........,....H.
40000000000E4180 09 70 00 54 00 21 00 00 00 02 00 00 06 48 01 84 .p.T.!.......H..
40000000000E4190 02 80 30 1C 18 14 00 00 00 02 00 E0 01 79 00 80 ..0..........y..
40000000000E41A0 0A 00 90 1C 90 11 00 00 3C 30 23 00 00 00 04 00 ........<0#.....
40000000000E41B0 17 00 00 00 00 88 04 10 00 80 21 00 38 66 F3 58 ..........!.8f.X
40000000000E41C0 08 08 00 5C 00 21 00 00 00 02 00 00 00 00 04 00 ...\.!..........
40000000000E41D0 03 40 00 54 00 21 F0 7F C1 BF 05 00 D0 02 AA 00 .@.T.!..........
40000000000E41E0 10 00 00 00 01 00 00 60 05 80 03 80 08 00 84 00 .......`........
40000000000E41F0 10 00 00 00 01 00 80 00 00 00 42 00 50 FE FF 48 ..........B.P..H
40000000000E4200 09 78 3C 44 00 20 E0 00 A4 00 20 00 00 00 04 00 .x<D. .... .....
40000000000E4210 09 28 01 1E 18 10 00 00 00 02 00 00 02 70 50 00 .(...........pP.
40000000000E4220 0B 70 00 4A 00 10 00 00 00 02 00 C0 01 70 50 00 .p.J.........pP.
40000000000E4230 10 00 00 00 01 00 70 70 40 0C 71 03 20 FF FF 4A ......pp@.q. ..J
40000000000E4240 08 80 01 4A 00 21 00 00 00 02 00 20 06 48 01 84 ...J.!..... .H..
40000000000E4250 19 90 01 56 00 21 00 00 00 02 00 00 D8 7D F3 58 ...V.!.......}.X
40000000000E4260 00 00 00 00 01 00 E0 00 90 2C 00 20 00 70 01 84 .........,. .p..
40000000000E4270 18 00 00 00 01 00 60 00 20 0E F3 03 E0 FE FF 4A ......`. ......J
40000000000E4280 09 40 01 54 18 10 00 00 00 02 00 00 06 28 01 84 .@.T.........(..
40000000000E4290 11 40 39 50 12 20 00 00 00 02 00 00 38 74 F3 58 .@9P. ......8t.X
40000000000E42A0 11 08 00 5C 00 21 00 0B 20 00 42 00 28 4A 00 50 ...\.!.. .B.(J.P
40000000000E42B0 09 70 00 4C 18 10 10 00 B8 00 42 00 06 40 00 84 .p.L......B..@..
40000000000E42C0 09 00 00 00 01 00 E0 70 88 00 40 00 00 00 04 00 .......p..@.....
40000000000E42D0 11 88 01 1C 18 10 00 00 00 02 00 00 B8 6E F3 58 .............n.X
40000000000E42E0 10 00 00 00 01 00 10 00 B8 00 42 00 60 FE FF 48 ..........B.`..H
40000000000E42F0 09 70 20 40 00 21 00 00 00 02 00 00 06 00 01 84 .p @.!..........
40000000000E4300 0B 40 00 1C 18 10 E0 40 20 30 28 00 00 00 04 00 .@.....@ 0(.....
40000000000E4310 00 00 00 00 01 00 60 70 04 80 03 00 00 00 04 00 ......`p........
40000000000E4320 19 08 00 10 18 10 00 00 00 02 00 00 68 00 80 10 ............h...
40000000000E4330 03 70 00 40 10 10 10 00 B8 00 42 C0 D1 77 B0 88 .p.@......B..w..
40000000000E4340 09 00 00 00 01 00 E0 20 38 5C 40 00 00 00 04 00 ....... 8\@.....
40000000000E4350 10 00 38 40 90 11 00 00 00 02 00 00 D0 FB FF 48 ..8@...........H
40000000000E4360 11 80 01 40 00 21 00 00 00 02 00 00 28 FA FF 58 ...@.!......(..X
40000000000E4370 09 70 00 40 10 10 00 00 00 02 00 20 00 70 01 84 .p.@....... .p..
40000000000E4380 10 00 00 00 01 00 70 20 38 0C 28 03 A0 FB FF 4A ......p 8.(....J
40000000000E4390 10 00 00 00 01 00 00 00 00 02 00 00 60 FF FF 48 ............`..H
40000000000E43A0 11 80 01 52 00 21 00 00 00 02 00 00 28 73 F3 58 ...R.!......(s.X
40000000000E43B0 10 00 00 00 01 00 10 00 B8 00 42 00 90 FC FF 48 ..........B....H
40000000000E43C0 11 78 00 00 00 21 40 02 00 00 42 00 C0 FD FF 48 .x...!@...B....H
40000000000E43D0 08 00 00 00 01 00 00 00 00 02 00 00 00 00 04 00 ................
40000000000E43E0 08 00 00 00 01 00 00 00 00 02 00 00 00 00 04 00 ................
40000000000E43F0 08 00 00 00 01 00 00 00 00 02 00 00 00 00 04 00 ................

;; filter_stringlist: 40000000000E4400
filter_stringlist proc
	{ alloc	r46,ar.pfs,0x14,0x0,0x10; adds	r37,0xC,r32; mov	r45,b5 }
	{ cmp.eq	p06,p07,0x0,r32; adds	r14,0x0,r33; (p06) br.cond.dpnt.few	40000000000E4710; }

l40000000000E4420:
	{ ld8	r15,[r32]; cmp.eq	p07,p06,0x0,r33; adds	r47,0x0,r1; }
	{ cmp.eq	p08,p09,0x0,r15; (p07) adds	r44,0x0,r0; (p08) br.cond.dpnt.few	40000000000E4710; }

l40000000000E443C:
	{ (p23) nop; cmp.eq	p00,p00,r32,r0; Invalid }

l40000000000E4442:
	{ Invalid; (p16) break.i	0x20209; deposit	r32,r0,r32,63,4 }
	{ (p48) break.m	0x73123; Invalid; Invalid }
	{ Invalid; (p16) break.i	0x20008; Invalid }
	{ Invalid; (p32) nop; Invalid }
	{ (p16) break.m	0x20008; mov	pr,r0,0x8040; (p48) nop }
	{ Invalid; (p48) cmp.eq.unc	p35,p01,r97,r92; (p06) nop; }
	{ (p59) break.m	0x730C3; Invalid; Invalid }
	{ (p32) break.m	0x42003; nop }
	{ cmp.eq.and	p32,p32,r0,r0; (p52) nop; Invalid }
	{ nop; break.i	0x42004; nop }
	{ (p32) break.m	0x720E3; nop; Invalid }
	{ (p32) break.m	0x20003; mov	pr,r0,0x8040; Invalid }
	{ Invalid; (p48) deposit	r67,r97,r92,63,1; (p63) nop }
	{ (p16) break.m	0x42008; break.i	0x20; nop; }
	{ Invalid; nop }
	{ Invalid; nop; }
	{ (p48) nop; nop; Invalid }
	{ Invalid; (p30) nop; nop }
	{ Invalid; chk.s.i	r64,3FFFFFFFFFCEC562; Invalid; }
	{ (p32) break.m	0x20203; nop; Invalid; }
	{ break.m	0x20; addl	r32,0,r0; Invalid }
	{ (p16) break.m	0x20209; zxt1	r32,r0; (p48) tbit.z.and	p11,p02,r48,0x20 }
	{ break.m	0x42002; nop; Invalid; }
	{ Invalid; (p32) nop.i	0xE30E3; Invalid }
	{ chk.a.nc	r32,3FFFFFFFFF8E45C2; Invalid; Invalid }
	{ cmp4.eq.and	p08,p32,r6,r8; (p49) chk.s.i	r0,40000000008EC652; Invalid }
	{ (p32) break.m	0x20303; Invalid; (p04) addl	r0,793088,r2; }
	{ break.m	0x42000; nop; (p44) deposit	r30,r0,r42,31,2; }
	{ nop; (p48) nop }
	{ Invalid; (p02) nop }
	{ Invalid; (p37) break.i	0x40183; Invalid }
	{ Invalid; (p32) nop.i	0xF30E3; Invalid }
	{ Invalid; (p32) nop; Invalid }
	{ cmp.eq	p08,p00,0x6,r8; Invalid; Invalid }
	{ (p48) nop; mov	r3,ip; Invalid }
	{ break.m	0x20304; nop; Invalid }
	{ (p50) cmp.lt	p03,p00,r102,r8; (p33) break.i	0x2320A; Invalid }
	{ Invalid; (p16) break.i	0x20209; Invalid }
	{ Invalid; (p36) deposit	r99,r33,r88,63,1; Invalid }
	{ (p32) nop; Invalid; Invalid }
	{ Invalid; (p48) break.i	0x2030A; break.i	0x80020; }
	{ Invalid; (p48) cmp4.ne.or.andcm	p03,p32,r5,r0; Invalid }
	{ break.m	0x20; (p32) break.i	0x23303; Invalid }
	{ cmpxchg1.acq	r0,[r100],r0; nop; Invalid }
	{ (p48) break.m	0x4200B; break.i	0x20; deposit	r32,r0,r32,63,2 }

l40000000000E4710:
	{ adds	r8,0x0,r32; nop.m	0x0; mov.i	ar.pfs,r46; }
	{ nop.m	0x0; mov.spnt	b0,r45,40000000000E4720; br.ret	b0 }
40000000000E4730 09 70 00 40 18 10 00 00 00 02 00 80 14 20 01 84 .p.@......... ..
40000000000E4740 09 70 38 46 00 20 00 00 00 02 00 60 84 18 01 84 .p8F. .....`....
40000000000E4750 11 80 01 1C 18 10 00 00 00 02 00 00 98 60 F3 58 .............`.X
40000000000E4760 09 70 00 4A 10 10 00 00 00 02 00 20 00 78 01 84 .p.J....... .x..
40000000000E4770 10 00 00 00 01 00 60 20 39 0E 61 03 50 FE FF 4A ......` 9.a.P..J
40000000000E4780 10 00 00 00 01 00 00 00 00 02 00 00 30 FF FF 48 ............0..H
40000000000E4790 08 80 01 42 00 21 10 33 01 00 48 40 06 10 01 84 ...B.!.3..H@....
40000000000E47A0 19 98 05 00 00 24 80 02 00 00 42 00 E8 50 FF 58 .....$....B..P.X
40000000000E47B0 09 38 01 10 00 10 C0 02 20 00 42 20 00 78 01 84 .8...... .B .x..
40000000000E47C0 01 00 00 00 01 00 70 02 9C 28 00 C0 04 60 01 84 ......p..(...`..
40000000000E47D0 0B 30 84 4E 87 B9 71 0A 00 00 48 00 00 00 04 00 .0.N..q...H.....
40000000000E47E0 EB 38 01 00 00 21 60 00 9C 0E 73 00 00 00 04 00 .8...!`...s.....
40000000000E47F0 F1 30 05 58 00 E1 81 0A 00 00 48 00 60 FD FF 48 .0.X......H.`..H
40000000000E4800 08 70 20 40 00 21 90 82 07 76 48 00 05 00 00 84 .p @.!...vH.....
40000000000E4810 09 38 01 00 00 21 C0 02 84 00 42 C0 04 08 01 84 .8...!....B.....
40000000000E4820 08 00 00 00 01 00 80 0A A0 5E 40 60 04 00 00 84 .........^@`....
40000000000E4830 19 20 01 00 00 21 00 03 38 20 20 00 18 A3 04 50 . ...!..8  ....P
40000000000E4840 08 70 00 4A 10 10 10 00 BC 00 42 E0 04 38 41 00 .p.J......B..8A.
40000000000E4850 09 58 01 10 00 21 A0 62 20 00 42 00 15 40 B1 80 .X...!.b .B..@..
40000000000E4860 10 00 00 00 01 00 60 00 38 0E 63 03 60 FD FF 4A ......`.8.c.`..J
40000000000E4870 11 00 00 00 01 00 00 00 00 02 00 00 40 FE FF 48 ............@..H

;; completions_to_stringlist: 40000000000E4880
completions_to_stringlist proc
	{ alloc	r40,ar.pfs,0xC,0x0,0xA; cmp.eq	p06,p07,0x0,r32; mov	r39,b7 }
	{ adds	r41,0x0,r1; adds	r42,0x0,r32; (p06) br.cond.dpnt.few	40000000000E4A50; }

l40000000000E48A0:
	{ sub	r36,0xF8,r32; nop.i	0x0; br.call.sptk.many	b0,strvec_len; }
	{ adds	r38,0x0,r8; nop.m	0x0; adds	r1,0x0,r41 }
	{ adds	r42,0x1,r8; nop.m	0x0; br.call.sptk.many	b0,strlist_create; }
	{ adds	r37,0xFFFFFFFFFFFFFFFE,r38; adds	r14,0x8,r32; adds	r15,0x10,r32 }
	{ ld8	r42,[r32]; adds	r1,0x0,r41; adds	r35,0x0,r8; }
	{ addp4	r37,r37,r0; cmp4.lt	p08,p09,0x1,r38; nop.i	0x0 }
	{ cmp.eq	p06,p07,0x0,r42; adds	r33,0x0,r14; (p06) br.cond.dpnt.few	40000000000E4A30; }

l40000000000E4910:
	{ shladd	r37,r37,0x3,r15; ld8	r14,[r14]; (p09) adds	r16,0x0,r0 }

l40000000000E4920:
	{ nop.m	0x0; (p09) adds	r38,0x0,r0; nop.i	0x0; }

l40000000000E492C:
	{ cmp.lt	p00,p19,r1,r0; mov	pr,r99,0xE480; Invalid }
	{ (p07) nop; cmp.lt	p00,p00,r32,r0; (p01) deposit	r32,r8,r6,63,8 }
	{ (p18) nop; (p01) nop }
	{ cmp.lt	p00,p09,r1,r0; deposit	r64,r99,r65,62,12; (p05) deposit	r64,r3,r64,62,0 }
	{ Invalid; Invalid; Invalid }
	{ Invalid; break.i	0x1000; break.i	0x1000 }
	{ (p42) nop; ld4	r32,[r64]; zxt1	r0,r64 }
	{ (p25) nop; invala; br.cond.sptk.few	40000000000E4B9C }
	{ ldfpd	f8,f0,[r66]; break.x	0x80C2100A01000; }
	{ (p62) nop; invala; break.b	0x1000 }
	{ nop; zxt1	r34,r64; Invalid }
	{ invala; cmp.eq	p00,p00,r32,r0; (p16) mov	pr,r72,0xE052 }
	{ (p59) cmp.lt.unc	p63,p03,r63,r37; zxt2	r95,r79; break.i	0x1000 }
	{ nop; zxt1	r4,r4; break.i	0x1000 }
	{ cmp.lt	p00,p02,r1,r0; (p01) cmp.eq.unc	p32,p08,r8,r6; (p01) cmp.lt.unc	p35,p16,r8,r64 }
	{ (p07) loadrs; Invalid; Invalid; }
	{ nop; zxt1	r96,r64; break.i	0x1000 }

l40000000000E4A30:
	{ adds	r8,0x0,r35; nop.m	0x0; mov.i	ar.pfs,r40; }
	{ nop.m	0x0; mov.spnt	b0,r39,40000000000E4A40; br.ret	b0; }

l40000000000E4A50:
	{ addl	r42,1,r0; nop.i	0x0; br.call.sptk.many	b0,strlist_create; }
	{ adds	r35,0x0,r8; adds	r1,0x0,r41; mov.i	ar.pfs,r40; }
	{ adds	r8,0x0,r35; mov.spnt	b0,r39,40000000000E4A70; br.ret	b0; }
40000000000E4A80 11 08 01 10 00 21 00 00 00 02 00 00 48 6C F3 58 .....!......Hl.X
40000000000E4A90 08 08 00 52 00 21 20 62 84 30 28 40 15 40 00 84 ...R.! b.0(@.@..
40000000000E4AA0 19 00 00 00 01 00 00 00 00 02 00 00 28 42 00 50 ............(B.P
40000000000E4AB0 08 08 00 52 00 21 00 00 00 02 00 40 05 40 00 84 ...R.!.....@.@..
40000000000E4AC0 19 58 01 40 18 10 00 00 00 02 00 00 C8 66 F3 58 .X.@.........f.X
40000000000E4AD0 08 70 00 46 58 10 00 40 88 30 23 00 80 02 AA 00 .p.FX..@.0#.....
40000000000E4AE0 09 78 04 00 00 24 80 00 8C 00 42 20 00 48 01 84 .x...$....B .H..
40000000000E4AF0 09 70 00 46 18 11 00 78 84 20 23 00 70 0A 00 07 .p.F...x. #.p...
40000000000E4B00 09 00 00 00 01 00 E0 40 38 00 42 00 00 00 04 00 .......@8.B.....
40000000000E4B10 11 00 00 1C 98 11 00 00 00 02 00 80 08 00 84 00 ................
40000000000E4B20 08 00 00 00 01 00 00 00 00 02 00 00 00 00 04 00 ................
40000000000E4B30 08 00 00 00 01 00 00 00 00 02 00 00 00 00 04 00 ................
40000000000E4B40 08 38 2D 12 80 05 00 42 80 00 42 C0 04 00 C4 00 .8-....B..B.....
40000000000E4B50 0B 40 01 02 00 21 20 02 80 30 20 00 00 00 04 00 .@...! ..0 .....
40000000000E4B60 11 00 00 00 01 00 70 00 88 0C 28 03 C0 0E 00 43 ......p...(....C
40000000000E4B70 11 18 01 00 00 21 60 10 88 0E A8 03 20 0E 00 43 .....!`..... ..C
40000000000E4B80 11 00 00 00 01 00 60 20 88 0E A8 03 80 0D 00 43 ......` .......C
40000000000E4B90 11 00 00 00 01 00 60 30 88 0E A8 03 E0 0C 00 43 ......`0.......C
40000000000E4BA0 11 00 00 00 01 00 60 60 88 0E A8 03 40 0C 00 43 ......``....@..C
40000000000E4BB0 11 00 00 00 01 00 60 70 88 0E A8 03 A0 0B 00 43 ......`p.......C
40000000000E4BC0 11 00 00 00 01 00 60 80 88 0E A8 03 00 0B 00 43 ......`........C
40000000000E4BD0 11 00 00 00 01 00 60 A0 88 0E A8 03 60 0A 00 43 ......`.....`..C
40000000000E4BE0 11 00 00 00 01 00 60 D0 88 0E A8 03 C0 09 00 43 ......`........C
40000000000E4BF0 11 00 00 00 01 00 60 E0 88 0E A8 03 20 09 00 43 ......`..... ..C
40000000000E4C00 11 00 00 00 01 00 60 F0 88 0E A8 03 80 08 00 43 ......`........C
40000000000E4C10 11 00 00 00 01 00 60 00 89 0E A8 03 E0 07 00 43 ......`........C
40000000000E4C20 11 00 00 00 01 00 60 20 89 0E A8 03 40 07 00 43 ......` ....@..C
40000000000E4C30 11 00 00 00 01 00 60 30 89 0E A8 03 A0 06 00 43 ......`0.......C
40000000000E4C40 11 00 00 00 01 00 60 40 89 0E A8 03 00 06 00 43 ......`@.......C
40000000000E4C50 11 00 00 00 01 00 60 50 89 0E A8 03 60 05 00 43 ......`P....`..C
40000000000E4C60 11 00 00 00 01 00 60 70 89 0E A8 03 C0 04 00 43 ......`p.......C
40000000000E4C70 11 00 00 00 01 00 60 40 88 0E A8 03 00 04 00 43 ......`@.......C
40000000000E4C80 11 00 00 00 01 00 60 90 88 0E A8 03 40 03 00 43 ......`.....@..C
40000000000E4C90 11 00 00 00 01 00 60 60 89 0E A8 03 80 02 00 43 ......``.......C
40000000000E4CA0 11 00 00 00 01 00 60 B0 88 0E A8 03 C0 01 00 43 ......`........C
40000000000E4CB0 11 00 00 00 01 00 60 10 89 0E A8 03 00 01 00 43 ......`........C
40000000000E4CC0 10 00 00 00 01 00 60 50 88 0E A8 03 30 00 00 43 ......`P....0..C
40000000000E4CD0 09 40 00 46 00 21 00 00 00 02 00 00 70 02 AA 00 .@.F.!......p...
40000000000E4CE0 10 00 00 00 01 00 00 30 05 80 03 80 08 00 84 00 .......0........
40000000000E4CF0 09 70 10 FA AE 27 F0 08 00 00 48 20 05 08 01 84 .p...'....H ....
40000000000E4D00 09 00 00 00 01 00 E0 00 38 30 20 00 00 00 04 00 ........80 .....
40000000000E4D10 11 00 3C 1C 90 11 00 00 00 02 00 00 38 3F FF 58 ..<.........8?.X
40000000000E4D20 08 08 00 50 00 21 00 00 00 02 00 80 04 40 00 84 ...P.!.......@..
40000000000E4D30 19 48 01 10 00 21 00 00 00 02 00 00 58 FB FF 58 .H...!......X..X
40000000000E4D40 08 08 00 50 00 21 A0 02 20 00 42 00 00 00 04 00 ...P.!.. .B.....
40000000000E4D50 19 10 01 10 00 21 90 02 8C 00 42 00 F8 A7 04 50 .....!....B....P
40000000000E4D60 08 08 00 50 00 21 00 00 00 02 00 60 04 40 00 84 ...P.!.....`.@..
40000000000E4D70 19 48 01 48 00 21 00 00 00 02 00 00 18 B6 04 50 .H.H.!.........P
40000000000E4D80 11 08 00 50 00 21 90 02 88 00 42 00 48 A1 04 50 ...P.!....B.H..P
40000000000E4D90 09 40 00 46 00 21 10 00 A0 00 42 00 70 02 AA 00 .@.F.!....B.p...
40000000000E4DA0 10 00 00 00 01 00 00 30 05 80 03 80 08 00 84 00 .......0........
40000000000E4DB0 09 50 D1 FB B4 27 00 00 00 02 00 20 05 08 01 84 .P...'..... ....
40000000000E4DC0 11 50 01 54 18 10 00 00 00 02 00 00 A8 5A F3 58 .P.T.........Z.X
40000000000E4DD0 08 08 00 50 00 21 00 00 00 02 00 A0 04 40 00 84 ...P.!.......@..
40000000000E4DE0 19 48 01 10 00 21 00 00 00 02 00 00 A8 FA FF 58 .H...!.........X
40000000000E4DF0 08 48 01 46 00 21 A0 02 20 00 42 00 00 00 04 00 .H.F.!.. .B.....
40000000000E4E00 19 08 00 50 00 21 40 02 20 00 42 00 48 A7 04 50 ...P.!@. .B.H..P
40000000000E4E10 08 08 00 50 00 21 00 00 00 02 00 60 04 40 00 84 ...P.!.....`.@..
40000000000E4E20 19 48 01 4A 00 21 00 00 00 02 00 00 68 B5 04 50 .H.J.!......h..P
40000000000E4E30 11 08 00 50 00 21 90 02 90 00 42 00 98 A0 04 50 ...P.!....B....P
40000000000E4E40 10 08 00 50 00 21 60 50 88 0E 28 03 90 FE FF 4A ...P.!`P..(....J
40000000000E4E50 11 00 00 00 01 00 00 00 00 02 00 00 A0 FE FF 48 ...............H
40000000000E4E60 09 50 11 FA B5 27 00 00 00 02 00 20 05 08 01 84 .P...'..... ....
40000000000E4E70 11 50 01 54 18 10 00 00 00 02 00 00 F8 59 F3 58 .P.T.........Y.X
40000000000E4E80 08 08 00 50 00 21 00 00 00 02 00 A0 04 40 00 84 ...P.!.......@..
40000000000E4E90 19 48 01 10 00 21 00 00 00 02 00 00 F8 F9 FF 58 .H...!.........X
40000000000E4EA0 08 48 01 46 00 21 A0 02 20 00 42 00 00 00 04 00 .H.F.!.. .B.....
40000000000E4EB0 19 08 00 50 00 21 40 02 20 00 42 00 98 A6 04 50 ...P.!@. .B....P
40000000000E4EC0 08 08 00 50 00 21 00 00 00 02 00 60 04 40 00 84 ...P.!.....`.@..
40000000000E4ED0 19 48 01 4A 00 21 00 00 00 02 00 00 B8 B4 04 50 .H.J.!.........P
40000000000E4EE0 11 08 00 50 00 21 90 02 90 00 42 00 E8 9F 04 50 ...P.!....B....P
40000000000E4EF0 10 08 00 50 00 21 60 10 89 0E 28 03 D0 FD FF 4A ...P.!`...(....J
40000000000E4F00 11 00 00 00 01 00 00 00 00 02 00 00 B0 FE FF 48 ...............H
40000000000E4F10 09 50 F1 FA AF 27 00 00 00 02 00 20 05 08 01 84 .P...'..... ....
40000000000E4F20 11 50 01 54 18 10 00 00 00 02 00 00 48 59 F3 58 .P.T........HY.X
40000000000E4F30 08 08 00 50 00 21 00 00 00 02 00 A0 04 40 00 84 ...P.!.......@..
40000000000E4F40 19 48 01 10 00 21 00 00 00 02 00 00 48 F9 FF 58 .H...!......H..X
40000000000E4F50 08 48 01 46 00 21 A0 02 20 00 42 00 00 00 04 00 .H.F.!.. .B.....
40000000000E4F60 19 08 00 50 00 21 40 02 20 00 42 00 E8 A5 04 50 ...P.!@. .B....P
40000000000E4F70 08 08 00 50 00 21 00 00 00 02 00 60 04 40 00 84 ...P.!.....`.@..
40000000000E4F80 19 48 01 4A 00 21 00 00 00 02 00 00 08 B4 04 50 .H.J.!.........P
40000000000E4F90 11 08 00 50 00 21 90 02 90 00 42 00 38 9F 04 50 ...P.!....B.8..P
40000000000E4FA0 10 08 00 50 00 21 60 B0 88 0E 28 03 10 FD FF 4A ...P.!`...(....J
40000000000E4FB0 11 00 00 00 01 00 00 00 00 02 00 00 B0 FE FF 48 ...............H
40000000000E4FC0 09 50 11 FA FC 27 00 00 00 02 00 20 05 08 01 84 .P...'..... ....
40000000000E4FD0 11 50 01 54 18 10 00 00 00 02 00 00 98 58 F3 58 .P.T.........X.X
40000000000E4FE0 08 08 00 50 00 21 00 00 00 02 00 A0 04 40 00 84 ...P.!.......@..
40000000000E4FF0 19 48 01 10 00 21 00 00 00 02 00 00 98 F8 FF 58 .H...!.........X
40000000000E5000 08 48 01 46 00 21 A0 02 20 00 42 00 00 00 04 00 .H.F.!.. .B.....
40000000000E5010 19 08 00 50 00 21 40 02 20 00 42 00 38 A5 04 50 ...P.!@. .B.8..P
40000000000E5020 08 08 00 50 00 21 00 00 00 02 00 60 04 40 00 84 ...P.!.....`.@..
40000000000E5030 19 48 01 4A 00 21 00 00 00 02 00 00 58 B3 04 50 .H.J.!......X..P
40000000000E5040 11 08 00 50 00 21 90 02 90 00 42 00 88 9E 04 50 ...P.!....B....P
40000000000E5050 10 08 00 50 00 21 60 60 89 0E 28 03 50 FC FF 4A ...P.!``..(.P..J
40000000000E5060 11 00 00 00 01 00 00 00 00 02 00 00 B0 FE FF 48 ...............H
40000000000E5070 09 50 31 FB B1 27 00 00 00 02 00 20 05 08 01 84 .P1..'..... ....
40000000000E5080 11 50 01 54 18 10 00 00 00 02 00 00 E8 57 F3 58 .P.T.........W.X
40000000000E5090 08 08 00 50 00 21 00 00 00 02 00 A0 04 40 00 84 ...P.!.......@..
40000000000E50A0 19 48 01 10 00 21 00 00 00 02 00 00 E8 F7 FF 58 .H...!.........X
40000000000E50B0 08 48 01 46 00 21 A0 02 20 00 42 00 00 00 04 00 .H.F.!.. .B.....
40000000000E50C0 19 08 00 50 00 21 40 02 20 00 42 00 88 A4 04 50 ...P.!@. .B....P
40000000000E50D0 08 08 00 50 00 21 00 00 00 02 00 60 04 40 00 84 ...P.!.....`.@..
40000000000E50E0 19 48 01 4A 00 21 00 00 00 02 00 00 A8 B2 04 50 .H.J.!.........P
40000000000E50F0 11 08 00 50 00 21 90 02 90 00 42 00 D8 9D 04 50 ...P.!....B....P
40000000000E5100 10 08 00 50 00 21 60 90 88 0E 28 03 90 FB FF 4A ...P.!`...(....J
40000000000E5110 11 00 00 00 01 00 00 00 00 02 00 00 B0 FE FF 48 ...............H
40000000000E5120 09 48 B1 FB 67 27 00 00 00 02 00 40 05 08 01 84 .H..g'.....@....
40000000000E5130 11 00 00 00 01 00 00 00 00 02 00 00 98 ED FF 58 ...............X
40000000000E5140 08 30 00 10 07 39 10 00 A0 00 42 80 04 40 00 84 .0...9....B..@..
40000000000E5150 19 48 01 46 00 21 A0 02 20 00 42 03 20 FB FF 4B .H.F.!.. .B. ..K
40000000000E5160 11 00 00 00 01 00 00 00 00 02 00 00 E8 A3 04 50 ...............P
40000000000E5170 08 08 00 50 00 21 00 00 00 02 00 60 04 40 00 84 ...P.!.....`.@..
40000000000E5180 19 48 01 48 00 21 00 00 00 02 00 00 48 9D 04 50 .H.H.!......H..P
40000000000E5190 10 08 00 50 00 21 60 40 88 0E 28 03 F0 FA FF 4A ...P.!`@..(....J
40000000000E51A0 11 00 00 00 01 00 00 00 00 02 00 00 D0 FE FF 48 ...............H
40000000000E51B0 09 48 F1 FA 68 27 00 00 00 02 00 40 05 08 01 84 .H..h'.....@....
40000000000E51C0 11 00 00 00 01 00 00 00 00 02 00 00 08 ED FF 58 ...............X
40000000000E51D0 08 30 00 10 07 39 10 00 A0 00 42 80 04 40 00 84 .0...9....B..@..
40000000000E51E0 19 48 01 46 00 21 A0 02 20 00 42 03 80 FA FF 4B .H.F.!.. .B....K
40000000000E51F0 11 00 00 00 01 00 00 00 00 02 00 00 58 A3 04 50 ............X..P
40000000000E5200 08 08 00 50 00 21 00 00 00 02 00 60 04 40 00 84 ...P.!.....`.@..
40000000000E5210 19 48 01 48 00 21 00 00 00 02 00 00 B8 9C 04 50 .H.H.!.........P
40000000000E5220 10 08 00 50 00 21 60 70 89 0E 28 03 50 FA FF 4A ...P.!`p..(.P..J
40000000000E5230 11 00 00 00 01 00 00 00 00 02 00 00 F0 FE FF 48 ...............H
40000000000E5240 09 48 91 FB 68 27 00 00 00 02 00 40 05 08 01 84 .H..h'.....@....
40000000000E5250 11 00 00 00 01 00 00 00 00 02 00 00 78 EC FF 58 ............x..X
40000000000E5260 08 30 00 10 07 39 10 00 A0 00 42 80 04 40 00 84 .0...9....B..@..
40000000000E5270 19 48 01 46 00 21 A0 02 20 00 42 03 E0 F9 FF 4B .H.F.!.. .B....K
40000000000E5280 11 00 00 00 01 00 00 00 00 02 00 00 C8 A2 04 50 ...............P
40000000000E5290 08 08 00 50 00 21 00 00 00 02 00 60 04 40 00 84 ...P.!.....`.@..
40000000000E52A0 19 48 01 48 00 21 00 00 00 02 00 00 28 9C 04 50 .H.H.!......(..P
40000000000E52B0 10 08 00 50 00 21 60 50 89 0E 28 03 B0 F9 FF 4A ...P.!`P..(....J
40000000000E52C0 11 00 00 00 01 00 00 00 00 02 00 00 F0 FE FF 48 ...............H
40000000000E52D0 09 48 31 FA 69 27 00 00 00 02 00 40 05 08 01 84 .H1.i'.....@....
40000000000E52E0 11 00 00 00 01 00 00 00 00 02 00 00 E8 EB FF 58 ...............X
40000000000E52F0 08 30 00 10 07 39 10 00 A0 00 42 80 04 40 00 84 .0...9....B..@..
40000000000E5300 19 48 01 46 00 21 A0 02 20 00 42 03 40 F9 FF 4B .H.F.!.. .B.@..K
40000000000E5310 11 00 00 00 01 00 00 00 00 02 00 00 38 A2 04 50 ............8..P
40000000000E5320 08 08 00 50 00 21 00 00 00 02 00 60 04 40 00 84 ...P.!.....`.@..
40000000000E5330 19 48 01 48 00 21 00 00 00 02 00 00 98 9B 04 50 .H.H.!.........P
40000000000E5340 10 08 00 50 00 21 60 40 89 0E 28 03 10 F9 FF 4A ...P.!`@..(....J
40000000000E5350 11 00 00 00 01 00 00 00 00 02 00 00 F0 FE FF 48 ...............H
40000000000E5360 09 48 D1 FA 69 27 00 00 00 02 00 40 05 08 01 84 .H..i'.....@....
40000000000E5370 11 00 00 00 01 00 00 00 00 02 00 00 58 EB FF 58 ............X..X
40000000000E5380 08 30 00 10 07 39 10 00 A0 00 42 80 04 40 00 84 .0...9....B..@..
40000000000E5390 19 48 01 46 00 21 A0 02 20 00 42 03 A0 F8 FF 4B .H.F.!.. .B....K
40000000000E53A0 11 00 00 00 01 00 00 00 00 02 00 00 A8 A1 04 50 ...............P
40000000000E53B0 08 08 00 50 00 21 00 00 00 02 00 60 04 40 00 84 ...P.!.....`.@..
40000000000E53C0 19 48 01 48 00 21 00 00 00 02 00 00 08 9B 04 50 .H.H.!.........P
40000000000E53D0 10 08 00 50 00 21 60 30 89 0E 28 03 70 F8 FF 4A ...P.!`0..(.p..J
40000000000E53E0 11 00 00 00 01 00 00 00 00 02 00 00 F0 FE FF 48 ...............H
40000000000E53F0 09 48 11 FA 6A 27 00 00 00 02 00 40 05 08 01 84 .H..j'.....@....
40000000000E5400 11 00 00 00 01 00 00 00 00 02 00 00 C8 EA FF 58 ...............X
40000000000E5410 08 30 00 10 07 39 10 00 A0 00 42 80 04 40 00 84 .0...9....B..@..
40000000000E5420 19 48 01 46 00 21 A0 02 20 00 42 03 00 F8 FF 4B .H.F.!.. .B....K
40000000000E5430 11 00 00 00 01 00 00 00 00 02 00 00 18 A1 04 50 ...............P
40000000000E5440 08 08 00 50 00 21 00 00 00 02 00 60 04 40 00 84 ...P.!.....`.@..
40000000000E5450 19 48 01 48 00 21 00 00 00 02 00 00 78 9A 04 50 .H.H.!......x..P
40000000000E5460 10 08 00 50 00 21 60 20 89 0E 28 03 D0 F7 FF 4A ...P.!` ..(....J
40000000000E5470 11 00 00 00 01 00 00 00 00 02 00 00 F0 FE FF 48 ...............H
40000000000E5480 09 48 B1 FA 6A 27 00 00 00 02 00 40 05 08 01 84 .H..j'.....@....
40000000000E5490 11 00 00 00 01 00 00 00 00 02 00 00 38 EA FF 58 ............8..X
40000000000E54A0 08 30 00 10 07 39 10 00 A0 00 42 80 04 40 00 84 .0...9....B..@..
40000000000E54B0 19 48 01 46 00 21 A0 02 20 00 42 03 60 F7 FF 4B .H.F.!.. .B.`..K
40000000000E54C0 11 00 00 00 01 00 00 00 00 02 00 00 88 A0 04 50 ...............P
40000000000E54D0 08 08 00 50 00 21 00 00 00 02 00 60 04 40 00 84 ...P.!.....`.@..
40000000000E54E0 19 48 01 48 00 21 00 00 00 02 00 00 E8 99 04 50 .H.H.!.........P
40000000000E54F0 10 08 00 50 00 21 60 00 89 0E 28 03 30 F7 FF 4A ...P.!`...(.0..J
40000000000E5500 11 00 00 00 01 00 00 00 00 02 00 00 F0 FE FF 48 ...............H
40000000000E5510 09 48 51 FB 6A 27 00 00 00 02 00 40 05 08 01 84 .HQ.j'.....@....
40000000000E5520 11 00 00 00 01 00 00 00 00 02 00 00 A8 E9 FF 58 ...............X
40000000000E5530 08 30 00 10 07 39 10 00 A0 00 42 80 04 40 00 84 .0...9....B..@..
40000000000E5540 19 48 01 46 00 21 A0 02 20 00 42 03 C0 F6 FF 4B .H.F.!.. .B....K
40000000000E5550 11 00 00 00 01 00 00 00 00 02 00 00 F8 9F 04 50 ...............P
40000000000E5560 08 08 00 50 00 21 00 00 00 02 00 60 04 40 00 84 ...P.!.....`.@..
40000000000E5570 19 48 01 48 00 21 00 00 00 02 00 00 58 99 04 50 .H.H.!......X..P
40000000000E5580 10 08 00 50 00 21 60 F0 88 0E 28 03 90 F6 FF 4A ...P.!`...(....J
40000000000E5590 11 00 00 00 01 00 00 00 00 02 00 00 F0 FE FF 48 ...............H
40000000000E55A0 09 48 91 FA 6B 27 00 00 00 02 00 40 05 08 01 84 .H..k'.....@....
40000000000E55B0 11 00 00 00 01 00 00 00 00 02 00 00 18 E9 FF 58 ...............X
40000000000E55C0 08 30 00 10 07 39 10 00 A0 00 42 80 04 40 00 84 .0...9....B..@..
40000000000E55D0 19 48 01 46 00 21 A0 02 20 00 42 03 20 F6 FF 4B .H.F.!.. .B. ..K
40000000000E55E0 11 00 00 00 01 00 00 00 00 02 00 00 68 9F 04 50 ............h..P
40000000000E55F0 08 08 00 50 00 21 00 00 00 02 00 60 04 40 00 84 ...P.!.....`.@..
40000000000E5600 19 48 01 48 00 21 00 00 00 02 00 00 C8 98 04 50 .H.H.!.........P
40000000000E5610 10 08 00 50 00 21 60 E0 88 0E 28 03 F0 F5 FF 4A ...P.!`...(....J
40000000000E5620 11 00 00 00 01 00 00 00 00 02 00 00 F0 FE FF 48 ...............H
40000000000E5630 09 48 31 FB 6B 27 00 00 00 02 00 40 05 08 01 84 .H1.k'.....@....
40000000000E5640 11 00 00 00 01 00 00 00 00 02 00 00 88 E8 FF 58 ...............X
40000000000E5650 08 30 00 10 07 39 10 00 A0 00 42 80 04 40 00 84 .0...9....B..@..
40000000000E5660 19 48 01 46 00 21 A0 02 20 00 42 03 80 F5 FF 4B .H.F.!.. .B....K
40000000000E5670 11 00 00 00 01 00 00 00 00 02 00 00 D8 9E 04 50 ...............P
40000000000E5680 08 08 00 50 00 21 00 00 00 02 00 60 04 40 00 84 ...P.!.....`.@..
40000000000E5690 19 48 01 48 00 21 00 00 00 02 00 00 38 98 04 50 .H.H.!......8..P
40000000000E56A0 10 08 00 50 00 21 60 D0 88 0E 28 03 50 F5 FF 4A ...P.!`...(.P..J
40000000000E56B0 11 00 00 00 01 00 00 00 00 02 00 00 F0 FE FF 48 ...............H
40000000000E56C0 09 48 71 FA 6C 27 00 00 00 02 00 40 05 08 01 84 .Hq.l'.....@....
40000000000E56D0 11 00 00 00 01 00 00 00 00 02 00 00 F8 E7 FF 58 ...............X
40000000000E56E0 08 30 00 10 07 39 10 00 A0 00 42 80 04 40 00 84 .0...9....B..@..
40000000000E56F0 19 48 01 46 00 21 A0 02 20 00 42 03 E0 F4 FF 4B .H.F.!.. .B....K
40000000000E5700 11 00 00 00 01 00 00 00 00 02 00 00 48 9E 04 50 ............H..P
40000000000E5710 08 08 00 50 00 21 00 00 00 02 00 60 04 40 00 84 ...P.!.....`.@..
40000000000E5720 19 48 01 48 00 21 00 00 00 02 00 00 A8 97 04 50 .H.H.!.........P
40000000000E5730 10 08 00 50 00 21 60 A0 88 0E 28 03 B0 F4 FF 4A ...P.!`...(....J
40000000000E5740 11 00 00 00 01 00 00 00 00 02 00 00 F0 FE FF 48 ...............H
40000000000E5750 09 48 11 FB 6C 27 00 00 00 02 00 40 05 08 01 84 .H..l'.....@....
40000000000E5760 11 00 00 00 01 00 00 00 00 02 00 00 68 E7 FF 58 ............h..X
40000000000E5770 08 30 00 10 07 39 10 00 A0 00 42 80 04 40 00 84 .0...9....B..@..
40000000000E5780 19 48 01 46 00 21 A0 02 20 00 42 03 40 F4 FF 4B .H.F.!.. .B.@..K
40000000000E5790 11 00 00 00 01 00 00 00 00 02 00 00 B8 9D 04 50 ...............P
40000000000E57A0 08 08 00 50 00 21 00 00 00 02 00 60 04 40 00 84 ...P.!.....`.@..
40000000000E57B0 19 48 01 48 00 21 00 00 00 02 00 00 18 97 04 50 .H.H.!.........P
40000000000E57C0 10 08 00 50 00 21 60 80 88 0E 28 03 10 F4 FF 4A ...P.!`...(....J
40000000000E57D0 11 00 00 00 01 00 00 00 00 02 00 00 F0 FE FF 48 ...............H
40000000000E57E0 09 48 B1 FB 6C 27 00 00 00 02 00 40 05 08 01 84 .H..l'.....@....
40000000000E57F0 11 00 00 00 01 00 00 00 00 02 00 00 D8 E6 FF 58 ...............X
40000000000E5800 08 30 00 10 07 39 10 00 A0 00 42 80 04 40 00 84 .0...9....B..@..
40000000000E5810 19 48 01 46 00 21 A0 02 20 00 42 03 A0 F3 FF 4B .H.F.!.. .B....K
40000000000E5820 11 00 00 00 01 00 00 00 00 02 00 00 28 9D 04 50 ............(..P
40000000000E5830 08 08 00 50 00 21 00 00 00 02 00 60 04 40 00 84 ...P.!.....`.@..
40000000000E5840 19 48 01 48 00 21 00 00 00 02 00 00 88 96 04 50 .H.H.!.........P
40000000000E5850 10 08 00 50 00 21 60 70 88 0E 28 03 70 F3 FF 4A ...P.!`p..(.p..J
40000000000E5860 11 00 00 00 01 00 00 00 00 02 00 00 F0 FE FF 48 ...............H
40000000000E5870 09 48 91 FB 6D 27 00 00 00 02 00 40 05 08 01 84 .H..m'.....@....
40000000000E5880 11 00 00 00 01 00 00 00 00 02 00 00 48 E6 FF 58 ............H..X
40000000000E5890 08 30 00 10 07 39 10 00 A0 00 42 80 04 40 00 84 .0...9....B..@..
40000000000E58A0 19 48 01 46 00 21 A0 02 20 00 42 03 00 F3 FF 4B .H.F.!.. .B....K
40000000000E58B0 11 00 00 00 01 00 00 00 00 02 00 00 98 9C 04 50 ...............P
40000000000E58C0 08 08 00 50 00 21 00 00 00 02 00 60 04 40 00 84 ...P.!.....`.@..
40000000000E58D0 19 48 01 48 00 21 00 00 00 02 00 00 F8 95 04 50 .H.H.!.........P
40000000000E58E0 10 08 00 50 00 21 60 60 88 0E 28 03 D0 F2 FF 4A ...P.!``..(....J
40000000000E58F0 11 00 00 00 01 00 00 00 00 02 00 00 F0 FE FF 48 ...............H
40000000000E5900 09 48 31 FA 6E 27 00 00 00 02 00 40 05 08 01 84 .H1.n'.....@....
40000000000E5910 11 00 00 00 01 00 00 00 00 02 00 00 B8 E5 FF 58 ...............X
40000000000E5920 08 30 00 10 07 39 10 00 A0 00 42 80 04 40 00 84 .0...9....B..@..
40000000000E5930 19 48 01 46 00 21 A0 02 20 00 42 03 60 F2 FF 4B .H.F.!.. .B.`..K
40000000000E5940 11 00 00 00 01 00 00 00 00 02 00 00 08 9C 04 50 ...............P
40000000000E5950 08 08 00 50 00 21 00 00 00 02 00 60 04 40 00 84 ...P.!.....`.@..
40000000000E5960 19 48 01 48 00 21 00 00 00 02 00 00 68 95 04 50 .H.H.!......h..P
40000000000E5970 10 08 00 50 00 21 60 30 88 0E 28 03 30 F2 FF 4A ...P.!`0..(.0..J
40000000000E5980 11 00 00 00 01 00 00 00 00 02 00 00 F0 FE FF 48 ...............H
40000000000E5990 09 48 D1 FA 6E 27 00 00 00 02 00 40 05 08 01 84 .H..n'.....@....
40000000000E59A0 11 00 00 00 01 00 00 00 00 02 00 00 28 E5 FF 58 ............(..X
40000000000E59B0 08 30 00 10 07 39 10 00 A0 00 42 80 04 40 00 84 .0...9....B..@..
40000000000E59C0 19 48 01 46 00 21 A0 02 20 00 42 03 C0 F1 FF 4B .H.F.!.. .B....K
40000000000E59D0 11 00 00 00 01 00 00 00 00 02 00 00 78 9B 04 50 ............x..P
40000000000E59E0 08 08 00 50 00 21 00 00 00 02 00 60 04 40 00 84 ...P.!.....`.@..
40000000000E59F0 19 48 01 48 00 21 00 00 00 02 00 00 D8 94 04 50 .H.H.!.........P
40000000000E5A00 10 08 00 50 00 21 60 20 88 0E 28 03 90 F1 FF 4A ...P.!` ..(....J
40000000000E5A10 11 00 00 00 01 00 00 00 00 02 00 00 F0 FE FF 48 ...............H
40000000000E5A20 09 48 71 FB 6E 27 00 00 00 02 00 40 05 08 01 84 .Hq.n'.....@....
40000000000E5A30 11 00 00 00 01 00 00 00 00 02 00 00 98 E4 FF 58 ...............X
40000000000E5A40 08 30 00 10 07 39 10 00 A0 00 42 80 04 40 00 84 .0...9....B..@..
40000000000E5A50 19 50 01 10 00 21 90 02 00 00 42 03 20 F1 FF 4B .P...!....B. ..K
40000000000E5A60 11 00 00 00 01 00 00 00 00 02 00 00 E8 9A 04 50 ...............P
40000000000E5A70 08 08 00 50 00 21 00 00 00 02 00 60 04 40 00 84 ...P.!.....`.@..
40000000000E5A80 19 48 01 48 00 21 00 00 00 02 00 00 48 94 04 50 .H.H.!......H..P
40000000000E5A90 10 08 00 50 00 21 60 10 88 0E 28 03 F0 F0 FF 4A ...P.!`...(....J
40000000000E5AA0 11 00 00 00 01 00 00 00 00 02 00 00 F0 FE FF 48 ...............H
40000000000E5AB0 08 00 00 00 01 00 00 00 00 02 00 00 00 00 04 00 ................

;; gen_compspec_completions: 40000000000E5AC0
gen_compspec_completions proc
	{ alloc	r54,ar.pfs,0x20,0x0,0x19; adds	r12,0xFFFFFFFFFFFFFF90,r12; mov	r56,pr }
	{ adds	r55,0x0,r1; adds	r58,0x0,r34; adds	r39,0x18,r32; }
	{ nop.m	0x0; mov	r53,b5; adds	r57,0x0,r32 }
	{ nop.m	0x0; nop.m	0x0; br.call.sptk.many	b0,40000000000E4B40; }
	{ ld8	r14,[r39]; nop.m	0x0; adds	r44,0x0,r8 }
	{ adds	r1,0x0,r55; nop.m	0x0; adds	r57,0x0,r0; }
	{ cmp.eq	p06,p07,0x0,r14; nop.i	0x0; (p06) br.cond.dpnt.few	40000000000E5C40; }

l40000000000E5B30:
	{ nop.m	0x0; nop.i	0x0; br.call.sptk.many	b0,strlist_create; }
	{ nop.m	0x0; adds	r1,0x0,r55; adds	r38,0x0,r8 }
	{ ld8	r57,[r39]; adds	r58,0x0,r0; br.call.sptk.many	b0,glob_filename; }
	{ adds	r1,0x0,r55; st8	[r8],r38; adds	r57,0x0,r8; }
	{ addl	r14,9284,r1; nop.m	0x0; nop.i	0x0; }
	{ nop.m	0x0; cmp.eq	p07,p06,r14,r8; nop.i	0x0; }
	{ (p07) st8	[r0],r38; nop.i	0x0; (p07) br.cond.dpnt.few	40000000000E5BE0; }

l40000000000E5B96:
	{ chk.a.nc	f0,3FFFFFFFFF0E6396; nop; (p32) nop }

l40000000000E5BA6:
	{ chk.a.nc	r0,3FFFFFFFFF0E63A6; nop; break.i	0x80000 }
	{ break.m	0x4000; (p32) nop; (p48) nop }

l40000000000E5BC2:
	{ (p33) nop; zxt1	r9,r16; Invalid }

l40000000000E5BC8:
	{ (p04) cmp.eq.unc	p00,p00,r16,r16; (p06) ld1	r64,[r2]; (p60) br.cond.sptk.few	40000000000E6D58 }

l40000000000E5BCE:
	{ (p32) ldfe.s	f16,[r0],-254; nop; break.i	0x119; }

l40000000000E5BD4:
	{ Invalid; (p12) break.i	0x100002; br.call.sptk.few	b0,3FFFFFFFFF1023E4 }
	{ Invalid; (p08) chk.s.i	r0,3FFFFFFFFF412C24; (p32) nop }
	{ (p08) break.m	0x100004; Invalid; (p08) deposit	r76,r1,r57,15,0 }
	{ (p08) break.m	0x100004; chk.s.i	r0,3FFFFFFFFF33EC04; (p32) nop }
	{ (p08) break.m	0x11E04; Invalid; (p61) break.i	0x4C }
	{ cmp.lt	p00,p56,r56,r0; break.i	0x100002; nop; }
	{ (p12) break.m	0x100002; break.i	0x100000; br.cond.sptk.many	40000000008ECC34 }

l40000000000E5C40:
	{ adds	r14,0x20,r32; ld8	r38,[r14]; nop.i	0x0; }
	{ cmp.eq	p06,p07,0x0,r38; adds	r57,0x0,r38; (p06) br.cond.dpnt.few	40000000000E6000; }

l40000000000E5C60:
	{ ld1	r14,[r38]; nop.m	0x0; sxt1	r14,r14; }
	{ cmp4.eq	p06,p07,0x0,r14; nop.i	0x0; (p06) br.cond.dpnt.few	40000000000E6000; }

l40000000000E5C80:
	{ nop.m	0x0; nop.i	0x0; br.call.sptk.many	b0,400000000001B6C0; }
	{ adds	r59,0x0,r0; adds	r58,0x0,r8; addl	r60,-1,r0 }
	{ adds	r61,0x0,r0; adds	r62,0x0,r0; adds	r63,0x0,r0; }
	{ adds	r57,0x0,r38; adds	r1,0x0,r55; br.call.sptk.many	b0,split_at_delims; }
	{ cmp.eq	p06,p07,0x0,r8; adds	r1,0x0,r55; nop.i	0x0 }
	{ adds	r38,0x0,r8; adds	r57,0x0,r8; (p06) br.cond.dpnt.few	40000000000E6000; }

l40000000000E5CE0:
	{ nop.m	0x0; nop.i	0x0; br.call.sptk.many	b0,expand_words_shellexp; }
	{ adds	r1,0x0,r55; nop.m	0x0; adds	r46,0x0,r8 }
	{ adds	r57,0x0,r38; nop.m	0x0; br.call.sptk.many	b0,dispose_words; }
	{ adds	r1,0x0,r55; adds	r57,0x0,r46; br.call.sptk.many	b0,list_length; }
	{ adds	r1,0x0,r55; adds	r57,0x1,r8; br.call.sptk.many	b0,strlist_create; }
	{ adds	r1,0x0,r55; nop.m	0x0; adds	r45,0x0,r8 }
	{ adds	r57,0x0,r34; nop.m	0x0; br.call.sptk.many	b0,bash_dequote_text; }
	{ adds	r1,0x0,r55; nop.m	0x0; adds	r43,0x0,r8 }
	{ cmp.eq	p18,p19,0x0,r8; nop.m	0x0; (p18) br.cond.dpnt.few	40000000000E6E70; }

l40000000000E5D70:
	{ ld1	r14,[r8]; nop.m	0x0; sxt1	r14,r14; }
	{ nop.m	0x0; cmp4.eq	p06,p07,0x0,r14; (p06) br.cond.dptk.few	40000000000E6E70 }

l40000000000E5D90:
	{ adds	r14,0x1,r8; ld1	r14,[r14]; nop.i	0x0; }
	{ nop.m	0x0; sxt1	r14,r14; cmp4.eq	p06,p07,0x0,r14; }
	{ nop.m	0x0; (p06) addl	r8,1,r0; (p06) br.cond.dptk.few	40000000000E5E20 }

l40000000000E5DBC:
	{ (p03) cmp.lt	p00,p11,r0,r33; (p33) cmp.lt.unc	p32,p16,r10,r64; (p01) rfi }

l40000000000E5DC2:
	{ Invalid; (p32) break.m	0x20003; break.i	0x80020 }
	{ Invalid; (p32) chk.s.i	r5,40000000008E5E02; Invalid }
	{ nop; add	r0,r0,r82,0x1; Invalid }
	{ chk.a.nc	f32,3FFFFFFFFF4E5DF2; (p48) nop; Invalid }
	{ (p48) break.m	0x4200D; break.i	0x20; Invalid }
	{ break.m	0x20; break.i	0x20; nop }

l40000000000E5E20:
	{ adds	r38,0x0,r46; adds	r40,0x0,r0; nop.b	0x0 }
	{ cmp4.eq	p17,p16,0x0,r8; sxt4	r47,r8; cmp.eq	p06,p07,0x0,r46; }
	{ nop.m	0x0; nop.i	0x0; (p06) br.cond.dpnt.few	40000000000E7470; }

l40000000000E5E50:
	{ nop.m	0x0; nop.m	0x0; nop.i	0x0 }

l40000000000E5E60:
	{ nop.m	0x0; sxt4	r14,r40; nop.i	0x0 }
	{ adds	r39,0x8,r38; nop.m	0x0; (p16) br.cond.dptk.few	40000000000E6E80; }

l40000000000E5E80:
	{ ld8	r15,[r39]; ld8	r42,[r45]; nop.i	0x0; }
	{ nop.m	0x0; shladd	r42,r14,0x3,r42; nop.i	0x0; }
	{ ld8	r41,[r15]; cmp.eq	p07,p06,0x0,r41; adds	r57,0x0,r41; }
	{ (p07) adds	r8,0x0,r0; nop.i	0x0; (p07) br.cond.dpnt.few	40000000000E5F10; }

l40000000000E5EB6:
	{ chk.a.nc	f0,3FFFFFFFFF0E66B6; nop; break.i	0x80000 }
	{ break.m	0x4000; (p32) nop; (p16) nop }

l40000000000E5ED2:
	{ (p48) nop; nop; Invalid }

l40000000000E5ED8:
	{ (p01) nop; Invalid; Invalid }

l40000000000E5EDE:
	{ nop; (p33) nop; (p01) deposit	r16,r4,r100,63,1 }

l40000000000E5EEA:
	{ Invalid; (p14) nop; Invalid }
	{ (p01) add	r0,r0,r0; (p32) nop; (p02) mov	pr,0x1 }
	{ sum	0x0; (p32) mov	pr,0x0; nop }

l40000000000E5F10:
	{ nop.m	0x0; st8	[r8],r42; adds	r40,0x1,r40 }

l40000000000E5F20:
	{ nop.m	0x0; ld8	r38,[r38]; nop.i	0x0; }
	{ nop.m	0x0; cmp.eq	p07,p06,0x0,r38; (p06) br.cond.dptk.few	40000000000E5E60 }

l40000000000E5F40:
	{ nop.m	0x0; sxt4	r16,r40; shladd	r16,r16,0x3,r0 }

l40000000000E5F50:
	{ adds	r14,0x0,r45; nop.m	0x0; adds	r57,0x0,r46; }
	{ nop.m	0x0; ld8	r15,[r14],12; nop.i	0x0; }
	{ add	r15,r15,r16; st4	[r40],r14; nop.i	0x0; }
	{ st8	[r0],r15; nop.i	0x0; br.call.sptk.many	b0,dispose_words; }
	{ adds	r1,0x0,r55; nop.m	0x0; adds	r57,0x0,r43 }
	{ nop.b	0x0; (p18) br.cond.dpnt.few	40000000000E5FC0; br.call.sptk.many	b0,400000000001A7E0; }

l40000000000E5FAC:
	{ (p02) nop; invala; break.i	0x1000 }

l40000000000E5FB2:
	{ (p48) break.m	0x4200D; break.i	0x20; cmp.gt	p32,p04,r0,r32 }

l40000000000E5FB8:
	{ (p16) break.m	0x0; (p16) mov	pr,r32,0x2000; (p48) mov	pr,r16,0x4004 }

l40000000000E5FBE:
	{ nop; (p01) nop }

l40000000000E5FC0:
	{ adds	r57,0x0,r44; adds	r58,0x0,r45; br.call.sptk.many	b0,strlist_append; }

l40000000000E5FC4:
	{ Invalid; (p08) chk.s.i	r0,3FFFFFFFFF397004; (p32) nop }
	{ (p08) break.m	0x100004; Invalid; (p08) extr.u	r76,r57,0,1 }
	{ (p08) break.m	0x100004; chk.s.i	r0,3FFFFFFFFF2C2FE4; (p32) nop }
	{ (p08) break.m	0x100004; break.i	0x100000; deposit	r72,r0,r46,59,0 }

l40000000000E6000:
	{ adds	r46,0x40,r32; nop.m	0x0; adds	r50,0x38,r32; }
	{ nop.m	0x0; ld8	r14,[r46]; nop.i	0x0; }
	{ nop.m	0x0; cmp.eq	p07,p06,0x0,r14; (p07) br.cond.dpnt.few	40000000000E6D00 }

l40000000000E6030:
	{ addl	r14,-10540,r1; addl	r40,-10252,r1; nop.i	0x0 }
	{ adds	r58,0x0,r35; adds	r59,0x0,r36; adds	r39,0x70,r12; }
	{ ld8	r14,[r14]; ld8	r40,[r40]; nop.i	0x0; }
	{ ld8	r57,[r14]; nop.i	0x0; br.call.sptk.many	b0,substring; }
	{ adds	r1,0x0,r55; ld4	r60,[r40]; adds	r62,0x74,r12 }
	{ adds	r63,0x0,r39; adds	r48,0x0,r8; addl	r61,4,r0; }
	{ addl	r14,-10460,r1; sub	r60,r60,r35; adds	r57,0x0,r8 }
	{ sub	r58,r36,r35; ld8	r14,[r14]; nop.i	0x0; }
	{ ld8	r59,[r14]; nop.i	0x0; br.call.sptk.many	b0,split_at_delims; }
	{ ld8	r38,[r50]; adds	r47,0x0,r8; adds	r1,0x0,r55; }
	{ cmp.eq	p07,p06,0x0,r38; nop.m	0x0; adds	r57,0x0,r38; }
	{ (p07) ld8	r14,[r46]; nop.m	0x0; (p07) adds	r51,0x0,r0 }

l40000000000E60E6:
	{ addp4	r0,0xFFFFFFFFFFFFE000,r1; (p25) nop; (p01) nop }
	{ chk.a.nc	f0,3FFFFFFFFF0E68F6; nop; (p32) nop }
	{ (p20) fwb; nop; (p48) nop }
	{ break.m	0x4000; (p32) nop; (p48) nop }
	{ Invalid; nop; (p16) nop }
	{ (p30) chk.a.clr	f127,3FFFFFFFFF285BC6; nop; (p16) nop }
	{ break.m	0x4000; (p29) nop; (p48) nop }
	{ break.m	0x4000; (p32) nop; nop }
	{ Invalid; (p29) nop; (p16) nop.b	0x2600E }
	{ Invalid; (p32) nop; (p16) nop.b	0x37000 }
	{ break.m	0x4000; (p19) nop; (p16) nop }
	{ break.m	0x4000; (p32) nop; (p16) nop }
	{ Invalid; nop; (p16) br.call.sptk.few	b6,b0 }
	{ break.m	0x4000; Invalid; (p16) nop }
	{ Invalid; (p28) nop; (p16) nop }
	{ break.m	0x4000; Invalid; (p16) nop }
	{ Invalid; (p28) nop; (p16) nop }
	{ break.m	0x4000; Invalid; (p16) nop }
	{ Invalid; (p28) nop; (p16) nop }
	{ break.m	0x4000; (p32) nop; (p32) nop }
	{ add	r0,r0,r1; nop; (p16) nop }
	{ break.m	0x4000; Invalid; (p16) nop }
	{ Invalid; (p28) nop; (p16) br.call.sptk.few	b6,b0 }
	{ break.m	0x4000; (p32) nop; (p16) nop }
	{ Invalid; (p32) nop; nop }
	{ add	r0,r0,r1; (p03) mov.dptk	b4,r41,40000000000E5BF6; (p16) nop }
	{ chk.s.m	r55,4000000000166286; (p07) dep	r1,r0,r0,35,8; (p34) nop.b	0x3 }
	{ Invalid; nop; Invalid }
	{ Invalid; cmp4.eq	p00,p00,r0,r1; (p17) nop; }
	{ break.m	0x4000; (p32) nop; (p16) nop }
	{ add	r0,r0,r1; (p28) nop; nop }
	{ break.m	0x4000; (p32) nop; (p16) nop }
	{ Invalid; nop; (p16) br.call.sptk.few	b6,b0 }
	{ break.m	0x4000; (p32) nop; (p32) nop }
	{ Invalid; nop; nop }
	{ (p08) chk.a.clr	r127,3FFFFFFFFF4D62D6; nop; (p48) nop }
	{ add	r0,r0,r1; (p03) nop; (p48) nop }
	{ chk.a.nc	f0,3FFFFFFFFF0E6B36; nop; nop }
	{ mf.a; nop; (p32) nop }
	{ nop; Invalid; (p16) nop }
	{ Invalid; nop; (p16) nop }
	{ break.m	0x4000; (p32) nop; (p16) nop }
	{ break.m	0x4000; nop; deposit	r0,r0,r32,63,0 }
	{ Invalid; Invalid; Invalid }
	{ nop; tbit.z	p06,p33,r64,0x0; (p52) nop }
	{ break.m	0x4000; nop; break.i	0x80000 }
	{ (p03) chk.a.clr	f0,3FFFFFFFFFD69666; nop; (p16) nop.b	0x2C00E }
	{ Invalid; (p32) nop; (p16) nop }
	{ break.m	0x4000; (p22) nop; (p16) nop }
	{ break.m	0x4000; (p32) nop; (p16) nop }
	{ break.m	0x4000; nop; (p32) nop }
	{ break.m	0x4000; nop; (p32) nop }
	{ Invalid; nop; (p16) nop.b	0x3000E }
	{ (p29) chk.a.clr	r0,3FFFFFFFFF166726; nop; (p32) br.call.sptk.few	b1,b0 }
	{ (p29) fwb; nop; nop }
	{ Invalid; (p32) nop; break.i	0x80000 }
	{ Invalid; nop; (p16) nop }
	{ Invalid; (p29) nop; break.i	0x80000 }
	{ break.m	0x4000; (p32) nop; (p16) nop }
	{ add	r0,r0,r1; nop; (p16) nop }
	{ break.m	0x4000; (p32) nop; (p48) nop }
	{ break.m	0x4000; (p19) nop; (p16) nop }
	{ break.m	0x4000; (p21) nop; nop }
	{ (p03) chk.a.clr	r0,3FFFFFFFFFD69F46; nop; (p32) nop }
	{ break.m	0x4000; (p04) nop; break.i	0x80000 }
	{ (p07) fwb; nop; (p16) nop }
	{ Invalid; (p08) nop; (p01) nop }
	{ chk.a.nc	r0,3FFFFFFFFF0E6D16; nop; nop }
	{ break.m	0x4000; (p08) nop; break.i	0x80000 }
	{ (p03) chk.a.clr	r0,3FFFFFFFFFDA9E36; nop; nop }
	{ Invalid; (p04) mov	pr,r0,0x4008; break.i	0x80000 }
	{ (p08) break.m	0x50800; nop; break.i	0x80000 }
	{ (p03) chk.a.clr	r0,3FFFFFFFFFDA9E66; Invalid; nop }
	{ Invalid; (p07) nop; break.i	0x80000 }
	{ (p03) chk.a.clr	r0,3FFFFFFFFFDA9E66; nop; break.i	0x80000 }
	{ break.m	0x4000; (p32) nop; break.i	0x80000 }
	{ Invalid; (p04) nop; break.b	0x80000 }
	{ break.m	0x4000; nop; (p48) nop }
	{ break.m	0x4000; (p20) nop; break.i	0x80000 }
	{ (p03) chk.a.clr	r0,3FFFFFFFFFD69846; nop; (p16) nop.b	0x2806E }
	{ break.m	0x4000; (p21) nop; (p16) nop }
	{ break.m	0x4000; (p20) nop; break.i	0x80000 }
	{ (p28) break.m	0x59C80; (p32) nop; (p16) nop.b	0x37000 }
	{ Invalid; nop; (p16) nop.b	0x800E }
	{ (p29) fwb; (p32) nop; (p32) nop }
	{ break.m	0x4000; (p07) nop; (p48) nop }
	{ add	r0,r0,r1; nop; break.i	0x80000 }
	{ mf.a; (p03) nop; break.i	0x80000 }
	{ Invalid; nop; break.b	0x80000 }
	{ chk.a.nc	r0,3FFFFFFFFF0E6E76; nop; (p32) nop }
	{ (p07) fwb; nop; (p32) nop }
	{ Invalid; cmp4.ltu	p00,p00,0x0,r1; Invalid }
	{ Invalid; cmp4.eq	p00,p00,r0,r1; (p17) br.call.sptk.few	b6,b0; }
	{ break.m	0x4000; (p32) nop; (p16) nop }
	{ break.m	0x4000; (p21) nop; (p16) nop }
	{ break.m	0x4000; (p32) nop; (p32) nop }
	{ Invalid; (p28) mov.sptk	b0,r41,40000000000E67E6; (p16) nop.b	0x37000 }
	{ Invalid; (p07) nop; nop }
	{ (p03) chk.a.clr	r14,3FFFFFFFFF92A186; Invalid; break.i	0x80000 }
	{ (p20) nop; (p20) nop; break.i	0x80000 }
	{ Invalid; nop; break.i	0x80000 }
	{ (p29) break.m	0x59400; (p32) nop; break.i	0x80000 }
	{ Invalid; (p20) chk.s.i	r8,4000000000166746; break.b	0x80000 }
	{ (p28) break.m	0x59300; (p29) nop; break.b	0x80000 }
	{ Invalid; nop; (p16) nop }
	{ break.m	0x4000; Invalid; (p32) nop }
	{ (p07) add	r0,r38,r22; nop; (p16) nop.b	0x2A00E }
	{ Invalid; (p07) cmp4.eq.or.andcm	p41,p00,r15,r0; (p01) cmp.eq.or	p32,p32,r107,r3 }
	{ Invalid; (p32) nop; (p48) nop; }
	{ add	r0,r0,r1; nop; break.i	0x80000 }
	{ (p03) chk.a.clr	r0,3FFFFFFFFFD69A36; Invalid; break.b	0x80000 }
	{ (p19) break.m	0x59300; (p29) nop; (p16) nop }
	{ Invalid; nop; nop }
	{ break.m	0x4000; (p32) nop; (p32) nop }
	{ add	r0,r0,r1; (p28) nop; (p16) nop }
	{ chk.a.nc	r0,3FFFFFFFFF0E7016; nop; nop }
	{ break.m	0x4000; (p32) nop; (p16) nop }
	{ Invalid; (p32) nop; (p16) nop.b	0x37000 }
	{ Invalid; (p32) nop; (p16) nop.b	0x37000 }
	{ Invalid; (p32) nop; (p16) nop.b	0x37000 }
	{ break.m	0x4000; (p03) nop; (p16) nop }
	{ chk.a.nc	r0,3FFFFFFFFF0E7076; nop; (p32) nop }
	{ break.m	0x4000; (p07) nop; (p48) nop }
	{ chk.a.nc	r0,3FFFFFFFFF0E7096; nop; break.i	0x80000 }
	{ break.m	0x4000; (p32) nop; (p16) nop }
	{ break.m	0x4000; nop; break.i	0x80000 }
	{ (p07) fwb; nop; break.i	0x80000 }
	{ (p03) chk.a.clr	f0,3FFFFFFFFFD699B6; nop; nop }
	{ (p28) chk.a.clr	r0,3FFFFFFFFF166BD6; nop; break.b	0x80000 }
	{ break.m	0x4000; (p32) nop; (p16) nop }
	{ break.m	0x4000; nop; (p32) nop }
	{ (p28) chk.a.clr	r0,3FFFFFFFFF166C16; nop; break.b	0x80000 }
	{ break.m	0x4000; (p32) nop; (p16) nop }
	{ break.m	0x4000; nop; break.i	0x80000 }
	{ Invalid; cmp.eq	p00,p00,r0,r1; (p01) nop }
	{ (p03) chk.a.clr	f0,3FFFFFFFFFDAA486; nop; (p32) nop }
	{ Invalid; (p29) nop; break.b	0x80000 }
	{ (p29) fwb; nop; (p32) nop }
	{ chk.a.nc	r0,3FFFFFFFFF0E7186; nop; break.i	0x80000 }
	{ break.m	0x4000; (p32) nop; (p16) nop }
	{ Invalid; (p19) nop; Invalid }
	{ (p07) chk.s.m	r0,40000000002E69C6; (p07) cmp4.eq.and	p01,p08,0x0,r0; nop; }
	{ Invalid; (p07) nop; break.i	0x80000 }
	{ Invalid; nop; add	r0,r0,r32 }
	{ (p22) chk.a.clr	r0,3FFFFFFFFF166A66; nop; break.i	0x80000; }
	{ (p28) fwb; nop; nop }
	{ chk.a.nc	r0,3FFFFFFFFF0E7206; nop; break.i	0x80000 }
	{ break.m	0x4000; (p32) nop; (p16) nop }
	{ break.m	0x4000; nop; break.i	0x80000 }
	{ Invalid; (p22) nop; break.b	0x80000 }
	{ break.m	0x4000; (p32) nop; (p16) nop }
	{ break.m	0x4000; nop; (p32) nop }
	{ add	r0,r0,r1; Invalid; (p32) nop }
	{ Invalid; (p03) nop; (p48) nop }
	{ chk.a.nc	r0,3FFFFFFFFF0E7286; nop; break.i	0x80000 }
	{ break.m	0x4000; (p32) nop; break.i	0x80000 }
	{ Invalid; (p22) nop; (p32) nop.b	0x2C183 }
	{ break.m	0x4000; (p16) nop; (p32) nop }
	{ chk.a.nc	r0,3FFFFFFFFF0E72C6; nop; break.i	0x80000 }
	{ (p07) fwb; nop; break.i	0x80000 }
	{ (p03) chk.a.clr	r0,3FFFFFFFFFDA9BC6; nop; break.b	0x80000 }
	{ (p07) fwb; nop; break.i	0x80000 }
	{ (p03) chk.a.nc	f6,3FFFFFFFFFAEA3E6; nop; break.i	0x80000 }
	{ (p03) chk.a.nc	f12,3FFFFFFFFFAEA3F6; Invalid; nop }
	{ (p63) rum	0x17F838; break.i	0xAA036; break.b	0x80000 }
	{ Invalid; nop; nop }
	{ break.m	0x4000; (p34) nop; break.i	0x80000 }
	{ (p07) fwb; nop; break.i	0x80000 }
	{ (p03) chk.a.nc	r12,3FFFFFFFFFAEA446; nop; break.i	0x80000 }
	{ break.m	0x4000; nop; (p32) nop }
	{ Invalid; (p28) nop; (p32) br.call.sptk.few	b6,b0 }
	{ break.m	0x4000; (p32) nop; (p32) nop }
	{ add	r0,r0,r1; (p28) nop; (p16) nop }
	{ break.m	0x4000; (p32) nop; (p16) nop }
	{ break.m	0x4000; (p32) nop; break.i	0x80000 }
	{ Invalid; (p32) nop; (p16) nop.b	0x37000 }
	{ break.m	0x4000; nop; break.i	0x80000 }
	{ break.m	0x4000; nop; break.i	0x80000 }
	{ Invalid; (p26) nop; break.b	0x80000 }
	{ (p03) chk.a.clr	r0,3FFFFFFFFFD69EB6; nop; break.b	0x80000 }
	{ break.m	0x4000; nop; break.i	0x80000 }
	{ (p03) chk.a.nc	r16,3FFFFFFFFFAE9EC6; nop; (p48) nop.b	0x2620A }
	{ (p03) chk.a.clr	r0,3FFFFFFFFFD6A6A6; nop; break.i	0x80000 }
	{ (p07) fwb; nop; break.i	0x80000 }
	{ (p03) chk.a.clr	r0,3FFFFFFFFFDAA546; nop; (p16) nop }
	{ break.m	0x4000; (p32) nop; (p16) nop }
	{ break.m	0x4000; (p21) nop; (p16) nop }
	{ break.m	0x4000; (p32) nop; (p16) nop }
	{ break.m	0x4000; (p07) nop; (p48) nop }
	{ break.m	0x4000; (p08) nop; break.i	0x80000 }
	{ Invalid; (p28) nop; nop }
	{ mf.a; nop; (p16) nop }
	{ break.m	0x4000; (p32) nop; break.i	0x80000 }
	{ Invalid; nop; break.b	0x80000 }

l40000000000E6D00:
	{ nop.m	0x0; ld8	r14,[r50]; nop.i	0x0; }
	{ nop.m	0x0; cmp.eq	p06,p07,0x0,r14; (p07) br.cond.dptk.few	40000000000E6030; }

l40000000000E6D20:
	{ cmp.eq	p06,p07,0x0,r37; adds	r51,0x0,r0; addl	r52,1,r0; }
	{ (p07) st4	[r52],r37; cmp4.eq	p06,p07,0x0,r51; (p06) br.cond.dptk.few	40000000000E6960 }

l40000000000E6D36:
	{ (p03) chk.a.clr	r0,3FFFFFFFFFDAA866; nop; (p16) nop }

l40000000000E6D3C:
	{ (p33) nop; (p07) shladd	r0,r11,0x1,r64; (p05) epc }

l40000000000E6D42:
	{ Invalid; nop; (p03) deposit	r36,r0,r42,63,2; }
	{ invala; (p48) nop; (p07) break.i	0x5BFC }
	{ cmp.lt	p32,p00,r0,r0; (p06) nop; Invalid }
	{ Invalid; (p14) nop; nop }
	{ (p48) chk.a.nc	f110,3FFFFFFFFF4F5192; nop; Invalid }
	{ break.m	0x20; nop; Invalid }
	{ Invalid; nop; Invalid }
	{ break.m	0x20; nop; Invalid }
	{ Invalid; zxt1	r2,r16; (p48) nop }
	{ chk.a.nc	f2,3FFFFFFFFF8EF1D2; Invalid; Invalid; }
	{ (p33) break.m	0x23303; fnma.d.s0	f32,f0,f0,f0; (p58) cover }
	{ (p48) chk.a.nc	f13,3FFFFFFFFF8EF1F2; break.i	0x42002; nop }
	{ chk.a.nc	f2,3FFFFFFFFF4EF202; addl	r11,262208,r0; Invalid; }
	{ (p48) break.m	0x4200D; mov	pr,r0,0xFFFFFFFFFFFF0040; cmp.gt	p02,p06,r0,r48 }
	{ (p48) break.m	0x42009; tbit.z	p32,p00,r0,0x0; Invalid; }
	{ (p48) chk.a.nc	f13,3FFFFFFFFF4EF232; (p32) nop; (p29) deposit	r0,r0,r42,63,2 }
	{ invala; (p48) nop; (p07) break.i	0x5BFC }
	{ cmp.lt	p32,p00,r0,r0; (p06) nop; Invalid }
	{ Invalid; (p14) nop; Invalid }

l40000000000E6E70:
	{ nop.m	0x0; adds	r8,0x0,r0; br.cond.sptk.few	40000000000E5E20 }

l40000000000E6E80:
	{ ld8	r15,[r39]; ld1	r14,[r43]; nop.i	0x0; }
	{ nop.m	0x0; sxt1	r16,r14; nop.i	0x0; }
	{ ld8	r41,[r15]; ld1	r14,[r41]; nop.i	0x0; }
	{ nop.m	0x0; sxt1	r14,r14; nop.i	0x0; }
	{ nop.m	0x0; cmp4.eq	p07,p06,r14,r16; (p06) br.cond.dptk.few	40000000000E5F20 }

l40000000000E6ED0:
	{ adds	r57,0x0,r41; nop.m	0x0; adds	r58,0x0,r43 }
	{ adds	r59,0x0,r47; nop.m	0x0; br.call.sptk.many	b0,400000000001C020; }
	{ nop.m	0x0; sxt4	r14,r40; adds	r1,0x0,r55 }
	{ nop.m	0x0; cmp4.eq	p06,p07,0x0,r8; (p07) br.cond.dptk.few	40000000000E5F20 }

l40000000000E6F10:
	{ ld8	r42,[r45]; nop.m	0x0; adds	r57,0x0,r41; }
	{ shladd	r42,r14,0x3,r42; nop.i	0x0; br.call.sptk.many	b0,400000000001B6C0; }
	{ adds	r1,0x0,r55; adds	r57,0x1,r8; br.call.sptk.many	b0,xmalloc; }
	{ ld8	r14,[r39]; adds	r1,0x0,r55; adds	r57,0x0,r8; }
	{ ld8	r58,[r14]; nop.i	0x0; br.call.sptk.many	b0,400000000001B180; }
	{ nop.m	0x0; adds	r1,0x0,r55; br.cond.sptk.few	40000000000E5F10 }
40000000000E6F70 11 C8 01 10 00 21 00 01 A4 22 73 00 58 79 FD 58 .....!..."s.Xy.X
40000000000E6F80 08 70 A0 10 00 21 00 F9 F3 BF 4F 00 81 40 00 84 .p...!....O..@..
40000000000E6F90 0A 08 00 6E 00 21 F0 00 38 20 20 00 00 00 04 00 ...n.!..8  .....
40000000000E6FA0 0B 30 01 10 18 10 F0 80 3C 18 40 00 00 00 04 00 .0......<.@.....
40000000000E6FB0 10 00 3C 1C 90 11 00 00 00 02 00 08 B0 F3 FF 4A ..<............J
40000000000E6FC0 10 00 00 00 01 00 00 00 00 02 00 00 70 FC FF 48 ............p..H
40000000000E6FD0 11 C8 41 00 00 24 00 00 00 02 00 00 78 7B 04 50 ..A..$......x{.P
40000000000E6FE0 08 70 00 50 00 10 A0 03 00 00 42 A0 85 40 00 84 .p.P......B..@..
40000000000E6FF0 09 08 00 6E 00 21 B0 02 20 00 42 20 C5 40 00 84 ...n.!.. .B .@..
40000000000E7000 01 00 00 00 01 00 E0 00 38 28 00 E0 01 D0 59 00 ........8(....Y.
40000000000E7010 11 00 00 00 01 00 60 00 38 0E 73 03 60 01 00 43 ......`.8.s.`..C
40000000000E7020 0A 38 28 1C 86 39 00 00 00 02 80 C3 04 D0 01 84 .8(..9..........
40000000000E7030 19 00 00 00 01 C0 71 42 3D 00 C0 03 80 00 00 43 ......qB=......C
40000000000E7040 09 30 01 74 00 21 00 00 00 02 00 00 00 00 04 00 .0.t.!..........
40000000000E7050 08 00 00 00 01 00 00 00 00 02 00 00 00 00 04 00 ................
40000000000E7060 11 38 70 1D 86 39 00 00 00 02 80 03 C0 01 00 43 .8p..9.........C
40000000000E7070 0B 30 05 4C 00 21 00 00 00 02 00 E0 01 30 59 00 .0.L.!.......0Y.
40000000000E7080 0B 38 A1 1E 00 20 E0 00 9C 00 20 00 00 00 04 00 .8... .... .....
40000000000E7090 03 00 00 00 01 00 E0 00 38 28 00 E0 00 70 18 E6 ........8(...p..
40000000000E70A0 10 00 00 00 01 00 70 50 38 8C 73 03 C0 FF FF 4A ......pP8.s....J
40000000000E70B0 11 C8 01 50 00 21 B0 03 98 00 42 00 58 23 FF 58 ...P.!....B.X#.X
40000000000E70C0 08 D0 01 5A 10 10 00 00 00 02 00 20 00 B8 01 84 ...Z....... ....
40000000000E70D0 09 50 01 10 00 21 E0 00 A4 20 20 00 00 00 04 00 .P...!...  .....
40000000000E70E0 0A 80 FC 75 3F 23 60 70 40 0E 61 00 02 70 58 00 ...u?#`p@.a..pX.
40000000000E70F0 19 70 04 1C 00 21 00 00 00 02 80 03 B0 01 00 43 .p...!.........C
40000000000E7100 0B 78 00 56 18 10 F0 80 3C 24 40 00 00 00 04 00 .x.V....<$@.....
40000000000E7110 09 00 A8 1E 98 11 00 70 A4 20 23 00 00 00 04 00 .......p. #.....
40000000000E7120 0B 70 00 4E 00 10 00 00 00 02 00 C0 01 70 50 00 .p.N.........pP.
40000000000E7130 10 00 00 00 01 00 70 50 38 0C F3 03 E0 01 00 43 ......pP8......C
40000000000E7140 09 D0 01 4C 00 21 00 00 00 02 00 00 00 00 04 00 ...L.!..........
40000000000E7150 00 00 00 00 01 00 F0 00 E8 2C 00 00 00 00 04 00 .........,......
40000000000E7160 19 30 00 1C 87 39 00 00 00 02 80 03 C0 FE FF 4A .0...9.........J
40000000000E7170 08 00 00 00 01 00 F0 00 A4 20 20 20 07 40 01 84 .........   .@..
40000000000E7180 09 00 00 00 01 00 E0 00 AC 30 20 00 00 00 04 00 .........0 .....
40000000000E7190 03 00 00 00 01 00 F0 00 3C 2C 00 C0 F1 70 48 80 ........<,...pH.
40000000000E71A0 11 00 00 1C 98 11 00 00 00 02 00 00 48 36 F3 58 ............H6.X
40000000000E71B0 08 C8 01 58 00 21 00 00 00 02 00 20 00 B8 01 84 ...X.!..... ....
40000000000E71C0 19 D0 01 56 00 21 00 00 00 02 00 00 88 83 04 50 ...V.!.........P
40000000000E71D0 08 08 00 6E 00 21 00 00 00 02 00 80 05 40 00 84 ...n.!.......@..
40000000000E71E0 19 C8 01 56 00 21 00 00 00 02 00 00 E8 7C 04 50 ...V.!.......|.P
40000000000E71F0 09 70 00 5C 18 10 00 00 00 02 00 20 00 B8 01 84 .p.\....... ....
40000000000E7200 10 00 00 00 01 00 70 00 38 0C 72 03 E0 F6 FF 48 ......p.8.r....H
40000000000E7210 10 00 00 00 01 00 00 00 00 02 00 00 30 02 00 40 ............0..@
40000000000E7220 0B 78 A0 1E 01 20 E0 00 3C 00 20 00 00 00 04 00 .x... ..<. .....
40000000000E7230 03 00 00 00 01 00 E0 00 38 28 00 E0 A0 70 18 E6 ........8(...p..
40000000000E7240 EB 30 05 4C 00 21 60 0A 98 00 42 00 00 00 04 00 .0.L.!`...B.....
40000000000E7250 03 00 00 00 01 00 F0 00 98 2C 00 E0 84 7A 00 80 .........,...z..
40000000000E7260 09 00 00 00 01 00 E0 00 9C 00 20 00 00 00 04 00 .......... .....
40000000000E7270 03 00 00 00 01 00 E0 00 38 28 00 E0 00 70 18 E6 ........8(...p..
40000000000E7280 10 00 00 00 01 00 70 50 38 8C 73 03 E0 FD FF 4A ......pP8.s....J
40000000000E7290 10 00 00 00 01 00 00 00 00 02 00 00 20 FE FF 48 ............ ..H
40000000000E72A0 11 C8 01 56 00 21 A0 83 E8 00 42 00 28 7A 04 50 ...V.!....B.(z.P
40000000000E72B0 08 00 00 00 01 00 E0 00 A4 20 20 20 00 B8 01 84 .........   ....
40000000000E72C0 02 78 00 56 18 10 00 00 00 02 00 00 02 70 58 00 .x.V.........pX.
40000000000E72D0 0B 70 04 1C 00 21 F0 80 3C 24 40 00 00 00 04 00 .p...!..<$@.....
40000000000E72E0 09 00 A8 1E 98 11 00 70 A4 20 23 00 00 00 04 00 .......p. #.....
40000000000E72F0 0B 70 00 4E 00 10 00 00 00 02 00 C0 01 70 50 00 .p.N.........pP.
40000000000E7300 10 00 00 00 01 00 70 50 38 0C 73 03 40 FE FF 4A ......pP8.s.@..J
40000000000E7310 03 00 00 00 01 00 F0 00 98 2C 00 E0 81 7A 04 80 .........,...z..
40000000000E7320 09 70 04 1E 00 14 00 00 00 02 00 C0 14 30 01 84 .p...........0..
40000000000E7330 01 00 00 00 01 00 E0 00 38 28 00 40 07 30 01 84 ........8(.@.0..
40000000000E7340 12 30 28 1C 87 B9 01 F0 FF FF 25 00 10 FE FF 48 .0(.......%....H
40000000000E7350 11 00 00 00 01 00 00 00 00 02 00 00 B8 08 00 50 ...............P
40000000000E7360 08 78 80 00 00 24 E0 40 20 00 42 20 00 B8 01 84 .x...$.@ .B ....
40000000000E7370 09 30 01 10 00 21 A0 03 88 00 42 20 07 40 00 84 .0...!....B .@..
40000000000E7380 11 00 3C 1C 98 11 00 00 00 02 00 00 C8 D7 FF 58 ..<............X
40000000000E7390 08 08 00 6E 00 21 00 00 00 02 00 80 05 40 00 84 ...n.!.......@..
40000000000E73A0 19 C8 01 4C 00 21 00 00 00 02 00 00 28 09 00 50 ...L.!......(..P
40000000000E73B0 09 40 00 58 00 21 10 00 DC 00 42 E0 8F 83 7F 0B .@.X.!....B.....
40000000000E73C0 02 00 00 00 01 00 00 B0 01 55 00 00 50 0B 00 07 .........U..P...
40000000000E73D0 19 00 00 00 01 00 C0 80 33 00 42 80 08 00 84 00 ........3.B.....
40000000000E73E0 11 C8 01 00 00 21 00 00 00 02 00 00 28 46 F6 58 .....!......(F.X
40000000000E73F0 11 08 00 6E 00 21 90 03 C4 00 42 00 D8 47 F6 58 ...n.!....B..G.X
40000000000E7400 11 08 00 6E 00 21 90 03 A4 00 42 00 E8 33 F3 58 ...n.!....B..3.X
40000000000E7410 11 08 00 6E 00 21 90 0B 00 00 48 00 B8 BC FF 58 ...n.!....H....X
40000000000E7420 09 70 00 5C 18 10 00 00 00 02 00 20 00 B8 01 84 .p.\....... ....
40000000000E7430 11 00 00 00 01 00 70 00 38 0C 72 03 B0 F4 FF 48 ......p.8.r....H
40000000000E7440 09 00 00 00 01 00 E0 00 C8 30 20 00 00 00 04 00 .........0 .....
40000000000E7450 10 00 00 00 01 00 60 00 38 0E F2 03 90 F4 FF 48 ......`.8......H
40000000000E7460 10 00 00 00 01 00 00 00 00 02 00 00 E0 F4 FF 48 ...............H

l40000000000E7470:
	{ adds	r16,0x0,r0; adds	r40,0x0,r0; br.cond.sptk.few	40000000000E5F50 }
40000000000E7480 09 80 00 52 91 39 00 00 00 02 00 40 05 00 00 84 ...R.9.....@....
40000000000E7490 29 9A 01 00 02 24 00 00 00 02 80 88 06 48 01 84 )....$.......H..
40000000000E74A0 10 00 00 00 01 40 34 9B A5 18 C0 08 20 EF FF 4A .....@4..... ..J
40000000000E74B0 10 00 00 00 01 00 00 00 00 02 00 00 50 F7 FF 48 ............P..H
40000000000E74C0 09 00 00 00 01 00 70 02 C4 30 20 00 00 00 04 00 ......p..0 .....
40000000000E74D0 11 00 00 00 01 00 60 00 9C 0E 72 00 A0 F1 FF 48 ......`...r....H
40000000000E74E0 08 00 00 00 01 00 00 00 00 02 00 00 00 00 04 00 ................
40000000000E74F0 08 00 00 00 01 00 00 00 00 02 00 00 00 00 04 00 ................
40000000000E7500 08 78 5D 22 80 05 00 00 00 02 00 C0 05 00 C4 00 .x]"............
40000000000E7510 09 80 01 02 00 21 00 00 00 02 00 20 06 00 01 84 .....!..... ....
40000000000E7520 11 00 00 00 01 00 00 00 00 02 00 00 68 14 00 50 ............h..P
40000000000E7530 08 08 00 60 00 21 00 00 00 02 00 C0 00 40 1C E4 ...`.!.......@..
40000000000E7540 19 40 01 10 00 21 00 00 00 02 00 03 10 02 00 43 .@...!.........C
40000000000E7550 09 00 00 00 01 00 10 03 9C 30 20 00 00 00 04 00 .........0 .....
40000000000E7560 11 30 20 62 07 38 00 00 00 02 00 03 F0 01 00 43 .0 b.8.........C
40000000000E7570 11 30 00 62 07 39 00 00 00 02 00 03 30 00 00 43 .0.b.9......0..C
40000000000E7580 11 00 00 00 01 00 00 00 00 02 00 00 48 07 00 50 ............H..P
40000000000E7590 09 08 00 60 00 21 00 00 00 02 00 00 00 00 04 00 ...`.!..........
40000000000E75A0 08 70 00 50 10 10 00 00 00 02 00 40 45 08 20 91 .p.P.......@E. .
40000000000E75B0 02 48 F1 03 47 24 10 03 A0 00 42 C0 11 70 00 84 .H..G$....B..p..
40000000000E75C0 09 00 00 00 01 00 00 00 00 02 00 00 00 00 04 00 ................
40000000000E75D0 08 00 00 00 01 00 00 70 A0 20 23 00 00 00 04 00 .......p. #.....
40000000000E75E0 19 00 A0 4E 98 11 00 00 00 02 00 00 A8 09 00 50 ...N...........P
40000000000E75F0 08 08 00 60 00 21 80 02 20 00 42 20 06 40 00 84 ...`.!.. .B .@..
40000000000E7600 09 68 01 54 18 10 20 03 84 00 42 60 06 10 01 84 .h.T.. ...B`....
40000000000E7610 08 60 01 52 18 10 40 03 8C 00 42 A0 06 20 01 84 .`.R..@...B.. ..
40000000000E7620 09 00 20 54 98 11 00 08 A5 30 23 C0 06 28 01 84 .. T.....0#..(..
40000000000E7630 11 00 00 00 01 00 00 00 00 02 00 00 98 E4 FF 58 ...............X
40000000000E7640 08 30 00 4C 07 39 00 68 A9 30 23 20 00 80 01 84 .0.L.9.h.0# ....
40000000000E7650 19 00 B0 52 98 11 B0 02 20 00 42 03 B0 00 00 43 ...R.... .B....C
40000000000E7660 09 30 00 4A 07 39 00 00 00 02 00 20 06 40 01 84 .0.J.9..... .@..
40000000000E7670 E9 70 00 4A 10 D0 F1 80 A0 00 C2 03 F2 E7 F7 9F .p.J............
40000000000E7680 00 00 00 00 01 C0 E1 80 38 00 29 00 00 00 04 00 ........8.).....
40000000000E7690 EB 78 00 1E 18 90 E1 00 00 00 42 00 00 00 04 00 .x........B.....
40000000000E76A0 0B 00 38 4C 90 D1 E1 00 94 20 20 00 00 00 04 00 ..8L.....  .....
40000000000E76B0 EB 70 40 1C 0C E0 E1 78 38 1C 40 00 00 00 04 00 .p@....x8.@.....
40000000000E76C0 F3 00 38 4A 90 11 00 04 03 00 28 00 00 00 00 20 ..8J......(.... 
40000000000E76D0 08 08 00 60 00 21 00 00 00 02 00 00 00 00 04 00 ...`.!..........
40000000000E76E0 09 40 00 56 00 21 00 00 00 02 00 00 F0 02 AA 00 .@.V.!..........
40000000000E76F0 10 00 00 00 01 00 00 70 05 80 03 80 08 00 84 00 .......p........
40000000000E7700 09 30 00 4A 07 39 00 00 00 02 00 20 06 40 01 84 .0.J.9..... .@..
40000000000E7710 E9 70 00 4A 10 D0 F1 80 A0 00 C2 03 F2 E7 F7 9F .p.J............
40000000000E7720 E3 78 00 1E 18 D0 E1 80 38 18 C0 C3 F1 70 38 80 .x......8....p8.
40000000000E7730 F1 00 38 4A 90 11 00 00 00 02 00 00 98 05 00 50 ..8J...........P
40000000000E7740 10 00 00 00 01 00 10 00 C0 00 42 00 A0 FF FF 48 ..........B....H
40000000000E7750 09 58 01 00 00 21 00 00 00 02 00 00 F0 02 AA 00 .X...!..........
40000000000E7760 11 40 00 56 00 21 00 70 05 80 03 80 08 00 84 00 .@.V.!.p........
40000000000E7770 08 00 00 00 01 00 00 00 00 02 00 00 00 00 04 00 ................

;; pcomp_set_readline_variables: 40000000000E7780
pcomp_set_readline_variables proc
	{ nop.m	0x0; tbit.z	p06,p07,r32,0x2; (p07) addl	r14,-10172,r1; }

l40000000000E7790:
	{ (p07) ld8	r14,[r14]; (p07) st4	[r33],r14; tbit.z	p06,p07,r32,0x4; }

l40000000000E7796:
	{ mf.a; (p03) cmp4.ltu	p08,p40,0x20,r7; (p33) cmp4.eq.or.andcm	p03,p44,0x29,r63; }

l40000000000E77A2:
	{ Invalid; (p32) break.i	0x20303; nop }
	{ (p36) break.m	0x23203; nop }

;; pcomp_set_compspec_options: 40000000000E77C0
pcomp_set_compspec_options proc
	{ cmp.eq	p07,p06,0x0,r32; nop.m	0x0; andcm	r15,0xFF,r33 }
	{ adds	r14,0x10,r32; nop.m	0x0; (p07) br.cond.dpnt.few	40000000000E7830; }

l40000000000E77E0:
	{ cmp4.eq	p06,p07,0x0,r34; nop.m	0x0; sxt4	r15,r15; }
	{ (p07) adds	r32,0x0,r14; (p06) ld8	r16,[r14]; sxt4	r33,r33; }

l40000000000E77F6:
	{ (p08) addp4	r0,0xFFFFFFFFFFFFF00E,r24; (p16) cmp4.ltu	p00,p00,r33,r22; (p33) nop; }

l40000000000E77FC:
	{ cmp4.eq.and	p33,p41,r22,r0; nop }
	{ (p08) cmp4.eq.and	p15,p34,r12,r64; zxt1	r35,r3; break.i	0x1000; }

l40000000000E7812:
	{ (p17) break.m	0x401C8; break.m	0x20; nop }

l40000000000E7818:
	{ (p16) break.m	0x0; Invalid; pshr4.u	r66,r50,r25 }

l40000000000E781E:
	{ nop; (p32) nop }

l40000000000E782E:
	{ (p04) invala; (p04) nop }

l40000000000E7830:
	{ addl	r14,9220,r1; nop.m	0x0; sxt4	r15,r15; }

l40000000000E7834:
	{ (p34) break.m	0x100004; nop; break.i	0x58 }

l40000000000E783A:
	{ Invalid; (p44) mov	pr,0x0; nop }
	{ (p01) sum	0x0; Invalid; Invalid }
	{ (p26) chk.a.nc	f16,3FFFFFFFFF1E787A; (p36) mov	pr,0x0; Invalid }

l40000000000E7860:
	{ nop.m	0x0; cmp4.eq	p06,p07,0x0,r34; nop.i	0x0; }
	{ (p07) adds	r32,0x0,r14; (p06) ld8	r16,[r14]; sxt4	r33,r33; }

l40000000000E7876:
	{ (p08) addp4	r0,0xFFFFFFFFFFFFF00E,r24; (p16) cmp4.ltu	p00,p00,r33,r22; (p33) nop; }

l40000000000E787C:
	{ cmp4.eq.and	p33,p41,r22,r0; nop }
	{ (p08) cmp4.eq.and	p15,p34,r12,r64; zxt1	r35,r3; break.i	0x1000; }

l40000000000E7892:
	{ (p17) break.m	0x401C8; break.m	0x20; nop }

l40000000000E7898:
	{ (p16) break.m	0x0; Invalid; pshr4.u	r66,r50,r25 }

l40000000000E789E:
	{ nop; (p32) nop }

l40000000000E78AE:
	{ (p04) break.m	0x100; break.x	0x800000 }

l40000000000E78B4:
	{ break.m	0x100000; break.i	0x100000; nop; }

;; programmable_completions: 40000000000E78C0
;;   Called from:
;;     40000000000E78BA (in pcomp_set_compspec_options)
programmable_completions proc
	{ alloc	r40,ar.pfs,0x13,0x0,0xB; adds	r12,0xFFFFFFFFFFFFFFE0,r12; mov	r39,b7 }
	{ nop.m	0x0; adds	r41,0x0,r1; nop.i	0x0; }
	{ adds	r38,0x10,r12; adds	r37,0x18,r12; mov	r42,LC; }
	{ st8	[r38],r12,12; mov.i	LC,0x20; nop.i	0x0; }
	{ st4	[r0],r38; nop.m	0x0; nop.i	0x0; }
	{ nop.m	0x0; nop.m	0x0; nop.i	0x0 }

l40000000000E7920:
	{ adds	r43,0x0,r32; adds	r44,0x0,r32; adds	r45,0x0,r33 }
	{ adds	r46,0x0,r34; adds	r47,0x0,r35; adds	r48,0x0,r38; }
	{ adds	r49,0x0,r37; nop.m	0x0; adds	r50,0x10,r12 }
	{ st4	[r0],r37; nop.m	0x0; br.call.sptk.many	b0,40000000000E7500; }
	{ ld4	r14,[r38]; nop.m	0x0; adds	r43,0x0,r32 }
	{ addl	r44,47,r0; nop.m	0x0; adds	r1,0x0,r41; }
	{ nop.m	0x0; cmp4.eq	p07,p06,0x0,r14; (p06) br.cond.dptk.few	40000000000E7A30 }

l40000000000E7990:
	{ nop.m	0x0; nop.i	0x0; br.call.sptk.many	b0,400000000001BEA0; }
	{ adds	r43,0x1,r8; nop.m	0x0; adds	r1,0x0,r41 }
	{ cmp.eq	p07,p06,0x0,r8; nop.m	0x0; (p07) br.cond.dpnt.few	40000000000E79E0; }

l40000000000E79C0:
	{ ld1	r14,[r43]; nop.m	0x0; sxt1	r14,r14; }
	{ nop.m	0x0; cmp4.eq	p06,p07,0x0,r14; (p07) br.cond.dpnt.few	40000000000E7B80 }

l40000000000E79E0:
	{ addl	r43,-532,r1; adds	r44,0x0,r32; adds	r45,0x0,r33 }
	{ adds	r46,0x0,r34; adds	r47,0x0,r35; adds	r48,0x0,r38; }
	{ ld8	r43,[r43]; nop.m	0x0; adds	r49,0x0,r37 }
	{ adds	r50,0x10,r12; nop.m	0x0; br.call.sptk.many	b0,40000000000E7500; }
	{ adds	r1,0x0,r41; nop.m	0x0; nop.i	0x0 }

l40000000000E7A30:
	{ nop.m	0x0; nop.i	0x0; br.cloop.sptk.few	40000000000E7B50; }

l40000000000E7A40:
	{ addl	r43,-524,r1; adds	r14,0x20,r12; adds	r44,0x0,r32; }
	{ nop.m	0x0; st8	[r8],r14; nop.i	0x0 }
	{ ld8	r43,[r43]; nop.m	0x0; br.call.sptk.many	b0,internal_warning; }
	{ adds	r14,0x20,r12; nop.m	0x0; adds	r1,0x0,r41; }
	{ ld8	r8,[r14]; nop.m	0x0; nop.i	0x0; }

l40000000000E7A90:
	{ cmp.eq	p06,p07,0x0,r8; nop.m	0x0; adds	r43,0x0,r8; }
	{ (p06) adds	r37,0x0,r0; nop.i	0x0; (p06) br.cond.dpnt.few	40000000000E7AD0; }

l40000000000E7AA6:
	{ chk.a.nc	r0,3FFFFFFFFF0E82A6; nop; (p16) nop }

l40000000000E7AB6:
	{ (p32) flushrs; nop; (p16) nop }

l40000000000E7ABC:
	{ nop; zxt1	r32,r64; break.i	0x1000 }
	{ cmp.lt	p00,p09,r1,r0; zxt1	r4,r64; cmp.lt	p00,p00,r32,r0 }
	{ ldfp8	f36,f7,[r114]; (p05) cmp4.ne.and	p00,p40,r3,r6; Invalid }

l40000000000E7AE8:
	{ (p04) break.m	0x404; (p16) ldfe	f0,[r60],32; (p16) nop }

l40000000000E7AEE:
	{ nop; (p29) nop }

l40000000000E7AFE:
	{ (p24) break.m	0x228; (p04) break.i	0x0; (p04) chk.s.i	r0,4000000000D67AFE }

l40000000000E7B04:
	{ break.m	0x100000; break.i	0xC8000; (p32) extr.u	r66,r1,0,1; }

l40000000000E7B14:
	{ (p08) break.m	0x100004; break.i	0x100000; deposit	r24,r0,r8,23,0 }

l40000000000E7B1A:
	{ sum	0x0; Invalid; Invalid }
	{ Invalid; mov	pr,0x0; add	r0,r0,r39,0x1 }
	{ sum	0x0; Invalid; (p02) mov	pr,0x1; }
	{ Invalid; (p36) mov	pr,0x0; nop }

l40000000000E7B50:
	{ nop.m	0x0; ld4	r14,[r37]; nop.i	0x0; }
	{ nop.m	0x0; cmp4.eq	p07,p06,0x0,r14; (p06) br.cond.dptk.few	40000000000E7920 }

l40000000000E7B70:
	{ nop.m	0x0; nop.i	0x0; br.cond.sptk.few	40000000000E7A90 }

l40000000000E7B80:
	{ adds	r44,0x0,r32; adds	r45,0x0,r33; adds	r46,0x0,r34 }
	{ adds	r47,0x0,r35; adds	r48,0x0,r38; adds	r49,0x0,r37; }
	{ adds	r50,0x10,r12; nop.i	0x0; br.call.sptk.many	b0,40000000000E7500; }
	{ ld4	r14,[r38]; nop.m	0x0; adds	r1,0x0,r41; }
	{ cmp4.eq	p06,p07,0x0,r14; (p06) br.cond.spnt.few	40000000000E79E0; br.cloop.sptk.few	40000000000E7B50 }

l40000000000E7BCC:
	{ Invalid; break.i	0x1000; break.b	0x1000 }
	{ (p51) cmp.lt.unc	p63,p00,r63,r36; cmp.eq	p00,p00,r32,r0; break.b	0x1000 }
	{ cmp.lt	p00,p00,r1,r0; cmp.eq	p00,p00,r32,r0; break.i	0x1000; }
	{ nop; Invalid; (p04) deposit	r0,r32,r12,63,0; }

;; compspec_create: 40000000000E7C00
compspec_create proc
	{ alloc	r33,ar.pfs,0x4,0x0,0x3; mov	r32,b0; adds	r34,0x0,r1; }
	{ addl	r35,88,r0; nop.i	0x0; br.call.sptk.many	b0,xmalloc; }
	{ adds	r15,0x0,r8; adds	r23,0x10,r8; adds	r22,0x18,r8 }
	{ adds	r21,0x20,r8; adds	r20,0x28,r8; adds	r19,0x30,r8; }
	{ st4	[r15],r8,8; adds	r18,0x38,r8; adds	r17,0x40,r8 }
	{ adds	r16,0x48,r8; adds	r14,0x50,r8; adds	r1,0x0,r34; }
	{ st8	[r0],r23; st8	[r0],r15; mov.i	ar.pfs,r33; }
	{ st8	[r0],r22; st8	[r0],r21; mov.spnt	b0,r32,40000000000E7C70; }
	{ st8	[r0],r20; st8	[r0],r19; nop.i	0x0; }
	{ st8	[r0],r18; st8	[r0],r17; nop.i	0x0; }
	{ nop.m	0x0; st8	[r0],r16; nop.i	0x0 }
	{ st8	[r0],r14; nop.m	0x0; br.ret	b0; }

;; compspec_dispose: 40000000000E7CC0
compspec_dispose proc
	{ alloc	r34,ar.pfs,0x5,0x0,0x4; ld4	r14,[r32]; mov	r33,b1 }
	{ nop.m	0x0; adds	r35,0x0,r1; nop.i	0x0; }
	{ adds	r14,0xFFFFFFFFFFFFFFFF,r14; st4	[r14],r32; cmp4.eq	p07,p06,0x0,r14 }
	{ adds	r14,0x18,r32; nop.m	0x0; (p06) br.cond.dpnt.few	40000000000E7F20; }

l40000000000E7D00:
	{ nop.m	0x0; ld8	r36,[r14]; nop.i	0x0; }
	{ cmp.eq	p06,p07,0x0,r36; nop.i	0x0; (p06) br.cond.dpnt.few	40000000000E7D40; }

l40000000000E7D20:
	{ nop.m	0x0; nop.i	0x0; br.call.sptk.many	b0,400000000001A7E0; }
	{ adds	r1,0x0,r35; nop.m	0x0; nop.i	0x0 }

l40000000000E7D40:
	{ adds	r14,0x20,r32; ld8	r36,[r14]; nop.i	0x0; }
	{ cmp.eq	p06,p07,0x0,r36; nop.i	0x0; (p06) br.cond.dpnt.few	40000000000E7D80; }

l40000000000E7D60:
	{ nop.m	0x0; nop.i	0x0; br.call.sptk.many	b0,400000000001A7E0; }
	{ adds	r1,0x0,r35; nop.m	0x0; nop.i	0x0 }

l40000000000E7D80:
	{ adds	r14,0x28,r32; ld8	r36,[r14]; nop.i	0x0; }
	{ cmp.eq	p06,p07,0x0,r36; nop.i	0x0; (p06) br.cond.dpnt.few	40000000000E7DC0; }

l40000000000E7DA0:
	{ nop.m	0x0; nop.i	0x0; br.call.sptk.many	b0,400000000001A7E0; }
	{ adds	r1,0x0,r35; nop.m	0x0; nop.i	0x0 }

l40000000000E7DC0:
	{ adds	r14,0x30,r32; ld8	r36,[r14]; nop.i	0x0; }
	{ cmp.eq	p06,p07,0x0,r36; nop.i	0x0; (p06) br.cond.dpnt.few	40000000000E7E00; }

l40000000000E7DE0:
	{ nop.m	0x0; nop.i	0x0; br.call.sptk.many	b0,400000000001A7E0; }
	{ adds	r1,0x0,r35; nop.m	0x0; nop.i	0x0 }

l40000000000E7E00:
	{ adds	r14,0x38,r32; ld8	r36,[r14]; nop.i	0x0; }
	{ cmp.eq	p06,p07,0x0,r36; nop.i	0x0; (p06) br.cond.dpnt.few	40000000000E7E40; }

l40000000000E7E20:
	{ nop.m	0x0; nop.i	0x0; br.call.sptk.many	b0,400000000001A7E0; }
	{ adds	r1,0x0,r35; nop.m	0x0; nop.i	0x0 }

l40000000000E7E40:
	{ adds	r14,0x40,r32; ld8	r36,[r14]; nop.i	0x0; }
	{ cmp.eq	p06,p07,0x0,r36; nop.i	0x0; (p06) br.cond.dpnt.few	40000000000E7E80; }

l40000000000E7E60:
	{ nop.m	0x0; nop.i	0x0; br.call.sptk.many	b0,400000000001A7E0; }
	{ adds	r1,0x0,r35; nop.m	0x0; nop.i	0x0 }

l40000000000E7E80:
	{ adds	r14,0x48,r32; ld8	r36,[r14]; nop.i	0x0; }
	{ cmp.eq	p06,p07,0x0,r36; nop.i	0x0; (p06) br.cond.dpnt.few	40000000000E7EC0; }

l40000000000E7EA0:
	{ nop.m	0x0; nop.i	0x0; br.call.sptk.many	b0,400000000001A7E0; }
	{ adds	r1,0x0,r35; nop.m	0x0; nop.i	0x0 }

l40000000000E7EC0:
	{ adds	r14,0x50,r32; ld8	r36,[r14]; nop.i	0x0; }
	{ cmp.eq	p06,p07,0x0,r36; nop.i	0x0; (p06) br.cond.dpnt.few	40000000000E7F00; }

l40000000000E7EE0:
	{ nop.m	0x0; nop.i	0x0; br.call.sptk.many	b0,400000000001A7E0; }
	{ adds	r1,0x0,r35; nop.m	0x0; nop.i	0x0 }

l40000000000E7F00:
	{ nop.m	0x0; adds	r36,0x0,r32; br.call.sptk.many	b0,400000000001A7E0; }
	{ adds	r1,0x0,r35; nop.m	0x0; nop.i	0x0 }

l40000000000E7F20:
	{ nop.m	0x0; mov.i	ar.pfs,r34; nop.i	0x0; }
	{ nop.m	0x0; mov.spnt	b0,r33,40000000000E7F30; br.ret	b0; }
40000000000E7F40 11 10 04 00 80 05 00 00 00 02 00 00 88 FD FF 48 ...............H
40000000000E7F50 0D 00 00 00 01 00 00 00 00 00 00 00 00 00 04 00 ................
40000000000E7F60 08 00 00 00 01 00 00 00 00 02 00 00 00 00 04 00 ................
40000000000E7F70 08 00 00 00 01 00 00 00 00 02 00 00 00 00 04 00 ................

;; compspec_copy: 40000000000E7F80
compspec_copy proc
	{ alloc	r36,ar.pfs,0x8,0x0,0x6; adds	r37,0x0,r1; mov	r35,b3 }
	{ nop.m	0x0; adds	r34,0x18,r32; nop.i	0x0; }
	{ addl	r38,88,r0; nop.i	0x0; br.call.sptk.many	b0,xmalloc; }
	{ ld8	r38,[r34]; adds	r15,0x0,r32; adds	r14,0x0,r8 }
	{ adds	r16,0x10,r32; adds	r17,0x10,r8; adds	r33,0x0,r8; }
	{ cmp.eq	p06,p07,0x0,r38; ld4	r18,[r15],8; adds	r1,0x0,r37 }
	{ nop.m	0x0; ld8	r16,[r16]; nop.i	0x0; }
	{ st4	[r14],r8,8; ld8	r15,[r15]; (p06) adds	r8,0x0,r0 }

l40000000000E8000:
	{ nop.m	0x0; st8	[r16],r17; nop.i	0x0; }
	{ st8	[r15],r14; (p06) br.cond.dpnt.few	40000000000E8060; br.call.sptk.many	b0,400000000001B6C0; }

l40000000000E801C:
	{ (p53) nop; cmp.lt	p32,p16,r9,r64; (p20) epc }

l40000000000E8022:
	{ (p16) nop; tbit.z	p02,p00,r16,0x20; Invalid }

l40000000000E8028:
	{ (p01) nop; Invalid; (p20) break.i	0x10802 }

l40000000000E802E:
	{ nop; (p01) break.i	0x210; (p04) deposit	r0,r0,r24,63,1 }

l40000000000E803A:
	{ Invalid; (p38) nop; (p32) mov	pr,0x0 }
	{ setf.s	f0,r82; Invalid; (p02) mov	pr,0x1 }
	{ sum	0x0; Invalid; (p02) mov	pr,0x1 }

l40000000000E8060:
	{ adds	r34,0x20,r32; nop.m	0x0; adds	r14,0x18,r33; }
	{ ld8	r38,[r34]; st8	[r8],r14; nop.i	0x0; }
	{ nop.m	0x0; cmp.eq	p06,p07,0x0,r38; nop.i	0x0; }
	{ (p06) adds	r8,0x0,r0; nop.i	0x0; (p06) br.cond.dpnt.few	40000000000E80F0; }

l40000000000E8096:
	{ chk.a.nc	r0,3FFFFFFFFF0E8896; nop; break.i	0x80000 }
	{ break.m	0x4000; (p32) nop; (p16) nop }

l40000000000E80B2:
	{ (p16) nop; nop; Invalid }

l40000000000E80B8:
	{ (p01) nop; Invalid; (p20) break.i	0x10802 }

l40000000000E80BE:
	{ nop; (p01) break.i	0x210; (p04) deposit	r0,r0,r24,63,1 }

l40000000000E80CA:
	{ Invalid; (p38) nop; (p32) mov	pr,0x0 }
	{ setf.s	f0,r46; Invalid; (p02) mov	pr,0x1 }
	{ sum	0x0; Invalid; (p02) mov	pr,0x1 }
	{ Invalid; (p38) nop; (p32) nop }
	{ (p01) sum	0x0; (p36) mov	pr,0x0; Invalid; }
	{ (p03) sum	0x0; (p04) break.b	0x40D; (p02) break.b	0x1 }
	{ (p24) chk.a.nc	r0,3FFFFFFFFF0E82AA; (p05) mov	pr,0x1; mov	pr,0x0 }
	{ setf.s	f0,r102; Invalid; Invalid }
	{ (p02) ld1	r0,[r5]; Invalid; (p02) mov	pr,0x1 }
	{ Invalid; (p38) nop; (p32) mov	pr,0x0 }
	{ setf.s	f0,r10; Invalid; (p02) mov	pr,0x1 }
	{ sum	0x0; Invalid; (p02) mov	pr,0x1 }
	{ Invalid; (p38) nop; (p32) nop }
	{ (p01) sum	0x0; (p36) mov	pr,0x0; Invalid; }
	{ (p03) sum	0x0; (p04) break.b	0x40D; (p02) break.b	0x1 }
	{ (p24) chk.a.nc	r0,3FFFFFFFFF0E833A; (p05) mov	pr,0x1; mov	pr,0x0 }
	{ setf.s	f0,r66; Invalid; Invalid }
	{ (p02) ld1	r0,[r5]; Invalid; (p02) mov	pr,0x1 }
	{ Invalid; (p38) nop; (p32) mov	pr,0x0 }
	{ setf.s	f0,r102; Invalid; (p02) mov	pr,0x1 }
	{ sum	0x0; Invalid; (p02) mov	pr,0x1 }
	{ Invalid; (p38) nop; (p32) nop }
	{ (p01) sum	0x0; (p36) mov	pr,0x0; Invalid; }
	{ (p03) sum	0x0; (p04) break.b	0x40D; (p02) break.b	0x1 }
	{ (p24) chk.a.nc	r0,3FFFFFFFFF0E83CA; (p05) mov	pr,0x1; mov	pr,0x0 }
	{ setf.s	f0,r30; Invalid; Invalid }
	{ (p02) ld1	r0,[r5]; Invalid; (p02) mov	pr,0x1 }
	{ Invalid; (p38) nop; (p32) mov	pr,0x0 }
	{ setf.s	f0,r66; Invalid; (p02) mov	pr,0x1 }
	{ sum	0x0; Invalid; (p02) mov	pr,0x1 }
	{ Invalid; (p38) nop; (p32) nop }
	{ (p01) sum	0x0; (p36) mov	pr,0x0; Invalid; }
	{ (p03) sum	0x0; (p04) break.b	0x40D; (p02) break.b	0x1 }
	{ (p24) chk.a.nc	r0,3FFFFFFFFF0E845A; (p05) mov	pr,0x1; mov	pr,0x0 }
	{ setf.s	f0,r122; Invalid; Invalid }
	{ (p02) ld1	r0,[r4]; Invalid; (p02) mov	pr,0x1 }
	{ Invalid; (p38) nop; (p32) mov	pr,0x0 }
	{ setf.s	f0,r30; Invalid; (p02) mov	pr,0x1 }
	{ sum	0x0; Invalid; (p02) mov	pr,0x1 }
	{ Invalid; (p38) nop; (p32) nop }
	{ (p01) sum	0x0; (p36) mov	pr,0x0; Invalid; }
	{ (p03) sum	0x0; (p04) break.b	0x40D; (p02) break.b	0x1 }
	{ (p24) chk.a.nc	r0,3FFFFFFFFF0E84EA; (p05) mov	pr,0x1; mov	pr,0x0 }
	{ setf.s	f0,r86; Invalid; Invalid }
	{ (p02) ld1	r0,[r4]; Invalid; (p02) mov	pr,0x1 }
	{ Invalid; (p38) nop; (p32) mov	pr,0x0 }
	{ setf.s	f0,r122; Invalid; (p02) mov	pr,0x1 }
	{ sum	0x0; Invalid; (p02) mov	pr,0x1 }
	{ Invalid; (p38) nop; (p32) nop }
	{ (p01) sum	0x0; (p36) mov	pr,0x0; Invalid; }
	{ (p03) sum	0x0; (p04) break.b	0x78D; (p02) break.b	0x1 }
	{ (p24) chk.a.nc	r0,3FFFFFFFFF0E857A; (p05) mov	pr,0x1; mov	pr,0x0 }
	{ setf.s	f0,r50; Invalid; Invalid }
	{ (p02) ld1	r0,[r4]; Invalid; (p02) mov	pr,0x1 }
	{ Invalid; (p38) nop; (p32) mov	pr,0x0 }
	{ setf.s	f0,r86; (p33) mov	pr,0x0; Invalid }
	{ Invalid; Invalid; Invalid }
	{ Invalid; (p04) nop; (p35) add	r0,r0,r35,0x1 }
	{ Invalid; (p32) mov	pr,0x0; mov	pr,0x0; }
	{ sum	0x0; Invalid; (p11) nop }

;; progcomp_create: 40000000000E8480
progcomp_create proc
	{ alloc	r34,ar.pfs,0x5,0x0,0x4; mov	r33,b1; addl	r32,8324,r1 }
	{ adds	r35,0x0,r1; ld8	r14,[r32]; mov.i	ar.pfs,r34; }
	{ nop.m	0x0; cmp.eq	p07,p06,0x0,r14; mov.spnt	b0,r33,40000000000E84A0 }
	{ nop.b	0x0; (p07) br.cond.dpnt.few	40000000000E84C0; br.ret	b0; }

l40000000000E84BC:
	{ shladd	r0,r33,0x2,r0; (p04) invala.e	r8; break.i	0x1000 }

l40000000000E84C0:
	{ addl	r36,32,r0; nop.i	0x0; br.call.sptk.many	b0,hash_create; }
	{ adds	r1,0x0,r35; st8	[r8],r32; mov.i	ar.pfs,r34; }
	{ nop.m	0x0; mov.spnt	b0,r33,40000000000E84E0; br.ret	b0; }
40000000000E84F0 08 00 00 00 01 00 00 00 00 02 00 00 00 00 04 00 ................

;; progcomp_size: 40000000000E8500
progcomp_size proc
	{ nop.m	0x0; addl	r14,8324,r1; nop.i	0x0; }
	{ ld8	r14,[r14]; cmp.eq	p06,p07,0x0,r14; adds	r15,0xC,r14; }
	{ nop.m	0x0; (p07) ld4	r8,[r15]; nop.i	0x0; }

l40000000000E852C:
	{ Invalid; mov	pr,r32,0x0; (p01) shladd	r0,r0,0x1,r64 }
	{ nop; (p20) cmp.lt.unc	p33,p02,r0,r96; zxt4	r33,r16 }

;; progcomp_flush: 40000000000E8540
progcomp_flush proc
	{ alloc	r33,ar.pfs,0x5,0x0,0x3; addl	r14,8324,r1; nop.b	0x0 }
	{ addl	r36,-3404,r1; mov	r32,b0; adds	r34,0x0,r1; }
	{ ld8	r35,[r14]; ld8	r36,[r36]; nop.i	0x0; }
	{ cmp.eq	p06,p07,0x0,r35; nop.i	0x0; (p06) br.cond.dpnt.few	40000000000E85A0; }

l40000000000E8580:
	{ nop.m	0x0; nop.i	0x0; br.call.sptk.many	b0,hash_flush; }
	{ adds	r1,0x0,r34; nop.m	0x0; nop.i	0x0 }

l40000000000E85A0:
	{ nop.m	0x0; mov.i	ar.pfs,r33; nop.i	0x0; }
	{ nop.m	0x0; mov.spnt	b0,r32,40000000000E85B0; br.ret	b0; }

;; progcomp_dispose: 40000000000E85C0
progcomp_dispose proc
	{ alloc	r34,ar.pfs,0x5,0x0,0x4; addl	r32,8324,r1; mov	r33,b1 }
	{ adds	r35,0x0,r1; ld8	r36,[r32]; nop.i	0x0; }
	{ cmp.eq	p06,p07,0x0,r36; nop.i	0x0; (p06) br.cond.dpnt.few	40000000000E8610; }

l40000000000E85F0:
	{ nop.m	0x0; nop.i	0x0; br.call.sptk.many	b0,hash_dispose; }
	{ adds	r1,0x0,r35; nop.m	0x0; nop.i	0x0 }

l40000000000E8610:
	{ st8	[r0],r32; nop.m	0x0; mov.i	ar.pfs,r34; }
	{ nop.m	0x0; mov.spnt	b0,r33,40000000000E8620; br.ret	b0; }
40000000000E8630 08 00 00 00 01 00 00 00 00 02 00 00 00 00 04 00 ................

;; progcomp_remove: 40000000000E8640
progcomp_remove proc
	{ alloc	r35,ar.pfs,0x8,0x0,0x5; addl	r14,8324,r1; mov	r34,b2 }
	{ adds	r36,0x0,r1; nop.m	0x0; adds	r37,0x0,r32; }
	{ ld8	r14,[r14]; nop.m	0x0; adds	r39,0x0,r0; }
	{ cmp.eq	p06,p07,0x0,r14; nop.m	0x0; adds	r38,0x0,r14; }
	{ (p06) addl	r8,1,r0; nop.i	0x0; (p06) br.cond.dpnt.few	40000000000E8750; }

l40000000000E8686:
	{ chk.a.nc	r0,3FFFFFFFFF0E8E86; nop; break.i	0x80000 }
	{ break.m	0x4000; (p32) nop; (p32) nop }

l40000000000E86A2:
	{ break.m	0x720E2; mov	pr,r0,0x40; Invalid }
	{ break.m	0x42009; zxt1	r32,r0; deposit	r2,r64,r48,60,4 }
	{ break.m	0x42000; nop; Invalid }
	{ Invalid; (p32) break.i	0x20303; nop }
	{ (p16) break.m	0x720E9; nop; Invalid }
	{ break.m	0x20; nop; Invalid }
	{ break.m	0x42009; break.i	0x20; Invalid }
	{ Invalid; (p17) break.i	0x42008; nop }
	{ (p32) break.m	0x20303; addl	r32,0,r0; Invalid; }
	{ Invalid; Invalid; Invalid }
	{ invala; nop; break.i	0xC8000 }
	{ ldfe	f32,[r0]; (p04) break.i	0x550; Invalid }
	{ ld1	r32,[r0]; (p20) nop; Invalid }
	{ break.m	0x20; break.i	0x20; nop }

;; progcomp_insert: 40000000000E8780
progcomp_insert proc
	{ alloc	r37,ar.pfs,0xA,0x0,0x7; addl	r34,8324,r1; mov	r36,b4 }
	{ adds	r38,0x0,r1; cmp.eq	p07,p06,0x0,r33; (p07) br.cond.dpnt.few	40000000000E8900; }

l40000000000E87A0:
	{ nop.m	0x0; ld8	r40,[r34]; nop.i	0x0; }
	{ nop.m	0x0; cmp.eq	p07,p06,0x0,r40; (p07) br.cond.dpnt.few	40000000000E88D0 }

l40000000000E87C0:
	{ ld4	r14,[r33]; adds	r41,0x0,r0; adds	r39,0x0,r32; }
	{ nop.m	0x0; adds	r14,0x1,r14; nop.i	0x0; }
	{ st4	[r14],r33; nop.i	0x0; br.call.sptk.many	b0,hash_insert; }
	{ adds	r34,0x10,r8; adds	r1,0x0,r38; adds	r35,0x0,r8; }
	{ nop.m	0x0; ld8	r39,[r34]; nop.i	0x0; }
	{ cmp.eq	p06,p07,0x0,r39; nop.i	0x0; (p06) br.cond.dpnt.few	40000000000E8860; }

l40000000000E8820:
	{ nop.m	0x0; nop.i	0x0; br.call.sptk.many	b0,compspec_dispose; }
	{ addl	r8,1,r0; adds	r1,0x0,r38; nop.b	0x0 }
	{ st8	[r33],r34; nop.m	0x0; mov.i	ar.pfs,r37; }
	{ nop.m	0x0; mov.spnt	b0,r36,40000000000E8850; br.ret	b0; }

l40000000000E8860:
	{ adds	r39,0x0,r32; adds	r35,0x8,r35; br.call.sptk.many	b0,400000000001B6C0; }
	{ adds	r1,0x0,r38; adds	r39,0x1,r8; br.call.sptk.many	b0,xmalloc; }
	{ adds	r1,0x0,r38; nop.m	0x0; adds	r39,0x0,r8 }
	{ adds	r40,0x0,r32; nop.m	0x0; br.call.sptk.many	b0,400000000001B180; }
	{ adds	r1,0x0,r38; st8	[r8],r35; nop.b	0x0 }
	{ st8	[r33],r34; addl	r8,1,r0; mov.i	ar.pfs,r37; }
	{ nop.m	0x0; mov.spnt	b0,r36,40000000000E88C0; br.ret	b0; }

l40000000000E88D0:
	{ nop.m	0x0; nop.i	0x0; br.call.sptk.many	b0,progcomp_create; }
	{ nop.m	0x0; adds	r1,0x0,r38; nop.i	0x0 }
	{ ld8	r40,[r34]; nop.m	0x0; br.cond.sptk.few	40000000000E87C0; }

l40000000000E8900:
	{ addl	r40,-3396,r1; addl	r41,5,r0; adds	r39,0x0,r0; }
	{ ld8	r40,[r40]; nop.i	0x0; br.call.sptk.many	b0,400000000001AB60; }
	{ adds	r1,0x0,r38; nop.m	0x0; adds	r40,0x0,r32 }
	{ adds	r39,0x0,r8; nop.m	0x0; br.call.sptk.many	b0,programming_error; }
	{ ld8	r40,[r34]; nop.m	0x0; adds	r1,0x0,r38; }
	{ nop.m	0x0; cmp.eq	p07,p06,0x0,r40; (p06) br.cond.dptk.few	40000000000E87C0 }

l40000000000E8960:
	{ nop.m	0x0; nop.i	0x0; br.cond.sptk.few	40000000000E88D0; }
40000000000E8970 08 00 00 00 01 00 00 00 00 02 00 00 00 00 04 00 ................

;; progcomp_search: 40000000000E8980
progcomp_search proc
	{ alloc	r34,ar.pfs,0x7,0x0,0x4; addl	r14,8324,r1; mov	r33,b1 }
	{ adds	r35,0x0,r1; nop.m	0x0; adds	r36,0x0,r32; }
	{ ld8	r14,[r14]; nop.m	0x0; adds	r38,0x0,r0; }
	{ cmp.eq	p07,p06,0x0,r14; adds	r37,0x0,r14; (p07) br.cond.dpnt.few	40000000000E8A10; }

l40000000000E89C0:
	{ nop.m	0x0; nop.i	0x0; br.call.sptk.many	b0,hash_search; }
	{ adds	r14,0x10,r8; cmp.eq	p06,p07,0x0,r8; nop.b	0x0 }
	{ adds	r1,0x0,r35; mov.i	ar.pfs,r34; (p06) br.cond.dpnt.few	40000000000E8A10; }

l40000000000E89F0:
	{ nop.m	0x0; mov.spnt	b0,r33,40000000000E89F0; nop.i	0x0 }
	{ ld8	r8,[r14]; nop.m	0x0; br.ret	b0; }

l40000000000E8A10:
	{ adds	r8,0x0,r0; nop.m	0x0; mov.i	ar.pfs,r34; }
	{ nop.m	0x0; mov.spnt	b0,r33,40000000000E8A20; br.ret	b0; }
40000000000E8A30 08 00 00 00 01 00 00 00 00 02 00 00 00 00 04 00 ................

;; progcomp_walk: 40000000000E8A40
progcomp_walk proc
	{ alloc	r34,ar.pfs,0x6,0x0,0x4; addl	r14,8324,r1; mov	r33,b1 }
	{ cmp.eq	p08,p09,0x0,r32; nop.m	0x0; adds	r35,0x0,r1; }
	{ ld8	r36,[r14]; adds	r14,0xC,r36; cmp.eq	p06,p07,0x0,r36 }
	{ nop.b	0x0; (p06) br.cond.dpnt.few	40000000000E8AA0; (p08) br.cond.dpnt.few	40000000000E8AA0; }

l40000000000E8A7C:
	{ (p01) nop; cmp.lt	p00,p00,r32,r0; (p01) rfi }

l40000000000E8A82:
	{ Invalid; (p32) break.i	0x20203; Invalid }
	{ Invalid; (p32) nop; break.i	0xA1800 }

l40000000000E8AA0:
	{ nop.m	0x0; mov.i	ar.pfs,r34; nop.i	0x0; }
	{ nop.m	0x0; mov.spnt	b0,r33,40000000000E8AB0; br.ret	b0; }
40000000000E8AC0 11 28 01 40 00 21 00 00 00 02 00 00 48 21 FC 58 .(.@.!......H!.X
40000000000E8AD0 09 08 00 46 00 21 00 00 00 02 00 00 20 02 AA 00 ...F.!...... ...
40000000000E8AE0 11 00 00 00 01 00 00 08 05 80 03 80 08 00 84 00 ................
40000000000E8AF0 00 30 00 00 01 00 70 00 00 02 00 00 01 00 04 00 .0....p.........
40000000000E8B00 08 28 2D 0E 80 05 30 62 04 82 48 80 04 00 C4 00 .(-...0b..H.....
40000000000E8B10 09 30 01 02 00 21 00 00 00 02 00 40 44 09 04 91 .0...!.....@D...
40000000000E8B20 09 70 00 46 10 10 00 00 00 02 00 E0 04 00 00 84 .p.F............
40000000000E8B30 11 38 00 1C 86 39 00 00 00 02 80 03 A0 00 00 43 .8...9.........C
40000000000E8B40 11 00 00 00 01 00 00 00 00 02 00 00 E8 33 F3 58 .............3.X
40000000000E8B50 08 08 00 4C 00 21 20 02 88 30 20 E0 04 00 00 84 ...L.! ..0 .....
40000000000E8B60 0A 48 15 00 00 24 E0 E0 04 82 48 40 84 10 15 80 .H...$....H@....
40000000000E8B70 0A 40 91 02 0A 24 00 10 39 30 23 00 00 00 04 00 .@...$..90#.....
40000000000E8B80 19 40 01 50 18 10 00 00 00 02 00 00 E8 1F F3 58 .@.P...........X
40000000000E8B90 08 08 00 4C 00 21 70 02 20 00 42 00 05 00 01 84 ...L.!p. .B.....
40000000000E8BA0 19 48 01 42 00 21 A0 02 88 00 42 00 E8 83 F8 58 .H.B.!....B....X
40000000000E8BB0 09 08 00 4C 00 21 00 00 00 02 00 00 50 02 AA 00 ...L.!......P...
40000000000E8BC0 11 00 00 00 01 00 00 20 05 80 03 80 08 00 84 00 ....... ........
40000000000E8BD0 11 38 01 00 00 21 00 00 00 02 00 00 58 33 F3 58 .8...!......X3.X
40000000000E8BE0 08 70 04 00 00 24 00 00 00 02 00 20 00 30 01 84 .p...$..... .0..
40000000000E8BF0 09 00 20 44 98 11 00 00 00 02 00 E0 04 00 00 84 .. D............
40000000000E8C00 11 00 38 46 90 11 00 00 00 02 00 00 28 33 F3 58 ..8F........(3.X
40000000000E8C10 08 08 00 4C 00 21 20 02 88 30 20 E0 04 00 00 84 ...L.! ..0 .....
40000000000E8C20 0A 48 15 00 00 24 E0 E0 04 82 48 40 84 10 15 80 .H...$....H@....
40000000000E8C30 0A 40 91 02 0A 24 00 10 39 30 23 00 00 00 04 00 .@...$..90#.....
40000000000E8C40 19 40 01 50 18 10 00 00 00 02 00 00 28 1F F3 58 .@.P........(..X
40000000000E8C50 08 08 00 4C 00 21 70 02 20 00 42 00 05 00 01 84 ...L.!p. .B.....
40000000000E8C60 19 48 01 42 00 21 A0 02 88 00 42 00 28 83 F8 58 .H.B.!....B.(..X
40000000000E8C70 09 08 00 4C 00 21 00 00 00 02 00 00 50 02 AA 00 ...L.!......P...
40000000000E8C80 11 00 00 00 01 00 00 20 05 80 03 80 08 00 84 00 ....... ........
40000000000E8C90 08 00 00 00 01 00 00 00 00 02 00 00 00 00 04 00 ................
40000000000E8CA0 08 00 00 00 01 00 00 00 00 02 00 00 00 00 04 00 ................
40000000000E8CB0 08 00 00 00 01 00 00 00 00 02 00 00 00 00 04 00 ................

;; xmalloc: 40000000000E8CC0
xmalloc proc
	{ alloc	r35,ar.pfs,0x7,0x0,0x5; adds	r12,0xFFFFFFFFFFFFFFF0,r12; mov	r34,b2 }
	{ addl	r33,8332,r1; adds	r36,0x0,r1; adds	r37,0x0,r32; }
	{ nop.m	0x0; ld4	r14,[r33]; nop.i	0x0; }
	{ cmp4.eq	p07,p06,0x0,r14; nop.i	0x0; (p07) br.cond.dpnt.few	40000000000E8D40; }

l40000000000E8D00:
	{ nop.m	0x0; nop.i	0x0; br.call.sptk.many	b0,400000000001B340; }
	{ adds	r1,0x0,r36; cmp.eq	p07,p06,0x0,r8; (p07) br.cond.dpnt.few	40000000000E8D90 }

l40000000000E8D20:
	{ nop.m	0x0; mov.i	ar.pfs,r35; mov.spnt	b0,r34,40000000000E8D20 }
	{ nop.m	0x0; adds	r12,0x10,r12; br.ret	b0; }

l40000000000E8D40:
	{ adds	r37,0x0,r0; nop.i	0x0; br.call.sptk.many	b0,400000000001BF20; }
	{ adds	r1,0x0,r36; nop.m	0x0; adds	r37,0x0,r32; }
	{ addl	r14,8340,r1; st8	[r8],r14; addl	r14,1,r0; }
	{ st4	[r14],r33; nop.i	0x0; br.call.sptk.many	b0,400000000001B340; }
	{ adds	r1,0x0,r36; cmp.eq	p07,p06,0x0,r8; (p06) br.cond.dptk.few	40000000000E8D20; }

l40000000000E8D90:
	{ adds	r14,0x10,r12; addl	r37,1324,r1; adds	r38,0x0,r32; }
	{ nop.m	0x0; st8	[r8],r14; nop.i	0x0 }
	{ ld8	r37,[r37]; nop.m	0x0; br.call.sptk.many	b0,40000000000E8B00; }
	{ adds	r14,0x10,r12; nop.m	0x0; adds	r1,0x0,r36; }
	{ ld8	r8,[r14]; mov.i	ar.pfs,r35; mov.spnt	b0,r34,40000000000E8DD0 }
	{ nop.m	0x0; adds	r12,0x10,r12; br.ret	b0; }
40000000000E8DF0 08 00 00 00 01 00 00 00 00 02 00 00 00 00 04 00 ................

;; xrealloc: 40000000000E8E00
xrealloc proc
	{ alloc	r36,ar.pfs,0x8,0x0,0x6; adds	r12,0xFFFFFFFFFFFFFFF0,r12; nop.b	0x0 }
	{ addl	r34,8332,r1; mov	r35,b3; adds	r37,0x0,r1; }
	{ nop.m	0x0; ld4	r14,[r34]; nop.i	0x0; }
	{ cmp4.eq	p07,p06,0x0,r14; nop.i	0x0; (p07) br.cond.dpnt.few	40000000000E8E90; }

l40000000000E8E40:
	{ nop.m	0x0; cmp.eq	p06,p07,0x0,r32; (p06) br.cond.dpnt.few	40000000000E8ED0 }

l40000000000E8E50:
	{ adds	r38,0x0,r32; adds	r39,0x0,r33; br.call.sptk.many	b0,400000000001AD60; }
	{ adds	r1,0x0,r37; cmp.eq	p07,p06,0x0,r8; (p07) br.cond.dpnt.few	40000000000E8F00 }

l40000000000E8E70:
	{ nop.m	0x0; mov.i	ar.pfs,r36; mov.spnt	b0,r35,40000000000E8E70 }
	{ nop.m	0x0; adds	r12,0x10,r12; br.ret	b0; }

l40000000000E8E90:
	{ adds	r38,0x0,r0; nop.i	0x0; br.call.sptk.many	b0,400000000001BF20; }
	{ adds	r1,0x0,r37; nop.m	0x0; cmp.eq	p06,p07,0x0,r32; }
	{ addl	r14,8340,r1; st8	[r8],r14; addl	r14,1,r0; }
	{ st4	[r14],r34; nop.i	0x0; (p07) br.cond.dptk.few	40000000000E8E50 }

l40000000000E8ED0:
	{ adds	r38,0x0,r33; nop.i	0x0; br.call.sptk.many	b0,400000000001B340; }
	{ adds	r1,0x0,r37; cmp.eq	p07,p06,0x0,r8; (p06) br.cond.dptk.few	40000000000E8E70; }

l40000000000E8EF0:
	{ nop.m	0x0; nop.m	0x0; nop.i	0x0 }

l40000000000E8F00:
	{ adds	r14,0x10,r12; addl	r38,1332,r1; adds	r39,0x0,r33; }
	{ nop.m	0x0; st8	[r8],r14; nop.i	0x0 }
	{ ld8	r38,[r38]; nop.m	0x0; br.call.sptk.many	b0,40000000000E8B00; }
	{ adds	r14,0x10,r12; nop.m	0x0; adds	r1,0x0,r37; }
	{ ld8	r8,[r14]; mov.i	ar.pfs,r36; mov.spnt	b0,r35,40000000000E8F40 }
	{ nop.m	0x0; adds	r12,0x10,r12; br.ret	b0; }
40000000000E8F60 08 00 00 00 01 00 00 00 00 02 00 00 00 00 04 00 ................
40000000000E8F70 08 00 00 00 01 00 00 00 00 02 00 00 00 00 04 00 ................

;; xfree: 40000000000E8F80
xfree proc
	{ alloc	r34,ar.pfs,0x5,0x0,0x4; cmp.eq	p06,p07,0x0,r32; mov	r33,b1 }
	{ adds	r35,0x0,r1; adds	r36,0x0,r32; (p06) br.cond.dpnt.few	40000000000E8FC0; }

l40000000000E8FA0:
	{ nop.m	0x0; nop.i	0x0; br.call.sptk.many	b0,400000000001A7E0; }
	{ adds	r1,0x0,r35; nop.m	0x0; nop.i	0x0 }

l40000000000E8FC0:
	{ nop.m	0x0; mov.i	ar.pfs,r34; nop.i	0x0; }
	{ nop.m	0x0; mov.spnt	b0,r33,40000000000E8FD0; br.ret	b0; }
40000000000E8FE0 00 30 00 00 01 00 70 00 00 02 00 00 01 00 04 00 .0....p.........
40000000000E8FF0 00 30 00 00 01 00 70 00 00 02 00 00 01 00 04 00 .0....p.........
40000000000E9000 08 20 29 0C 80 05 E0 40 80 00 42 60 04 00 C4 00 . )....@..B`....
40000000000E9010 09 00 00 00 01 00 50 02 04 00 42 00 00 00 04 00 ......P...B.....
40000000000E9020 11 30 01 1C 18 10 00 00 00 02 00 00 E8 83 04 50 .0.............P
40000000000E9030 08 08 00 4A 00 21 20 02 20 00 42 C0 00 08 1D 50 ...J.! . .B....P
40000000000E9040 19 30 05 00 00 24 00 00 00 02 80 03 90 00 00 43 .0...$.........C
40000000000E9050 09 38 F1 FB B5 27 80 02 80 30 20 20 05 10 01 84 .8...'...0  ....
40000000000E9060 11 38 01 4E 18 10 00 00 00 02 00 00 28 2B F3 58 .8.N........(+.X
40000000000E9070 11 08 00 4A 00 21 60 02 88 00 42 00 78 17 F3 58 ...J.!`...B.x..X
40000000000E9080 0B 08 00 4A 00 21 E0 60 F7 5F 4F 00 00 00 04 00 ...J.!.`._O.....
40000000000E9090 09 00 00 00 01 00 E0 00 38 30 20 00 00 00 04 00 ........80 .....
40000000000E90A0 11 30 01 1C 18 10 00 00 00 02 00 00 E8 15 F3 58 .0.............X
40000000000E90B0 09 08 00 4A 00 21 00 00 00 02 00 00 40 02 AA 00 ...J.!......@...
40000000000E90C0 10 00 00 00 01 00 00 18 05 80 03 80 08 00 84 00 ................
40000000000E90D0 09 38 D1 FB B5 27 00 00 00 02 00 C0 14 00 00 90 .8...'..........
40000000000E90E0 11 38 01 4E 18 10 00 00 00 02 00 00 A8 2A F3 58 .8.N.........*.X
40000000000E90F0 08 08 00 4A 00 21 80 02 80 30 20 20 05 10 01 84 ...J.!...0  ....
40000000000E9100 0B 30 05 00 00 24 70 E2 F7 6B 4F 00 00 00 04 00 .0...$p..kO.....
40000000000E9110 11 38 01 4E 18 10 00 00 00 02 00 00 78 2A F3 58 .8.N........x*.X
40000000000E9120 11 08 00 4A 00 21 60 02 88 00 42 00 C8 16 F3 58 ...J.!`...B....X
40000000000E9130 0B 08 00 4A 00 21 E0 60 F7 5F 4F 00 00 00 04 00 ...J.!.`._O.....
40000000000E9140 09 00 00 00 01 00 E0 00 38 30 20 00 00 00 04 00 ........80 .....
40000000000E9150 11 30 01 1C 18 10 00 00 00 02 00 00 38 15 F3 58 .0..........8..X
40000000000E9160 09 08 00 4A 00 21 00 00 00 02 00 00 40 02 AA 00 ...J.!......@...
40000000000E9170 11 00 00 00 01 00 00 18 05 80 03 80 08 00 84 00 ................

;; alias_builtin: 40000000000E9180
alias_builtin proc
	{ alloc	r39,ar.pfs,0xC,0x0,0x9; addl	r14,6456,r1; nop.b	0x0 }
	{ adds	r40,0x0,r1; nop.m	0x0; mov	r38,b6; }
	{ nop.m	0x0; nop.m	0x0; adds	r33,0x0,r0; }
	{ ld4	r36,[r14]; cmp4.eq	p06,p07,0x0,r36; nop.i	0x0; }
	{ nop.m	0x0; (p06) addl	r36,1,r0; nop.i	0x0; }

l40000000000E91CC:
	{ Invalid; nop; zxt1	r0,r64 }
	{ (p37) nop; invala; break.b	0x1000 }
	{ cmpxchg2.acq	r0,[r0],r1; Invalid; nop }
	{ cmpxchg4.acq	r32,[r66],r0; break.x	0x80C2A00A01000; }
	{ (p22) cmp.eq.unc	p34,p17,r0,r40; (p48) nop; mov	pr,r10,0x8400 }
	{ (p03) cmp.lt	p00,p08,r64,r33; czx1.r	r28,r97; nop }
	{ Invalid; Invalid; Invalid }
	{ Invalid; break.i	0x1000; break.i	0x1000 }
	{ (p44) nop; (p33) nop; zxt1	r0,r64 }
	{ (p19) invala; break.i	0x1000; Invalid }
	{ cmp.lt	p00,p09,r33,r0; (p01) invala.e	r45; cmp.eq	p00,p00,r32,r0 }
	{ Invalid; deposit	r0,r32,r0,63,0; (p04) rfi; }
	{ cmp.lt	p00,p11,r1,r0; cmp4.ne.and	p00,p28,r104,r65; zxt4	r0,r0 }
	{ cmp4.eq.and	p00,p43,r1,r0; (p01) cmp.eq	p00,p16,r0,r64; (p49) nop }
	{ invala; nop }
	{ (p07) cmp.lt	p00,p11,r0,r33; zxt4	r47,r15; break.i	0x1000 }
	{ nop; cmp.lt	p00,p00,r32,r0; Invalid }
	{ cmp.eq	p00,p17,r1,r0; czx1.r	r64,r65; mov	pr,r32,0x0 }
	{ Invalid; break.i	0x1000; break.b	0x1000 }
	{ (p50) nop; cmp.lt	p00,p16,r10,r64; nop }
	{ nop; (p04) nop; (p04) mov	pr,r2,0x8400 }
	{ (p27) nop; nop; Invalid }
	{ Invalid; cmp.eq	p00,p00,r32,r0; mov	pr,r74,0xE440 }
	{ (p02) cmpxchg4.acq	r0,[r33],r64; zxt1	r0,r64; break.i	0x1000 }
	{ (p38) nop; (p05) loadrs; nop }
	{ invala; cmp.eq	p00,p00,r32,r0; mov	pr,r74,0xE440 }
	{ (p63) nop; zxt1	r96,r64; break.i	0x1000 }
	{ (p35) nop; cmp.eq	p00,p16,r10,r64; nop }
	{ (p22) nop; zxt1	r0,r64; break.i	0x1000 }
	{ cmp.lt	p00,p11,r1,r0; (p01) cmp.lt.unc	p02,p16,r8,r64; Invalid }
	{ ldfp8	f0,f1,[r0]; (p04) cmp.lt.unc	p00,p08,r3,r6; Invalid }
	{ nop.m	0x80; cmp.lt	p00,p00,r32,r0; (p01) break.i	0x141C0 }
	{ cmp.eq	p00,p09,r1,r0; czx1.r	r64,r97; nop }
	{ (p30) cmp4.eq.or.andcm	p14,p02,r8,r115; (p17) cmp.lt	p00,p18,0x0,r0; Invalid; }
	{ cmp.lt	p00,p43,0x0,r66; (p01) cmp.lt	p00,p16,r0,r64; (p33) cmp.eq.unc	p35,p16,r3,r3; }
	{ cmp.lt	p35,p17,r0,r66; cmp.lt.unc	p00,p28,r99,r97; (p17) nop; }
	{ (p04) nop; break.i	0x1000; break.i	0x1000 }
	{ ld2	r0,[r0]; zxt1	r96,r64; (p18) nop }
	{ Invalid; Invalid; Invalid }
	{ nop.m	0x80; break.i	0x1000; (p02) cmp.lt	p00,p00,r4,r5 }
	{ cmp.eq	p33,p11,r0,r66; (p16) mov	pr,r68,0xE61E; (p09) nop; }
	{ Invalid; nop; Invalid; }
	{ (p62) invala.e	r127; Invalid; (p16) mov	pr,r0,0x4300 }
	{ (p05) nop; zxt1	r96,r64; break.i	0x1000 }
	{ (p46) cmp.lt	p31,p08,r63,r44; nop; zxt1	r0,r64 }
	{ nop; (p05) deposit	r0,r2,r64,62,0; (p05) mov	pr,r9,0x8400 }
	{ Invalid; break.i	0x1000; break.i	0x1000 }
	{ (p26) cmpxchg2.acq	r127,[r44],r63; (p04) nop; nop.b	0x1000 }
	{ Invalid; cmp.eq	p00,p00,r32,r0; mov	pr,r72,0xE480 }
	{ (p54) cmp.eq.unc	p63,p09,r63,r37; czx1.r	r32,r97; break.b	0x1000 }
	{ (p19) nop; zxt4	r0,r0; Invalid }
	{ Invalid; (p01) nop }
	{ nop; (p05) invala; deposit	r64,r4,r96,63,8 }
	{ nop; break.x	0x8000001000; }
	{ (p33) ldf8	f44,[r44]; (p21) invala.e	r1; nop }
	{ nop; (p05) cmp.eq.unc	p32,p16,r8,r64; mov	pr,r66,0xE600 }
	{ (p06) cmpxchg2.acq	r0,[r33],r0; (p05) nop; (p05) nop }
	{ Invalid; Invalid; Invalid }
	{ (p48) nop; invala; nop }
	{ cmpxchg8.acq	r8,[r66],r0; break.x	0x10802300A01000; }
	{ cmpxchg2.acq	r8,[r40],r0; (p04) nop; nop }
	{ invala; cmp.eq	p00,p00,r32,r0; mov	pr,r72,0xE480 }
	{ (p48) invala; break.i	0x1000; break.i	0x1000 }
	{ (p57) nop; (p05) nop; (p20) epc }
	{ (p54) cmpxchg2.acq	r8,[r40],r0; (p04) nop; nop }
	{ invala; cmp.eq	p00,p00,r32,r0; mov	pr,r72,0xE480 }
	{ (p46) invala; break.i	0x1000; break.i	0x1000 }
	{ (p55) cmpxchg4.acq	r127,[r36],r63; zxt1	r40,r0; break.b	0x1000 }
	{ (p46) cmpxchg2.acq	r31,[r44],r63; (p04) nop; nop }
	{ invala; cmp.eq	p00,p00,r32,r0; mov	pr,r72,0xE480 }
	{ (p44) invala; break.i	0x1000; break.i	0x1000 }
	{ (p53) nop; zxt1	r0,r64; break.b	0x1000 }
	{ (p14) nop; invala; break.i	0x1000 }
	{ (p19) invala; break.i	0x1000; Invalid }
	{ nop; (p01) invala; break.i	0x1000 }
	{ Invalid; break.i	0x1000; Invalid }
	{ nop; break.m	0x1000; break.i	0x1000 }
	{ nop; break.i	0x1000; break.i	0x1000 }
	{ nop; break.i	0x1000; break.i	0x1000 }
	{ nop; (p20) cmp.lt.unc	p34,p02,r1,r96; (p04) shladd	r32,r0,0x1,r64 }

;; unalias_builtin: 40000000000E96C0
unalias_builtin proc
	{ alloc	r37,ar.pfs,0x9,0x0,0x7; adds	r38,0x0,r1; mov	r36,b4; }
	{ nop.m	0x0; adds	r34,0x0,r0; br.call.sptk.many	b0,reset_internal_getopt; }
	{ adds	r1,0x0,r38; nop.m	0x0; nop.i	0x0; }

l40000000000E96F0:
	{ addl	r40,-9452,r1; nop.m	0x0; adds	r39,0x0,r32; }
	{ ld8	r40,[r40]; nop.i	0x0; br.call.sptk.many	b0,internal_getopt; }
	{ cmp4.eq	p07,p06,0xFFFFFFFFFFFFFFFF,r8; adds	r1,0x0,r38; (p07) br.cond.dpnt.few	40000000000E9760; }

l40000000000E9720:
	{ addl	r34,1,r0; cmp4.eq	p06,p07,0x61,r8; (p06) br.cond.dpnt.few	40000000000E96F0 }

l40000000000E9730:
	{ nop.m	0x0; nop.i	0x0; br.call.sptk.many	b0,builtin_usage; }
	{ addl	r8,258,r0; adds	r1,0x0,r38; mov.i	ar.pfs,r37; }
	{ nop.m	0x0; mov.spnt	b0,r36,40000000000E9750; br.ret	b0 }

l40000000000E9760:
	{ addl	r14,9268,r1; cmp4.eq	p06,p07,0x0,r34; (p07) br.cond.dpnt.few	40000000000E9880; }

l40000000000E9770:
	{ nop.m	0x0; ld8	r33,[r14]; nop.i	0x0; }
	{ nop.m	0x0; cmp.eq	p07,p06,0x0,r33; (p07) br.cond.dpnt.few	40000000000E9730; }

l40000000000E9790:
	{ nop.m	0x0; nop.m	0x0; nop.i	0x0 }

l40000000000E97A0:
	{ adds	r35,0x8,r33; ld8	r14,[r35]; nop.i	0x0; }
	{ ld8	r39,[r14]; nop.i	0x0; br.call.sptk.many	b0,find_alias; }
	{ cmp.eq	p06,p07,0x0,r8; adds	r1,0x0,r38; (p06) br.cond.dpnt.few	40000000000E9830; }

l40000000000E97D0:
	{ ld8	r39,[r8]; nop.i	0x0; br.call.sptk.many	b0,remove_alias; }
	{ ld8	r33,[r33]; nop.m	0x0; adds	r1,0x0,r38; }
	{ nop.m	0x0; cmp.eq	p07,p06,0x0,r33; (p06) br.cond.dptk.few	40000000000E97A0; }

l40000000000E9800:
	{ cmp4.eq	p07,p06,0x0,r34; nop.m	0x0; mov.i	ar.pfs,r37; }
	{ (p06) addl	r34,1,r0; mov.spnt	b0,r36,40000000000E9810; (p07) adds	r34,0x0,r0; }

l40000000000E9816:
	{ chk.a.nc	f36,3FFFFFFFFF1C9826; (p17) nop; break.i	0x80000 }

l40000000000E9822:
	{ Invalid; (p32) nop; Invalid }

l40000000000E9830:
	{ ld8	r14,[r35]; nop.m	0x0; adds	r34,0x1,r34; }
	{ ld8	r39,[r14]; nop.i	0x0; br.call.sptk.many	b0,sh_notfound; }
	{ ld8	r33,[r33]; nop.m	0x0; adds	r1,0x0,r38; }
	{ nop.m	0x0; cmp.eq	p07,p06,0x0,r33; (p06) br.cond.dptk.few	40000000000E97A0 }

l40000000000E9870:
	{ nop.m	0x0; nop.i	0x0; br.cond.sptk.few	40000000000E9800 }

l40000000000E9880:
	{ nop.m	0x0; nop.i	0x0; br.call.sptk.many	b0,delete_all_aliases; }
	{ adds	r8,0x0,r0; adds	r1,0x0,r38; mov.i	ar.pfs,r37; }
	{ nop.m	0x0; mov.spnt	b0,r36,40000000000E98A0; br.ret	b0; }
40000000000E98B0 00 30 00 00 01 00 70 00 00 02 00 00 01 00 04 00 .0....p.........

;; bind_builtin: 40000000000E98C0
bind_builtin proc
	{ alloc	r50,ar.pfs,0x19,0x0,0x15; addl	r14,6468,r1; mov	r52,LC }
	{ adds	r51,0x0,r1; nop.m	0x0; mov	r49,b1; }
	{ nop.m	0x0; ld4	r14,[r14]; nop.i	0x0; }
	{ cmp4.eq	p06,p07,0x0,r14; addl	r14,7796,r1; (p07) br.cond.dpnt.few	40000000000EA1D0; }

l40000000000E9900:
	{ nop.m	0x0; ld4	r14,[r14]; nop.i	0x0; }
	{ nop.m	0x0; cmp4.eq	p07,p06,0x0,r14; (p07) br.cond.dpnt.few	40000000000EA0E0 }

l40000000000E9920:
	{ addl	r53,-7732,r1; adds	r40,0x0,r0; adds	r41,0x0,r0 }
	{ adds	r37,0x0,r0; adds	r39,0x0,r0; adds	r38,0x0,r0; }
	{ ld8	r53,[r53]; adds	r33,0x0,r0; addl	r47,4096,r0 }
	{ addl	r46,1024,r0; addl	r45,512,r0; br.call.sptk.many	b0,begin_unwind_frame; }
	{ adds	r1,0x0,r51; addl	r54,8,r0; addl	r44,128,r0 }
	{ addl	r43,256,r0; addl	r42,2048,r0; addl	r36,-10700,r1; }
	{ nop.m	0x0; ld8	r36,[r36]; nop.i	0x0; }
	{ adds	r53,0x0,r36; nop.i	0x0; br.call.sptk.many	b0,unwind_protect_mem; }
	{ adds	r1,0x0,r51; addl	r14,-10260,r1; addl	r34,-7652,r1 }
	{ addl	r35,9252,r1; ld8	r14,[r14]; nop.i	0x0 }
	{ ld8	r34,[r34]; nop.m	0x0; nop.i	0x0; }
	{ ld8	r14,[r14]; nop.i	0x0; nop.i	0x0 }
	{ st8	[r14],r36; nop.m	0x0; br.call.sptk.many	b0,reset_internal_getopt; }
	{ adds	r1,0x0,r51; nop.m	0x0; nop.i	0x0; }

l40000000000E9A00:
	{ addl	r54,-7724,r1; nop.m	0x0; adds	r53,0x0,r32; }
	{ ld8	r54,[r54]; nop.i	0x0; br.call.sptk.many	b0,internal_getopt; }
	{ adds	r1,0x0,r51; cmp4.eq	p07,p06,0xFFFFFFFFFFFFFFFF,r8; (p07) br.cond.dpnt.few	40000000000E9B40 }

l40000000000E9A30:
	{ nop.m	0x0; adds	r8,0xFFFFFFFFFFFFFFB0,r8; nop.i	0x0; }
	{ nop.m	0x0; cmp4.ltu	p06,p07,0x28,r8; (p07) br.cond.dptk.few	40000000000E9AC0 }

l40000000000E9A50:
	{ nop.m	0x0; addl	r35,258,r0; br.call.sptk.many	b0,builtin_usage; }
	{ adds	r1,0x0,r51; nop.m	0x0; nop.i	0x0; }

l40000000000E9A70:
	{ nop.m	0x0; addl	r53,-7732,r1; nop.i	0x0; }
	{ ld8	r53,[r53]; nop.i	0x0; br.call.sptk.many	b0,run_unwind_frame; }
	{ adds	r1,0x0,r51; adds	r53,0x0,r35; br.call.sptk.many	b0,sh_chkwrite; }
	{ adds	r1,0x0,r51; mov.i	ar.pfs,r50; mov.i	LC,r52; }
	{ nop.m	0x0; mov.spnt	b0,r49,40000000000E9AB0; br.ret	b0 }

l40000000000E9AC0:
	{ addp4	r8,r8,r0; shladd	r8,r8,0x3,r34; nop.i	0x0; }
	{ ld8	r14,[r8]; add	r8,r8,r14; nop.i	0x0; }
	{ nop.m	0x0; mov.spnt	b6,r8,40000000000E9AE0; br.cond	b6; }
40000000000E9AF0 08 B0 51 FB C3 27 00 03 8C 30 20 A0 06 00 01 84 ..Q..'...0 .....
40000000000E9B00 09 00 00 00 01 00 10 7A 85 1C 40 00 00 00 04 00 .......z..@.....
40000000000E9B10 11 B0 01 6C 18 10 00 00 00 02 00 00 B8 09 03 50 ...l...........P
40000000000E9B20 11 08 00 66 00 21 70 F8 23 0C 77 03 10 FF FF 4A ...f.!p.#.w....J
40000000000E9B30 08 00 00 00 01 00 00 00 00 02 00 00 00 00 04 00 ................

l40000000000E9B40:
	{ addl	r14,9268,r1; nop.m	0x0; tbit.z	p06,p07,r33,0x5; }
	{ nop.m	0x0; nop.m	0x0; nop.i	0x0; }
	{ ld8	r34,[r14]; nop.i	0x0; (p06) br.cond.dptk.few	40000000000EA240 }

l40000000000E9B70:
	{ cmp.eq	p06,p07,0x0,r39; adds	r53,0x0,r39; (p06) br.cond.dpnt.few	40000000000EA240; }

l40000000000E9B80:
	{ nop.m	0x0; nop.i	0x0; br.call.sptk.many	b0,400000000001BDA0; }
	{ cmp.eq	p07,p06,0x0,r8; nop.m	0x0; adds	r1,0x0,r51 }
	{ adds	r35,0x0,r8; nop.m	0x0; (p07) br.cond.dpnt.few	40000000000EA640; }

l40000000000E9BB0:
	{ nop.m	0x0; nop.i	0x0; br.call.sptk.many	b0,400000000001C100; }
	{ adds	r1,0x0,r51; nop.m	0x0; adds	r36,0x0,r8 }
	{ adds	r53,0x0,r35; nop.m	0x0; br.call.sptk.many	b0,400000000001AA00; }
	{ adds	r1,0x0,r51; tbit.z	p06,p07,r33,0x0; (p07) br.cond.dpnt.few	40000000000EA340; }

l40000000000E9BF0:
	{ nop.m	0x0; tbit.z	p06,p07,r33,0x1; (p07) br.cond.dpnt.few	40000000000EA310; }

l40000000000E9C00:
	{ nop.m	0x0; tbit.z	p06,p07,r33,0x7; (p07) br.cond.dpnt.few	40000000000EA2E0; }

l40000000000E9C10:
	{ nop.m	0x0; tbit.z	p06,p07,r33,0x9; (p07) br.cond.dpnt.few	40000000000EA2B0; }

l40000000000E9C20:
	{ nop.m	0x0; tbit.z	p06,p07,r33,0xA; (p07) br.cond.dpnt.few	40000000000EA3A0; }

l40000000000E9C30:
	{ nop.m	0x0; tbit.z	p06,p07,r33,0x3; (p07) br.cond.dpnt.few	40000000000EA280; }

l40000000000E9C40:
	{ nop.m	0x0; tbit.z	p06,p07,r33,0x8; (p07) br.cond.dpnt.few	40000000000EA370; }

l40000000000E9C50:
	{ nop.m	0x0; tbit.z	p06,p07,r33,0x2; (p06) br.cond.dptk.few	40000000000E9C90; }

l40000000000E9C60:
	{ cmp.eq	p06,p07,0x0,r38; adds	r53,0x0,r38; (p06) br.cond.dpnt.few	40000000000E9C90; }

l40000000000E9C70:
	{ nop.m	0x0; nop.i	0x0; br.call.sptk.many	b0,400000000001A900; }
	{ adds	r1,0x0,r51; cmp4.eq	p06,p07,0x0,r8; (p07) br.cond.dpnt.few	40000000000EA410; }

l40000000000E9C90:
	{ nop.m	0x0; tbit.z	p06,p07,r33,0x4; (p06) br.cond.dptk.few	40000000000EA260; }

l40000000000E9CA0:
	{ cmp.eq	p06,p07,0x0,r37; adds	r53,0x0,r37; (p06) br.cond.dpnt.few	40000000000EA260; }

l40000000000E9CB0:
	{ nop.m	0x0; nop.i	0x0; br.call.sptk.many	b0,400000000001B560; }
	{ cmp.eq	p07,p06,0x0,r8; nop.m	0x0; adds	r1,0x0,r51 }
	{ adds	r53,0x0,r8; nop.m	0x0; (p07) br.cond.dpnt.few	40000000000EA570; }

l40000000000E9CE0:
	{ nop.m	0x0; nop.i	0x0; br.call.sptk.many	b0,400000000001BD00; }
	{ adds	r1,0x0,r51; cmp.eq	p07,p06,0x0,r8; adds	r53,0x0,r0 }
	{ adds	r38,0x0,r8; addl	r55,5,r0; (p07) br.cond.dpnt.few	40000000000EA5E0; }

l40000000000E9D10:
	{ addl	r54,-7684,r1; nop.m	0x0; adds	r35,0x0,r8; }
	{ ld8	r54,[r54]; nop.i	0x0; br.call.sptk.many	b0,400000000001AB60; }
	{ adds	r1,0x0,r51; adds	r55,0x0,r37; addl	r53,1,r0 }
	{ adds	r54,0x0,r8; adds	r37,0x28,r38; br.call.sptk.many	b0,400000000001BB80; }
	{ nop.m	0x0; adds	r1,0x0,r51; mov.i	LC,0x4; }
	{ ld8	r55,[r35],8; addl	r54,-7676,r1; addl	r53,1,r0; }
	{ cmp.eq	p07,p06,0x0,r55; nop.i	0x0; (p07) br.cond.dpnt.few	40000000000E9E10; }

l40000000000E9D80:
	{ ld8	r56,[r35]; ld8	r54,[r54]; nop.i	0x0; }
	{ cmp.eq	p06,p07,0x0,r56; (p07) addl	r56,-7756,r1; nop.i	0x0; }

l40000000000E9D9C:
	{ Invalid; (p07) mov	pr,r127,0x9F5E; Invalid }
	{ Invalid; Invalid; break.i	0x1000 }
	{ Invalid; nop; Invalid }
	{ (p61) cmp.lt.unc	p63,p09,r63,r36; Invalid; nop }
	{ Invalid; Invalid; Invalid }
	{ (p01) nop; Invalid; (p24) nop }
	{ nop; zxt1	r96,r64; break.i	0x1000 }
	{ nop; (p06) nop; zxt1	r0,r64 }

l40000000000E9E10:
	{ adds	r53,0x0,r38; adds	r35,0x0,r0; br.call.sptk.many	b0,strvec_dispose; }
	{ adds	r1,0x0,r51; tbit.z	p06,p07,r33,0xB; (p06) br.cond.dptk.few	40000000000E9EB0; }

l40000000000E9E30:
	{ cmp.eq	p06,p07,0x0,r41; adds	r53,0x0,r41; (p06) br.cond.dpnt.few	40000000000E9EB0; }

l40000000000E9E40:
	{ adds	r35,0x0,r0; nop.i	0x0; br.call.sptk.many	b0,400000000001B560; }
	{ cmp.eq	p07,p06,0x0,r8; nop.m	0x0; adds	r1,0x0,r51 }
	{ adds	r37,0x0,r8; nop.m	0x0; (p07) br.cond.dpnt.few	40000000000EA500; }

l40000000000E9E70:
	{ nop.m	0x0; nop.i	0x0; br.call.sptk.many	b0,400000000001C100; }
	{ adds	r1,0x0,r51; nop.m	0x0; adds	r53,0x0,r37 }
	{ adds	r54,0x0,r8; nop.m	0x0; br.call.sptk.many	b0,400000000001BA60; }
	{ adds	r1,0x0,r51; nop.m	0x0; nop.i	0x0 }

l40000000000E9EB0:
	{ nop.m	0x0; tbit.z	p06,p07,r33,0x6; (p06) br.cond.dptk.few	40000000000E9F00; }

l40000000000E9EC0:
	{ cmp.eq	p06,p07,0x0,r40; nop.m	0x0; adds	r53,0x0,r40 }
	{ adds	r54,0x0,r0; nop.m	0x0; (p06) br.cond.dpnt.few	40000000000E9F00; }

l40000000000E9EE0:
	{ nop.m	0x0; nop.i	0x0; br.call.sptk.many	b0,400000000001A6A0; }
	{ adds	r1,0x0,r51; cmp4.eq	p06,p07,0x0,r8; (p07) br.cond.dpnt.few	40000000000EA4A0; }

l40000000000E9F00:
	{ nop.m	0x0; tbit.z	p06,p07,r33,0xC; (p07) br.cond.dpnt.few	40000000000EA3D0; }

l40000000000E9F10:
	{ nop.m	0x0; cmp.eq	p06,p07,0x0,r34; (p06) br.cond.dpnt.few	40000000000E9F60; }

l40000000000E9F20:
	{ adds	r14,0x8,r34; ld8	r14,[r14]; nop.i	0x0; }
	{ ld8	r53,[r14]; nop.i	0x0; br.call.sptk.many	b0,400000000001A980; }
	{ ld8	r34,[r34]; nop.m	0x0; adds	r1,0x0,r51; }
	{ nop.m	0x0; cmp.eq	p07,p06,0x0,r34; (p06) br.cond.dptk.few	40000000000E9F20; }

l40000000000E9F60:
	{ cmp.eq	p06,p07,0x0,r36; adds	r53,0x0,r36; (p06) br.cond.spnt.few	40000000000E9A70; }

l40000000000E9F70:
	{ nop.m	0x0; nop.i	0x0; br.call.sptk.many	b0,400000000001AA00; }
	{ adds	r1,0x0,r51; addl	r53,-7732,r1; nop.i	0x0; }
	{ ld8	r53,[r53]; nop.i	0x0; br.call.sptk.many	b0,run_unwind_frame; }
	{ adds	r1,0x0,r51; adds	r53,0x0,r35; br.call.sptk.many	b0,sh_chkwrite; }
	{ adds	r1,0x0,r51; mov.i	ar.pfs,r50; mov.i	LC,r52; }
	{ nop.m	0x0; mov.spnt	b0,r49,40000000000E9FC0; br.ret	b0 }
40000000000E9FD0 11 00 00 00 01 00 10 42 84 5C 40 00 30 FA FF 48 .......B.\@.0..H
40000000000E9FE0 08 00 00 00 01 00 10 52 85 1C 40 00 00 00 04 00 .......R..@.....
40000000000E9FF0 19 48 01 46 18 10 00 00 00 02 00 00 10 FA FF 48 .H.F...........H
40000000000EA000 11 00 00 00 01 00 10 6A 85 1C 40 00 00 FA FF 48 .......j..@....H
40000000000EA010 08 00 00 00 01 00 10 02 86 5C 40 00 00 00 04 00 .........\@.....
40000000000EA020 19 40 01 46 18 10 00 00 00 02 00 00 E0 F9 FF 48 .@.F...........H
40000000000EA030 08 00 00 00 01 00 10 82 84 5C 40 00 00 00 04 00 .........\@.....
40000000000EA040 19 28 01 46 18 10 00 00 00 02 00 00 C0 F9 FF 48 .(.F...........H
40000000000EA050 11 00 00 00 01 00 10 12 84 5C 40 00 B0 F9 FF 48 .........\@....H
40000000000EA060 08 00 00 00 01 00 10 02 85 5C 40 00 00 00 04 00 .........\@.....
40000000000EA070 19 38 01 46 18 10 00 00 00 02 00 00 90 F9 FF 48 .8.F...........H
40000000000EA080 11 00 00 00 01 00 10 0A 84 5C 40 00 80 F9 FF 48 .........\@....H
40000000000EA090 08 00 00 00 01 00 10 22 84 5C 40 00 00 00 04 00 .......".\@.....
40000000000EA0A0 19 30 01 46 18 10 00 00 00 02 00 00 60 F9 FF 48 .0.F........`..H
40000000000EA0B0 11 00 00 00 01 00 10 5A 85 1C 40 00 50 F9 FF 48 .......Z..@.P..H
40000000000EA0C0 11 00 00 00 01 00 10 72 85 1C 40 00 40 F9 FF 48 .......r..@.@..H
40000000000EA0D0 10 00 00 00 01 00 10 0A B1 1C 40 00 30 F9 FF 48 ..........@.0..H

l40000000000EA0E0:
	{ adds	r40,0x0,r0; adds	r41,0x0,r0; adds	r37,0x0,r0 }
	{ adds	r39,0x0,r0; adds	r38,0x0,r0; br.call.sptk.many	b0,initialize_readline; }
	{ adds	r1,0x0,r51; adds	r33,0x0,r0; addl	r47,4096,r0 }
	{ addl	r46,1024,r0; addl	r45,512,r0; addl	r44,128,r0; }
	{ addl	r53,-7732,r1; addl	r43,256,r0; addl	r42,2048,r0; }
	{ ld8	r53,[r53]; nop.i	0x0; br.call.sptk.many	b0,begin_unwind_frame; }
	{ adds	r1,0x0,r51; addl	r54,8,r0; addl	r36,-10700,r1; }
	{ nop.m	0x0; ld8	r36,[r36]; nop.i	0x0; }
	{ adds	r53,0x0,r36; nop.i	0x0; br.call.sptk.many	b0,unwind_protect_mem; }
	{ nop.m	0x0; adds	r1,0x0,r51; nop.i	0x0; }
	{ addl	r14,-10260,r1; addl	r34,-7652,r1; addl	r35,9252,r1; }
	{ ld8	r14,[r14]; ld8	r34,[r34]; nop.i	0x0; }
	{ nop.m	0x0; ld8	r14,[r14]; nop.i	0x0; }
	{ st8	[r14],r36; nop.i	0x0; br.call.sptk.many	b0,reset_internal_getopt; }
	{ nop.m	0x0; adds	r1,0x0,r51; br.cond.sptk.few	40000000000E9A00; }

l40000000000EA1D0:
	{ addl	r54,-7740,r1; addl	r55,5,r0; adds	r53,0x0,r0; }
	{ ld8	r54,[r54]; nop.i	0x0; br.call.sptk.many	b0,400000000001AB60; }
	{ adds	r1,0x0,r51; adds	r53,0x0,r8; br.call.sptk.many	b0,builtin_warning; }
	{ adds	r1,0x0,r51; addl	r14,7796,r1; nop.i	0x0; }
	{ nop.m	0x0; ld4	r14,[r14]; nop.i	0x0; }
	{ nop.m	0x0; cmp4.eq	p07,p06,0x0,r14; (p06) br.cond.dptk.few	40000000000E9920 }

l40000000000EA230:
	{ nop.m	0x0; nop.i	0x0; br.cond.sptk.few	40000000000EA0E0; }

l40000000000EA240:
	{ adds	r36,0x0,r0; tbit.z	p06,p07,r33,0x0; (p06) br.cond.dptk.few	40000000000E9BF0 }

l40000000000EA250:
	{ nop.m	0x0; nop.i	0x0; br.cond.sptk.few	40000000000EA340; }

l40000000000EA260:
	{ adds	r35,0x0,r0; tbit.z	p06,p07,r33,0xB; (p06) br.cond.dptk.few	40000000000E9EB0 }

l40000000000EA270:
	{ nop.m	0x0; nop.i	0x0; br.cond.sptk.few	40000000000E9E30 }

l40000000000EA280:
	{ addl	r53,1,r0; nop.i	0x0; br.call.sptk.many	b0,400000000001AE40; }
	{ adds	r1,0x0,r51; tbit.z	p06,p07,r33,0x8; (p06) br.cond.dptk.few	40000000000E9C50 }

l40000000000EA2A0:
	{ nop.m	0x0; nop.i	0x0; br.cond.sptk.few	40000000000EA370 }

l40000000000EA2B0:
	{ addl	r53,1,r0; nop.i	0x0; br.call.sptk.many	b0,400000000001B160; }
	{ adds	r1,0x0,r51; tbit.z	p06,p07,r33,0xA; (p06) br.cond.dptk.few	40000000000E9C30 }

l40000000000EA2D0:
	{ nop.m	0x0; nop.i	0x0; br.cond.sptk.few	40000000000EA3A0 }

l40000000000EA2E0:
	{ adds	r53,0x0,r0; nop.i	0x0; br.call.sptk.many	b0,400000000001BAA0; }
	{ adds	r1,0x0,r51; tbit.z	p06,p07,r33,0x9; (p06) br.cond.dptk.few	40000000000E9C20 }

l40000000000EA300:
	{ nop.m	0x0; nop.i	0x0; br.cond.sptk.few	40000000000EA2B0 }

l40000000000EA310:
	{ addl	r53,1,r0; nop.i	0x0; br.call.sptk.many	b0,400000000001BAA0; }
	{ adds	r1,0x0,r51; tbit.z	p06,p07,r33,0x7; (p06) br.cond.dptk.few	40000000000E9C10 }

l40000000000EA330:
	{ nop.m	0x0; nop.i	0x0; br.cond.sptk.few	40000000000EA2E0 }

l40000000000EA340:
	{ nop.m	0x0; nop.i	0x0; br.call.sptk.many	b0,400000000001B260; }
	{ adds	r1,0x0,r51; tbit.z	p06,p07,r33,0x1; (p06) br.cond.dptk.few	40000000000E9C00 }

l40000000000EA360:
	{ nop.m	0x0; nop.i	0x0; br.cond.sptk.few	40000000000EA310 }

l40000000000EA370:
	{ adds	r53,0x0,r0; nop.i	0x0; br.call.sptk.many	b0,400000000001AE40; }
	{ adds	r1,0x0,r51; tbit.z	p06,p07,r33,0x2; (p06) br.cond.dptk.few	40000000000E9C90 }

l40000000000EA390:
	{ nop.m	0x0; nop.i	0x0; br.cond.sptk.few	40000000000E9C60 }

l40000000000EA3A0:
	{ adds	r53,0x0,r0; nop.i	0x0; br.call.sptk.many	b0,400000000001B160; }
	{ adds	r1,0x0,r51; tbit.z	p06,p07,r33,0x3; (p06) br.cond.dptk.few	40000000000E9C40 }

l40000000000EA3C0:
	{ nop.m	0x0; nop.i	0x0; br.cond.sptk.few	40000000000EA280 }

l40000000000EA3D0:
	{ adds	r53,0x0,r48; nop.i	0x0; br.call.sptk.many	b0,bind_keyseq_to_unix_command; }
	{ nop.m	0x0; adds	r1,0x0,r51; adds	r35,0x0,r8 }
	{ nop.m	0x0; cmp.eq	p06,p07,0x0,r34; (p07) br.cond.dptk.few	40000000000E9F20 }

l40000000000EA400:
	{ nop.m	0x0; nop.i	0x0; br.cond.sptk.few	40000000000E9F60; }

l40000000000EA410:
	{ addl	r54,-7708,r1; nop.m	0x0; addl	r55,5,r0 }
	{ adds	r53,0x0,r0; nop.m	0x0; addl	r35,1,r0; }
	{ ld8	r54,[r54]; nop.i	0x0; br.call.sptk.many	b0,400000000001AB60; }
	{ adds	r1,0x0,r51; adds	r33,0x0,r8; br.call.sptk.many	b0,400000000001B840; }
	{ nop.m	0x0; adds	r1,0x0,r51; nop.i	0x0 }
	{ ld4	r53,[r8]; nop.m	0x0; br.call.sptk.many	b0,400000000001B4A0; }
	{ adds	r1,0x0,r51; adds	r53,0x0,r33; nop.i	0x0 }
	{ adds	r54,0x0,r38; adds	r55,0x0,r8; br.call.sptk.many	b0,builtin_error; }
	{ nop.m	0x0; adds	r1,0x0,r51; br.cond.sptk.few	40000000000E9F60; }

l40000000000EA4A0:
	{ addl	r54,-7660,r1; nop.m	0x0; addl	r55,5,r0 }
	{ adds	r53,0x0,r0; nop.m	0x0; addl	r35,1,r0; }
	{ ld8	r54,[r54]; nop.i	0x0; br.call.sptk.many	b0,400000000001AB60; }
	{ adds	r1,0x0,r51; nop.m	0x0; adds	r53,0x0,r8 }
	{ adds	r54,0x0,r40; nop.m	0x0; br.call.sptk.many	b0,builtin_error; }
	{ nop.m	0x0; adds	r1,0x0,r51; br.cond.sptk.few	40000000000E9F60; }

l40000000000EA500:
	{ addl	r54,-7700,r1; nop.m	0x0; addl	r55,5,r0 }
	{ adds	r53,0x0,r0; nop.m	0x0; addl	r35,1,r0; }
	{ ld8	r54,[r54]; nop.i	0x0; br.call.sptk.many	b0,400000000001AB60; }
	{ adds	r1,0x0,r51; nop.m	0x0; adds	r53,0x0,r8 }
	{ adds	r54,0x0,r41; nop.m	0x0; br.call.sptk.many	b0,builtin_error; }
	{ adds	r1,0x0,r51; tbit.z	p06,p07,r33,0x6; (p06) br.cond.dptk.few	40000000000E9F00 }

l40000000000EA560:
	{ nop.m	0x0; nop.i	0x0; br.cond.sptk.few	40000000000E9EC0; }

l40000000000EA570:
	{ addl	r54,-7700,r1; nop.m	0x0; addl	r55,5,r0 }
	{ adds	r53,0x0,r0; nop.m	0x0; addl	r35,1,r0; }
	{ ld8	r54,[r54]; nop.i	0x0; br.call.sptk.many	b0,400000000001AB60; }
	{ adds	r1,0x0,r51; nop.m	0x0; adds	r53,0x0,r8 }
	{ adds	r54,0x0,r37; nop.m	0x0; br.call.sptk.many	b0,builtin_error; }
	{ adds	r1,0x0,r51; tbit.z	p06,p07,r33,0xB; (p06) br.cond.dptk.few	40000000000E9EB0 }

l40000000000EA5D0:
	{ nop.m	0x0; nop.i	0x0; br.cond.sptk.few	40000000000E9E30; }

l40000000000EA5E0:
	{ addl	r54,-7692,r1; addl	r55,5,r0; addl	r35,1,r0; }
	{ ld8	r54,[r54]; nop.i	0x0; br.call.sptk.many	b0,400000000001AB60; }
	{ adds	r1,0x0,r51; addl	r53,1,r0; nop.i	0x0 }
	{ adds	r54,0x0,r8; adds	r55,0x0,r37; br.call.sptk.many	b0,400000000001BB80; }
	{ adds	r1,0x0,r51; tbit.z	p06,p07,r33,0xB; (p06) br.cond.dptk.few	40000000000E9EB0 }

l40000000000EA630:
	{ nop.m	0x0; nop.i	0x0; br.cond.sptk.few	40000000000E9E30; }

l40000000000EA640:
	{ addl	r54,-7716,r1; nop.m	0x0; addl	r55,5,r0 }
	{ adds	r53,0x0,r0; nop.m	0x0; addl	r35,1,r0; }
	{ ld8	r54,[r54]; nop.i	0x0; br.call.sptk.many	b0,400000000001AB60; }
	{ adds	r54,0x0,r39; nop.m	0x0; adds	r53,0x0,r8 }
	{ adds	r1,0x0,r51; nop.m	0x0; br.call.sptk.many	b0,builtin_error; }
	{ adds	r1,0x0,r51; addl	r53,-7732,r1; nop.i	0x0; }
	{ ld8	r53,[r53]; nop.i	0x0; br.call.sptk.many	b0,run_unwind_frame; }
	{ adds	r1,0x0,r51; adds	r53,0x0,r35; br.call.sptk.many	b0,sh_chkwrite; }
	{ adds	r1,0x0,r51; mov.i	ar.pfs,r50; mov.i	LC,r52; }
	{ nop.m	0x0; mov.spnt	b0,r49,40000000000EA6D0; br.ret	b0; }
40000000000EA6E0 00 30 00 00 01 00 70 00 00 02 00 00 01 00 04 00 .0....p.........
40000000000EA6F0 00 30 00 00 01 00 70 00 00 02 00 00 01 00 04 00 .0....p.........
40000000000EA700 18 10 1D 08 80 05 00 62 05 82 48 00 00 00 00 20 .......b..H.... 
40000000000EA710 01 70 E0 02 32 24 10 02 00 62 00 60 04 08 00 84 .p..2$...b.`....
40000000000EA720 09 00 00 00 01 00 80 00 80 20 20 00 00 00 04 00 .........  .....
40000000000EA730 11 38 00 10 86 39 00 00 00 02 00 03 30 00 00 43 .8...9......0..C
40000000000EA740 0B 00 00 00 01 00 E0 00 38 20 20 00 00 00 04 00 ........8  .....
40000000000EA750 10 00 00 00 01 00 70 00 38 0C F3 03 30 00 00 43 ......p.8...0..C
40000000000EA760 01 00 00 00 01 00 00 10 01 55 00 00 00 00 04 00 .........U......
40000000000EA770 10 00 00 00 01 00 00 08 05 80 03 80 08 00 84 00 ................
40000000000EA780 09 28 91 FA B6 27 60 2A 00 00 48 80 04 00 00 84 .(...'`*..H.....
40000000000EA790 11 28 01 4A 18 10 00 00 00 02 00 00 D8 03 F3 58 .(.J...........X
40000000000EA7A0 11 08 00 46 00 21 40 02 20 00 42 00 E8 2D 00 50 ...F.!@. .B..-.P
40000000000EA7B0 09 40 00 40 10 10 10 00 8C 00 42 00 20 02 AA 00 .@.@......B. ...
40000000000EA7C0 11 00 00 00 01 00 00 08 05 80 03 80 08 00 84 00 ................
40000000000EA7D0 08 00 00 00 01 00 00 00 00 02 00 00 00 00 04 00 ................
40000000000EA7E0 08 00 00 00 01 00 00 00 00 02 00 00 00 00 04 00 ................
40000000000EA7F0 08 00 00 00 01 00 00 00 00 02 00 00 00 00 04 00 ................

;; break_builtin: 40000000000EA800
break_builtin proc
	{ alloc	r35,ar.pfs,0x8,0x0,0x5; adds	r12,0xFFFFFFFFFFFFFFF0,r12; nop.b	0x0 }
	{ adds	r36,0x0,r1; nop.m	0x0; mov	r34,b2; }
	{ nop.m	0x0; nop.i	0x0; br.call.sptk.many	b0,40000000000EA700; }
	{ adds	r14,0x0,r0; nop.m	0x0; cmp4.eq	p06,p07,0x0,r8 }
	{ adds	r1,0x0,r36; nop.m	0x0; (p07) br.cond.dpnt.few	40000000000EA870; }

l40000000000EA850:
	{ adds	r8,0x0,r14; mov.i	ar.pfs,r35; mov.spnt	b0,r34,40000000000EA850 }
	{ nop.m	0x0; adds	r12,0x10,r12; br.ret	b0; }

l40000000000EA870:
	{ adds	r37,0x0,r32; nop.m	0x0; adds	r39,0x10,r12 }
	{ addl	r38,1,r0; nop.m	0x0; br.call.sptk.many	b0,get_numeric_arg; }
	{ adds	r1,0x0,r36; nop.m	0x0; adds	r14,0x10,r12; }
	{ ld8	r15,[r14]; nop.m	0x0; addl	r16,8364,r1 }
	{ adds	r14,0x0,r0; nop.m	0x0; addl	r17,8360,r1; }
	{ cmp.lt	p06,p07,0x0,r15; adds	r8,0x0,r14; (p07) br.cond.dpnt.few	40000000000EA910; }

l40000000000EA8D0:
	{ ld4	r16,[r16]; nop.m	0x0; sxt4	r16,r16; }
	{ cmp.lt	p07,p06,r15,r16; (p06) adds	r15,0x0,r16; nop.i	0x0; }

l40000000000EA8EC:
	{ Invalid; Invalid; (p48) break.i	0x2A808 }
	{ (p17) nop; add	r0,r32,r0; (p01) shladd	r4,r3,0x1,r64 }
	{ nop; (p04) invala; cmp.lt	p00,p00,r32,r0 }

l40000000000EA910:
	{ adds	r32,0x8,r32; nop.m	0x0; addl	r38,-9428,r1 }
	{ addl	r39,5,r0; nop.m	0x0; adds	r37,0x0,r0; }
	{ ld8	r14,[r32]; ld8	r38,[r38]; nop.i	0x0; }
	{ ld8	r33,[r14]; nop.i	0x0; br.call.sptk.many	b0,400000000001AB60; }
	{ adds	r1,0x0,r36; nop.m	0x0; adds	r38,0x0,r8 }
	{ adds	r37,0x0,r33; nop.m	0x0; br.call.sptk.many	b0,sh_erange; }
	{ adds	r1,0x0,r36; addl	r14,1,r0; addl	r15,8364,r1 }
	{ adds	r8,0x0,r14; ld4	r16,[r15]; addl	r15,8360,r1; }
	{ st4	[r16],r15; mov.i	ar.pfs,r35; mov.spnt	b0,r34,40000000000EA990 }
	{ nop.m	0x0; adds	r12,0x10,r12; br.ret	b0; }
40000000000EA9B0 08 00 00 00 01 00 00 00 00 02 00 00 00 00 04 00 ................

;; continue_builtin: 40000000000EA9C0
continue_builtin proc
	{ alloc	r35,ar.pfs,0x8,0x0,0x5; adds	r12,0xFFFFFFFFFFFFFFF0,r12; nop.b	0x0 }
	{ adds	r36,0x0,r1; nop.m	0x0; mov	r34,b2; }
	{ nop.m	0x0; nop.i	0x0; br.call.sptk.many	b0,40000000000EA700; }
	{ adds	r14,0x0,r0; nop.m	0x0; cmp4.eq	p06,p07,0x0,r8 }
	{ adds	r1,0x0,r36; nop.m	0x0; (p07) br.cond.dpnt.few	40000000000EAA30; }

l40000000000EAA10:
	{ adds	r8,0x0,r14; mov.i	ar.pfs,r35; mov.spnt	b0,r34,40000000000EAA10 }
	{ nop.m	0x0; adds	r12,0x10,r12; br.ret	b0; }

l40000000000EAA30:
	{ adds	r37,0x0,r32; nop.m	0x0; adds	r39,0x10,r12 }
	{ addl	r38,1,r0; nop.m	0x0; br.call.sptk.many	b0,get_numeric_arg; }
	{ adds	r1,0x0,r36; nop.m	0x0; adds	r14,0x10,r12; }
	{ ld8	r15,[r14]; nop.m	0x0; addl	r16,8364,r1 }
	{ adds	r14,0x0,r0; nop.m	0x0; addl	r17,8356,r1; }
	{ cmp.lt	p06,p07,0x0,r15; adds	r8,0x0,r14; (p07) br.cond.dpnt.few	40000000000EAAD0; }

l40000000000EAA90:
	{ ld4	r16,[r16]; nop.m	0x0; sxt4	r16,r16; }
	{ cmp.lt	p07,p06,r15,r16; (p06) adds	r15,0x0,r16; nop.i	0x0; }

l40000000000EAAAC:
	{ Invalid; Invalid; (p48) break.i	0x2A808 }
	{ (p17) nop; add	r0,r32,r0; (p01) shladd	r4,r3,0x1,r64 }
	{ nop; (p04) invala; cmp.lt	p00,p00,r32,r0 }

l40000000000EAAD0:
	{ adds	r32,0x8,r32; nop.m	0x0; addl	r38,-9428,r1 }
	{ addl	r39,5,r0; nop.m	0x0; adds	r37,0x0,r0; }
	{ ld8	r14,[r32]; ld8	r38,[r38]; nop.i	0x0; }
	{ ld8	r33,[r14]; nop.i	0x0; br.call.sptk.many	b0,400000000001AB60; }
	{ adds	r1,0x0,r36; nop.m	0x0; adds	r38,0x0,r8 }
	{ adds	r37,0x0,r33; nop.m	0x0; br.call.sptk.many	b0,sh_erange; }
	{ adds	r1,0x0,r36; addl	r14,1,r0; addl	r15,8364,r1 }
	{ adds	r8,0x0,r14; ld4	r16,[r15]; addl	r15,8360,r1; }
	{ st4	[r16],r15; mov.i	ar.pfs,r35; mov.spnt	b0,r34,40000000000EAB50 }
	{ nop.m	0x0; adds	r12,0x10,r12; br.ret	b0; }
40000000000EAB70 00 30 00 00 01 00 70 00 00 02 00 00 01 00 04 00 .0....p.........

;; builtin_builtin: 40000000000EAB80
builtin_builtin proc
	{ alloc	r36,ar.pfs,0x7,0x0,0x6; adds	r37,0x0,r1; mov	r35,b3 }
	{ nop.m	0x0; adds	r38,0x0,r32; nop.i	0x0; }
	{ nop.m	0x0; nop.i	0x0; br.call.sptk.many	b0,no_options; }
	{ nop.m	0x0; cmp4.eq	p07,p06,0x0,r8; adds	r1,0x0,r37 }
	{ nop.m	0x0; nop.m	0x0; (p07) br.cond.dpnt.few	40000000000EAC00; }

l40000000000EABD0:
	{ (p06) addl	r8,258,r0; nop.m	0x0; nop.i	0x0 }

l40000000000EABD6:
	{ break.m	0x4000; mov	pr,0x4000; break.i	0x80000 }
	{ break.m	0xAA024; nop; break.i	0x80000 }
	{ Invalid; (p34) nop; (p32) nop }

l40000000000EAC00:
	{ addl	r14,9268,r1; nop.m	0x0; nop.i	0x0; }
	{ ld8	r33,[r14]; cmp.eq	p06,p07,0x0,r33; adds	r14,0x8,r33; }
	{ (p06) adds	r8,0x0,r0; nop.i	0x0; (p06) br.cond.dpnt.few	40000000000EABE0; }

l40000000000EAC26:
	{ chk.a.nc	r0,3FFFFFFFFF0EB426; nop; (p32) nop }

l40000000000EAC36:
	{ (p17) fwb; nop; (p32) nop }

l40000000000EAC3C:
	{ cmp.lt	p00,p17,r1,r0; zxt1	r64,r64; break.i	0x1000 }
	{ (p14) nop; cmp.eq	p32,p16,r9,r64; mov	pr,r66,0xE400 }

l40000000000EAC52:
	{ Invalid; cmp.eq.unc	p02,p01,r65,r124; Invalid }
	{ Invalid; (p16) break.i	0x20308; cover }
	{ ld1	r32,[r0]; (p36) break.i	0x23303; Invalid }
	{ (p01) break.m	0x28302; cmp.eq.and	p32,p32,r0,r0; Invalid }
	{ break.m	0x20302; cmp.ltu	p32,p00,r0,r0; Invalid }
	{ (p16) break.m	0x42009; add	r32,r0,r0; Invalid }
	{ ldfe	f32,[r0]; (p20) nop; nop }
	{ (p32) break.m	0x42008; addl	r32,0,r0; (p50) deposit	r1,r0,r42,63,2; }
	{ invala; (p04) nop }
	{ ldfe	f32,[r0]; (p20) nop; nop }
	{ Invalid; mov	pr,0x20; nop }

;; caller_builtin: 40000000000EAD00
caller_builtin proc
	{ alloc	r38,ar.pfs,0xD,0x0,0x8; adds	r12,0xFFFFFFFFFFFFFFF0,r12; nop.b	0x0 }
	{ addl	r40,-1220,r1; adds	r39,0x0,r1; mov	r37,b5; }
	{ ld8	r40,[r40]; nop.i	0x0; br.call.sptk.many	b0,find_variable; }
	{ adds	r14,0x28,r8; nop.m	0x0; cmp.eq	p06,p07,0x0,r8 }
	{ adds	r1,0x0,r39; nop.m	0x0; (p06) br.cond.dpnt.few	40000000000EAF20; }

l40000000000EAD50:
	{ nop.m	0x0; ld4	r14,[r14]; nop.i	0x0; }
	{ nop.m	0x0; tbit.z	p06,p07,r14,0x2; (p06) br.cond.dptk.few	40000000000EAF20; }

l40000000000EAD70:
	{ nop.m	0x0; (p07) adds	r8,0x8,r8; nop.i	0x0; }

l40000000000EAD7C:
	{ nop; Invalid; break.i	0x1000 }
	{ nop; break.i	0x1000; Invalid }

l40000000000EAD90:
	{ nop.m	0x0; addl	r40,-1212,r1; nop.i	0x0; }
	{ ld8	r40,[r40]; nop.i	0x0; br.call.sptk.many	b0,find_variable; }
	{ adds	r14,0x28,r8; nop.m	0x0; cmp.eq	p06,p07,0x0,r8 }
	{ adds	r1,0x0,r39; nop.m	0x0; (p06) br.cond.dpnt.few	40000000000EAF10; }

l40000000000EADD0:
	{ nop.m	0x0; ld4	r14,[r14]; nop.i	0x0; }
	{ nop.m	0x0; tbit.z	p06,p07,r14,0x2; (p06) br.cond.dptk.few	40000000000EAF10; }

l40000000000EADF0:
	{ nop.m	0x0; (p07) adds	r8,0x8,r8; nop.i	0x0; }

l40000000000EADFC:
	{ nop; Invalid; break.i	0x1000 }
	{ nop; break.i	0x1000; Invalid }

l40000000000EAE10:
	{ nop.m	0x0; addl	r40,-1204,r1; nop.i	0x0; }
	{ ld8	r40,[r40]; nop.i	0x0; br.call.sptk.many	b0,find_variable; }
	{ adds	r14,0x28,r8; nop.m	0x0; adds	r1,0x0,r39 }
	{ cmp.eq	p07,p06,0x0,r8; nop.m	0x0; (p07) br.cond.dpnt.few	40000000000EAEE0; }

l40000000000EAE50:
	{ nop.m	0x0; ld4	r14,[r14]; nop.i	0x0; }
	{ nop.m	0x0; tbit.z	p06,p07,r14,0x2; (p06) br.cond.dptk.few	40000000000EAEE0 }

l40000000000EAE70:
	{ adds	r8,0x8,r8; ld8	r34,[r8]; nop.i	0x0; }
	{ adds	r14,0x10,r34; cmp.eq	p06,p07,0x0,r34; (p06) br.cond.spnt.few	40000000000EAEE0; }

l40000000000EAE90:
	{ nop.m	0x0; ld4	r14,[r14]; nop.i	0x0; }
	{ cmp4.eq	p06,p07,0x0,r14; adds	r14,0x10,r33; (p06) br.cond.dpnt.few	40000000000EAEE0; }

l40000000000EAEB0:
	{ cmp.eq	p06,p07,0x0,r33; nop.i	0x0; (p06) br.cond.dpnt.few	40000000000EAEE0; }

l40000000000EAEC0:
	{ nop.m	0x0; ld4	r14,[r14]; nop.i	0x0; }
	{ nop.m	0x0; cmp4.eq	p06,p07,0x0,r14; (p07) br.cond.dpnt.few	40000000000EAF30 }

l40000000000EAEE0:
	{ addl	r8,1,r0; nop.m	0x0; nop.i	0x0 }
	{ nop.m	0x0; mov.i	ar.pfs,r38; mov.spnt	b0,r37,40000000000EAEF0 }
	{ nop.m	0x0; adds	r12,0x10,r12; br.ret	b0 }

l40000000000EAF10:
	{ nop.m	0x0; adds	r33,0x0,r0; br.cond.sptk.few	40000000000EAE10 }

l40000000000EAF20:
	{ nop.m	0x0; adds	r35,0x0,r0; br.cond.sptk.few	40000000000EAD90; }

l40000000000EAF30:
	{ adds	r40,0x0,r32; nop.i	0x0; br.call.sptk.many	b0,no_options; }
	{ cmp4.eq	p07,p06,0x0,r8; nop.m	0x0; adds	r1,0x0,r39; }
	{ nop.m	0x0; (p06) addl	r8,258,r0; (p06) br.cond.dptk.few	40000000000EAEF0 }

l40000000000EAF5C:
	{ (p61) cmp.lt.unc	p63,p09,r63,r37; zxt4	r45,r18; cmp.eq	p00,p00,r32,r0 }

l40000000000EAF62:
	{ (p22) break.m	0x48900; mov	pr,r0,0x8040; (p50) cover }

l40000000000EAF68:
	{ (p16) nop; (p04) break.i	0xB840; Invalid }

l40000000000EAF6E:
	{ (p32) break.m	0x170; Invalid; (p32) break.i	0x101; }

l40000000000EAF74:
	{ cmp.lt	p00,p56,r56,r0; break.i	0x100002; nop; }
	{ Invalid; Invalid; Invalid }
	{ Invalid; Invalid; Invalid }
	{ Invalid; break.i	0x100002; break.i	0x80; }
	{ nop; (p12) nop; (p21) nop; }
	{ (p08) break.m	0x100004; mov	r0,ip; (p08) break.i	0x4C }
	{ cmp4.lt	p00,p16,r56,r0; break.i	0x100002; nop; }
	{ break.m	0x100002; cmp4.gt.or.andcm	p00,p34,r0,r42; (p49) br.wexit.dptk.few.clr	3FFFFFFFFF0EB7F4 }
	{ (p08) nop; (p12) break.i	0x10037; (p04) nop }
	{ (p08) break.m	0x100004; mov	pr,0x1005000; (p08) nop }
	{ break.m	0x100002; nop; (p49) br.call.sptk.many	b2,b0 }
	{ (p08) fwb; (p08) mov	pr,0x3800204; (p08) deposit	r92,r0,r40,55,0 }
	{ (p08) cmp.lt	p04,p56,r36,r1; break.i	0x100002; extr.u	r8,r41,0,2 }
	{ (p08) break.m	0x100004; nop; (p49) nop }
	{ (p08) fwb; (p08) mov	pr,0x3800204; (p08) deposit	r92,r0,r40,39,0 }
	{ (p08) cmp.lt	p04,p56,r36,r1; break.i	0x100002; extr.u	r8,r41,0,2 }
	{ (p08) break.m	0x100004; nop; (p49) deposit	r66,r0,r6,47,0 }
	{ Invalid; Invalid; Invalid }
	{ (p08) fwb; (p08) mov	pr,0x805804; (p08) deposit	r12,r1,r6,55,0 }
	{ Invalid; Invalid; Invalid }
	{ Invalid; Invalid; Invalid }
	{ break.m	0x100002; cmp4.eq	p00,p05,0x0,r50; (p49) break.b	0x2004A }
	{ Invalid; Invalid; (p01) break.i	0x0 }
	{ rum	0x50000; (p14) break.i	0x100000; nop; }
	{ (p08) break.m	0x100004; break.i	0x108800; (p01) break.i	0x48 }
	{ cmp4.lt	p00,p16,r56,r0; break.i	0x100002; nop; }
	{ break.m	0x100002; ssm	0x378000; (p32) br.wexit.dptk.few.clr	3FFFFFFFFF0EB924 }
	{ (p08) break.m	0x100004; Invalid; (p32) deposit	r2,r1,r1,7,0 }
	{ (p08) break.m	0x11004; (p32) nop; (p17) deposit	r10,r1,r40,47,0 }
	{ (p08) break.m	0x5204; (p08) nop; (p49) deposit	r66,r0,r1,7,0 }
	{ (p08) fwb; (p08) break.i	0x100004; deposit	r72,r1,r40,55,0 }
	{ (p08) break.m	0x15204; (p32) nop; (p49) nop }
	{ Invalid; Invalid; Invalid }
	{ (p08) nop; (p63) break.i	0x15634; (p08) deposit	r76,r0,r7,47,0 }
	{ Invalid; Invalid; Invalid }
	{ (p08) break.m	0x15434; (p08) nop; (p32) nop }
	{ Invalid; (p08) break.b	0x100004; br.call.dptk.few.clr	b0,4000000000100A94 }
	{ nop; (p32) nop; (p63) break.b	0x4C }
	{ Invalid; (p08) break.i	0x100004; Invalid; }
	{ break.m	0x100002; cmp4.eq	p00,p04,0x0,r106; (p49) break.b	0x2004A }
	{ Invalid; Invalid; (p01) break.i	0x0 }
	{ rum	0x50000; (p14) break.i	0x100000; nop; }
	{ (p08) break.m	0x100004; break.i	0x108800; (p01) break.i	0x18000 }
	{ break.m	0x100E00; break.i	0x101000; break.i	0x18000; }
	{ break.m	0x100E00; break.i	0x101000; mov	pr,0x8C8C0C0; }
	{ (p44) rum	0x9C4200; (p34) break.i	0x4; mov	pr,0x90049 }
	{ (p08) break.m	0x100004; add	r0,r8,r1; (p01) break.i	0x58 }
	{ cmp4.lt	p00,p04,r20,r1; break.i	0x100002; deposit	r8,r1,r6,23,0; }
	{ Invalid; Invalid; Invalid }
	{ break.m	0x100000; cmp.eq.or.andcm	p00,p58,0x0,r90; (p49) deposit	r66,r0,r1,31,0; }
	{ (p08) break.m	0x100004; break.i	0x100000; deposit	r8,r1,r0,55,0 }
	{ Invalid; (p08) fwb; (p32) br.wexit.sptk.many	3FFFFFFFFF0EBAA4 }
	{ (p08) break.m	0x100004; Invalid; (p01) break.i	0x88 }
	{ rum	0x20000; (p14) break.i	0x108800; (p01) break.i	0x40; }
	{ break.m	0x100000; break.i	0x100000; break.i	0x40; }
	{ break.m	0x100000; break.i	0x100000; break.i	0x40; }
	{ break.m	0x100000; break.i	0x100000; nop; }
	{ (p44) rum	0x9C4400; (p34) addl	r4,-2097116,r1; (p01) mov	pr,0xA0048 }
	{ (p08) psub4	r4,r64,r0; (p12) mov	pr,0x5407; (p08) break.i	0x4C }
	{ break.m	0x100000; add	r0,r24,r1; (p01) break.i	0x48; }
	{ cmp4.lt	p00,p08,r44,r1; break.i	0x100002; shrp	r8,r1,r7,0; }
	{ Invalid; Invalid; Invalid }
	{ break.m	0x100000; cmp4.gt.or.andcm	p00,p44,r0,r110; (p49) tbit.z.unc	p02,p00,r1,0x0; }
	{ (p08) fwb; (p08) break.i	0x100004; nop }
	{ (p08) break.m	0x568C; zxt1	r12,r118; Invalid }
	{ (p32) break.m	0x100004; Invalid; (p36) tbit.z.unc	p02,p00,r1,0x0 }
	{ (p08) break.m	0x100004; Invalid; (p08) deposit	r76,r1,r42,63,0 }
	{ (p08) break.m	0x100004; cmp4.eq	p00,p01,0x0,r74; (p49) break.i	0x42 }
	{ Invalid; Invalid; (p08) break.i	0xC4; }
	{ nop; (p08) nop.i	0xA0037; (p06) deposit	r90,r0,r14,47,0; }
	{ break.m	0x100002; nop; nop }
	{ Invalid; Invalid; Invalid }
	{ (p08) break.m	0x100004; mov	pr,0x1805438; (p08) break.i	0xCC }
	{ break.m	0x14830; (p32) cmp.eq.or.andcm	p04,p57,0x0,r122; (p49) tbit.z.unc	p10,p00,r1,0x0; }
	{ (p08) break.m	0x100004; break.i	0x100000; mov	pr,0x7038058 }
	{ (p33) break.m	0x100004; break.b	0x100000; break.b	0x48 }
	{ Invalid; break.i	0x100002; break.i	0x80; }
	{ nop; (p12) break.i	0xD0037; (p04) nop.i	0x3905A; }
	{ (p32) break.m	0x1C8C; (p08) break.i	0x100004; break.i	0x48 }
	{ ldfpd.s	f0,f56,[r16]; break.i	0x100004; break.i	0x80; }
	{ nop; (p12) break.i	0xA0037; (p04) break.i	0x8A; }
	{ break.m	0x100000; cmp4.eq	p00,p01,0x0,r114; (p49) nop; }
	{ Invalid; Invalid; (p08) br.call.sptk.few.clr	b4,b1 }
	{ Invalid; Invalid; Invalid }
	{ Invalid; Invalid; Invalid }
	{ (p12) break.m	0x100002; break.i	0x100000; br.cond.sptk.few.clr	40000000001004D4 }
	{ (p08) break.m	0x4604; (p08) cmp.eq.or.andcm	p04,p57,0x0,r70; (p49) deposit	r74,r0,r8,39,0 }
	{ Invalid; (p08) nop; (p22) break.i	0x8 }
	{ ld1.c.clr	r0,[r28],128; (p01) break.i	0x100000; break.i	0x80; }
	{ rum	0x60000; (p14) break.i	0x108800; (p01) deposit	r8,r1,r7,55,0; }
	{ Invalid; Invalid; Invalid }
	{ break.m	0x100000; cmp.eq.or.andcm	p00,p60,0x0,r114; (p49) tbit.z	p10,p00,r1,0x0; }
	{ (p08) nop; (p12) nop; (p21) break.i	0x8A }
	{ nop; (p12) break.i	0xC003F; (p02) break.i	0x42; }
	{ break.m	0x100000; break.i	0x100000; deposit	r8,r1,r42,47,0; }
	{ (p08) break.m	0x14604; Invalid; (p32) break.i	0x42 }
	{ Invalid; (p08) mov	pr,0x1005404; (p08) break.i	0xCC; }
	{ break.m	0x100000; cmp.eq.or.andcm	p00,p57,0x0,r26; (p49) tbit.z.unc	p02,p00,r1,0x0; }
	{ (p08) break.m	0x100004; break.i	0x100000; deposit	r24,r0,r8,39,0 }
	{ (p08) nop; Invalid; (p01) break.i	0x80 }
	{ rum	0x60000; (p14) break.i	0x108800; (p01) break.i	0x48; }
	{ break.m	0x1C00; (p33) break.i	0x100004; break.i	0x80; }
	{ nop; (p04) nop; (p21) deposit	r10,r1,r42,47,0; }
	{ (p08) break.m	0x100004; cmp.eq.or.andcm	p00,p60,0x0,r66; (p49) tbit.z	p10,p00,r1,0x0 }
	{ (p08) nop; (p12) break.i	0xD003F; (p04) mov	pr,0x68A804A }
	{ (p32) break.m	0x100004; break.m	0x14600; Invalid; }
	{ break.m	0x100002; nop; (p49) br.call.sptk.many	b2,b0 }
	{ Invalid; Invalid; Invalid }
	{ (p08) break.m	0x100004; nop; (p23) break.i	0x8A }
	{ break.m	0x100000; cmp.eq.or.andcm	p00,p56,0x0,r106; (p49) break.i	0x8A; }
	{ Invalid; (p08) nop; (p17) break.i	0x4A; }
	{ Invalid; (p32) break.i	0x100004; Invalid; }
	{ break.m	0x100002; Invalid; (p32) br.call.sptk.many	b2,b0 }
	{ Invalid; Invalid; Invalid }
	{ (p08) break.m	0x100004; break.i	0x30038; (p06) break.i	0x8A }
	{ break.m	0x100000; cmp.eq.or.andcm	p00,p56,0x0,r82; (p49) tbit.z.unc	p02,p00,r1,0x0; }
	{ (p08) break.m	0x100004; break.i	0x100000; deposit	r64,r0,r43,47,0 }
	{ break.m	0x100002; psub4	r0,r64,r0; (p12) br.cond.sptk.many	40000000001006D4 }
	{ (p08) break.m	0x100004; cmp4.gt.or.andcm	p00,p43,r0,r14; (p49) tbit.z.unc	p02,p00,r1,0x0 }
	{ (p08) fwb; (p08) break.i	0x100004; nop }
	{ (p08) break.m	0x568C; Invalid; Invalid }
	{ (p32) break.m	0x100004; Invalid; (p36) tbit.z.unc	p02,p00,r1,0x0 }
	{ (p08) break.m	0x100004; Invalid; (p08) deposit	r76,r1,r42,63,0 }
	{ (p08) break.m	0x100004; cmp.eq.or.andcm	p00,p63,0x0,r106; (p49) break.i	0x42 }
	{ Invalid; Invalid; (p08) break.i	0xCC; }
	{ nop; (p08) nop; (p21) break.i	0x42; }
	{ break.m	0x100000; break.i	0x100000; deposit	r8,r1,r34,39,0; }
	{ (p08) break.m	0x14804; (p32) nop; (p17) deposit	r10,r1,r42,47,0 }
	{ (p08) break.m	0x100004; cmp.eq.or.andcm	p00,p59,0x0,r94; (p49) tbit.z	p02,p00,r1,0x0 }
	{ (p08) nop; (p12) nop; (p21) break.i	0x8A }
	{ break.m	0x100000; cmp4.eq	p00,p00,0x0,r46; (p49) break.i	0x4A; }
	{ Invalid; Invalid; (p08) break.i	0x44; }
	{ break.m	0x100000; break.i	0x100000; deposit	r8,r1,r36,39,0; }
	{ Invalid; (p08) cmp.eq.or.andcm	p04,p59,0x0,r74; (p49) br.call.sptk.many	b2,b0 }
	{ Invalid; Invalid; Invalid }
	{ (p08) break.m	0x100004; break.i	0x60038; (p06) break.i	0x42 }
	{ nop; (p12) break.i	0x4632; (p08) break.i	0xCC; }
	{ break.m	0x100000; cmp.eq.or.andcm	p00,p55,0x0,r122; (p49) tbit.z.unc	p02,p00,r1,0x0; }
	{ (p08) break.m	0x100004; break.i	0x100000; deposit	r24,r0,r8,39,0 }
	{ (p08) nop; Invalid; (p01) break.i	0x80 }
	{ rum	0x60000; (p14) break.i	0x108800; (p01) mov	pr,0x68A8048; }
	{ (p32) break.m	0x100004; break.m	0x14600; Invalid; }
	{ break.m	0x100002; nop; (p49) br.call.sptk.many	b2,b0 }
	{ Invalid; Invalid; Invalid }
	{ (p08) break.m	0x100004; break.i	0x40038; (p06) break.i	0x8A }
	{ break.m	0x100000; cmp.eq.or.andcm	p00,p55,0x0,r90; (p49) tbit.z	p10,p00,r1,0x0; }
	{ Invalid; (p08) cmp.eq.or.andcm	p04,p55,0x0,r86; (p49) break.i	0x82 }
	{ Invalid; (p08) nop; (p17) deposit	r10,r1,r42,47,0; }
	{ (p08) break.m	0x14604; Invalid; (p32) tbit.z	p10,p00,r1,0x0 }
	{ Invalid; (p08) cmp.eq.or.andcm	p04,p55,0x0,r74; (p49) break.i	0x8A }
	{ Invalid; (p08) nop; (p17) break.i	0x42; }
	{ break.m	0x100000; break.i	0x100000; break.i	0x40; }
	{ break.m	0x100000; break.i	0x100000; Invalid; }
	{ (p44) nop; (p08) add	r7,r12,r1; (p01) mov	pr,0x2884048 }
	{ (p33) ld1.nta	r4,[r17],r24; (p32) nop; (p08) mov	pr,0x7880744; }
	{ (p32) break.m	0x100004; break.m	0x5000; (p08) deposit	r92,r0,r38,15,0; }
	{ cmp4.lt	p58,p00,r0,r1; break.m	0x100002; br.cond.dptk.few	40000000000FC944 }
	{ Invalid; (p08) cmp4.eq.or.andcm	p04,p37,0xFFFFFFFFFFFFFF80,r34; (p49) br.call.sptk.many	b2,b0 }
	{ Invalid; Invalid; Invalid }
	{ Invalid; (p08) break.i	0xB0034; (p06) nop }
	{ ld1.nta	r2,[r49],r24; (p32) nop; (p32) nop }
	{ (p32) break.m	0x100004; break.i	0x70030; (p06) deposit	r10,r1,r7,47,0 }
	{ Invalid; Invalid; Invalid }
	{ psub1	r0,r60,r0; break.i	0x100002; nop; }
	{ Invalid; Invalid; Invalid }
	{ nop; (p32) break.i	0x50032; (p06) deposit	r10,r1,r38,15,0; }
	{ break.m	0x100002; cmp4.eq.or.andcm	p00,p22,0xFFFFFFFFFFFFFF80,r14; (p49) br.wexit.dptk.many	3FFFFFFFFF0EC1D4 }
	{ (p08) psub1	r4,r0,r0; (p12) break.i	0x1002; (p08) break.i	0xC }
	{ ld1.c.clr	r0,[r16],128; (p01) break.i	0x100000; break.i	0x80; }
	{ rum	0x30000; (p14) break.i	0x108800; (p01) break.i	0x20048; }
	{ (p08) break.m	0x100004; Invalid; (p01) break.i	0x88 }
	{ rum	0x30000; (p14) break.i	0x108800; (p01) break.i	0x40; }
	{ break.m	0x100000; break.i	0x100000; nop; }
	{ (p44) rum	0x9C4600; (p34) break.i	0x4; mov	pr,0xA4049 }
	{ (p08) break.m	0x100004; add	r0,r28,r1; (p01) break.i	0x88 }
	{ break.m	0x5400; sxt4	r4,r106; (p32) extr.u	r74,r1,0,1; }
	{ (p08) break.m	0x100004; Invalid; (p08) break.i	0x4C }
	{ cmp4.lt	p00,p12,r8,r1; break.i	0x100002; deposit	r8,r1,r6,47,0; }
	{ Invalid; Invalid; Invalid }
	{ nop; (p12) break.i	0x8003F; (p06) mov	pr,0x289004A; }
	{ (p33) break.m	0x100004; fcmp.lt	p00,p06,f40,f40; (p32) break.i	0x4C; }
	{ cmp4.lt	p00,p40,r40,r1; break.i	0x100002; deposit	r8,r1,r38,31,0; }
	{ break.m	0x100002; cmp4.eq	p00,p58,0xFFFFFFFFFFFFFF80,r126; (p49) br.call.dptk.many	b2,40000000000EC2D4 }
	{ (p08) break.m	0x100004; Invalid; (p08) nop }
	{ (p08) break.m	0x5804; (p08) deposit	r4,r40,r81,31,6; Invalid }
	{ break.m	0x100002; cmp4.eq.or.andcm	p00,p36,0xFFFFFFFFFFFFFF80,r50; (p49) br.call.sptk.many	b2,b0 }
	{ (p08) break.m	0x100004; nop; (p08) extr.u	r79,r1,0,1 }
	{ (p08) break.m	0x100004; break.i	0x30030; (p06) nop }
	{ break.m	0x100002; nop; (p32) nop }
	{ (p32) break.m	0x100004; break.i	0x100000; break.i	0x80 }
	{ nop; (p12) break.i	0x30037; (p04) break.i	0x4A; }
	{ nop; break.i	0x100002; break.i	0x80; }
	{ nop; (p12) break.i	0xD003F; (p04) deposit	r10,r1,r42,47,0; }
	{ (p08) break.m	0x100004; nop; (p49) nop }
	{ Invalid; Invalid; Invalid }
	{ (p08) nop; (p08) deposit	r7,r36,r0,61,0; (p32) break.i	0x82 }
	{ break.m	0x14240; (p32) break.i	0x3003C; (p06) deposit	r74,r0,r14,39,0; }
	{ break.m	0x100002; Invalid; Invalid }
	{ Invalid; Invalid; Invalid }
	{ break.m	0x100000; cmp.eq.or.andcm	p00,p54,0x0,r2; (p49) extr.u	r66,r1,0,1; }
	{ (p08) break.m	0x100004; break.i	0x100000; deposit	r72,r0,r8,55,0 }
	{ (p08) break.m	0x100004; Invalid; (p01) break.i	0x88 }
	{ rum	0x70000; (p14) break.i	0x108800; (p01) deposit	r8,r1,r42,47,0; }
	{ (p08) break.m	0x5604; Invalid; (p32) extr.u	r2,r1,0,1 }
	{ (p08) fwb; (p08) nop; (p17) nop }
	{ Invalid; break.i	0x100002; break.i	0x80 }
	{ nop; (p32) nop; (p21) mov	pr,r0,0xE294; }
	{ (p32) break.m	0x75604; Invalid; Invalid; }
	{ break.m	0x100002; cmp4.eq.or.andcm	p00,p20,0xFFFFFFFFFFFFFF80,r102; (p49) br.call.dptk.few	b2,40000000000EC474 }
	{ Invalid; (p08) nop; (p33) break.i	0x4C }
	{ break.m	0x100000; break.i	0x100000; nop; }
	{ (p12) break.m	0x100002; nop; (p49) br.call.sptk.few	b2,b0 }
	{ Invalid; Invalid; Invalid }
	{ (p08) nop; (p08) deposit	r7,r36,r0,61,0; (p32) break.i	0x8A }
	{ break.m	0x14240; (p32) nop; (p21) mov	pr,0x683804A; }
	{ (p34) break.m	0x100004; Invalid; (p01) nop; }
	{ rum	0x70002; (p14) nop; (p12) break.b	0x4F }
	{ break.m	0x14230; (p32) break.i	0x100004; break.i	0x80; }
	{ Invalid; (p08) break.i	0x108804; (p01) break.i	0x48; }
	{ Invalid; (p32) break.i	0x100004; Invalid; }
	{ break.m	0x100002; loadrs; (p32) br.call.dptk.few	b2,40000000000EC544 }
	{ (p08) fwb; (p08) nop; (p17) break.i	0x42 }
	{ break.m	0x100000; break.i	0x100000; break.i	0x40; }
	{ break.m	0x100000; break.i	0x100000; break.i	0x40; }
	{ break.m	0x100000; break.i	0x100000; nop; }

;; cd_builtin: 40000000000EBD80
cd_builtin proc
	{ alloc	r41,ar.pfs,0xE,0x0,0xB; adds	r12,0xFFFFFFFFFFFFFFF0,r12; mov	r40,b0 }
	{ addl	r14,7352,r1; adds	r42,0x0,r1; addl	r33,8372,r1; }
	{ nop.m	0x0; nop.m	0x0; addl	r35,1,r0; }
	{ nop.m	0x0; ld4	r14,[r14]; nop.i	0x0; }
	{ cmp4.eq	p06,p07,0x0,r14; addl	r14,7360,r1; (p07) br.cond.dpnt.few	40000000000EBED0; }

l40000000000EBDD0:
	{ nop.m	0x0; st4	[r0],r33; nop.i	0x0; }
	{ ld4	r34,[r14]; br.call.sptk.many	b0,reset_internal_getopt; nop.b	0x0; }
	{ adds	r1,0x0,r42; nop.m	0x0; nop.i	0x0; }

l40000000000EBE00:
	{ addl	r44,1252,r1; nop.m	0x0; adds	r43,0x0,r32; }
	{ ld8	r44,[r44]; nop.i	0x0; br.call.sptk.many	b0,internal_getopt; }
	{ cmp4.eq	p07,p06,0xFFFFFFFFFFFFFFFF,r8; adds	r1,0x0,r42; (p07) br.cond.dpnt.few	40000000000EBF10; }

l40000000000EBE30:
	{ cmp4.eq	p06,p07,0x50,r8; nop.i	0x0; (p06) br.cond.dpnt.few	40000000000EBEB0; }

l40000000000EBE40:
	{ cmp4.eq	p06,p07,0x65,r8; nop.i	0x0; (p06) br.cond.dpnt.few	40000000000EBEC0; }

l40000000000EBE50:
	{ cmp4.eq	p06,p07,0x4C,r8; nop.i	0x0; (p06) br.cond.dpnt.few	40000000000EBEA0; }

l40000000000EBE60:
	{ nop.m	0x0; nop.i	0x0; br.call.sptk.many	b0,builtin_usage; }
	{ addl	r8,1,r0; adds	r1,0x0,r42; mov.i	ar.pfs,r41; }
	{ nop.m	0x0; mov.spnt	b0,r40,40000000000EBE80; nop.i	0x0 }
	{ adds	r12,0x10,r12; nop.m	0x0; br.ret	b0 }

l40000000000EBEA0:
	{ nop.m	0x0; adds	r34,0x0,r0; br.cond.sptk.few	40000000000EBE00; }

l40000000000EBEB0:
	{ nop.m	0x0; addl	r34,1,r0; br.cond.sptk.few	40000000000EBE00 }

l40000000000EBEC0:
	{ st4	[r35],r33; nop.i	0x0; br.cond.sptk.few	40000000000EBE00 }

l40000000000EBED0:
	{ adds	r43,0x0,r0; nop.i	0x0; br.call.sptk.many	b0,sh_restricted; }
	{ addl	r8,1,r0; adds	r1,0x0,r42; mov.i	ar.pfs,r41; }
	{ nop.m	0x0; mov.spnt	b0,r40,40000000000EBEF0; nop.i	0x0 }
	{ adds	r12,0x10,r12; nop.m	0x0; br.ret	b0 }

l40000000000EBF10:
	{ nop.m	0x0; addl	r14,9236,r1; nop.i	0x0; }
	{ nop.m	0x0; ld4	r37,[r14]; addl	r14,6516,r1; }
	{ nop.m	0x0; cmp4.eq	p09,p08,0x0,r37; (p08) addl	r37,1,r0; }

l40000000000EBF40:
	{ ld4	r15,[r14]; addl	r14,9268,r1; (p09) adds	r37,0x0,r0; }

l40000000000EBF50:
	{ nop.m	0x0; cmp4.eq	p06,p07,0x0,r15; (p06) adds	r16,0x0,r0; }

l40000000000EBF60:
	{ ld8	r14,[r14]; nop.i	0x0; (p06) br.cond.dptk.few	40000000000EBFA0 }

l40000000000EBF70:
	{ addl	r15,8368,r1; ld4	r16,[r15]; nop.i	0x0; }
	{ nop.m	0x0; cmp4.eq	p06,p07,0x0,r16; nop.i	0x0; }
	{ (p06) adds	r16,0x0,r0; nop.i	0x0; (p07) addl	r16,2,r0; }

l40000000000EBF96:
	{ chk.a.nc	f0,3FFFFFFFFF0EC796; (p08) nop; (p48) nop }

l40000000000EBFA0:
	{ ld4	r15,[r33]; nop.m	0x0; or	r37,r16,r37; }

l40000000000EBFA2:
	{ (p16) break.m	0x20208; chk.s.i	r0,3FFFFFFFFF4EC1A2; Invalid }

l40000000000EBFA8:
	{ (p16) nop; (p36) break.i	0x11803; czx1.l	r8,r0 }

l40000000000EBFAE:
	{ (p01) break.m	0x230; (p04) ldfe	f0,[r24],-256; (p28) br.cond	b7; }

l40000000000EBFB4:
	{ nop; (p12) nop.i	0x8003F; (p04) nop; }

l40000000000EBFC0:
	{ adds	r33,0x8,r14; cmp.eq	p07,p06,0x0,r14; (p07) br.cond.dpnt.few	40000000000EC540; }

l40000000000EBFD0:
	{ ld8	r14,[r33]; ld8	r43,[r14]; nop.i	0x0; }
	{ ld1	r14,[r43]; nop.m	0x0; sxt1	r14,r14; }
	{ nop.m	0x0; cmp4.eq	p07,p06,0x2D,r14; (p07) br.cond.dpnt.few	40000000000EC380 }

l40000000000EC000:
	{ nop.m	0x0; nop.i	0x0; br.call.sptk.many	b0,absolute_pathname; }
	{ adds	r1,0x0,r42; cmp4.eq	p06,p07,0x0,r8; (p07) br.cond.dptk.few	40000000000EC190; }

l40000000000EC020:
	{ addl	r14,7344,r1; nop.m	0x0; nop.i	0x0; }
	{ nop.m	0x0; ld4	r14,[r14]; nop.i	0x0; }
	{ nop.m	0x0; cmp4.eq	p07,p06,0x0,r14; (p06) br.cond.dptk.few	40000000000EC190 }

l40000000000EC050:
	{ nop.m	0x0; addl	r43,1284,r1; nop.i	0x0; }
	{ ld8	r43,[r43]; nop.i	0x0; br.call.sptk.many	b0,get_string_value; }
	{ adds	r1,0x0,r42; nop.m	0x0; cmp.eq	p06,p07,0x0,r8 }
	{ adds	r38,0x0,r8; nop.m	0x0; (p06) br.cond.dpnt.few	40000000000EC190; }

l40000000000EC090:
	{ ld8	r14,[r33]; ld8	r35,[r14]; adds	r14,0x10,r12 }
	{ nop.m	0x0; st4	[r0],r14; nop.i	0x0; }
	{ nop.m	0x0; nop.m	0x0; nop.i	0x0 }

l40000000000EC0C0:
	{ adds	r43,0x0,r38; adds	r44,0x10,r12; br.call.sptk.many	b0,extract_colon_unit; }
	{ adds	r33,0x0,r8; cmp.eq	p07,p06,0x0,r8; adds	r1,0x0,r42 }
	{ addl	r45,1,r0; adds	r44,0x0,r35; (p07) br.cond.dpnt.few	40000000000EC1B0; }

l40000000000EC0F0:
	{ ld1	r14,[r33]; adds	r43,0x0,r33; sxt1	r14,r14; }
	{ adds	r39,0x0,r14; nop.i	0x0; br.call.sptk.many	b0,sh_makepath; }
	{ adds	r1,0x0,r42; nop.m	0x0; adds	r36,0x0,r8 }
	{ adds	r43,0x0,r33; nop.m	0x0; br.call.sptk.many	b0,400000000001A7E0; }
	{ adds	r1,0x0,r42; nop.m	0x0; adds	r43,0x0,r36 }
	{ adds	r44,0x0,r34; nop.m	0x0; br.call.sptk.many	b0,40000000000EB300; }
	{ cmp4.eq	p06,p07,0x0,r8; nop.m	0x0; adds	r1,0x0,r42 }
	{ adds	r43,0x0,r36; nop.m	0x0; (p07) br.cond.dpnt.few	40000000000EC5C0; }

l40000000000EC170:
	{ nop.m	0x0; nop.i	0x0; br.call.sptk.many	b0,400000000001A7E0; }
	{ nop.m	0x0; adds	r1,0x0,r42; br.cond.sptk.few	40000000000EC0C0 }

l40000000000EC190:
	{ nop.m	0x0; ld8	r14,[r33]; nop.i	0x0; }
	{ ld8	r35,[r14]; nop.m	0x0; nop.i	0x0; }

l40000000000EC1B0:
	{ adds	r43,0x0,r35; adds	r44,0x0,r34; br.call.sptk.many	b0,40000000000EB300; }
	{ adds	r1,0x0,r42; cmp4.eq	p06,p07,0x0,r8; (p06) br.cond.dptk.few	40000000000EC250; }

l40000000000EC1D0:
	{ nop.m	0x0; tbit.z	p06,p07,r37,0x2; adds	r43,0x0,r34 }
	{ nop.m	0x0; nop.m	0x0; (p07) br.cond.dpnt.few	40000000000EC460; }

l40000000000EC1F0:
	{ nop.m	0x0; nop.i	0x0; br.call.sptk.many	b0,40000000000EBA40; }
	{ adds	r1,0x0,r42; nop.m	0x0; nop.i	0x0 }

l40000000000EC210:
	{ nop.m	0x0; mov.i	ar.pfs,r41; mov.spnt	b0,r40,40000000000EC210 }
	{ nop.m	0x0; adds	r12,0x10,r12; br.ret	b0 }

l40000000000EC230:
	{ cmp4.eq	p07,p06,0x0,r34; (p07) addl	r15,8372,r1; nop.i	0x0; }

l40000000000EC23C:
	{ Invalid; Invalid; break.i	0x1000 }
	{ Invalid; cmp.lt	p00,p00,r32,r0; mov	pr,r105,0x5040 }

l40000000000EC250:
	{ nop.m	0x0; tbit.z	p06,p07,r37,0x0; (p07) br.cond.dpnt.few	40000000000EC4B0; }

l40000000000EC260:
	{ nop.m	0x0; tbit.z	p06,p07,r37,0x1; (p06) br.cond.dptk.few	40000000000EC2F0 }

l40000000000EC270:
	{ adds	r43,0x0,r35; nop.i	0x0; br.call.sptk.many	b0,dirspell; }
	{ cmp.eq	p06,p07,0x0,r8; adds	r1,0x0,r42; adds	r33,0x0,r8 }
	{ adds	r43,0x0,r8; adds	r44,0x0,r34; (p06) br.cond.dpnt.few	40000000000EC2F0; }

l40000000000EC2A0:
	{ nop.m	0x0; nop.i	0x0; br.call.sptk.many	b0,40000000000EB300; }
	{ cmp4.eq	p06,p07,0x0,r8; nop.m	0x0; adds	r1,0x0,r42 }
	{ adds	r43,0x0,r33; nop.m	0x0; (p07) br.cond.dpnt.few	40000000000EC470; }

l40000000000EC2D0:
	{ nop.m	0x0; nop.i	0x0; br.call.sptk.many	b0,400000000001A7E0; }
	{ adds	r1,0x0,r42; nop.m	0x0; nop.i	0x0 }

l40000000000EC2F0:
	{ nop.m	0x0; nop.i	0x0; br.call.sptk.many	b0,400000000001B840; }
	{ nop.m	0x0; adds	r1,0x0,r42; nop.i	0x0 }
	{ ld4	r43,[r8]; nop.m	0x0; br.call.sptk.many	b0,400000000001B4A0; }
	{ adds	r1,0x0,r42; adds	r45,0x0,r8; adds	r44,0x0,r35; }
	{ nop.m	0x0; addl	r43,1292,r1; nop.i	0x0; }
	{ ld8	r43,[r43]; nop.i	0x0; br.call.sptk.many	b0,builtin_error; }
	{ addl	r8,1,r0; adds	r1,0x0,r42; mov.i	ar.pfs,r41; }
	{ nop.m	0x0; mov.spnt	b0,r40,40000000000EC360; nop.i	0x0 }
	{ adds	r12,0x10,r12; nop.m	0x0; br.ret	b0 }

l40000000000EC380:
	{ adds	r14,0x1,r43; ld1	r14,[r14]; nop.i	0x0; }
	{ nop.m	0x0; sxt1	r14,r14; nop.i	0x0; }
	{ nop.m	0x0; cmp4.eq	p07,p06,0x0,r14; (p06) br.cond.dptk.few	40000000000EC000 }

l40000000000EC3B0:
	{ nop.m	0x0; addl	r43,1236,r1; nop.i	0x0; }
	{ ld8	r43,[r43]; nop.i	0x0; br.call.sptk.many	b0,get_string_value; }
	{ cmp.eq	p07,p06,0x0,r8; adds	r1,0x0,r42; adds	r35,0x0,r8; }
	{ nop.m	0x0; (p06) addl	r37,4,r0; (p06) br.cond.dptk.few	40000000000EC1B0 }

l40000000000EC3EC:
	{ (p46) nop; add	r0,r32,r0; (p05) nop }

l40000000000EC3F2:
	{ Invalid; (p31) break.i	0x48120; nop }
	{ break.m	0x2030B; break.i	0x20; nop; }
	{ Invalid; Invalid; Invalid }
	{ Invalid; cmp.ltu	p02,p00,r64,r16; (p34) deposit	r0,r0,r42,63,2 }
	{ invala; break.x	0x210054000550 }
	{ break.m	0x20; (p21) break.i	0x3800; nop }
	{ (p02) break.m	0x42003; nop; tbit.z.and	p32,p02,r32,0x4 }

l40000000000EC460:
	{ adds	r43,0x0,r35; nop.m	0x0; nop.i	0x0; }

l40000000000EC470:
	{ nop.m	0x0; nop.i	0x0; br.call.sptk.many	b0,400000000001B380; }
	{ adds	r1,0x0,r42; nop.m	0x0; nop.i	0x0 }
	{ adds	r43,0x0,r34; nop.i	0x0; br.call.sptk.many	b0,40000000000EBA40; }
	{ nop.m	0x0; adds	r1,0x0,r42; br.cond.sptk.few	40000000000EC210 }
