;;; Segment .text (400000000001C480)

;; complete_builtin: 400000000011CF40
complete_builtin proc
	{ alloc	r48,ar.pfs,0x17,0x0,0x13; adds	r12,0xFFFFFFFFFFFFFFE0,r12; mov	r50,pr }
	{ adds	r49,0x0,r1; cmp.eq	p07,p06,0x0,r32; addl	r40,8716,r1; }
	{ adds	r34,0x10,r12; addl	r41,8724,r1; mov	r47,b7 }
	{ addl	r39,8732,r1; addl	r42,8740,r1; (p07) br.cond.dpnt.few	400000000011D310; }

l400000000011CF80:
	{ addl	r43,8748,r1; st4	[r34],r16,16; addl	r44,8756,r1 }
	{ addl	r45,8764,r1; adds	r35,0x28,r12; adds	r36,0x18,r12; }
	{ adds	r38,0x14,r12; adds	r37,0x1C,r12; adds	r51,0x0,r32 }
	{ st4	[r0],r36; st8	[r0],r34; adds	r52,0x10,r12; }
	{ st4	[r0],r37; st4	[r0],r38; adds	r53,0x0,r35 }
	{ adds	r54,0x0,r34; st8	[r0],r35; nop.i	0x0 }
	{ st8	[r0],r40; st8	[r0],r41; nop.i	0x0 }
	{ st8	[r0],r39; st8	[r0],r42; nop.i	0x0 }
	{ st8	[r0],r43; st8	[r0],r44; nop.i	0x0 }
	{ st8	[r0],r45; nop.m	0x0; br.call.sptk.many	b0,400000000011B040; }
	{ adds	r1,0x0,r49; addl	r14,258,r0; adds	r33,0x0,r8; }
	{ addl	r15,9268,r1; cmp4.eq	p06,p07,r14,r8; (p06) br.cond.dpnt.few	400000000011D100; }

l400000000011D040:
	{ nop.m	0x0; ld4	r14,[r36]; nop.i	0x0; }
	{ nop.m	0x0; cmp4.eq	p06,p07,0x0,r14; nop.i	0x0; }
	{ ld8	r46,[r15]; adds	r15,0x10,r12; (p07) br.cond.dpnt.few	400000000011D240; }

l400000000011D070:
	{ nop.m	0x0; ld4	r14,[r37]; nop.i	0x0; }
	{ cmp4.eq	p06,p07,0x0,r14; nop.i	0x0; (p07) br.cond.dpnt.few	400000000011D2C0; }

l400000000011D090:
	{ ld4	r14,[r15]; nop.m	0x0; (p06) adds	r36,0x0,r0; }

l400000000011D0A0:
	{ nop.m	0x0; cmp4.eq	p07,p06,0x0,r14; (p07) br.cond.dptk.few	400000000011D130; }

l400000000011D0B0:
	{ cmp.eq	p06,p07,0x0,r36; adds	r51,0x0,r36; (p06) br.cond.dpnt.few	400000000011D1E0; }

l400000000011D0C0:
	{ nop.m	0x0; nop.i	0x0; br.call.sptk.many	b0,400000000011C900; }
	{ adds	r1,0x0,r49; nop.m	0x0; adds	r33,0x0,r8 }
	{ adds	r51,0x0,r36; nop.m	0x0; br.call.sptk.many	b0,dispose_words; }
	{ adds	r1,0x0,r49; nop.m	0x0; nop.i	0x0 }

l400000000011D100:
	{ adds	r8,0x0,r33; mov	pr,r50,0xFFFFFFFFFFFFFFFE; mov.i	ar.pfs,r48; }
	{ nop.m	0x0; mov.spnt	b0,r47,400000000011D110; nop.i	0x0 }
	{ adds	r12,0x20,r12; nop.m	0x0; br.ret	b0 }

l400000000011D130:
	{ cmp.eq	p06,p07,0x0,r46; cmp4.eq	p09,p08,0x1,r33; (p06) addl	r15,1,r0 }

l400000000011D140:
	{ (p08) addl	r33,1,r0; (p07) adds	r15,0x0,r0; (p09) adds	r33,0x0,r0; }

l400000000011D146:
	{ (p07) addl	r0,24832,r0; (p16) mov.sptk	b0,r0,400000000011D246; nop; }

l400000000011D14C:
	{ Invalid; break.x	0x1017A1024101E0 }
	{ (p08) invala; cmp.lt	p00,p00,r32,r0; mov	pr,r100,0xE600 }
	{ (p58) nop; break.i	0x1000; (p02) rfi }
	{ Invalid; cmp.lt	p00,p00,r32,r0; mov	pr,r100,0xE600 }
	{ (p15) cmp.lt	p00,p17,r0,r33; nop; (p06) mov	pr,r9,0x8400 }
	{ Invalid; break.i	0x1000; break.b	0x1000 }
	{ (p07) nop; invala; nop }
	{ ldfpd	f8,f0,[r66]; break.x	0x10802400C01000 }
	{ (p16) invala; nop; zxt1	r32,r64 }
	{ (p57) cmp.lt.unc	p63,p17,r63,r36; nop; (p06) epc }

l400000000011D1E0:
	{ cmp.eq	p06,p07,0x0,r46; adds	r51,0x0,r46; (p06) br.cond.dpnt.few	400000000011D310; }

l400000000011D1F0:
	{ nop.m	0x0; nop.i	0x0; br.call.sptk.many	b0,400000000011C900; }
	{ adds	r33,0x0,r8; nop.m	0x0; adds	r1,0x0,r49; }
	{ adds	r8,0x0,r33; mov	pr,r50,0xFFFFFFFFFFFFFFFE; mov.i	ar.pfs,r48; }
	{ nop.m	0x0; mov.spnt	b0,r47,400000000011D220; nop.i	0x0 }
	{ adds	r12,0x20,r12; nop.m	0x0; br.ret	b0 }

l400000000011D240:
	{ nop.m	0x0; addl	r51,-3484,r1; nop.i	0x0; }
	{ ld8	r51,[r51]; nop.i	0x0; br.call.sptk.many	b0,make_bare_word; }
	{ adds	r1,0x0,r49; nop.m	0x0; adds	r51,0x0,r8 }
	{ adds	r52,0x0,r0; nop.m	0x0; br.call.sptk.many	b0,make_word_list; }
	{ nop.m	0x0; adds	r1,0x0,r49; adds	r36,0x0,r8 }

l400000000011D290:
	{ adds	r15,0x10,r12; ld4	r14,[r15]; nop.i	0x0; }
	{ nop.m	0x0; cmp4.eq	p07,p06,0x0,r14; (p06) br.cond.dptk.few	400000000011D0B0 }

l400000000011D2B0:
	{ nop.m	0x0; nop.i	0x0; br.cond.sptk.few	400000000011D130 }

l400000000011D2C0:
	{ nop.m	0x0; addl	r51,-3492,r1; nop.i	0x0; }
	{ ld8	r51,[r51]; nop.i	0x0; br.call.sptk.many	b0,make_bare_word; }
	{ adds	r1,0x0,r49; nop.m	0x0; adds	r51,0x0,r8 }
	{ adds	r52,0x0,r0; nop.m	0x0; br.call.sptk.many	b0,make_word_list; }
	{ adds	r1,0x0,r49; adds	r36,0x0,r8; br.cond.sptk.few	400000000011D290; }

l400000000011D310:
	{ addl	r51,-3364,r1; nop.m	0x0; adds	r33,0x0,r0; }
	{ ld8	r51,[r51]; nop.i	0x0; br.call.sptk.many	b0,progcomp_walk; }
	{ adds	r8,0x0,r33; adds	r1,0x0,r49; mov	pr,r50,0xFFFFFFFFFFFFFFFE; }
	{ nop.m	0x0; mov.i	ar.pfs,r48; mov.spnt	b0,r47,400000000011D340 }
	{ nop.m	0x0; adds	r12,0x20,r12; br.ret	b0 }
400000000011D360 0B 80 00 48 11 39 F4 08 00 00 48 00 00 00 04 00 ...H.9....H.....
400000000011D370 2B 7A 00 00 00 21 E0 78 38 18 40 00 00 00 04 00 +z...!.x8.@.....
400000000011D380 11 30 00 1C 87 39 00 00 00 02 00 03 20 00 00 43 .0...9...... ..C
400000000011D390 10 00 00 00 01 00 60 00 84 0E F3 03 80 04 00 43 ......`........C
400000000011D3A0 11 00 00 00 01 00 00 00 00 02 00 00 68 A8 FC 58 ............h..X
400000000011D3B0 08 98 01 5A 18 10 10 41 20 00 42 00 02 41 00 84 ...Z...A .B..A..
400000000011D3C0 09 28 01 10 00 21 F0 00 8C 30 20 20 00 88 01 84 .(...!...0  ....
400000000011D3D0 08 30 00 66 07 39 E0 00 88 30 20 00 00 00 04 00 .0.f.9...0 .....
400000000011D3E0 0A 00 3C 22 98 11 00 00 00 02 00 03 01 00 00 84 ..<"............
400000000011D3F0 19 00 00 00 01 00 00 70 40 30 23 03 60 00 00 43 .......p@0#.`..C
400000000011D400 11 00 00 00 01 00 00 00 00 02 00 00 C8 E2 EF 58 ...............X
400000000011D410 11 08 00 62 00 21 30 0B 20 00 42 00 B8 B8 FC 58 ...b.!0. .B....X
400000000011D420 03 08 00 62 00 21 30 03 20 00 42 C0 C1 0B 10 91 ...b.!0. .B.....
400000000011D430 13 A0 01 1C 18 10 00 AC EE 77 2C 00 00 00 00 20 .........w,.... 
400000000011D440 08 08 00 62 00 21 00 00 00 02 00 00 00 00 04 00 ...b.!..........
400000000011D450 09 98 01 58 18 10 00 00 00 02 00 C0 81 29 01 84 ...X.........)..
400000000011D460 09 30 00 66 07 39 00 40 38 30 23 00 00 00 04 00 .0.f.9.@80#.....
400000000011D470 D1 40 00 00 00 21 00 00 00 02 00 03 60 00 00 43 .@...!......`..C
400000000011D480 11 00 00 00 01 00 00 00 00 02 00 00 48 E2 EF 58 ............H..X
400000000011D490 11 08 00 62 00 21 30 0B 20 00 42 00 38 B8 FC 58 ...b.!0. .B.8..X
400000000011D4A0 03 08 00 62 00 21 30 03 20 00 42 C0 41 0B 10 91 ...b.!0. .B.A...
400000000011D4B0 13 A0 01 1C 18 10 00 6C EE 77 2C 00 00 00 00 20 .......l.w,.... 
400000000011D4C0 08 08 00 62 00 21 00 00 00 02 00 00 00 00 04 00 ...b.!..........
400000000011D4D0 09 98 01 56 18 10 00 00 00 02 00 C0 01 2A 01 84 ...V.........*..
400000000011D4E0 09 30 00 66 07 39 00 40 38 30 23 00 00 00 04 00 .0.f.9.@80#.....
400000000011D4F0 D1 40 00 00 00 21 00 00 00 02 00 03 60 00 00 43 .@...!......`..C
400000000011D500 11 00 00 00 01 00 00 00 00 02 00 00 C8 E1 EF 58 ...............X
400000000011D510 11 08 00 62 00 21 30 0B 20 00 42 00 B8 B7 FC 58 ...b.!0. .B....X
400000000011D520 03 08 00 62 00 21 30 03 20 00 42 C0 C1 0A 10 91 ...b.!0. .B.....
400000000011D530 13 A0 01 1C 18 10 00 2C EE 77 2C 00 00 00 00 20 .......,.w,.... 
400000000011D540 08 08 00 62 00 21 00 00 00 02 00 00 00 00 04 00 ...b.!..........
400000000011D550 09 98 01 54 18 10 00 00 00 02 00 C0 81 2A 01 84 ...T.........*..
400000000011D560 09 30 00 66 07 39 00 40 38 30 23 00 00 00 04 00 .0.f.9.@80#.....
400000000011D570 D1 40 00 00 00 21 00 00 00 02 00 03 60 00 00 43 .@...!......`..C
400000000011D580 11 00 00 00 01 00 00 00 00 02 00 00 48 E1 EF 58 ............H..X
400000000011D590 11 08 00 62 00 21 30 0B 20 00 42 00 38 B7 FC 58 ...b.!0. .B.8..X
400000000011D5A0 03 08 00 62 00 21 30 03 20 00 42 C0 41 0A 10 91 ...b.!0. .B.A...
400000000011D5B0 13 A0 01 1C 18 10 00 EC ED 77 2C 00 00 00 00 20 .........w,.... 
400000000011D5C0 08 08 00 62 00 21 00 00 00 02 00 00 00 00 04 00 ...b.!..........
400000000011D5D0 09 98 01 52 18 10 00 00 00 02 00 C0 01 2B 01 84 ...R.........+..
400000000011D5E0 09 30 00 66 07 39 00 40 38 30 23 00 00 00 04 00 .0.f.9.@80#.....
400000000011D5F0 D1 40 00 00 00 21 00 00 00 02 00 03 60 00 00 43 .@...!......`..C
400000000011D600 11 00 00 00 01 00 00 00 00 02 00 00 C8 E0 EF 58 ...............X
400000000011D610 11 08 00 62 00 21 30 0B 20 00 42 00 B8 B6 FC 58 ...b.!0. .B....X
400000000011D620 03 08 00 62 00 21 30 03 20 00 42 C0 41 09 10 91 ...b.!0. .B.A...
400000000011D630 13 A0 01 1C 18 10 00 AC ED 77 2C 00 00 00 00 20 .........w,.... 
400000000011D640 08 08 00 62 00 21 00 00 00 02 00 00 00 00 04 00 ...b.!..........
400000000011D650 09 98 01 50 18 10 00 00 00 02 00 C0 81 2B 01 84 ...P.........+..
400000000011D660 09 30 00 66 07 39 00 40 38 30 23 00 00 00 04 00 .0.f.9.@80#.....
400000000011D670 D1 40 00 00 00 21 00 00 00 02 00 03 60 00 00 43 .@...!......`..C
400000000011D680 11 00 00 00 01 00 00 00 00 02 00 00 48 E0 EF 58 ............H..X
400000000011D690 11 08 00 62 00 21 30 0B 20 00 42 00 38 B6 FC 58 ...b.!0. .B.8..X
400000000011D6A0 03 08 00 62 00 21 30 03 20 00 42 C0 C1 08 10 91 ...b.!0. .B.....
400000000011D6B0 13 A0 01 1C 18 10 00 6C ED 77 2C 00 00 00 00 20 .......l.w,.... 
400000000011D6C0 08 08 00 62 00 21 00 00 00 02 00 00 00 00 04 00 ...b.!..........
400000000011D6D0 09 98 01 4E 18 10 00 00 00 02 00 C0 01 2C 01 84 ...N.........,..
400000000011D6E0 09 30 00 66 07 39 00 40 38 30 23 00 00 00 04 00 .0.f.9.@80#.....
400000000011D6F0 D1 40 00 00 00 21 00 00 00 02 00 03 60 00 00 43 .@...!......`..C
400000000011D700 11 00 00 00 01 00 00 00 00 02 00 00 C8 DF EF 58 ...............X
400000000011D710 11 08 00 62 00 21 30 0B 20 00 42 00 B8 B5 FC 58 ...b.!0. .B....X
400000000011D720 03 08 00 62 00 21 30 03 20 00 42 C0 C1 09 10 91 ...b.!0. .B.....
400000000011D730 13 A0 01 1C 18 10 00 2C ED 77 2C 00 00 00 00 20 .......,.w,.... 
400000000011D740 08 08 00 62 00 21 00 00 00 02 00 00 00 00 04 00 ...b.!..........
400000000011D750 02 70 40 4B 00 61 24 02 90 00 42 00 00 00 04 00 .p@K.a$...B.....
400000000011D760 19 00 20 1C 98 11 00 00 00 02 00 08 F0 00 00 43 .. ............C
400000000011D770 09 08 01 00 00 21 00 00 00 02 00 00 00 00 04 00 .....!..........
400000000011D780 09 70 20 44 00 21 00 00 00 02 00 80 06 28 01 84 .p D.!.......(..
400000000011D790 09 00 00 00 01 00 E0 00 38 30 20 00 00 00 04 00 ........80 .....
400000000011D7A0 11 98 01 1C 18 10 00 00 00 02 00 00 E8 AF FC 58 ...............X
400000000011D7B0 09 10 01 44 18 10 60 00 20 0E 73 20 00 88 01 84 ...D..`. .s ....
400000000011D7C0 D0 08 05 00 00 24 70 00 88 0C 72 03 C0 FF FF 4A .....$p...r....J
400000000011D7D0 11 98 01 48 00 21 00 00 00 02 00 00 F8 E3 F2 58 ...H.!.........X
400000000011D7E0 09 40 00 42 00 21 10 00 C4 00 42 E0 2F 83 7F 0B .@.B.!....B./...
400000000011D7F0 02 00 00 00 01 00 00 80 01 55 00 00 F0 0A 00 07 .........U......
400000000011D800 19 00 00 00 01 00 C0 00 31 00 42 80 08 00 84 00 ........1.B.....
400000000011D810 11 08 09 00 02 24 00 00 00 02 00 00 B8 FF FC 58 .....$.........X
400000000011D820 09 40 00 42 00 21 10 00 C4 00 42 E0 2F 83 7F 0B .@.B.!....B./...
400000000011D830 02 00 00 00 01 00 00 80 01 55 00 00 F0 0A 00 07 .........U......
400000000011D840 18 00 00 00 01 00 C0 00 31 00 42 80 08 00 84 00 ........1.B.....
400000000011D850 09 00 00 00 01 00 70 00 B8 0C 72 00 00 00 04 00 ......p...r.....
400000000011D860 11 00 00 00 01 C0 11 02 00 00 C2 03 70 FF FF 4A ............p..J
400000000011D870 10 10 01 5C 00 21 10 02 00 00 42 00 10 FF FF 48 ...\.!....B....H
400000000011D880 11 30 00 1E 87 39 30 03 B8 00 C2 03 60 00 00 43 .0...90.....`..C
400000000011D890 11 00 00 00 01 00 00 00 00 02 00 00 F8 F1 FF 58 ...............X
400000000011D8A0 09 08 01 10 00 21 00 00 00 02 00 20 00 88 01 84 .....!..... ....
400000000011D8B0 03 40 00 42 00 21 F0 97 C1 BF 05 00 00 03 AA 00 .@.B.!..........
400000000011D8C0 00 00 00 00 01 00 00 78 05 80 03 00 00 00 04 00 .......x........
400000000011D8D0 19 60 80 18 00 21 00 00 00 02 00 80 08 00 84 00 .`...!..........
400000000011D8E0 11 08 01 00 00 21 00 00 00 02 00 00 68 AC FC 58 .....!......h..X
400000000011D8F0 09 40 00 42 00 21 10 00 C4 00 42 E0 2F 83 7F 0B .@.B.!....B./...
400000000011D900 02 00 00 00 01 00 00 80 01 55 00 00 F0 0A 00 07 .........U......
400000000011D910 19 00 00 00 01 00 C0 00 31 00 42 80 08 00 84 00 ........1.B.....
400000000011D920 08 00 00 00 01 00 00 00 00 02 00 00 00 00 04 00 ................
400000000011D930 08 00 00 00 01 00 00 00 00 02 00 00 00 00 04 00 ................

;; compgen_builtin: 400000000011D940
compgen_builtin proc
	{ alloc	r44,ar.pfs,0x14,0x0,0xE; adds	r12,0xFFFFFFFFFFFFFFF0,r12; mov	r43,b3 }
	{ cmp.eq	p07,p06,0x0,r32; addl	r36,8716,r1; (p07) br.cond.dpnt.few	400000000011E0E0; }

l400000000011D960:
	{ adds	r34,0x10,r12; addl	r37,8724,r1; addl	r38,8732,r1 }
	{ addl	r39,8740,r1; addl	r40,8748,r1; addl	r41,8756,r1; }
	{ st8	[r34],r8,8; addl	r42,8764,r1; adds	r45,0x0,r1 }
	{ st8	[r0],r36; adds	r46,0x0,r32; adds	r47,0x0,r0; }
	{ st8	[r0],r34; st8	[r0],r37; adds	r48,0x0,r34 }
	{ nop.m	0x0; adds	r49,0x10,r12; nop.i	0x0; }
	{ st8	[r0],r38; st8	[r0],r39; nop.i	0x0; }
	{ st8	[r0],r40; st8	[r0],r41; nop.i	0x0; }
	{ st8	[r0],r42; nop.i	0x0; br.call.sptk.many	b0,400000000011B040; }
	{ adds	r1,0x0,r45; addl	r14,258,r0; adds	r35,0x0,r8; }
	{ cmp4.eq	p06,p07,r14,r8; addl	r14,9268,r1; (p06) br.cond.dpnt.few	400000000011E010; }

l400000000011DA10:
	{ cmp4.eq	p06,p07,0x1,r8; nop.i	0x0; (p06) br.cond.dpnt.few	400000000011E0E0; }

l400000000011DA20:
	{ nop.m	0x0; ld8	r14,[r14]; nop.i	0x0; }
	{ cmp.eq	p06,p07,0x0,r14; adds	r14,0x8,r14; (p06) br.cond.dpnt.few	400000000011E260; }

l400000000011DA40:
	{ nop.m	0x0; ld8	r14,[r14]; nop.i	0x0; }
	{ nop.m	0x0; cmp.eq	p06,p07,0x0,r14; (p06) br.cond.dpnt.few	400000000011E260; }

l400000000011DA60:
	{ (p07) ld8	r35,[r14]; nop.m	0x0; nop.i	0x0 }

l400000000011DA66:
	{ break.m	0x4000; nop; (p32) nop }

l400000000011DA70:
	{ ld8	r14,[r37]; nop.m	0x0; addl	r47,-3444,r1 }

l400000000011DA72:
	{ (p16) break.m	0x20309; Invalid; Invalid }
	{ Invalid; Invalid; Invalid }
	{ (p32) break.m	0x720E3; nop; pshr4	r0,r40,r48 }

l400000000011DAA0:
	{ ld8	r47,[r47]; nop.i	0x0; br.call.sptk.many	b0,400000000001AB60; }
	{ nop.m	0x0; adds	r1,0x0,r45; adds	r46,0x0,r8 }
	{ nop.m	0x0; nop.m	0x0; br.call.sptk.many	b0,builtin_error; }
	{ adds	r1,0x0,r45; nop.m	0x0; nop.i	0x0; }

l400000000011DAE0:
	{ ld8	r14,[r36]; nop.m	0x0; addl	r47,-3436,r1 }
	{ addl	r48,5,r0; nop.m	0x0; adds	r46,0x0,r0; }
	{ cmp.eq	p06,p07,0x0,r14; nop.i	0x0; (p06) br.cond.dpnt.few	400000000011DB50; }

l400000000011DB10:
	{ ld8	r47,[r47]; nop.i	0x0; br.call.sptk.many	b0,400000000001AB60; }
	{ nop.m	0x0; adds	r1,0x0,r45; adds	r46,0x0,r8 }
	{ nop.m	0x0; nop.m	0x0; br.call.sptk.many	b0,builtin_error; }
	{ adds	r1,0x0,r45; nop.m	0x0; nop.i	0x0 }

l400000000011DB50:
	{ nop.m	0x0; nop.i	0x0; br.call.sptk.many	b0,compspec_create; }
	{ ld8	r16,[r34]; adds	r14,0x8,r8; adds	r15,0x10,r8 }
	{ adds	r33,0x0,r8; ld8	r46,[r42]; adds	r1,0x0,r45; }
	{ st8	[r16],r14; adds	r16,0x10,r12; cmp.eq	p06,p07,0x0,r46; }
	{ ld8	r14,[r16]; st8	[r14],r15; addl	r14,1,r0; }
	{ st4	[r14],r8; (p06) adds	r8,0x0,r0; (p06) br.cond.dpnt.few	400000000011DC00; }

l400000000011DBAC:
	{ Invalid; break.i	0x1000; break.i	0x1000 }
	{ (p24) nop; cmp.lt	p32,p16,r11,r64; (p21) epc }
	{ (p08) nop; cmp.lt	p32,p16,r11,r64; (p05) cmp.lt	p00,p16,r2,r64 }
	{ (p30) cmp.eq	p01,p19,r68,r72; Invalid; Invalid; }
	{ nop; zxt1	r32,r64; break.i	0x1000 }
	{ cmp.lt	p00,p09,r1,r0; Invalid; cmp.lt	p00,p00,r32,r0 }
	{ (p12) cmp.lt	p33,p09,r0,r66; czx1.r	r64,r65; Invalid; }
	{ Invalid; zxt1	r0,r64; mov	pr,r32,0x0 }
	{ Invalid; break.i	0x1000; break.i	0x1000 }
	{ (p20) nop; cmp.lt	p32,p16,r11,r64; (p21) epc }
	{ (p04) nop; cmp.lt	p32,p16,r11,r64; (p05) cmp.lt	p00,p16,r2,r64 }
	{ (p26) cmp.eq	p01,p19,r68,r72; Invalid; Invalid; }
	{ nop; zxt1	r32,r64; break.i	0x1000 }
	{ cmp.lt	p00,p09,r1,r0; Invalid; cmp.lt	p00,p00,r32,r0 }
	{ (p16) cmp.lt	p33,p09,r0,r66; czx1.r	r64,r65; Invalid; }
	{ Invalid; zxt1	r0,r64; mov	pr,r32,0x0 }
	{ Invalid; break.i	0x1000; break.i	0x1000 }
	{ (p16) nop; cmp.lt	p32,p16,r11,r64; (p21) epc }
	{ nop; cmp.lt	p32,p16,r11,r64; (p05) cmp.lt	p00,p16,r2,r64 }
	{ (p22) cmp.eq	p01,p19,r68,r72; Invalid; Invalid; }
	{ nop; zxt1	r32,r64; break.i	0x1000 }
	{ cmp.lt	p00,p09,r1,r0; Invalid; cmp.lt	p00,p00,r32,r0 }
	{ (p20) cmp.lt	p33,p09,r0,r66; czx1.r	r64,r65; Invalid; }
	{ Invalid; zxt1	r0,r64; mov	pr,r32,0x0 }
	{ Invalid; break.i	0x1000; break.i	0x1000 }
	{ (p12) nop; cmp.lt	p32,p16,r11,r64; (p21) epc }
	{ (p60) nop; cmp.lt	p32,p16,r11,r64; (p05) cmp.lt	p00,p16,r2,r64 }
	{ (p18) cmp.eq	p01,p19,r68,r72; Invalid; Invalid; }
	{ nop; zxt1	r32,r64; break.i	0x1000 }
	{ cmp.lt	p00,p09,r1,r0; Invalid; cmp.lt	p00,p00,r32,r0 }
	{ (p24) cmp.lt	p33,p09,r0,r66; czx1.r	r64,r65; Invalid; }
	{ Invalid; zxt1	r0,r64; mov	pr,r32,0x0 }
	{ Invalid; break.i	0x1000; break.i	0x1000 }
	{ (p08) nop; cmp.lt	p32,p16,r11,r64; (p21) epc }
	{ (p56) nop; cmp.lt	p32,p16,r11,r64; (p05) cmp.lt	p00,p16,r2,r64 }
	{ (p10) cmp.eq	p01,p19,r68,r72; Invalid; Invalid; }
	{ nop; zxt1	r32,r64; break.i	0x1000 }
	{ cmp.lt	p00,p09,r1,r0; Invalid; cmp.lt	p00,p00,r32,r0 }
	{ (p28) cmp.lt	p33,p09,r0,r66; czx1.r	r64,r65; Invalid; }
	{ Invalid; zxt1	r0,r64; mov	pr,r32,0x0 }
	{ Invalid; break.i	0x1000; break.i	0x1000 }
	{ (p04) nop; cmp.lt	p32,p16,r11,r64; (p21) epc }
	{ (p52) nop; cmp.lt	p32,p16,r11,r64; (p05) cmp.lt	p00,p16,r2,r64 }
	{ (p06) cmp.eq	p01,p19,r68,r72; Invalid; Invalid; }
	{ nop; zxt1	r32,r64; break.i	0x1000 }
	{ cmp.lt	p00,p09,r1,r0; Invalid; cmp.lt	p00,p00,r32,r0 }
	{ (p32) cmp.lt	p33,p09,r0,r66; czx1.r	r64,r65; Invalid; }
	{ Invalid; zxt1	r0,r64; mov	pr,r32,0x0 }
	{ Invalid; break.i	0x1000; break.i	0x1000 }
	{ nop; cmp.lt	p32,p16,r11,r64; (p21) epc }
	{ (p48) nop; cmp.lt	p32,p16,r11,r64; (p05) cmp.lt	p00,p16,r2,r64 }
	{ (p14) cmp.eq	p01,p19,r68,r72; Invalid; Invalid; }
	{ nop; zxt1	r32,r64; break.i	0x1000 }
	{ cmp.lt	p00,p08,r1,r0; (p01) cmp.eq	p52,p16,r8,r64; (p05) cmp.lt	p39,p19,r63,r121 }
	{ nop; (p06) nop; }
	{ Invalid; Invalid; Invalid }
	{ Invalid; Invalid; Invalid }
	{ (p28) cmp.lt	p15,p08,r63,r44; (p01) nop; epc }
	{ cmpxchg8.acq	r0,[r0],r1; (p04) cmp.lt	p00,p16,r2,r64; mov	pr,r98,0xE400 }
	{ (p07) nop; cmp.lt	p00,p00,r32,r0; Invalid }
	{ invala; nop; Invalid }
	{ (p06) nop; cmp.lt	p00,p00,r32,r0; Invalid }
	{ cmp.lt	p00,p17,r1,r0; cmp.lt.unc	p00,p28,r99,r65; (p01) mov	pr,r8,0x8486 }
	{ (p01) nop; cmp.lt	p00,p00,r32,r0; (p01) rfi }
	{ invala; cmp.lt	p00,p00,r32,r0; mov	pr,r99,0xE680 }
	{ (p11) nop; cmp.lt	p00,p00,r32,r0; (p05) nop }
	{ Invalid; Invalid; Invalid }
	{ (p55) nop; invala; break.b	0x1000 }
	{ Invalid; cmp.lt	p00,p00,r32,r0; zxt1	r32,r64 }
	{ (p38) nop; invala; break.b	0x1000 }
	{ Invalid; zxt1	r96,r64; break.i	0x2A80B }

l400000000011E010:
	{ adds	r8,0x0,r35; mov.i	ar.pfs,r44; mov.spnt	b0,r43,400000000011E010 }
	{ nop.m	0x0; adds	r12,0x10,r12; br.ret	b0; }
400000000011E030 0B 78 40 18 00 21 E0 00 3C 30 20 00 00 00 04 00 .x@..!..<0 .....
400000000011E040 10 00 00 00 01 00 80 50 38 12 A8 04 B0 01 00 43 .......P8......C
400000000011E050 11 70 30 44 00 21 00 00 00 02 00 03 30 00 00 43 .p0D.!......0..C
400000000011E060 09 00 00 00 01 00 E0 00 38 20 20 00 00 00 04 00 ........8  .....
400000000011E070 10 00 00 00 01 00 90 00 38 10 73 04 10 FF FF 49 ........8.s....I
400000000011E080 0B 80 40 18 00 21 E0 00 40 30 20 00 00 00 04 00 ..@..!..@0 .....
400000000011E090 00 00 00 00 01 00 80 10 38 12 28 00 00 00 04 00 ........8.(.....
400000000011E0A0 17 00 00 00 00 48 02 58 00 80 A1 03 E0 FE FF 4A .....H.X.......J
400000000011E0B0 C8 18 05 00 00 24 00 00 00 02 00 00 00 00 04 00 .....$..........
400000000011E0C0 11 70 01 42 00 21 00 00 00 02 00 00 08 9C FC 58 .p.B.!.........X
400000000011E0D0 10 00 00 00 01 00 10 00 B4 00 42 00 40 FF FF 48 ..........B.@..H

l400000000011E0E0:
	{ nop.m	0x0; adds	r35,0x0,r0; nop.i	0x0; }
	{ adds	r8,0x0,r35; mov.i	ar.pfs,r44; mov.spnt	b0,r43,400000000011E0F0 }
	{ nop.m	0x0; adds	r12,0x10,r12; br.ret	b0; }
400000000011E110 08 70 01 44 00 21 00 00 00 02 00 E0 05 00 00 84 .p.D.!..........
400000000011E120 19 18 01 00 00 21 00 00 00 02 00 00 E8 1A 01 50 .....!.........P
400000000011E130 11 08 00 5A 00 21 E0 02 88 00 42 00 98 0D 01 50 ...Z.!....B....P
400000000011E140 11 00 00 00 01 00 10 00 B4 00 42 00 B0 FE FF 48 ..........B....H
400000000011E150 09 78 F1 FA AD 27 00 00 00 02 00 C0 05 18 01 84 .x...'..........
400000000011E160 11 78 01 5E 18 10 00 00 00 02 00 00 08 C7 EF 58 .x.^...........X
400000000011E170 08 08 00 5A 00 21 00 00 00 02 00 60 04 40 00 84 ...Z.!.....`.@..
400000000011E180 19 70 01 10 00 21 00 00 00 02 00 00 08 67 FC 58 .p...!.......g.X
400000000011E190 08 08 00 5A 00 21 00 00 00 02 00 40 04 40 00 84 ...Z.!.....@.@..
400000000011E1A0 19 70 01 46 00 21 00 00 00 02 00 00 E8 21 01 50 .p.F.!.......!.P
400000000011E1B0 08 00 00 00 01 00 60 00 88 0E 72 20 00 68 01 84 ......`...r .h..
400000000011E1C0 19 00 00 00 01 00 00 00 00 02 80 03 C0 FD FF 4A ...............J
400000000011E1D0 C8 18 05 00 00 24 00 00 00 02 00 00 00 00 04 00 .....$..........
400000000011E1E0 11 00 00 00 01 00 00 00 00 02 00 00 E0 FE FF 48 ...............H
400000000011E1F0 08 78 01 00 00 21 00 03 00 00 42 20 06 00 00 84 .x...!....B ....
400000000011E200 19 90 01 00 00 21 E0 02 8C 00 42 00 08 8D FB 58 .....!....B....X
400000000011E210 08 08 00 5A 00 21 00 00 00 02 00 80 04 40 00 84 ...Z.!.......@..
400000000011E220 19 70 01 10 00 21 00 00 00 02 00 00 68 66 FC 58 .p...!......hf.X
400000000011E230 08 08 00 5A 00 21 00 00 00 02 00 40 04 40 00 84 ...Z.!.....@.@..
400000000011E240 19 70 01 48 00 21 00 00 00 02 00 00 48 21 01 50 .p.H.!......H!.P
400000000011E250 11 08 00 5A 00 21 60 00 88 0E 72 00 00 FE FF 48 ...Z.!`...r....H

l400000000011E260:
	{ nop.m	0x0; addl	r35,-3452,r1; nop.i	0x0; }
	{ ld8	r35,[r35]; nop.i	0x0; br.cond.sptk.few	400000000011DA70; }

;; compopt_builtin: 400000000011E280
compopt_builtin proc
	{ alloc	r43,ar.pfs,0x10,0x0,0xD; adds	r12,0xFFFFFFFFFFFFFFF0,r12; addl	r34,9276,r1 }
	{ addl	r39,9252,r1; addl	r40,-3380,r1; adds	r44,0x0,r1; }
	{ adds	r33,0x10,r12; nop.m	0x0; mov	r42,b2 }
	{ adds	r38,0x0,r0; nop.m	0x0; adds	r37,0x0,r0; }
	{ st4	[r33],r4,4; ld8	r40,[r40]; nop.i	0x0; }
	{ st4	[r0],r33; br.call.sptk.many	b0,reset_internal_getopt; nop.b	0x0; }
	{ adds	r1,0x0,r44; nop.m	0x0; nop.i	0x0; }
	{ addl	r46,-3420,r1; nop.m	0x0; adds	r45,0x0,r32; }
	{ ld8	r46,[r46]; nop.i	0x0; br.call.sptk.many	b0,internal_getopt; }
	{ adds	r1,0x0,r44; cmp4.eq	p07,p06,0xFFFFFFFFFFFFFFFF,r8; (p07) br.cond.dpnt.few	400000000011E3F0 }

l400000000011E320:
	{ ld4	r14,[r34]; cmp4.eq	p07,p06,0x2D,r14; nop.i	0x0; }
	{ (p06) adds	r14,0x10,r12; (p07) ld4	r36,[r33]; (p07) adds	r35,0x0,r33; }

l400000000011E336:
	{ (p18) addp4	r0,0xFFFFFFFFFFFFF021,r16; (p17) addl	r0,8481,r0; (p01) nop; }

l400000000011E33C:
	{ nop; movl	r0,0x10101C01006020 }
	{ cmp.lt	p14,p25,r0,r66; break.x	0x1CC3888A001000 }
	{ (p20) cmp.lt	p00,p17,r64,r33; czx1.r	r27,r97; break.b	0x1000 }
	{ (p16) cmp.lt	p00,p17,r64,r33; czx1.r	r17,r97; break.b	0x1000 }
	{ Invalid; deposit	r0,r32,r0,63,0; (p36) nop }
	{ (p34) nop; invala; break.i	0x1000 }
	{ Invalid; zxt1	r64,r64; (p48) break.i	0x2A80A }
	{ (p21) nop; add	r0,r32,r0; (p01) shladd	r4,r3,0x1,r64 }
	{ cmp.lt	p00,p09,r33,r0; (p05) nop; (p05) nop }
	{ Invalid; Invalid; Invalid }
	{ (p07) nop; cmp.eq	p00,p16,r11,r64; (p48) nop }
	{ (p58) cmp.lt.unc	p63,p09,r63,r37; zxt4	r45,r18; cmp.lt	p00,p00,r32,r0 }

l400000000011E3F0:
	{ addl	r14,9268,r1; nop.m	0x0; cmp4.eq	p06,p07,0x0,r37; }
	{ nop.m	0x0; nop.m	0x0; nop.i	0x0; }
	{ ld8	r34,[r14]; nop.i	0x0; (p07) br.cond.dpnt.few	400000000011E6D0; }

l400000000011E420:
	{ cmp4.eq	p06,p07,0x0,r38; nop.i	0x0; (p07) br.cond.dpnt.few	400000000011E9A0; }

l400000000011E430:
	{ nop.m	0x0; cmp.eq	p06,p07,0x0,r34; (p07) br.cond.dptk.few	400000000011E8D0 }

l400000000011E440:
	{ addl	r14,-10404,r1; ld8	r14,[r14]; nop.i	0x0; }
	{ ld4	r14,[r14]; nop.m	0x0; tbit.z	p06,p07,r14,0xE }
	{ addl	r14,9220,r1; nop.m	0x0; (p06) br.cond.dpnt.few	400000000011E5F0; }

l400000000011E470:
	{ nop.m	0x0; ld8	r35,[r14]; adds	r14,0x10,r12; }
	{ cmp.eq	p07,p06,0x0,r35; nop.i	0x0; (p07) br.cond.dpnt.few	400000000011E5F0; }

l400000000011E490:
	{ ld4	r33,[r33]; ld4	r36,[r14]; nop.i	0x0; }
	{ cmp4.eq	p07,p06,0x0,r33; nop.i	0x0; (p06) br.cond.dpnt.few	400000000011E4C0; }

l400000000011E4B0:
	{ nop.m	0x0; cmp4.eq	p07,p06,0x0,r36; (p07) br.cond.dpnt.few	400000000011E660 }

l400000000011E4C0:
	{ adds	r45,0x0,r35; adds	r46,0x0,r33; nop.i	0x0 }
	{ addl	r47,1,r0; adds	r34,0x0,r0; br.call.sptk.many	b0,pcomp_set_compspec_options; }
	{ adds	r47,0x0,r0; adds	r1,0x0,r44; nop.i	0x0 }
	{ adds	r45,0x0,r35; adds	r46,0x0,r36; br.call.sptk.many	b0,pcomp_set_compspec_options; }
	{ adds	r1,0x0,r44; nop.m	0x0; adds	r45,0x0,r33 }
	{ addl	r46,1,r0; nop.m	0x0; br.call.sptk.many	b0,pcomp_set_readline_variables; }
	{ adds	r1,0x0,r44; nop.m	0x0; adds	r45,0x0,r36 }
	{ adds	r46,0x0,r0; nop.m	0x0; br.call.sptk.many	b0,pcomp_set_readline_variables; }
	{ adds	r8,0x0,r34; adds	r1,0x0,r44; mov.i	ar.pfs,r43; }
	{ nop.m	0x0; mov.spnt	b0,r42,400000000011E550; nop.i	0x0 }
	{ adds	r12,0x10,r12; nop.m	0x0; br.ret	b0 }
400000000011E570 09 00 00 00 01 00 90 02 9C 30 20 00 00 00 04 00 .........0 .....
400000000011E580 11 68 01 52 00 21 00 00 00 02 00 00 88 C9 FF 58 .h.R.!.........X
400000000011E590 08 38 20 00 86 30 00 00 00 02 00 00 01 40 58 00 .8 ..0.......@X.
400000000011E5A0 19 08 00 58 00 21 00 00 00 02 80 03 C0 03 00 43 ...X.!.........C
400000000011E5B0 0B 40 20 50 13 20 80 40 20 00 42 00 00 00 04 00 .@ P. .@ .B.....
400000000011E5C0 0B 70 00 10 10 10 40 72 90 1C 40 00 00 00 04 00 .p....@r..@.....
400000000011E5D0 10 00 90 46 90 11 00 00 00 02 00 00 20 FD FF 48 ...F........ ..H
400000000011E5E0 10 00 00 00 01 00 60 0A 00 00 48 00 10 FD FF 48 ......`...H....H

l400000000011E5F0:
	{ addl	r46,-3412,r1; nop.m	0x0; addl	r47,5,r0 }
	{ adds	r45,0x0,r0; nop.m	0x0; addl	r34,1,r0; }
	{ ld8	r46,[r46]; nop.i	0x0; br.call.sptk.many	b0,400000000001AB60; }
	{ adds	r1,0x0,r44; adds	r45,0x0,r8; br.call.sptk.many	b0,builtin_error; }
	{ adds	r8,0x0,r34; adds	r1,0x0,r44; mov.i	ar.pfs,r43; }
	{ nop.m	0x0; mov.spnt	b0,r42,400000000011E640; nop.i	0x0 }
	{ adds	r12,0x10,r12; nop.m	0x0; br.ret	b0 }

l400000000011E660:
	{ addl	r14,9212,r1; nop.m	0x0; adds	r46,0x0,r35; }
	{ nop.m	0x0; nop.m	0x0; nop.i	0x0; }
	{ ld8	r45,[r14]; nop.i	0x0; br.call.sptk.many	b0,400000000011CBC0; }
	{ adds	r1,0x0,r44; adds	r45,0x0,r0; br.call.sptk.many	b0,sh_chkwrite; }
	{ adds	r34,0x0,r8; nop.m	0x0; adds	r1,0x0,r44; }
	{ adds	r8,0x0,r34; mov.i	ar.pfs,r43; mov.spnt	b0,r42,400000000011E6B0 }
	{ nop.m	0x0; adds	r12,0x10,r12; br.ret	b0 }

l400000000011E6D0:
	{ nop.m	0x0; addl	r45,-3484,r1; nop.i	0x0; }
	{ ld8	r45,[r45]; nop.m	0x0; nop.i	0x0 }

l400000000011E6F0:
	{ nop.m	0x0; nop.i	0x0; br.call.sptk.many	b0,make_bare_word; }
	{ adds	r1,0x0,r44; nop.m	0x0; adds	r45,0x0,r8 }
	{ adds	r46,0x0,r0; nop.m	0x0; br.call.sptk.many	b0,make_word_list; }
	{ cmp.eq	p08,p09,0x0,r34; cmp.eq	p06,p07,0x0,r8; adds	r1,0x0,r44; }
	{ (p08) addl	r14,1,r0; nop.m	0x0; (p06) addl	r15,1,r0; }

l400000000011E736:
	{ adds	r0,0xFFFFFFFFFFFFE000,r1; (p07) deposit	r1,r0,r0,35,8; (p34) cmp.eq.or.andcm	p03,p00,r0,r0 }
	{ Invalid; (p07) nop; break.b	0x80000; }
	{ (p04) chk.s	f14,4000000000DE2F56; nop; cmp.lt	p00,p00,r0,r32 }
	{ (p17) chk.a.clr	r0,3FFFFFFFFF19E7E6; nop; (p32) nop.b	0x8; }
	{ break.m	0x4000; nop; (p32) nop }

l400000000011E780:
	{ adds	r38,0x8,r35; ld8	r14,[r38]; nop.i	0x0; }
	{ ld8	r45,[r14]; nop.i	0x0; br.call.sptk.many	b0,progcomp_search; }
	{ adds	r1,0x0,r44; cmp.eq	p07,p06,0x0,r8; adds	r36,0x0,r8 }
	{ addl	r47,1,r0; adds	r45,0x0,r8; (p07) br.cond.dpnt.few	400000000011E8E0; }

l400000000011E7C0:
	{ nop.m	0x0; ld4	r14,[r33]; nop.i	0x0; }
	{ cmp4.eq	p07,p06,0x0,r14; adds	r46,0x0,r14; adds	r14,0x10,r12; }
	{ ld4	r37,[r14]; nop.i	0x0; (p06) br.cond.dpnt.few	400000000011E800; }

l400000000011E7F0:
	{ nop.m	0x0; cmp4.eq	p07,p06,0x0,r37; (p07) br.cond.dpnt.few	400000000011E870 }

l400000000011E800:
	{ nop.m	0x0; nop.i	0x0; br.call.sptk.many	b0,pcomp_set_compspec_options; }
	{ adds	r1,0x0,r44; adds	r45,0x0,r36; nop.i	0x0 }
	{ adds	r46,0x0,r37; adds	r47,0x0,r0; br.call.sptk.many	b0,pcomp_set_compspec_options; }
	{ ld8	r35,[r35]; nop.m	0x0; adds	r1,0x0,r44; }
	{ nop.m	0x0; cmp.eq	p07,p06,0x0,r35; (p06) br.cond.dptk.few	400000000011E780 }

l400000000011E850:
	{ adds	r8,0x0,r34; mov.i	ar.pfs,r43; mov.spnt	b0,r42,400000000011E850 }
	{ nop.m	0x0; adds	r12,0x10,r12; br.ret	b0 }

l400000000011E870:
	{ ld8	r14,[r38]; nop.m	0x0; adds	r46,0x0,r8; }
	{ ld8	r45,[r14]; nop.i	0x0; br.call.sptk.many	b0,400000000011CBC0; }
	{ ld8	r35,[r35]; nop.m	0x0; adds	r1,0x0,r44; }
	{ nop.m	0x0; cmp.eq	p07,p06,0x0,r35; (p06) br.cond.dptk.few	400000000011E780 }

l400000000011E8B0:
	{ nop.m	0x0; nop.i	0x0; br.cond.sptk.few	400000000011E850; }
400000000011E8C0 10 00 00 00 01 00 70 00 88 0C F2 03 E0 FA FF 4A ......p........J

l400000000011E8D0:
	{ adds	r35,0x0,r34; adds	r34,0x0,r0; br.cond.sptk.few	400000000011E780; }

l400000000011E8E0:
	{ addl	r46,-3476,r1; nop.m	0x0; adds	r45,0x0,r0 }
	{ addl	r47,5,r0; nop.m	0x0; addl	r34,1,r0; }
	{ ld8	r46,[r46]; nop.i	0x0; br.call.sptk.many	b0,400000000001AB60; }
	{ ld8	r14,[r38]; adds	r1,0x0,r44; adds	r45,0x0,r8; }
	{ ld8	r46,[r14]; nop.i	0x0; br.call.sptk.many	b0,builtin_error; }
	{ ld8	r35,[r35]; nop.m	0x0; adds	r1,0x0,r44; }
	{ nop.m	0x0; cmp.eq	p07,p06,0x0,r35; (p06) br.cond.dptk.few	400000000011E780 }

l400000000011E950:
	{ nop.m	0x0; nop.i	0x0; br.cond.sptk.few	400000000011E850 }
400000000011E960 11 68 01 52 00 21 20 12 00 04 48 00 28 F4 FC 58 .h.R.! ...H.(..X
400000000011E970 09 40 00 44 00 21 10 00 B0 00 42 00 B0 02 AA 00 .@.D.!....B.....
400000000011E980 00 00 00 00 01 00 00 50 05 80 03 00 00 00 04 00 .......P........
400000000011E990 18 60 40 18 00 21 00 00 00 02 00 80 08 00 84 00 .`@..!..........

l400000000011E9A0:
	{ nop.m	0x0; addl	r45,-3492,r1; nop.i	0x0; }
	{ ld8	r45,[r45]; nop.i	0x0; br.cond.sptk.few	400000000011E6F0; }
400000000011E9C0 08 00 00 00 01 00 10 21 F6 9F 4F 40 02 00 00 84 .......!..O@....
400000000011E9D0 0A 70 00 40 00 10 10 01 44 30 20 00 00 00 04 00 .p.@....D0 .....
400000000011E9E0 08 38 00 1C 86 39 00 00 00 02 00 C0 F1 75 FC 8C .8...9.......u..
400000000011E9F0 19 78 04 40 00 21 00 00 00 02 80 03 00 01 00 43 .x.@.!.........C
400000000011EA00 01 00 00 00 01 00 E0 00 38 20 00 00 00 00 04 00 ........8 ......
400000000011EA10 10 00 00 00 01 00 60 E0 39 0E EB 03 20 00 00 42 ......`.9... ..B
400000000011EA20 11 70 00 1E 00 10 00 02 3C 00 42 00 C0 FF FF 48 .p......<.B....H
400000000011EA30 0B 70 38 22 12 20 00 01 38 30 20 00 00 00 04 00 .p8". ..80 .....
400000000011EA40 09 00 00 00 01 00 E0 70 40 00 40 00 00 00 04 00 .......p@.@.....
400000000011EA50 11 00 00 00 01 00 60 70 04 80 03 00 60 00 80 00 ......`p....`...
400000000011EA60 10 00 00 00 01 00 70 00 48 0C F3 03 C0 FF FF 4A ......p.H......J
400000000011EA70 10 00 00 00 01 00 80 08 00 00 48 80 08 00 84 00 ..........H.....
400000000011EA80 09 70 00 1E 00 10 00 00 00 02 00 00 04 78 00 84 .p...........x..
400000000011EA90 12 30 A0 1C 87 B9 01 F0 FF FF 25 00 50 FF FF 48 .0........%.P..H
400000000011EAA0 09 70 00 1E 00 10 00 00 00 02 00 00 24 00 01 84 .p..........$...
400000000011EAB0 11 30 00 1C 07 39 00 00 00 02 00 03 40 00 00 43 .0...9......@..C
400000000011EAC0 11 70 00 40 00 10 00 00 00 02 00 00 20 FF FF 48 .p.@........ ..H
400000000011EAD0 08 00 00 00 01 00 E0 00 3C 00 20 40 12 90 00 84 ........<. @....
400000000011EAE0 18 00 00 00 01 00 00 02 3C 00 42 00 00 FF FF 48 ........<.B....H
400000000011EAF0 11 00 00 00 01 00 80 00 00 00 42 80 08 00 84 00 ..........B.....
400000000011EB00 08 30 00 40 07 39 00 00 00 02 00 C0 01 00 00 84 .0.@.9..........
400000000011EB10 19 80 00 40 00 21 00 00 00 02 00 83 08 00 84 03 ...@.!..........
400000000011EB20 0B 78 00 40 00 10 00 00 00 02 00 E0 01 78 50 00 .x.@.........xP.
400000000011EB30 11 00 00 00 01 00 60 00 3C 0E 73 03 B0 00 00 43 ......`.<.s....C
400000000011EB40 0B 38 70 1F 86 F9 E1 08 38 00 42 00 00 00 04 00 .8p.....8.B.....
400000000011EB50 01 00 00 00 01 00 10 01 38 2C 00 C0 11 70 00 84 ........8,...p..
400000000011EB60 02 88 80 22 00 20 F0 00 38 2C 00 E0 01 7A 00 80 ...". ..8,...z..
400000000011EB70 0B 88 00 22 00 10 10 88 40 00 2B 20 F2 7F FC 8C ..."....@.+ ....
400000000011EB80 03 88 00 22 00 10 20 81 80 0A 40 20 02 88 50 00 ...".. ...@ ..P.
400000000011EB90 11 38 00 22 86 39 00 00 00 02 80 03 30 00 00 43 .8.".9......0..C
400000000011EBA0 0B 78 00 1E 00 10 00 00 00 02 00 E0 01 78 50 00 .x...........xP.
400000000011EBB0 10 00 00 00 01 00 70 00 3C 0C 73 03 90 FF FF 4A ......p.<.s....J
400000000011EBC0 03 00 00 00 01 00 20 01 48 2C 00 00 04 92 00 80 ...... .H,......
400000000011EBD0 10 00 00 40 80 11 00 00 00 02 00 80 08 00 84 00 ...@............
400000000011EBE0 0B 90 00 00 00 21 00 02 49 00 40 00 00 00 04 00 .....!..I.@.....
400000000011EBF0 11 00 00 40 80 11 00 00 00 02 00 80 08 00 84 00 ...@............
400000000011EC00 08 10 1D 08 80 05 C0 80 33 7C 46 20 04 00 C4 00 ........3|F ....
400000000011EC10 09 18 01 02 00 21 00 00 00 02 00 A0 04 00 01 84 .....!..........
400000000011EC20 11 20 05 00 00 24 60 82 30 00 42 00 C8 C3 EF 58 . ...$`.0.B....X
400000000011EC30 08 78 A0 18 00 21 10 00 8C 00 42 00 00 00 04 00 .x...!....B.....
400000000011EC40 19 38 20 00 86 30 E0 00 00 00 C2 03 60 00 00 43 .8 ..0......`..C
400000000011EC50 09 80 00 1E 10 10 F0 00 00 C0 4B 00 01 70 00 84 ..........K..p..
400000000011EC60 09 80 3C 20 0C 20 00 00 00 02 00 E0 01 00 00 92 ..< . ..........
400000000011EC70 11 38 3C 20 86 38 00 00 00 02 00 03 30 00 00 43 .8< .8......0..C
400000000011EC80 02 00 00 00 01 00 00 10 01 55 00 00 10 0A 00 07 .........U......
400000000011EC90 18 00 00 00 01 00 C0 80 30 02 42 80 08 00 84 00 ........0.B.....
400000000011ECA0 09 00 00 00 01 00 E0 F8 F3 FF 4F 00 00 00 04 00 ..........O.....
400000000011ECB0 02 40 00 1C 00 21 00 10 01 55 00 00 10 0A 00 07 .@...!...U......
400000000011ECC0 19 00 00 00 01 00 C0 80 30 02 42 80 08 00 84 00 ........0.B.....
400000000011ECD0 08 00 00 00 01 00 00 00 00 02 00 00 00 00 04 00 ................
400000000011ECE0 08 00 00 00 01 00 00 00 00 02 00 00 00 00 04 00 ................
400000000011ECF0 08 00 00 00 01 00 00 00 00 02 00 00 00 00 04 00 ................
400000000011ED00 08 80 59 26 80 05 C0 80 33 7C 46 40 06 00 CC 00 ..Y&....3|F@....
400000000011ED10 09 88 01 02 00 21 00 00 00 02 00 60 06 00 01 84 .....!.....`....
400000000011ED20 11 00 00 00 01 00 F0 02 00 62 00 00 A8 C9 EF 58 .........b.....X
400000000011ED30 00 08 00 62 00 21 70 00 88 0C 28 C0 01 00 00 84 ...b.!p...(.....
400000000011ED40 18 80 FC 11 3F 23 90 00 20 10 73 04 10 01 00 42 ....?#.. .s....B
400000000011ED50 08 20 01 42 00 21 30 02 00 00 42 A0 84 62 00 84 . .B.!0...B..b..
400000000011ED60 19 30 01 00 E0 25 70 02 00 00 C9 03 C0 00 00 43 .0...%p........C
400000000011ED70 08 00 00 00 01 00 B0 FA 03 7E 47 80 F5 02 00 90 .........~G.....
400000000011ED80 09 00 00 00 01 00 40 03 84 30 20 00 00 00 04 00 ......@..0 .....
400000000011ED90 11 00 00 00 01 00 60 00 D0 0E 72 03 90 00 00 43 ......`...r....C
400000000011EDA0 08 A8 41 18 00 21 00 00 00 02 00 60 16 00 00 90 ..A..!.....`....
400000000011EDB0 19 18 05 46 00 21 00 00 00 02 00 00 38 C2 EF 58 ...F.!......8..X
400000000011EDC0 10 08 00 62 00 21 70 00 20 0C 73 03 30 00 00 42 ...b.!p. .s.0..B
400000000011EDD0 0B 70 00 4A 10 10 E0 30 39 18 40 00 00 00 04 00 .p.J...09.@.....
400000000011EDE0 10 00 00 00 01 00 70 38 39 0C F1 03 00 04 00 43 ......p89......C
400000000011EDF0 0B 20 8D 00 08 20 40 22 85 24 40 00 00 00 04 00 . ... @".$@.....
400000000011EE00 09 00 00 00 01 00 40 03 90 30 20 00 00 00 04 00 ......@..0 .....
400000000011EE10 11 00 00 00 01 00 70 00 D0 0C 72 03 90 FF FF 4A ......p...r....J
400000000011EE20 03 40 00 42 00 21 F0 97 C1 BF 05 00 00 03 AA 00 .@.B.!..........
400000000011EE30 00 00 00 00 01 00 00 78 05 80 03 00 00 00 04 00 .......x........
400000000011EE40 18 60 40 18 01 21 00 00 00 02 00 80 08 00 84 00 .`@..!..........
400000000011EE50 09 80 40 00 08 20 30 02 84 30 20 00 00 00 04 00 ..@.. 0..0 .....
400000000011EE60 11 80 80 20 00 20 60 00 8C 0E 72 03 70 04 00 43 ... . `...r.p..C
400000000011EE70 09 00 00 00 01 00 90 02 40 00 20 00 00 00 04 00 ........@. .....
400000000011EE80 03 00 00 00 01 00 90 02 A4 28 00 20 F1 4A 21 E6 .........(. .J!.
400000000011EE90 03 49 05 00 00 24 00 00 00 02 80 24 05 00 00 84 .I...$.....$....
400000000011EEA0 0B 70 04 1C 00 21 F0 70 00 10 40 00 00 00 04 00 .p...!.p..@.....
400000000011EEB0 0B 78 3C 42 12 20 F0 00 3C 30 20 00 00 00 04 00 .x<B. ..<0 .....
400000000011EEC0 10 00 00 00 01 00 70 00 3C 0C 72 03 E0 FF FF 4A ......p.<.r....J
400000000011EED0 08 70 04 1C 00 21 A0 42 00 10 40 00 02 48 45 E6 .p...!.B..@..HE.
400000000011EEE0 09 28 01 42 00 21 40 02 00 00 42 20 05 48 41 00 .(.B.!@...B .HA.
400000000011EEF0 18 98 39 00 08 20 90 4A A9 00 40 00 00 00 00 20 ..9.. .J..@.... 
400000000011EF00 09 58 BD 00 00 24 80 1A A8 00 42 60 02 10 49 50 .X...$....B`..IP
400000000011EF10 08 98 CD 00 12 20 C0 42 31 00 42 00 00 00 04 00 ..... .B1.B.....
400000000011EF20 19 68 01 00 E0 25 E0 02 00 00 49 00 28 C4 EF 58 .h...%....I.(..X
400000000011EF30 08 70 00 00 00 21 00 00 00 02 00 E0 04 40 00 84 .p...!.......@..
400000000011EF40 19 08 00 62 00 21 60 00 20 0E 72 03 60 03 00 43 ...b.!`. .r.`..C
400000000011EF50 08 00 00 00 01 00 00 00 00 02 00 00 00 00 04 00 ................
400000000011EF60 08 30 9D 1C 00 20 00 00 00 02 00 60 06 18 01 84 .0... .....`....
400000000011EF70 19 20 05 48 00 21 00 00 00 02 00 00 58 C7 EF 58 . .H.!......X..X
400000000011EF80 11 08 00 62 00 21 30 43 A0 00 40 00 C8 C3 EF 58 ...b.!0C..@....X
400000000011EF90 08 30 00 10 07 39 10 00 C4 00 42 60 04 40 00 84 .0...9....B`.@..
400000000011EFA0 19 00 20 4C 98 11 30 03 20 00 42 03 00 03 00 43 .. L..0. .B....C
400000000011EFB0 11 A0 01 40 00 21 00 00 00 02 00 00 D8 C1 EF 58 ...@.!.........X
400000000011EFC0 28 72 8C 54 00 20 10 00 C4 00 42 60 36 4A 01 80 (r.T. ....B`6J..
400000000011EFD0 0B A0 01 4A 58 50 04 58 39 00 23 00 00 00 04 00 ...JXP.X9.#.....
400000000011EFE0 11 A0 01 4A 18 11 00 00 00 02 00 00 A8 C1 EF 58 ...J...........X
400000000011EFF0 10 00 00 00 01 00 10 00 C4 00 42 09 10 01 00 43 ..........B....C
400000000011F000 0B 70 90 00 08 20 E0 70 00 24 40 00 00 00 04 00 .p... .p.$@.....
400000000011F010 0B 28 85 1C 00 20 30 02 94 30 20 00 00 00 04 00 .(... 0..0 .....
400000000011F020 10 00 00 00 01 00 70 00 8C 0C 72 03 40 FF FF 4A ......p...r.@..J
400000000011F030 08 00 00 00 01 00 E0 38 39 00 40 60 04 00 00 84 .......89.@`....
400000000011F040 0A 98 01 42 58 10 00 00 38 30 23 E0 00 98 19 E4 ...BX...80#.....
400000000011F050 18 00 00 00 01 00 30 83 01 80 02 00 00 00 00 20 ......0........ 
400000000011F060 11 00 00 00 01 00 00 00 00 02 80 03 60 00 00 43 ............`..C
400000000011F070 08 00 00 00 01 00 00 00 00 02 00 00 00 00 04 00 ................
400000000011F080 11 18 05 46 00 21 00 00 00 02 00 00 68 B7 EF 58 ...F.!......h..X
400000000011F090 03 70 8C 00 08 20 10 00 C4 00 42 C0 E1 08 49 80 .p... ....B...I.
400000000011F0A0 09 00 00 00 01 00 30 03 38 30 20 00 00 00 04 00 ......0.80 .....
400000000011F0B0 10 00 00 00 01 00 70 00 CC 0C 72 03 D0 FF FF 4A ......p...r....J
400000000011F0C0 11 98 01 42 00 21 10 02 9C 00 42 00 28 B7 EF 58 ...B.!....B.(..X
400000000011F0D0 09 40 00 42 00 21 10 00 C4 00 42 E0 2F 83 7F 0B .@.B.!....B./...
400000000011F0E0 02 00 00 00 01 00 00 80 01 55 00 00 F0 0A 00 07 .........U......
400000000011F0F0 19 00 00 00 01 00 C0 80 30 02 42 80 08 00 84 00 ........0.B.....
400000000011F100 08 98 05 00 00 24 40 03 98 30 20 A0 06 61 00 84 .....$@..0 ..a..
400000000011F110 19 00 00 00 01 00 00 00 00 02 00 00 D8 BE EF 58 ...............X
400000000011F120 10 08 00 62 00 21 70 00 20 0C 73 03 E0 FE FF 4A ...b.!p. .s....J
400000000011F130 0B 70 00 58 10 10 E0 68 39 18 40 00 00 00 04 00 .p.X...h9.@.....
400000000011F140 10 00 00 00 01 00 70 70 39 0C 71 03 C0 FE FF 4A ......pp9.q....J
400000000011F150 09 00 00 00 01 00 30 02 98 30 20 00 00 00 04 00 ......0..0 .....
400000000011F160 11 98 01 46 00 21 00 00 00 02 00 00 68 C5 EF 58 ...F.!......h..X
400000000011F170 09 70 00 4C 58 10 30 1A 21 00 40 20 00 88 01 84 .p.LX.0.!.@ ....
400000000011F180 09 00 00 00 01 00 00 58 8D 00 23 00 00 00 04 00 .......X..#.....
400000000011F190 0B 70 00 4C 18 11 80 70 20 02 40 C0 41 02 20 80 .p.L...p .@.A. .
400000000011F1A0 09 70 38 00 12 20 00 00 20 00 23 00 00 00 04 00 .p8.. .. .#.....
400000000011F1B0 0B 28 85 1C 00 20 30 02 94 30 20 00 00 00 04 00 .(... 0..0 .....
400000000011F1C0 10 00 00 00 01 00 70 00 8C 0C 72 03 A0 FD FF 4A ......p...r....J
400000000011F1D0 10 00 00 00 01 00 00 00 00 02 00 00 60 FE FF 48 ............`..H
400000000011F1E0 09 00 00 00 01 00 A0 02 90 30 20 00 00 00 04 00 .........0 .....
400000000011F1F0 11 98 01 54 00 21 00 00 00 02 00 00 D8 C4 EF 58 ...T.!.........X
400000000011F200 08 40 01 10 00 21 40 13 20 00 42 20 00 88 01 84 .@...!@. .B ....
400000000011F210 0A 98 01 54 00 21 90 0A A0 00 42 00 B5 42 31 80 ...T.!....B..B1.
400000000011F220 19 A0 D1 00 08 20 00 00 00 02 00 00 48 BB EF 58 ..... ......H..X
400000000011F230 08 48 A5 00 08 20 80 42 A0 00 40 00 00 00 04 00 .H... .B..@.....
400000000011F240 19 08 00 62 00 21 70 00 20 0C F2 03 60 00 00 43 ...b.!p. ...`..C
400000000011F250 09 48 21 52 00 20 00 60 A1 00 23 00 00 00 04 00 .H!R. .`..#.....
400000000011F260 09 00 00 52 80 11 00 40 90 30 23 80 34 02 20 80 ...R...@.0#.4. .
400000000011F270 0B 20 91 42 12 20 40 03 90 30 20 00 00 00 04 00 . .B. @..0 .....
400000000011F280 10 00 00 00 01 00 70 00 D0 0C 72 03 20 FB FF 4A ......p...r. ..J
400000000011F290 10 00 00 00 01 00 00 00 00 02 00 00 90 FB FF 48 ...............H
400000000011F2A0 0B 08 01 00 00 21 80 00 84 00 42 E0 2F 83 7F 0B .....!....B./...
400000000011F2B0 02 00 00 00 01 00 00 80 01 55 00 00 F0 0A 00 07 .........U......
400000000011F2C0 19 00 00 00 01 00 C0 80 30 02 42 80 08 00 84 00 ........0.B.....
400000000011F2D0 11 98 21 00 00 24 30 02 00 00 42 00 78 C0 EF 58 ..!..$0...B.x..X
400000000011F2E0 08 70 00 00 00 21 70 02 20 00 42 00 00 00 04 00 .p...!p. .B.....
400000000011F2F0 19 08 00 62 00 21 60 00 20 0E 72 03 B0 FF FF 4B ...b.!`. .r....K
400000000011F300 09 70 9C 1C 00 20 30 03 84 B0 20 00 00 00 04 00 .p... 0... .....
400000000011F310 08 00 00 00 01 00 00 00 38 30 23 E0 00 98 19 E4 ........80#.....
400000000011F320 18 00 00 00 01 00 30 2B 00 80 02 00 00 00 00 20 ......0+....... 
400000000011F330 D6 00 54 FF BF 12 00 00 00 00 10 00 00 00 00 20 ..T............ 
400000000011F340 10 00 00 00 01 00 00 00 00 02 00 00 80 FD FF 48 ...............H
400000000011F350 09 00 00 00 01 00 30 03 84 30 20 00 00 00 04 00 ......0..0 .....
400000000011F360 10 00 00 00 01 00 70 00 CC 0C 72 00 00 FD FF 48 ......p...r....H
400000000011F370 09 00 00 00 01 00 30 03 84 30 20 00 00 00 04 00 ......0..0 .....
400000000011F380 11 00 00 00 01 00 70 00 CC 0C 72 00 B0 FF FF 48 ......p...r....H
400000000011F390 08 00 00 00 01 00 00 00 00 02 00 00 00 00 04 00 ................
400000000011F3A0 08 00 00 00 01 00 00 00 00 02 00 00 00 00 04 00 ................
400000000011F3B0 08 00 00 00 01 00 00 00 00 02 00 00 00 00 04 00 ................
400000000011F3C0 0B 70 90 03 31 24 E0 00 38 20 20 00 00 00 04 00 .p..1$..8  .....
400000000011F3D0 10 00 00 00 01 00 70 00 38 0C 73 03 70 00 00 42 ......p.8.s.p..B
400000000011F3E0 0B 70 00 40 00 10 00 00 00 02 00 C0 01 70 50 00 .p.@.........pP.
400000000011F3F0 11 30 B8 1C 87 39 00 00 00 02 00 03 40 00 00 43 .0...9......@..C
400000000011F400 11 38 70 1D 86 39 00 00 00 02 80 03 A0 00 00 43 .8p..9.........C
400000000011F410 0B 70 00 42 00 10 00 00 00 02 00 C0 01 70 50 00 .p.B.........pP.
400000000011F420 10 00 00 00 01 00 70 70 39 0C F3 03 D0 00 00 43 ......pp9......C
400000000011F430 10 00 00 00 01 00 80 00 00 00 42 80 08 00 84 00 ..........B.....
400000000011F440 0B 70 00 42 00 10 00 00 00 02 00 C0 01 70 50 00 .p.B.........pP.
400000000011F450 10 00 00 00 01 00 70 70 39 0C 73 03 E0 FF FF 4A ......pp9.s....J
400000000011F460 0B 70 00 40 00 10 00 00 00 02 00 C0 01 70 50 00 .p.@.........pP.
400000000011F470 11 30 B8 1C 87 39 00 00 00 02 00 03 C0 FF FF 4B .0...9.........K
400000000011F480 10 00 00 00 01 00 70 E0 3A 0C F3 03 E0 00 00 43 ......p.:......C
400000000011F490 10 00 00 00 01 00 80 08 00 00 48 80 08 00 84 00 ..........H.....
400000000011F4A0 0B 00 05 40 00 21 E0 00 80 00 20 00 00 00 04 00 ...@.!.... .....
400000000011F4B0 01 00 00 00 01 00 E0 00 38 28 00 00 00 00 04 00 ........8(......
400000000011F4C0 11 30 B8 1C 87 39 00 00 00 02 00 03 70 FF FF 4B .0...9......p..K
400000000011F4D0 0B 70 00 42 00 10 00 00 00 02 00 C0 01 70 50 00 .p.B.........pP.
400000000011F4E0 10 00 00 00 01 00 70 70 39 0C 73 03 50 FF FF 4A ......pp9.s.P..J
400000000011F4F0 0B 70 04 42 00 21 E0 00 38 00 20 00 00 00 04 00 .p.B.!..8. .....
400000000011F500 01 00 00 00 01 00 E0 00 38 28 00 00 00 00 04 00 ........8(......
400000000011F510 11 38 00 1C 86 39 00 00 00 02 80 03 80 FF FF 4B .8...9.........K
400000000011F520 10 00 00 00 01 00 70 70 39 0C 73 03 10 FF FF 4A ......pp9.s....J
400000000011F530 09 08 09 42 00 21 00 00 00 02 00 00 01 00 00 84 ...B.!..........
400000000011F540 0B 70 00 42 00 10 00 00 00 02 00 C0 01 70 50 00 .p.B.........pP.
400000000011F550 12 30 00 1C 87 B9 01 A0 FF FF 25 80 08 00 84 00 .0........%.....
400000000011F560 09 00 05 40 00 21 00 00 00 02 00 00 11 00 00 90 ...@.!..........
400000000011F570 0B 70 00 40 00 10 00 00 00 02 00 C0 01 70 50 00 .p.@.........pP.
400000000011F580 13 38 B8 1C 86 F9 01 58 FF FF 25 80 08 00 84 00 .8.....X..%.....
400000000011F590 08 00 00 00 01 00 00 00 00 02 00 00 00 00 04 00 ................
400000000011F5A0 08 00 00 00 01 00 00 00 00 02 00 00 00 00 04 00 ................
400000000011F5B0 08 00 00 00 01 00 00 00 00 02 00 00 00 00 04 00 ................
400000000011F5C0 18 20 29 0C 80 05 C0 80 33 7E 46 00 00 00 00 20 . ).....3~F.... 
400000000011F5D0 09 28 01 02 00 21 00 00 00 02 00 60 04 00 C4 00 .(...!.....`....
400000000011F5E0 11 00 00 00 01 00 00 00 00 02 00 00 E8 BA EF 58 ...............X
400000000011F5F0 08 38 04 10 06 35 00 00 00 02 00 20 00 28 01 84 .8...5..... .(..
400000000011F600 19 30 01 40 00 21 00 00 00 02 00 03 E0 01 00 43 .0.@.!.........C
400000000011F610 11 00 00 00 01 00 00 00 00 02 00 00 B8 C0 EF 58 ...............X
400000000011F620 08 08 00 4A 00 21 20 02 20 00 42 C0 84 61 00 84 ...J.! . .B..a..
400000000011F630 19 38 01 00 00 21 80 02 80 00 42 00 98 82 00 50 .8...!....B....P
400000000011F640 08 78 60 18 00 21 10 00 94 00 42 E0 F0 47 18 EC .x`..!....B..G..
400000000011F650 19 80 00 00 00 21 E0 00 00 00 C2 03 90 01 00 43 .....!.........C
400000000011F660 09 00 00 00 01 00 10 02 3C 30 20 00 00 00 04 00 ........<0 .....
400000000011F670 11 30 00 42 07 39 10 01 84 00 42 03 00 01 00 43 .0.B.9....B....C
400000000011F680 09 00 00 00 01 00 F0 00 84 20 20 00 00 00 04 00 .........  .....
400000000011F690 11 00 00 00 01 00 60 00 3C 0E 73 03 80 01 00 43 ......`.<.s....C
400000000011F6A0 03 38 70 1F 86 39 00 09 40 00 C2 C3 11 70 00 84 .8p..9..@....p..
400000000011F6B0 01 00 00 00 01 00 20 01 38 2C 00 C0 11 70 00 84 ...... .8,...p..
400000000011F6C0 01 00 00 00 01 00 F0 00 38 2C 00 40 22 09 45 80 ........8,.@".E.
400000000011F6D0 09 98 00 24 10 10 20 F9 3F 7E 46 E0 F1 08 45 80 ...$.. .?~F...E.
400000000011F6E0 09 20 4C 22 90 15 00 00 00 02 00 40 22 09 45 80 . L".......@".E.
400000000011F6F0 09 00 00 00 01 00 20 01 48 20 20 00 00 00 04 00 ...... .H  .....
400000000011F700 11 38 00 24 86 39 00 00 00 02 80 03 40 00 00 43 .8.$.9......@..C
400000000011F710 09 00 00 00 01 00 F0 00 3C 20 20 00 00 00 04 00 ........<  .....
400000000011F720 11 00 00 00 01 00 70 00 3C 0C 73 03 80 FF FF 4A ......p.<.s....J
400000000011F730 08 00 00 00 01 00 00 00 00 02 00 00 00 00 04 00 ................
400000000011F740 03 00 00 00 01 00 00 01 40 2C 00 00 02 01 44 80 ........@,....D.
400000000011F750 09 00 00 00 01 00 00 09 41 00 40 00 00 00 04 00 ........A.@.....
400000000011F760 08 00 00 20 90 11 00 00 00 02 00 00 00 00 04 00 ... ............
400000000011F770 08 70 40 18 00 21 60 02 80 00 42 00 00 00 04 00 .p@..!`...B.....
400000000011F780 09 38 61 18 00 21 80 02 88 00 42 00 04 12 01 80 .8a..!....B.....
400000000011F790 11 00 00 1C 98 11 90 02 38 00 42 00 18 B0 EF 58 ........8.B....X
400000000011F7A0 08 08 00 4A 00 21 00 00 00 02 00 C0 04 08 01 84 ...J.!..........
400000000011F7B0 19 00 00 40 80 11 00 00 00 02 00 00 38 B0 EF 58 ...@........8..X
400000000011F7C0 02 08 00 4A 00 21 00 20 01 55 00 00 30 0A 00 07 ...J.!. .U..0...
400000000011F7D0 19 00 00 00 01 00 C0 80 30 00 42 80 08 00 84 00 ........0.B.....
400000000011F7E0 11 30 01 40 00 21 00 00 00 02 00 00 28 F3 FF 58 .0.@.!......(..X
400000000011F7F0 02 08 00 4A 00 21 00 20 01 55 00 00 30 0A 00 07 ...J.!. .U..0...
400000000011F800 18 00 00 00 01 00 C0 80 30 00 42 80 08 00 84 00 ........0.B.....
400000000011F810 0B 80 00 00 00 21 00 09 41 00 40 00 00 00 04 00 .....!..A.@.....
400000000011F820 11 00 00 20 90 11 00 00 00 02 00 00 50 FF FF 48 ... ........P..H
400000000011F830 08 00 00 00 01 00 00 00 00 02 00 00 00 00 04 00 ................

;; glob_pattern_p: 400000000011F840
glob_pattern_p proc
	{ alloc	r35,ar.pfs,0x8,0x0,0x5; adds	r12,0xFFFFFFFFFFFFFFF0,r12; nop.b	0x0 }
	{ adds	r36,0x0,r1; nop.m	0x0; mov	r34,b2; }
	{ nop.m	0x0; nop.i	0x0; br.call.sptk.many	b0,400000000001B0C0; }
	{ cmp.eq	p07,p06,0x1,r8; adds	r1,0x0,r36; adds	r37,0x10,r12 }
	{ adds	r38,0x0,r0; adds	r39,0x0,r32; (p07) br.cond.dpnt.few	400000000011FA20; }

l400000000011F890:
	{ nop.m	0x0; nop.i	0x0; br.call.sptk.many	b0,xdupmbstowcs; }
	{ adds	r14,0x10,r12; adds	r1,0x0,r36; nop.i	0x0 }
	{ cmp.eq	p07,p06,0xFFFFFFFFFFFFFFFF,r8; adds	r19,0x0,r0; (p07) br.cond.dpnt.few	400000000011FA20; }

l400000000011F8C0:
	{ ld8	r37,[r14]; nop.m	0x0; addl	r18,-6196,r1; }
	{ ld8	r18,[r18]; adds	r16,0x0,r37; nop.i	0x0; }
	{ ld4	r14,[r37]; nop.m	0x0; nop.i	0x0; }

l400000000011F8F0:
	{ cmp4.eq	p07,p06,0x0,r14; nop.m	0x0; adds	r14,0xFFFFFFFFFFFFFFDF,r14 }
	{ adds	r15,0x4,r16; nop.m	0x0; (p07) br.cond.dpnt.few	400000000011FA60; }

l400000000011F910:
	{ nop.m	0x0; cmp4.ltu	p06,p07,0x3C,r14; (p07) br.cond.dptk.few	400000000011F930 }

l400000000011F920:
	{ ld4	r14,[r15]; adds	r16,0x0,r15; br.cond.sptk.few	400000000011F8F0; }

l400000000011F930:
	{ addp4	r14,r14,r0; shladd	r14,r14,0x3,r18; nop.i	0x0; }
	{ ld8	r17,[r14]; add	r14,r14,r17; nop.i	0x0; }
	{ nop.m	0x0; mov.spnt	b6,r14,400000000011F950; br.cond	b6; }
400000000011F960 10 00 00 00 01 00 70 00 4C 0C F3 03 C0 FF FF 4A ......p.L......J
400000000011F970 11 00 00 00 01 00 10 0A 00 00 48 00 78 AE EF 58 ..........H.x..X
400000000011F980 08 08 00 48 00 21 00 00 00 02 00 00 00 00 04 00 ...H.!..........

l400000000011F990:
	{ adds	r8,0x0,r33; mov.i	ar.pfs,r35; mov.spnt	b0,r34,400000000011F990 }
	{ nop.m	0x0; adds	r12,0x10,r12; br.ret	b0 }
400000000011F9B0 09 70 00 1E 10 10 00 00 00 02 00 00 82 80 00 84 .p..............
400000000011F9C0 11 30 00 1C 87 39 00 00 00 02 00 03 A0 00 00 43 .0...9.........C
400000000011F9D0 11 70 00 20 10 10 00 00 00 02 00 00 20 FF FF 48 .p. ........ ..H
400000000011F9E0 08 00 00 00 01 00 30 09 4C 00 42 00 00 00 04 00 ......0.L.B.....
400000000011F9F0 19 70 00 1E 10 10 00 01 3C 00 42 00 00 FF FF 48 .p......<.B....H
400000000011FA00 09 70 00 1E 10 10 00 00 00 02 00 00 02 78 00 84 .p...........x..
400000000011FA10 12 30 A0 1C 87 B9 01 B0 FF FF 25 00 E0 FE FF 48 .0........%....H

l400000000011FA20:
	{ adds	r37,0x0,r32; nop.i	0x0; br.call.sptk.many	b0,400000000011E9C0; }
	{ adds	r33,0x0,r8; nop.m	0x0; adds	r1,0x0,r36; }
	{ adds	r8,0x0,r33; mov.i	ar.pfs,r35; mov.spnt	b0,r34,400000000011FA40 }
	{ nop.m	0x0; adds	r12,0x10,r12; br.ret	b0; }

l400000000011FA60:
	{ adds	r33,0x0,r0; nop.i	0x0; br.call.sptk.many	b0,400000000001A7E0; }
	{ nop.m	0x0; adds	r1,0x0,r36; br.cond.sptk.few	400000000011F990; }

;; glob_vector: 400000000011FA80
glob_vector proc
	{ alloc	r60,ar.pfs,0x23,0x0,0x20; adds	r61,0x0,r12; nop.b	0x0 }
	{ adds	r12,0xFFFFFFFFFFFFFF60,r12; mov	r63,pr; adds	r62,0x0,r1; }
	{ nop.m	0x0; mov	r59,b3; cmp.eq	p06,p07,0x0,r32 }
	{ nop.m	0x0; nop.m	0x0; (p06) br.cond.dpnt.few	40000000001201F0; }

l400000000011FAC0:
	{ ld1	r14,[r32]; nop.m	0x0; sxt1	r14,r14; }
	{ nop.m	0x0; cmp4.eq	p07,p06,0x0,r14; (p07) br.cond.dptk.few	40000000001201F0 }

l400000000011FAE0:
	{ adds	r64,0x0,r32; tnat.z	p18,p19,r34; addl	r50,528,r0 }
	{ adds	r36,0x0,r0; adds	r54,0x0,r0; br.call.sptk.many	b0,400000000001B6C0; }
	{ adds	r1,0x0,r62; adds	r35,0x0,r8; adds	r64,0x0,r32 }
	{ and	r50,r50,r34; adds	r41,0x0,r0; br.call.sptk.many	b0,glob_pattern_p; }
	{ cmp4.eq	p06,p07,0x0,r8; adds	r1,0x0,r62; adds	r64,0x0,r33 }
	{ adds	r46,0x8,r61; addl	r56,99999,r0; (p06) br.cond.dpnt.few	4000000000120400; }

l400000000011FB40:
	{ nop.m	0x0; tnat.z	p24,p25,r34; adds	r35,0x0,r0 }
	{ nop.m	0x0; nop.m	0x0; br.call.sptk.many	b0,400000000001C3E0; }
	{ adds	r1,0x0,r62; cmp.eq	p06,p07,0x0,r8; nop.i	0x0 }
	{ and	r16,0x18,r34; adds	r39,0x0,r8; (p06) br.cond.dpnt.few	4000000000120420; }

l400000000011FB80:
	{ addl	r14,8772,r1; addl	r49,6372,r1; addl	r38,7684,r1 }
	{ addl	r40,7676,r1; cmp4.eq	p20,p21,0x0,r16; addl	r57,21276,r1; }
	{ ld4	r14,[r14]; nop.m	0x0; addl	r16,-513,r0 }
	{ addl	r58,9284,r1; ld4	r48,[r49]; nop.i	0x0; }
	{ cmp4.eq	p06,p07,0x0,r14; addl	r14,7664,r1; cmp4.eq	p08,p09,0x0,r48 }
	{ nop.m	0x0; nop.m	0x0; and	r55,r16,r34; }
	{ nop.m	0x0; nop.m	0x0; (p08) addl	r48,1,r0 }

l400000000011FBF0:
	{ nop.m	0x0; nop.i	0x0; (p09) addl	r48,5,r0 }

l400000000011FC00:
	{ nop.m	0x0; ld4	r14,[r14]; (p07) or	r48,0x10,r48; }

l400000000011FC10:
	{ cmp4.eq	p06,p07,0x0,r14; nop.m	0x0; and	r14,0x10,r34; }
	{ cmp4.eq	p16,p17,0x0,r14; (p07) or	r48,0x20,r48; cmp4.eq	p23,p22,0x0,r14; }

l400000000011FC2C:
	{ cmp.gt.or.andcm	p14,p11,r0,r115; (p01) cmp.gt.or.andcm	p00,p48,r0,r64; zxt4	r1,r0 }

l400000000011FC38:
	{ break.m	0x900; (p16) deposit	r0,r96,r0,47,8; (p60) mov	pr,r2,0xA9E0 }

l400000000011FC44:
	{ (p01) flushrs; (p08) chk.a.nc	r28,4000000000320994; (p08) break.f	0x44 }

l400000000011FC4A:
	{ Invalid; (p34) mov	pr,0x0; mov	pr,0x0 }
	{ sum	0x0; (p36) nop; (p33) mov	pr,0x0 }
	{ Invalid; Invalid; (p51) mov	pr,0x1 }
	{ (p24) chk.a.nc	r0,3FFFFFFFFF122BBA; (p37) mov	pr,0x0; nop }
	{ (p01) sum	0x0; Invalid; (p51) mov	pr,0x1; }
	{ (p24) chk.a.nc	r0,3FFFFFFFFF122B5A; (p05) mov	pr,0x1; mov	pr,0x0 }
	{ setf.exp	f0,r114; Invalid; (p02) mov	pr,0x1 }
	{ addl	r24,527872,r0; Invalid; (p02) mov	pr,0x1 }
	{ (p24) chk.a.nc	r0,3FFFFFFFFF123D4A; (p37) mov	pr,0x0; nop }
	{ (p01) sum	0x0; mov	pr,0x1; Invalid }
	{ (p27) nop; (p05) break.b	0x1; break.b	0x0 }
	{ setf.exp	f0,r118; Invalid; Invalid }
	{ (p27) break.m	0x110A00; (p37) rum	0x44D280; (p02) mov	pr,0x1 }
	{ sum	0x0; Invalid; Invalid }
	{ (p02) setf.d	f0,r42; Invalid; Invalid }
	{ (p27) nop; (p01) break.b	0x1; break.b	0x0; }
	{ (p16) break.m	0x100E01; Invalid; (p02) mov	pr,0x1 }
	{ Invalid; Invalid; (p02) mov	pr,0x1 }
	{ ld1	r0,[r101]; Invalid; (p02) mov	pr,0x1 }
	{ Invalid; Invalid; (p02) mov	pr,0x1 }
	{ setf.d	f0,r34; (p33) mov	pr,0x0; Invalid }
	{ Invalid; (p38) mov	pr,0x1; Invalid }
	{ (p31) chk.a.nc	r0,3FFFFFFFFF122AEA; Invalid; (p51) add	r33,r0,r53,0x1; }
	{ (p25) break.m	0x113600; Invalid; (p02) mov	pr,0x1; }
	{ Invalid; Invalid; (p02) mov	pr,0x1 }
	{ setf.d	f0,r46; Invalid; (p02) mov	pr,0x1 }
	{ addl	r24,527872,r0; Invalid; (p02) mov	pr,0x1 }
	{ (p24) chk.a.nc	r0,3FFFFFFFFF1223BA; (p37) mov	pr,0x0; nop }
	{ (p01) sum	0x0; Invalid; (p50) mov	pr,0x1 }
	{ (p28) chk.a.nc	r0,3FFFFFFFFF12225A; Invalid; (p02) mov	pr,0x1 }
	{ Invalid; (p38) break.i	0x168C; (p02) break.i	0x128D }
	{ Invalid; (p06) break.i	0x42001; Invalid }
	{ (p02) setf.exp	f0,r66; Invalid; Invalid }
	{ (p02) sum	0x0; Invalid; (p50) nop }
	{ (p31) chk.a.nc	r0,3FFFFFFFFF12196A; nop; (p43) rfi }
	{ Invalid; (p38) nop; Invalid }
	{ Invalid; (p46) nop; (p35) nop }
	{ (p01) sum	0x0; mov	pr,0x1; Invalid }
	{ (p27) nop; (p05) nop; (p02) break.b	0x1 }
	{ setf.exp	f0,r78; Invalid; (p50) nop }
	{ (p03) sum	0x0; (p36) break.i	0x42001; (p08) nop }
	{ (p38) chk.a.nc	r0,400000000012015A; (p33) mov.i	KR0,r36; (p02) nop }
	{ (p01) sum	0x0; Invalid; Invalid; }
	{ (p02) setf.exp	f0,r22; Invalid; (p02) mov	pr,0x1 }
	{ Invalid; Invalid; (p02) mov	pr,0x1 }
	{ setf.exp	f0,r110; Invalid; Invalid }
	{ Invalid; (p04) mov.i	KR0,r64; (p02) mov	pr,0x1 }
	{ setf.exp	f0,r6; Invalid; Invalid }
	{ Invalid; Invalid; (p02) mov.i	KR0,r66 }
	{ Invalid; (p02) mov	pr,0x1; addp4	r0,0xFFFFFFFFFFFFE406,r0 }
	{ (p31) break.m	0x111200; (p33) break.b	0x0; nop }
	{ (p02) ld1	r20,[r0]; (p38) mov	pr,0x1; mov	pr,0x0 }
	{ setf.exp	f0,r26; Invalid; (p02) mov	pr,0x1 }
	{ sum	0x0; Invalid; (p02) mov	pr,0x1 }
	{ setf.exp	f0,r90; (p37) break.i	0x140700; Invalid }
	{ Invalid; Invalid; (p49) mov	pr,0x1 }
	{ (p24) chk.a.nc	r0,400000000012034A; (p05) mov	pr,0x1; mov	pr,0x0 }
	{ setf.exp	f0,r62; Invalid; Invalid }
	{ Invalid; (p04) mov.i	KR0,r64; (p02) mov	pr,0x1 }
	{ setf.exp	f0,r86; Invalid; (p02) mov	pr,0x1 }
	{ Invalid; (p38) break.i	0x42001; (p08) mov	pr,0x1 }
	{ setf.exp	f0,r78; Invalid; (p50) mov	pr,0x1 }
	{ Invalid; Invalid; (p02) mov	pr,0x1 }
	{ Invalid; (p02) mov	pr,0x1; addp4	r0,0xFFFFFFFFFFFFF406,r0 }
	{ (p27) break.m	0x101400; nop; nop }
	{ Invalid; Invalid; (p02) mov.i	KR0,r66; }
	{ Invalid; (p34) mov	pr,0x0; Invalid }
	{ Invalid; (p38) mov	pr,0x1; mov	pr,0x0; }
	{ (p08) nop; Invalid; (p02) mov	pr,0x1 }
	{ sum	0x0; (p04) mov	pr,0x1; Invalid }
	{ (p31) chk.a.nc	r0,3FFFFFFFFF12086A; (p33) break.b	0x0; break.b	0x0; }
	{ sum	0x0; (p36) mov	pr,0x0; pshr4.u	r0,r4,r38 }

l40000000001200C0:
	{ nop.m	0x0; addl	r38,7684,r1; nop.i	0x0; }
	{ nop.m	0x0; nop.m	0x0; nop.i	0x0 }

l40000000001200E0:
	{ nop.m	0x0; cmp.eq	p07,p06,0x0,r35; (p07) br.cond.dpnt.few	4000000000120170; }

l40000000001200F0:
	{ cmp.eq	p06,p07,0x0,r36; nop.m	0x0; cmp.eq	p08,p09,r36,r35 }
	{ adds	r14,0x8,r35; nop.m	0x0; (p06) br.cond.dpnt.few	4000000000120460; }

l4000000000120110:
	{ nop.m	0x0; (p08) adds	r36,0x0,r0; nop.i	0x0 }

l400000000012011C:
	{ nop; Invalid; break.i	0x1000 }
	{ (p54) nop; (p04) nop; nop }
	{ nop; zxt1	r96,r64; break.i	0x1000 }
	{ (p53) ldfp8	f116,f59,[r44]; (p04) invala; nop }
	{ invala; cmp.eq	p00,p00,r32,r0; mov	pr,r72,0xE4C0 }
	{ (p60) cmp.lt.unc	p63,p11,r63,r37; zxt4	r63,r14; break.b	0x1000 }

l4000000000120170:
	{ addl	r14,7676,r1; nop.m	0x0; nop.i	0x0; }
	{ nop.m	0x0; ld4.acq	r15,[r14]; nop.i	0x0; }
	{ cmp4.eq	p07,p06,0x0,r15; nop.i	0x0; (p06) br.cond.dpnt.few	40000000001204E0; }

l40000000001201A0:
	{ ld4.acq	r14,[r38]; nop.m	0x0; adds	r38,0x0,r0; }
	{ nop.m	0x0; cmp4.eq	p06,p07,0x0,r14; (p07) br.cond.dpnt.few	40000000001204A0; }

l40000000001201C0:
	{ adds	r8,0x0,r38; mov	pr,r63,0xFFFFFFFFFFFFFFFE; mov.i	ar.pfs,r60; }
	{ nop.m	0x0; mov.spnt	b0,r59,40000000001201D0; nop.i	0x0 }
	{ adds	r12,0x0,r61; nop.m	0x0; br.ret	b0; }

l40000000001201F0:
	{ adds	r64,0x0,r33; adds	r37,0x0,r0; nop.i	0x0 }
	{ addl	r41,1,r0; adds	r36,0x0,r0; br.call.sptk.many	b0,400000000011EC00; }
	{ adds	r1,0x0,r62; nop.m	0x0; cmp4.lt	p07,p06,r8,r0 }
	{ addl	r64,1,r0; nop.m	0x0; (p07) br.cond.dpnt.few	4000000000120420; }

l4000000000120230:
	{ adds	r12,0xFFFFFFFFFFFFFFE0,r12; adds	r35,0x10,r12; nop.i	0x0; }
	{ st8	[r0],r35; nop.i	0x0; br.call.sptk.many	b0,400000000001B340; }
	{ adds	r14,0x8,r35; nop.m	0x0; adds	r1,0x0,r62 }
	{ cmp.eq	p06,p07,0x0,r8; nop.m	0x0; (p06) br.cond.dpnt.few	4000000000120850; }

l4000000000120270:
	{ st1	[r0],r8; st8	[r8],r14; nop.i	0x0 }

l4000000000120280:
	{ nop.m	0x0; cmp4.eq	p07,p06,0x0,r37; (p06) br.cond.dptk.few	40000000001200C0 }

l4000000000120290:
	{ adds	r64,0x1,r41; addp4	r64,r64,r0; nop.i	0x0; }
	{ shladd	r64,r64,0x3,r0; nop.i	0x0; br.call.sptk.many	b0,400000000001B340; }
	{ adds	r17,0xFFFFFFFFFFFFFFFF,r41; cmp.eq	p06,p07,0x0,r8; adds	r1,0x0,r62 }
	{ adds	r14,0x0,r8; adds	r15,0x0,r35; (p06) br.cond.spnt.few	40000000001200C0; }

l40000000001202D0:
	{ addp4	r17,r17,r0; nop.m	0x0; cmp4.eq	p07,p06,0x0,r41 }
	{ adds	r38,0x0,r8; nop.m	0x0; (p07) br.cond.dpnt.few	4000000000120330; }

l40000000001202F0:
	{ (p06) shladd	r17,r17,0x3,r8; nop.i	0x0; (p06) adds	r17,0x8,r17; }

l40000000001202F6:
	{ adds	r0,0xFFFFFFFFFFFFE000,r1; (p08) nop; nop }
	{ (p08) fwb; nop; break.i	0x80000 }
	{ Invalid; nop; (p48) nop }
	{ (p03) chk.a.clr	r17,3FFFFFFFFFD23406; nop; (p16) nop }

l4000000000120330:
	{ addp4	r41,r41,r0; cmp.eq	p07,p06,0x0,r36; cmp.eq	p08,p09,0x0,r35; }
	{ nop.m	0x0; shladd	r41,r41,0x3,r38; nop.i	0x0; }
	{ st8	[r0],r41; (p07) br.cond.dpnt.few	40000000001201C0; (p08) br.cond.dpnt.few	40000000001201C0; }

l400000000012035C:
	{ Invalid; cmp.lt	p00,p00,r32,r0; nop }
	{ (p03) nop; break.i	0x1000; break.i	0x1000 }
	{ nop; Invalid; zxt1	r96,r64 }
	{ (p35) ldf8	f116,[r44]; (p04) invala; cmp.eq	p00,p00,r32,r0 }
	{ nop; zxt1	r64,r64; mov	pr,r32,0x0 }
	{ (p49) invala; cmp.lt	p00,p00,r32,r0; mov	pr,r104,0xE0D2 }
	{ Invalid; zxt1	r96,r64; break.b	0x1000 }
	{ (p33) nop; (p01) nop; cmp.eq.unc	p00,p16,r15,r64 }
	{ Invalid; Invalid; Invalid }
	{ (p29) nop; add	r0,r32,r0; Invalid }
	{ Invalid; (p08) invala; break.i	0x1000 }

l4000000000120400:
	{ adds	r64,0x0,r33; nop.i	0x0; br.call.sptk.many	b0,400000000011EC00; }
	{ adds	r1,0x0,r62; cmp4.lt	p07,p06,r8,r0; (p06) br.cond.dptk.few	4000000000120A50; }

l4000000000120420:
	{ addl	r38,9284,r1; nop.m	0x0; nop.i	0x0; }
	{ adds	r8,0x0,r38; mov	pr,r63,0xFFFFFFFFFFFFFFFE; mov.i	ar.pfs,r60; }
	{ nop.m	0x0; mov.spnt	b0,r59,4000000000120440; nop.i	0x0 }
	{ adds	r12,0x0,r61; nop.m	0x0; br.ret	b0 }

l4000000000120460:
	{ nop.m	0x0; adds	r14,0x8,r35; nop.i	0x0; }
	{ ld8	r64,[r14]; nop.i	0x0; br.call.sptk.many	b0,400000000001A7E0; }
	{ nop.m	0x0; adds	r1,0x0,r62; nop.i	0x0 }
	{ ld8	r35,[r35]; nop.m	0x0; br.cond.sptk.few	40000000001200E0 }

l40000000001204A0:
	{ nop.m	0x0; nop.i	0x0; br.call.sptk.many	b0,throw_to_top_level; }
	{ adds	r8,0x0,r38; adds	r1,0x0,r62; mov	pr,r63,0xFFFFFFFFFFFFFFFE; }
	{ nop.m	0x0; mov.i	ar.pfs,r60; mov.spnt	b0,r59,40000000001204C0 }
	{ nop.m	0x0; adds	r12,0x0,r61; br.ret	b0; }

l40000000001204E0:
	{ ld4.acq	r64,[r14]; nop.i	0x0; br.call.sptk.many	b0,termsig_handler; }
	{ ld4.acq	r14,[r38]; adds	r1,0x0,r62; adds	r38,0x0,r0; }
	{ nop.m	0x0; cmp4.eq	p06,p07,0x0,r14; (p06) br.cond.dptk.few	40000000001201C0 }

l4000000000120510:
	{ nop.m	0x0; nop.i	0x0; br.cond.sptk.few	40000000001204A0; }
4000000000120520 11 38 00 4A 06 39 00 04 94 00 C2 03 D0 07 00 43 .8.J.9.........C
4000000000120530 11 40 01 4A 18 10 00 00 00 02 00 00 B8 A2 EF 58 .@.J...........X
4000000000120540 11 08 00 7C 00 21 50 02 A0 00 42 00 E0 FF FF 48 ...|.!P...B....H
4000000000120550 08 28 4D 4A 00 21 00 04 B8 00 42 20 08 00 00 84 .(MJ.!....B ....
4000000000120560 09 00 00 7A 98 11 00 00 B8 30 23 40 08 00 01 84 ...z.....0#@....
4000000000120570 11 00 00 00 01 00 00 00 00 02 00 00 58 73 00 50 ............Xs.P
4000000000120580 08 30 FC 11 07 3B 10 00 F8 00 42 00 08 E8 01 84 .0...;....B.....
4000000000120590 19 08 02 00 00 21 20 04 94 00 42 03 30 01 00 43 .....! ...B.0..C
40000000001205A0 11 00 00 00 01 00 00 00 00 02 00 00 28 73 00 50 ............(s.P
40000000001205B0 11 08 00 7C 00 21 60 F8 23 0E 76 03 10 01 00 43 ...|.!`.#.v....C
40000000001205C0 09 00 00 00 01 00 F0 00 C4 20 20 00 00 00 04 00 .........  .....
40000000001205D0 10 00 00 00 01 00 70 00 3C 0C 73 03 A0 02 00 42 ......p.<.s....B
40000000001205E0 0B 00 02 5C 18 10 F0 00 00 21 20 00 00 00 04 00 ...\.....! .....
40000000001205F0 11 30 B8 1E 87 39 00 00 00 02 00 03 50 00 00 43 .0...9......P..C
4000000000120600 08 00 00 00 01 00 70 E0 3E 0C 73 00 00 00 04 00 ......p.>.s.....
4000000000120610 19 78 00 7A 18 10 00 00 00 02 80 03 D0 05 00 43 .x.z...........C
4000000000120620 09 00 00 00 01 00 00 01 3C 20 20 00 00 00 04 00 ........<  .....
4000000000120630 10 00 00 00 01 00 70 70 41 0C F3 03 00 06 00 43 ......ppA......C
4000000000120640 11 00 00 00 01 00 A0 02 00 00 42 00 A8 A1 EF 58 ..........B....X
4000000000120650 08 08 00 7C 00 21 00 00 00 02 00 00 00 00 04 00 ...|.!..........
4000000000120660 09 00 00 00 01 00 00 04 F4 30 20 00 00 00 04 00 .........0 .....
4000000000120670 11 30 00 80 07 39 00 00 00 02 00 03 30 00 00 43 .0...9......0..C
4000000000120680 11 00 00 00 01 00 00 00 00 02 00 00 68 A1 EF 58 ............h..X
4000000000120690 08 08 00 7C 00 21 00 00 00 02 00 00 00 00 04 00 ...|.!..........
40000000001206A0 10 00 00 00 01 00 70 00 A8 0C 73 03 C0 F5 FF 4A ......p...s....J
40000000001206B0 10 00 00 00 01 00 00 00 00 02 00 00 70 F6 FF 48 ............p..H
40000000001206C0 11 00 02 40 00 21 10 04 94 00 42 00 08 ED FF 58 ...@.!....B....X
40000000001206D0 08 08 00 7C 00 21 00 00 00 02 00 40 05 40 00 84 ...|.!.....@.@..
40000000001206E0 09 00 02 5C 18 10 00 00 00 02 00 00 00 00 04 00 ...\............
40000000001206F0 11 30 00 80 07 39 00 00 00 02 00 03 70 FF FF 4B .0...9......p..K
4000000000120700 11 00 00 00 01 00 00 00 00 02 00 00 E8 A0 EF 58 ...............X
4000000000120710 10 00 00 00 01 00 10 00 F8 00 42 00 50 FF FF 48 ..........B.P..H
4000000000120720 11 30 E8 10 07 38 00 04 20 00 42 03 40 00 00 43 .0...8.. .B.@..C
4000000000120730 11 00 00 00 01 00 00 00 00 02 00 00 B8 A0 EF 58 ...............X
4000000000120740 09 08 00 7C 00 21 00 00 00 02 00 00 00 00 04 00 ...|.!..........
4000000000120750 08 00 00 00 01 00 00 00 00 02 00 00 00 00 04 00 ................
4000000000120760 11 00 42 00 00 24 00 00 00 02 00 00 E8 AB EF 58 ..B..$.........X
4000000000120770 08 30 00 48 07 39 00 00 00 02 00 A0 04 40 00 84 .0.H.9.......@..
4000000000120780 09 08 00 7C 00 21 00 00 00 02 00 00 08 78 01 84 ...|.!.......x..
4000000000120790 D1 20 01 10 00 21 00 00 00 02 00 00 38 AF EF 58 . ...!......8..X
40000000001207A0 03 40 04 10 00 21 10 00 F8 00 42 40 05 40 58 00 .@...!....B@.@X.
40000000001207B0 11 00 02 54 00 21 00 00 00 02 00 00 98 AB EF 58 ...T.!.........X
40000000001207C0 08 30 00 4A 07 39 10 01 94 00 42 20 08 78 01 84 .0.J.9....B .x..
40000000001207D0 09 10 02 54 00 21 00 04 20 00 42 20 00 F0 01 84 ...T.!.. .B ....
40000000001207E0 10 00 00 00 01 00 60 00 20 8E 72 03 90 F7 FF 4A ......`. .r....J
40000000001207F0 09 40 8C 22 98 15 90 0A A4 00 42 60 04 28 01 84 .@."......B`.(..
4000000000120800 13 00 20 22 98 11 00 E4 CF 77 2C 00 00 00 00 20 .. ".....w,.... 
4000000000120810 08 08 00 7C 00 21 00 00 00 02 00 00 00 00 04 00 ...|.!..........
4000000000120820 11 00 02 5E 00 21 00 00 00 02 00 00 C8 9F EF 58 ...^.!.........X
4000000000120830 10 00 00 00 01 00 10 00 F8 00 42 00 30 F4 FF 48 ..........B.0..H
4000000000120840 11 00 00 00 01 00 50 0A 00 00 48 00 60 F7 FF 48 ......P...H.`..H

l4000000000120850:
	{ addl	r37,1,r0; nop.m	0x0; adds	r41,0x0,r0 }
	{ adds	r35,0x0,r0; adds	r36,0x0,r0; br.cond.sptk.few	4000000000120280 }
4000000000120870 09 70 00 7A 18 10 00 04 B8 30 20 00 00 00 04 00 .p.z.....0 .....
4000000000120880 0B 70 00 1C 10 10 60 70 39 0E 73 00 00 00 04 00 .p....`p9.s.....
4000000000120890 10 00 00 00 01 C0 A1 02 00 00 C2 03 60 FE FF 4A ............`..J
40000000001208A0 09 00 00 00 01 00 F0 00 00 21 20 00 00 00 04 00 .........! .....
40000000001208B0 11 30 B8 1E 87 39 00 00 00 02 00 03 90 FD FF 4B .0...9.........K
40000000001208C0 10 00 00 00 01 00 70 E0 3E 0C F3 03 E0 03 00 43 ......p.>......C
40000000001208D0 11 50 05 00 00 24 00 00 00 02 00 00 18 9F EF 58 .P...$.........X
40000000001208E0 10 00 00 00 01 00 10 00 F8 00 42 00 80 FD FF 48 ..........B....H
40000000001208F0 13 00 00 00 01 40 06 98 FF FF 25 0B 70 FE FF 4A .....@....%.p..J
4000000000120900 11 00 02 4A 00 21 00 00 00 02 00 00 C8 AD EF 58 ...J.!.........X
4000000000120910 08 08 00 7C 00 21 00 00 00 02 00 00 08 28 01 84 ...|.!.......(..
4000000000120920 19 08 02 10 00 21 00 00 00 02 00 00 28 66 01 50 .....!......(f.P
4000000000120930 08 08 00 7C 00 21 00 04 80 00 42 00 00 00 04 00 ...|.!....B.....
4000000000120940 19 08 02 10 00 21 20 04 C0 00 42 00 08 13 00 50 .....! ...B....P
4000000000120950 11 30 04 10 87 39 10 00 F8 00 42 03 10 F3 FF 4B .0...9....B....K
4000000000120960 0B 30 E0 6C 87 F0 C1 00 33 7E C6 C3 06 B1 01 84 .0.l....3~......
4000000000120970 10 00 00 00 01 C0 A1 82 30 00 C2 03 40 00 00 42 ........0...@..B
4000000000120980 11 00 42 00 00 24 00 00 00 02 00 00 C8 A9 EF 58 ..B..$.........X
4000000000120990 08 30 00 48 07 39 10 00 F8 00 42 00 00 00 04 00 .0.H.9....B.....
40000000001209A0 02 50 01 10 00 21 00 00 00 02 00 83 04 40 00 84 .P...!.......@..
40000000001209B0 11 00 02 4A 00 21 00 00 00 02 00 00 18 AD EF 58 ...J.!.........X
40000000001209C0 11 08 00 7C 00 21 00 0C 20 00 42 00 88 A9 EF 58 ...|.!.. .B....X
40000000001209D0 08 30 00 54 07 39 E0 00 A8 00 42 00 00 00 04 00 .0.T.9....B.....
40000000001209E0 09 08 00 7C 00 21 B0 02 20 00 42 00 08 28 01 84 ...|.!.. .B..(..
40000000001209F0 11 30 00 10 47 39 00 00 00 02 00 03 50 FE FF 4B .0..G9......P..K
4000000000120A00 09 40 8C 1C 98 15 90 0A A4 00 42 60 04 50 01 84 .@........B`.P..
4000000000120A10 11 00 20 1C 98 11 00 00 00 02 00 00 B8 AC EF 58 .. ............X
4000000000120A20 08 08 00 7C 00 21 00 04 AC 00 42 00 00 00 04 00 ...|.!....B.....
4000000000120A30 19 08 02 4A 00 21 20 0C 20 00 42 00 98 9D EF 58 ...J.! . .B....X
4000000000120A40 10 00 00 00 01 00 10 00 F8 00 42 00 20 F2 FF 48 ..........B. ..H

l4000000000120A50:
	{ adds	r64,0x0,r33; nop.i	0x0; br.call.sptk.many	b0,400000000001B6C0; }
	{ add	r64,r8,r35; adds	r1,0x0,r62; adds	r37,0x0,r8; }
	{ nop.m	0x0; adds	r64,0x2,r64; nop.i	0x0; }
	{ nop.m	0x0; sxt4	r64,r64; br.call.sptk.many	b0,400000000001B340; }
	{ adds	r64,0x1,r35; adds	r1,0x0,r62; adds	r36,0x0,r8; }
	{ nop.m	0x0; sxt4	r64,r64; br.call.sptk.many	b0,400000000001B340; }
	{ cmp.eq	p06,p07,0x0,r36; adds	r38,0x0,r8; adds	r1,0x0,r62; }
	{ nop.m	0x0; cmp.eq.or.andcm	p06,p07,0x0,r8; (p06) br.cond.dptk.few	4000000000120850 }

l4000000000120AD0:
	{ adds	r65,0x0,r32; nop.m	0x0; adds	r64,0x0,r8 }
	{ addl	r41,1,r0; nop.m	0x0; br.call.sptk.many	b0,400000000001B180; }
	{ adds	r1,0x0,r62; adds	r64,0x0,r38; br.call.sptk.many	b0,400000000011F5C0; }
	{ adds	r1,0x0,r62; nop.m	0x0; adds	r64,0x0,r36 }
	{ adds	r65,0x0,r33; nop.m	0x0; br.call.sptk.many	b0,400000000001B180; }
	{ nop.m	0x0; adds	r64,0x1,r37; sxt4	r14,r37 }
	{ addl	r15,47,r0; adds	r1,0x0,r62; adds	r65,0x0,r38; }
	{ add	r14,r36,r14; sxt4	r64,r64; adds	r37,0x0,r0; }
	{ st1	[r15],r14; add	r64,r36,r64; br.call.sptk.many	b0,400000000001B180; }
	{ adds	r65,0x0,r36; adds	r1,0x0,r62; nop.i	0x0 }
	{ adds	r66,0xFFFFFFFFFFFFFF70,r61; addl	r64,1,r0; br.call.sptk.many	b0,400000000001C0A0; }
	{ cmp4.lt	p06,p07,r8,r0; adds	r1,0x0,r62; nop.i	0x0 }
	{ adds	r64,0x0,r36; adds	r36,0x0,r0; (p06) br.cond.dpnt.few	4000000000120D20; }

l4000000000120BA0:
	{ nop.m	0x0; nop.i	0x0; br.call.sptk.many	b0,400000000001A7E0; }
	{ adds	r12,0xFFFFFFFFFFFFFFE0,r12; adds	r1,0x0,r62; adds	r35,0x10,r12; }
	{ adds	r14,0x0,r35; st8	[r14],r8,8; nop.i	0x0; }
	{ st8	[r38],r14; nop.i	0x0; br.cond.sptk.few	4000000000120280 }
4000000000120BE0 0B 78 10 80 00 21 F0 00 3C 20 20 00 00 00 04 00 .x...!..<  .....
4000000000120BF0 08 00 00 00 01 00 60 70 3D 0E 73 00 00 00 04 00 ......`p=.s.....
4000000000120C00 19 78 00 7A 18 10 00 00 00 02 00 03 40 FA FF 4B .x.z........@..K
4000000000120C10 09 00 00 00 01 00 00 01 3C 20 20 00 00 00 04 00 ........<  .....
4000000000120C20 10 00 00 00 01 00 70 70 41 0C 73 03 20 FA FF 4A ......ppA.s. ..J
4000000000120C30 0B 80 10 1E 00 21 00 01 40 20 20 00 00 00 04 00 .....!..@  .....
4000000000120C40 11 00 00 00 01 00 60 00 40 0E 73 03 90 FC FF 4A ......`.@.s....J
4000000000120C50 10 00 00 00 01 00 70 70 41 0C 73 03 F0 F9 FF 4A ......ppA.s....J
4000000000120C60 0B 78 20 1E 00 21 A0 02 3C 20 20 00 00 00 04 00 .x ..!..<  .....
4000000000120C70 0B 38 00 54 86 B9 A1 02 00 00 42 00 00 00 04 00 .8.T......B.....
4000000000120C80 F1 50 05 00 00 24 00 00 00 02 00 00 68 9B EF 58 .P...$......h..X
4000000000120C90 10 00 00 00 01 00 10 00 F8 00 42 00 D0 F9 FF 48 ..........B....H
4000000000120CA0 0B 78 10 80 00 21 A0 02 3C 20 20 00 00 00 04 00 .x...!..<  .....
4000000000120CB0 0B 38 B8 54 86 B9 A1 0A 00 00 48 00 00 00 04 00 .8.T......H.....
4000000000120CC0 F1 50 01 00 00 21 00 00 00 02 00 00 28 9B EF 58 .P...!......(..X
4000000000120CD0 10 00 00 00 01 00 10 00 F8 00 42 00 90 F9 FF 48 ..........B....H
4000000000120CE0 11 00 00 00 01 00 50 02 00 00 42 00 C0 F2 FF 48 ......P...B....H
4000000000120CF0 11 00 02 66 00 21 50 0A 00 00 48 00 F8 9A EF 58 ...f.!P...H....X
4000000000120D00 11 08 00 7C 00 21 00 04 BC 00 42 00 E8 9A EF 58 ...|.!....B....X
4000000000120D10 10 00 00 00 01 00 10 00 F8 00 42 00 90 F2 FF 48 ..........B....H

l4000000000120D20:
	{ adds	r41,0x0,r0; nop.m	0x0; adds	r35,0x0,r0 }
	{ adds	r36,0x0,r0; nop.m	0x0; br.call.sptk.many	b0,400000000001A7E0; }
	{ adds	r1,0x0,r62; adds	r64,0x0,r38; br.call.sptk.many	b0,400000000001A7E0; }
	{ nop.m	0x0; adds	r1,0x0,r62; br.cond.sptk.few	4000000000120280; }
4000000000120D60 08 00 00 00 01 00 00 00 00 02 00 00 00 00 04 00 ................
4000000000120D70 08 00 00 00 01 00 00 00 00 02 00 00 00 00 04 00 ................

;; glob_filename: 4000000000120D80
glob_filename proc
	{ alloc	r51,ar.pfs,0x19,0x0,0x16; mov	r53,pr; adds	r52,0x0,r1; }
	{ nop.m	0x0; mov	r50,b2; nop.i	0x0 }
	{ addl	r54,8,r0; addl	r45,1,r0; br.call.sptk.many	b0,400000000001B340; }
	{ cmp.eq	p07,p06,0x0,r8; adds	r1,0x0,r52; adds	r35,0x0,r8 }
	{ addl	r55,47,r0; adds	r54,0x0,r32; (p07) br.cond.dpnt.few	40000000001216A0; }

l4000000000120DD0:
	{ st8	[r0],r8; nop.i	0x0; br.call.sptk.many	b0,400000000001BEA0; }
	{ sub	r34,r8,r32; cmp.eq	p06,p07,0x0,r8; nop.i	0x0 }
	{ adds	r1,0x0,r52; adds	r38,0x0,r8; (p06) br.cond.dpnt.few	40000000001218D0; }

l4000000000120E00:
	{ adds	r54,0x2,r34; adds	r34,0x1,r34; adds	r38,0x1,r38; }
	{ addp4	r54,r54,r0; addp4	r36,r34,r0; br.call.sptk.many	b0,400000000001B340; }
	{ adds	r42,0x0,r8; cmp.eq	p06,p07,0x0,r8; adds	r1,0x0,r52 }
	{ adds	r56,0x0,r36; adds	r54,0x0,r8; (p06) br.cond.dpnt.few	40000000001216A0; }

l4000000000120E40:
	{ adds	r55,0x0,r32; add	r36,r42,r36; br.call.sptk.many	b0,400000000001A7C0; }
	{ adds	r1,0x0,r52; st1	[r0],r36; adds	r54,0x0,r42 }
	{ nop.m	0x0; nop.m	0x0; br.call.sptk.many	b0,glob_pattern_p; }
	{ adds	r1,0x0,r52; cmp4.eq	p06,p07,0x0,r8; (p07) br.cond.dptk.few	4000000000121020 }

l4000000000120E80:
	{ ld1	r14,[r38]; nop.m	0x0; cmp4.eq	p16,p17,0x0,r34 }
	{ adds	r54,0x0,r35; and	r36,0xFE,r33; sxt1	r14,r14; }
	{ cmp4.eq	p07,p06,0x0,r14; (p07) br.cond.dpnt.few	4000000000121920; (p17) br.cond.dpnt.few	40000000001219F0; }

l4000000000120EAC:
	{ Invalid; break.i	0x1000; break.b	0x1000 }
	{ (p09) cmp.lt.unc	p51,p09,r59,r44; (p01) nop; Invalid }
	{ (p10) invala; add	r0,r32,r0; (p36) mov	pr,r73,0x8006 }
	{ (p03) cmp.lt	p00,p11,r0,r33; Invalid; cmp.lt	p00,p00,r32,r0 }
	{ invala; cmp.eq	p00,p00,r32,r0; (p32) mov	pr,r67,0xE694; }
	{ (p02) cmp.lt	p00,p11,r0,r33; (p17) cmp.lt.unc	p00,p16,r9,r64; Invalid }
	{ nop.m	0x80; cmp.lt	p00,p00,r32,r0; (p01) break.i	0x141C0 }
	{ invala; cmp.eq	p00,p00,r32,r0; (p32) mov	pr,r67,0xE694 }
	{ (p29) invala; cmp.eq	p00,p00,r32,r0; zxt1	r64,r64 }
	{ (p61) cmp.lt	p00,p17,r64,r33; zxt1	r64,r64; zxt1	r0,r64 }
	{ (p26) nop; cmp.lt	p00,p16,r13,r64; czx1.r	r0,r65 }
	{ cmp.eq	p00,p25,r1,r0; zxt1	r0,r64; (p07) mov	pr,r8,0x8440 }
	{ (p22) cmp.lt	p01,p11,r64,r33; zxt4	r49,r18; break.b	0x1000 }
	{ cmp.eq	p00,p17,r1,r0; czx1.r	r3,r1; mov	pr,r32,0x0 }
	{ Invalid; cmp.lt	p00,p00,r32,r0; Invalid }
	{ Invalid; Invalid; Invalid }
	{ cmp4.eq.and	p00,p49,r1,r0; Invalid; break.i	0x1000 }
	{ (p42) nop; nop; nop }
	{ nop; nop }
	{ Invalid; cmp.lt	p00,p00,r32,r0; (p06) epc }
	{ nop; invala; break.i	0x1000 }
	{ Invalid; (p01) cmp.eq.unc	p32,p16,r8,r64; (p31) nop.i	0xDFE0D }
	{ (p25) invala; break.i	0x1000; Invalid }
	{ cmp.lt	p00,p09,r33,r0; Invalid; break.i	0x1000 }

l4000000000121020:
	{ and	r14,0xFE,r33; nop.m	0x0; tnat.z	p16,p17,r33; }
	{ nop.m	0x0; adds	r55,0x0,r14; (p16) br.cond.dptk.few	4000000000121060 }

l4000000000121040:
	{ ld1	r15,[r42]; nop.m	0x0; sxt1	r15,r15; }
	{ nop.m	0x0; cmp4.eq	p07,p06,0x2A,r15; (p07) br.cond.dpnt.few	40000000001217F0 }

l4000000000121060:
	{ adds	r14,0xFFFFFFFFFFFFFFFF,r34; adds	r54,0x0,r42; addp4	r14,r14,r0; }
	{ add	r14,r42,r14; ld1	r15,[r14]; nop.i	0x0; }
	{ nop.m	0x0; sxt1	r15,r15; cmp4.eq	p07,p06,0x2F,r15; }
	{ (p07) st1	[r0],r14; nop.i	0x0; br.call.sptk.many	b0,glob_filename; }

l4000000000121096:
	{ break.m	0x4000; (p32) nop; break.i	0x80000 }

l40000000001210A2:
	{ invala; mov	pr,0xA04200D; Invalid }
	{ Invalid; (p16) add	r107,r97,r124,0x1; (p12) nop }
	{ (p24) cmp4.gt.and	p00,p48,r0,r18; (p13) chk.s.i	r126,400000000092B0B2; brp.dptk	4000000000121762; }
	{ Invalid; (p16) add	r10,r64,r80,0x1; Invalid }
	{ nop; (p21) chk.s.i	r3,3FFFFFFFFFD29162; nop }
	{ nop; (p32) nop; }
	{ (p21) break.m	0x700CA; mov	pr,r0,0xFFFFFFFFFFFF8040; Invalid }
	{ (p49) break.m	0x401CA; nop; (p20) cover; }
	{ chk.a.clr	r32,3FFFFFFFFFD21122; (p16) break.i	0x2030A; Invalid }
	{ Invalid; (p48) cmp.eq.unc	p13,p01,r65,r124; Invalid }
	{ break.m	0x20; nop; Invalid }
	{ (p32) break.m	0x20009; mov	pr,r0,0x40; Invalid }
	{ ld4.sa	r32,[r0]; (p37) cmp.lt.unc	p03,p01,r97,r124; (p07) nop }
	{ (p48) break.m	0x4200A; break.i	0x20; Invalid; }
	{ (p48) break.m	0x2000D; mov	pr,r0,0x40; Invalid }
	{ Invalid; (p32) add	r67,r97,r92,0x1; Invalid }
	{ (p32) break.m	0x20009; mov	pr,r0,0x40; (p32) nop }
	{ (p32) break.m	0x730E3; Invalid; (p27) nop }
	{ (p37) chk.a.clr	r72,3FFFFFFFFFD991F2; (p48) break.f	0x2030D; Invalid; }
	{ (p32) chk.a.nc	f9,3FFFFFFFFF1295D2; Invalid; (p17) nop; }
	{ break.m	0x720E2; zxt1	r32,r0; nop }
	{ break.m	0x42002; deposit	r32,r0,r64,63,1; (p07) nop; }
	{ (p05) break.m	0x700E2; cmp.lt	p32,p01,r0,r64; (p03) clrrrb }
	{ Invalid; (p33) nop; Invalid }
	{ (p32) break.m	0x20009; mov	pr,r0,0x40; Invalid }
	{ ld4.sa	r32,[r0]; (p37) nop; (p05) nop }
	{ break.m	0x2030A; Invalid; (p16) cmp.lt	p09,p06,r64,r48; }
	{ (p16) break.m	0x42008; Invalid; (p53) nop; }
	{ break.m	0x42002; zxt1	r32,r0; Invalid; }
	{ Invalid; (p32) break.i	0x20308; nop }
	{ Invalid; nop; Invalid }
	{ break.m	0x20; break.i	0x20; Invalid }
	{ (p32) cmp4.eq.and	p03,p48,r64,r16; nop }
	{ Invalid; (p48) break.f	0x20303; clrrrb }
	{ Invalid; (p48) cmp.lt.unc	p03,p01,r65,r92; Invalid }
	{ (p01) chk.a.clr	r9,3FFFFFFFFF9292D2; (p48) cmp.eq.and	p08,p48,0xFFFFFFFFFFFFFFC0,r16; Invalid }
	{ (p06) break.m	0x40240; nop; (p53) cover; }
	{ break.m	0x4200D; chk.s.i	r0,40000000009214F2; nop }
	{ break.m	0x42002; deposit	r32,r0,r64,63,1; Invalid; }
	{ (p32) break.m	0x20308; mov	pr,r0,0x40; Invalid }
	{ Invalid; (p48) cmp.eq.unc	p35,p01,r65,r92; Invalid }
	{ break.m	0x20; break.i	0x20; Invalid }
	{ (p47) break.m	0x467E3; nop; Invalid }
	{ (p02) cmp.lt	p00,p00,0x2,r16; (p50) nop }
	{ (p02) cmp.eq	p00,p00,r2,r16; (p17) mov	pr,r102,0x8008; Invalid }
	{ Invalid; (p48) break.i	0x20303; Invalid }
	{ Invalid; (p48) add	r67,r65,r92,0x1; Invalid }
	{ (p47) nop; (p36) frsqrta	f104,p28,f28; Invalid }
	{ (p32) cmp4.eq.or.andcm	p08,p48,r64,r16; (p01) chk.s.i	r2,3FFFFFFFFF1893A2; Invalid; }
	{ (p49) break.m	0x40248; (p48) break.f	0x23303; clrrrb.pr }
	{ cmpxchg1.acq	r0,[r68],r0; tbit.z	p00,p00,r8,0x18; Invalid }
	{ break.m	0x4200D; break.i	0x20; nop }
	{ (p48) cmp4.gt.or.andcm	p09,p00,r0,r16; nop; }
	{ (p21) chk.a.clr	r74,3FFFFFFFFFD29432; break.i	0x2030A; Invalid; }
	{ Invalid; (p48) add	r77,r65,r92,0x1; (p58) nop }
	{ (p16) break.m	0x2030A; Invalid; Invalid; }
	{ Invalid; (p32) cmp.lt.unc	p45,p01,r65,r92; Invalid }
	{ break.m	0x20; break.i	0x20; nop }
	{ (p32) break.m	0x42008; (p39) nop; }
	{ (p04) invala; cmp4.eq.and	p13,p32,r64,r16; Invalid }
	{ chk.a.clr	r32,3FFFFFFFFF921462; (p32) break.i	0x20303; Invalid }
	{ Invalid; (p32) nop; (p63) nop }
	{ (p16) break.m	0x4200A; cmp.ltu	p32,p00,r0,r0; (p38) deposit	r124,r14,r43,63,2; }
	{ (p48) invala; nop; (p06) break.i	0x85BFC }
	{ ldfe	f32,[r0]; (p06) break.i	0x550; Invalid }
	{ ld1	r32,[r0]; (p22) nop; Invalid }
	{ (p32) break.m	0x2000B; mov	pr,r0,0x40; Invalid }
	{ ld4.sa	r32,[r0]; (p37) cmp.eq.unc	p03,p01,r97,r92; Invalid }
	{ break.m	0x2000C; mov	pr,r0,0x40; Invalid }
	{ Invalid; (p32) nop; (p58) nop }
	{ break.m	0x42002; break.i	0x20; Invalid; }
	{ Invalid; (p32) break.i	0x20308; nop }
	{ Invalid; nop.i	0xC2000; Invalid }
	{ break.m	0x20; deposit	r32,r0,r0,63,0; Invalid }
	{ (p32) break.m	0x2000B; mov	pr,r0,0x40; Invalid }
	{ ld4.sa	r32,[r0]; (p37) deposit	r67,r97,r92,63,1; (p56) nop }
	{ break.m	0x2000C; Invalid; (p32) nop; }
	{ Invalid; (p48) break.i	0x4200A; Invalid }
	{ Invalid; (p16) break.i	0x4200C; (p56) nop }
	{ (p48) break.m	0x20308; Invalid; Invalid; }
	{ Invalid; (p32) cmp.lt.unc	p13,p01,r65,r124; Invalid }
	{ break.m	0x20; break.i	0x20; nop }
	{ (p32) break.m	0x42008; (p36) nop; }
	{ (p04) invala; cmp4.eq.and	p13,p32,r64,r16; Invalid }
	{ chk.a.clr	r32,3FFFFFFFFF9215E2; (p32) break.i	0x20303; Invalid }
	{ Invalid; (p32) nop; Invalid }

l4000000000121600:
	{ nop.m	0x0; adds	r54,0x0,r35; br.call.sptk.many	b0,400000000001A7E0; }
	{ adds	r1,0x0,r52; nop.m	0x0; nop.i	0x0 }
	{ cmp.eq	p07,p06,0x0,r42; (p06) addl	r14,1,r0; nop.i	0x0; }

l400000000012162C:
	{ cmp4.eq.and	p00,p43,r1,r0; (p01) nop; (p21) cmp.lt.unc	p11,p16,r3,r3 }

l4000000000121638:
	{ (p01) nop; (p48) nop; (p52) break.b	0x1CC3A; }

l400000000012163E:
	{ (p07) ldfe	f50,[r24],r4; (p29) break.f	0x398; (p04) chk.s.i	r56,400000000072163E }

l4000000000121644:
	{ Invalid; Invalid; Invalid }
	{ Invalid; (p05) break.i	0x100002; break.i	0x80; }
	{ nop; (p12) break.i	0xF003F; (p06) mov	pr,0x83805A; }
	{ (p33) break.m	0x100004; break.f	0x100000; break.b	0x48 }
	{ Invalid; (p05) break.i	0x100002; break.i	0x88; }
	{ nop; (p12) break.i	0x8003F; (p06) break.i	0x8C04A; }

l40000000001216A0:
	{ adds	r35,0x0,r0; nop.m	0x0; mov	pr,r53,0xFFFFFFFFFFFFFFFE; }
	{ adds	r8,0x0,r35; nop.m	0x0; mov.i	ar.pfs,r51; }
	{ nop.m	0x0; mov.spnt	b0,r50,40000000001216C0; br.ret	b0 }
40000000001216D0 09 00 00 00 01 00 70 E3 F6 9F 4F 00 00 00 04 00 ......p...O.....
40000000001216E0 10 B8 01 6E 18 10 00 00 00 02 00 00 60 F8 FF 48 ...n........`..H
40000000001216F0 11 B0 01 54 00 21 A0 02 00 00 42 00 F8 90 EF 58 ...T.!....B....X
4000000000121700 10 00 00 00 01 00 10 00 D0 00 42 00 C0 F9 FF 48 ..........B....H
4000000000121710 11 18 01 00 00 21 00 00 00 02 00 00 F8 2D F9 58 .....!.......-.X
4000000000121720 09 40 00 46 00 21 10 00 D0 00 42 E0 5F 83 7F 0B .@.F.!....B._...
4000000000121730 01 00 00 00 01 00 00 98 01 55 00 00 00 00 04 00 .........U......
4000000000121740 11 00 00 00 01 00 00 90 05 80 03 80 08 00 84 00 ................
4000000000121750 11 B0 01 1C B0 10 00 00 00 02 00 00 38 35 F9 58 ............85.X
4000000000121760 0B 08 00 68 00 21 E0 20 04 78 48 00 00 00 04 00 ...h.!. .xH.....
4000000000121770 0B 00 00 00 01 00 E0 00 38 60 21 00 00 00 04 00 ........8`!.....
4000000000121780 10 00 00 00 01 00 60 00 38 0E 73 03 20 FF FF 4A ......`.8.s. ..J
4000000000121790 10 00 00 00 01 00 00 00 00 02 00 00 80 FF FF 48 ...............H
40000000001217A0 11 B0 01 54 00 21 00 00 00 02 00 00 48 90 EF 58 ...T.!......H..X
40000000001217B0 0B 08 00 68 00 21 E0 E0 07 76 48 00 00 00 04 00 ...h.!...vH.....
40000000001217C0 0B 00 00 00 01 00 F0 00 38 60 21 00 00 00 04 00 ........8`!.....
40000000001217D0 10 00 00 00 01 00 60 00 3C 0E 73 03 A0 FE FF 4A ......`.<.s....J
40000000001217E0 10 00 00 00 01 00 00 00 00 02 00 00 70 FF FF 48 ............p..H

l40000000001217F0:
	{ adds	r15,0x1,r42; ld1	r15,[r15]; nop.i	0x0; }
	{ nop.m	0x0; sxt1	r15,r15; nop.i	0x0; }
	{ nop.m	0x0; cmp4.eq	p07,p06,0x2A,r15; (p06) br.cond.dptk.few	4000000000121060 }

l4000000000121820:
	{ adds	r15,0x2,r42; nop.m	0x0; adds	r54,0x0,r42; }
	{ ld1	r15,[r15]; nop.m	0x0; sxt1	r15,r15; }
	{ cmp4.eq	p06,p07,0x2F,r15; cmp4.eq.or.andcm	p06,p07,0x0,r15; nop.i	0x0; }
	{ (p06) addl	r55,528,r0; (p06) or	r55,r55,r14; adds	r14,0xFFFFFFFFFFFFFFFF,r34; }

l4000000000121856:
	{ Invalid; (p07) nop; (p32) nop; }
	{ Invalid; nop; break.i	0x80000 }
	{ (p07) fwb; Invalid; break.b	0x80000 }
	{ (p07) add	r0,r15,r20; (p03) cmp4.eq.or.andcm	p47,p51,r15,r6; (p01) br.call.spnt.few	b0,b0 }
	{ break.m	0x4000; (p32) nop; break.i	0x80000 }
	{ Invalid; (p20) nop; break.b	0x80000 }
	{ (p03) chk.a.clr	r0,3FFFFFFFFFDE5386; nop; break.i	0x80000 }
	{ break.m	0x4000; nop; (p32) nop }

l40000000001218D0:
	{ addl	r42,-6188,r1; adds	r38,0x0,r32; adds	r45,0x0,r0 }
	{ adds	r34,0x0,r0; ld8	r42,[r42]; nop.i	0x0; }
	{ adds	r54,0x0,r42; nop.i	0x0; br.call.sptk.many	b0,glob_pattern_p; }
	{ adds	r1,0x0,r52; cmp4.eq	p06,p07,0x0,r8; (p06) br.cond.dptk.few	4000000000120E80 }

l4000000000121910:
	{ nop.m	0x0; nop.i	0x0; br.cond.sptk.few	4000000000121020 }

l4000000000121920:
	{ adds	r34,0x1,r34; nop.m	0x0; adds	r54,0x0,r35 }
	{ addl	r55,16,r0; nop.m	0x0; br.call.sptk.many	b0,400000000001AD60; }
	{ cmp.eq	p06,p07,0x0,r8; addp4	r34,r34,r0; nop.i	0x0 }
	{ adds	r35,0x0,r8; adds	r1,0x0,r52; (p06) br.cond.dpnt.few	40000000001216A0; }

l4000000000121960:
	{ adds	r54,0x0,r34; nop.i	0x0; br.call.sptk.many	b0,400000000001B340; }
	{ cmp.eq	p06,p07,0x0,r8; adds	r1,0x0,r52; adds	r54,0x0,r8 }
	{ st8	[r8],r35; adds	r55,0x0,r42; (p06) br.cond.dpnt.few	4000000000121600; }

l4000000000121990:
	{ adds	r56,0x0,r34; nop.i	0x0; br.call.sptk.many	b0,400000000001A8A0; }
	{ adds	r14,0x8,r35; nop.m	0x0; adds	r1,0x0,r52 }
	{ cmp4.eq	p06,p07,0x0,r45; nop.m	0x0; (p07) br.cond.dpnt.few	4000000000121A90; }

l40000000001219C0:
	{ st8	[r0],r14; nop.m	0x0; nop.i	0x0 }

l40000000001219D0:
	{ adds	r8,0x0,r35; mov	pr,r53,0xFFFFFFFFFFFFFFFE; mov.i	ar.pfs,r51; }
	{ nop.m	0x0; mov.spnt	b0,r50,40000000001219E0; br.ret	b0; }
40000000001219F0 11 B0 01 54 00 21 40 F2 87 58 44 00 D8 DB FF 58 ...T.!@..XD....X
4000000000121A00 11 08 00 68 00 21 60 03 8C 00 42 00 E8 8D EF 58 ...h.!`...B....X
4000000000121A10 10 08 00 68 00 21 60 A0 84 0E 28 03 20 F5 FF 4A ...h.!`...(. ..J
4000000000121A20 11 00 00 00 01 00 00 00 00 02 00 00 C0 F4 FF 48 ...............H
4000000000121A30 09 00 00 00 01 00 60 00 B4 0E 73 00 00 00 04 00 ......`...s.....
4000000000121A40 11 00 00 00 01 80 31 02 20 00 42 03 C0 F5 FF 4A ......1. .B....J
4000000000121A50 11 18 01 10 00 21 60 03 A8 00 42 00 98 8D EF 58 .....!`...B....X
4000000000121A60 09 40 00 46 00 21 10 00 D0 00 42 E0 5F 83 7F 0B .@.F.!....B._...
4000000000121A70 01 00 00 00 01 00 00 98 01 55 00 00 00 00 04 00 .........U......
4000000000121A80 11 00 00 00 01 00 00 90 05 80 03 80 08 00 84 00 ................

l4000000000121A90:
	{ adds	r54,0x0,r42; nop.i	0x0; br.call.sptk.many	b0,400000000001A7E0; }
	{ adds	r14,0x8,r35; nop.m	0x0; adds	r1,0x0,r52; }
	{ st8	[r0],r14; nop.i	0x0; br.cond.sptk.few	40000000001219D0 }
4000000000121AC0 0B 70 08 4C 00 21 E0 00 38 00 20 00 00 00 04 00 .p.L.!..8. .....
4000000000121AD0 01 00 00 00 01 00 E0 00 38 28 00 00 00 00 04 00 ........8(......
4000000000121AE0 11 00 00 00 01 00 70 00 38 0C 73 03 50 F4 FF 4A ......p.8.s.P..J
4000000000121AF0 09 78 40 00 04 24 00 00 00 02 00 E0 00 10 19 E6 .x@..$..........
4000000000121B00 11 00 00 00 01 00 F0 78 90 1C 40 03 00 01 00 42 .......x..@....B
4000000000121B10 08 70 00 1E 00 21 00 00 00 02 00 00 00 00 04 00 .p...!..........
4000000000121B20 01 00 00 00 01 00 70 40 84 0C 28 E0 C6 ED 3F 9F ......p@..(...?.
4000000000121B30 E9 70 FC F9 FB 27 70 03 DC 30 20 00 00 00 04 00 .p...'p..0 .....
4000000000121B40 EB 70 38 48 0C E0 E1 80 38 5C 40 00 00 00 04 00 .p8H....8\@.....
4000000000121B50 10 00 00 00 01 00 40 02 38 00 42 00 F0 F3 FF 48 ......@.8.B....H
4000000000121B60 11 B0 01 46 00 21 30 02 A4 00 42 00 88 8C EF 58 ...F.!0...B....X
4000000000121B70 09 40 00 46 00 21 10 00 D0 00 42 E0 5F 83 7F 0B .@.F.!....B._...
4000000000121B80 01 00 00 00 01 00 00 98 01 55 00 00 00 00 04 00 .........U......
4000000000121B90 11 00 00 00 01 00 00 90 05 80 03 80 08 00 84 00 ................
4000000000121BA0 11 B0 01 52 00 21 00 00 00 02 00 00 48 8C EF 58 ...R.!......H..X
4000000000121BB0 08 08 00 68 00 21 00 00 00 02 00 C0 06 18 01 84 ...h.!..........
4000000000121BC0 19 18 01 58 00 21 00 00 00 02 00 00 28 8C EF 58 ...X.!......(..X
4000000000121BD0 09 40 00 46 00 21 10 00 D0 00 42 E0 5F 83 7F 0B .@.F.!....B._...
4000000000121BE0 01 00 00 00 01 00 00 98 01 55 00 00 00 00 04 00 .........U......
4000000000121BF0 10 00 00 00 01 00 00 90 05 80 03 80 08 00 84 00 ................
4000000000121C00 11 20 01 1E 00 21 70 03 A8 00 42 00 40 F3 FF 48 . ...!p...B.@..H
4000000000121C10 00 30 00 00 01 00 70 00 00 02 00 00 01 00 04 00 .0....p.........
4000000000121C20 00 30 00 00 01 00 70 00 00 02 00 00 01 00 04 00 .0....p.........
4000000000121C30 00 30 00 00 01 00 70 00 00 02 00 00 01 00 04 00 .0....p.........

;; strmatch: 4000000000121C40
strmatch proc
	{ alloc	r36,ar.pfs,0x9,0x0,0x6; nop.m	0x0; mov	r35,b3 }
	{ cmp.eq	p06,p07,0x0,r32; nop.m	0x0; adds	r37,0x0,r1; }
	{ addl	r8,1,r0; cmp.eq.or.andcm	p06,p07,0x0,r33; mov.i	ar.pfs,r36 }
	{ nop.m	0x0; nop.m	0x0; (p07) br.cond.dpnt.few	4000000000121C90; }

l4000000000121C80:
	{ nop.m	0x0; mov.spnt	b0,r35,4000000000121C80; br.ret	b0; }

l4000000000121C90:
	{ adds	r38,0x0,r32; nop.m	0x0; adds	r39,0x0,r33 }
	{ adds	r40,0x0,r34; nop.m	0x0; br.call.sptk.many	b0,xstrmatch; }
	{ adds	r1,0x0,r37; nop.m	0x0; mov.i	ar.pfs,r36; }
	{ nop.m	0x0; mov.spnt	b0,r35,4000000000121CC0; br.ret	b0; }
4000000000121CD0 08 00 00 00 01 00 00 00 00 02 00 00 00 00 04 00 ................
4000000000121CE0 08 00 00 00 01 00 00 00 00 02 00 00 00 00 04 00 ................
4000000000121CF0 08 00 00 00 01 00 00 00 00 02 00 00 00 00 04 00 ................

;; wcsmatch: 4000000000121D00
wcsmatch proc
	{ alloc	r36,ar.pfs,0x9,0x0,0x6; nop.m	0x0; mov	r35,b3 }
	{ cmp.eq	p06,p07,0x0,r32; nop.m	0x0; adds	r37,0x0,r1; }
	{ addl	r8,1,r0; cmp.eq.or.andcm	p06,p07,0x0,r33; mov.i	ar.pfs,r36 }
	{ nop.m	0x0; nop.m	0x0; (p07) br.cond.dpnt.few	4000000000121D50; }

l4000000000121D40:
	{ nop.m	0x0; mov.spnt	b0,r35,4000000000121D40; br.ret	b0; }

l4000000000121D50:
	{ adds	r38,0x0,r32; nop.m	0x0; adds	r39,0x0,r33 }
	{ adds	r40,0x0,r34; nop.m	0x0; br.call.sptk.many	b0,internal_wstrmatch; }
	{ adds	r1,0x0,r37; nop.m	0x0; mov.i	ar.pfs,r36; }
	{ nop.m	0x0; mov.spnt	b0,r35,4000000000121D80; br.ret	b0; }
4000000000121D90 00 30 00 00 01 00 70 00 00 02 00 00 01 00 04 00 .0....p.........
4000000000121DA0 00 30 00 00 01 00 70 00 00 02 00 00 01 00 04 00 .0....p.........
4000000000121DB0 00 30 00 00 01 00 70 00 00 02 00 00 01 00 04 00 .0....p.........
4000000000121DC0 08 70 00 40 00 10 F0 00 00 00 42 40 02 00 00 84 .p.@......B@....
4000000000121DD0 09 98 00 00 00 21 90 00 85 10 68 00 01 00 01 84 .....!....h.....
4000000000121DE0 08 30 00 1C 87 39 00 01 00 00 42 00 00 00 04 00 .0...9....B.....
4000000000121DF0 19 88 00 00 00 21 A0 E0 8B 16 73 03 80 00 00 43 .....!....s....C
4000000000121E00 11 00 00 00 01 00 00 00 00 02 00 04 60 03 00 43 ............`..C
4000000000121E10 11 00 00 00 01 00 70 00 3C 0C 73 03 00 01 00 42 ......p.<.s....B
4000000000121E20 11 30 6C 1D 87 39 00 00 00 02 00 03 10 02 00 43 .0l..9.........C
4000000000121E30 11 00 00 00 01 00 60 D8 3A 0E 6B 03 50 00 00 42 ......`.:.k.P..B
4000000000121E40 11 30 A0 1C 87 39 00 00 00 02 00 03 90 02 00 43 .0...9.........C
4000000000121E50 11 30 A4 1C 87 39 00 00 00 02 00 03 30 02 00 43 .0...9......0..C
4000000000121E60 10 00 00 00 01 00 60 00 38 0E F3 03 50 00 00 42 ......`.8...P..B
4000000000121E70 11 00 00 00 01 00 80 00 00 00 42 80 08 00 84 00 ..........B.....
4000000000121E80 11 30 74 1D 87 39 00 00 00 02 00 03 20 01 00 43 .0t..9...... ..C
4000000000121E90 11 00 00 00 01 00 70 E0 3A 0C 6B 03 F0 00 00 42 ......p.:.k....B
4000000000121EA0 10 00 00 00 01 00 60 E0 3B 0E 73 03 90 00 00 43 ......`.;.s....C
4000000000121EB0 09 00 00 00 01 00 80 08 20 00 42 00 00 00 04 00 ........ .B.....
4000000000121EC0 09 70 00 10 00 10 00 00 00 02 00 00 00 00 04 00 .p..............
4000000000121ED0 08 00 00 00 01 00 00 00 00 02 00 00 00 00 04 00 ................
4000000000121EE0 11 38 00 1C 86 39 00 00 00 02 80 03 90 FF FF 4B .8...9.........K
4000000000121EF0 11 38 20 42 06 34 00 00 00 02 00 83 08 00 84 03 .8 B.4..........
4000000000121F00 10 00 00 00 01 00 70 00 3C 0C F3 03 20 FF FF 4A ......p.<... ..J
4000000000121F10 09 40 04 10 00 21 00 00 00 02 00 E0 01 00 00 84 .@...!..........
4000000000121F20 11 70 00 10 00 10 00 00 00 02 00 00 C0 FF FF 48 .p.............H
4000000000121F30 09 00 00 00 01 00 E0 80 44 1C 40 00 00 00 04 00 ........D.@.....
4000000000121F40 10 00 00 00 01 00 60 00 38 0E F3 03 70 FF FF 4A ......`.8...p..J
4000000000121F50 08 40 04 10 00 21 00 00 00 02 00 00 02 00 00 84 .@...!..........
4000000000121F60 19 88 00 00 00 21 00 00 00 02 00 05 10 02 00 43 .....!.........C
4000000000121F70 10 70 00 10 00 10 00 00 00 02 00 00 70 FF FF 48 .p..........p..H
4000000000121F80 09 40 04 10 00 21 00 00 00 02 00 E0 11 00 00 90 .@...!..........
4000000000121F90 10 70 00 10 00 10 00 00 00 02 00 00 50 FF FF 48 .p..........P..H
4000000000121FA0 11 00 00 00 01 00 70 00 40 0C F3 03 10 FF FF 4A ......p.@......J
4000000000121FB0 10 00 00 00 01 00 60 00 4C 0E 73 03 40 00 00 42 ......`.L.s.@..B
4000000000121FC0 0B 70 FC 11 3F 23 E0 00 38 00 20 00 00 00 04 00 .p..?#..8. .....
4000000000121FD0 0B 38 38 26 86 F8 81 08 20 00 C2 63 02 00 00 84 .88&.... ..c....
4000000000121FE0 F0 70 00 10 00 10 00 00 00 02 80 03 00 FF FF 4B .p.............K
4000000000121FF0 02 38 48 10 06 38 00 00 00 02 80 83 12 40 00 84 .8H..8.......@..
4000000000122000 C9 40 04 10 00 A1 01 F9 43 7E 46 43 02 00 00 84 .@......C~FC....
4000000000122010 E9 90 00 10 00 E1 E1 00 50 00 A0 03 01 A0 00 84 ........P.......
4000000000122020 D0 70 00 10 00 10 00 00 00 02 00 00 C0 FE FF 48 .p.............H
4000000000122030 10 00 00 00 01 00 70 00 40 0C 73 03 D0 00 00 42 ......p.@.s....B
4000000000122040 0B 80 04 10 00 21 E0 00 40 00 20 00 00 00 04 00 .....!..@. .....
4000000000122050 09 00 00 00 01 00 70 F0 3A 0C 73 00 00 00 04 00 ......p.:.s.....
4000000000122060 0B 38 84 1C C6 F9 21 11 20 00 42 00 01 80 00 84 .8....!. .B.....
4000000000122070 D1 90 00 20 00 21 00 09 00 00 48 00 70 FE FF 48 ... .!....H.p..H
4000000000122080 11 00 00 00 01 00 60 00 40 0E F3 03 30 FE FF 4A ......`.@...0..J
4000000000122090 08 40 04 10 00 21 00 00 00 02 00 C0 F1 8F FC 8C .@...!..........
40000000001220A0 19 38 00 22 86 31 00 00 00 02 00 03 E0 00 00 43 .8.".1.........C
40000000001220B0 08 00 00 00 01 00 10 01 38 00 42 00 00 00 04 00 ........8.B.....
40000000001220C0 18 70 00 10 00 10 00 00 00 02 00 00 20 FE FF 48 .p.......... ..H
40000000001220D0 02 30 00 20 87 39 80 08 20 00 42 23 12 88 00 84 .0. .9.. .B#....
40000000001220E0 19 00 00 00 01 80 E1 00 20 00 20 03 00 FE FF 4A ........ . ....J
40000000001220F0 10 70 00 10 00 10 00 00 00 02 00 00 F0 FD FF 48 .p.............H
4000000000122100 0B 40 04 10 00 21 E0 00 20 00 20 00 00 00 04 00 .@...!.. . .....
4000000000122110 09 00 00 00 01 00 60 D0 39 0E 73 00 00 00 04 00 ......`.9.s.....
4000000000122120 10 00 00 00 01 00 60 70 39 8E F3 03 20 00 00 42 ......`p9... ..B
4000000000122130 11 00 00 00 01 00 30 01 38 00 42 00 B0 FD FF 48 ......0.8.B....H
4000000000122140 10 00 00 00 01 00 60 E8 39 0E F3 03 A0 FD FF 4A ......`.9......J
4000000000122150 10 00 00 00 01 00 30 01 38 00 42 00 90 FD FF 48 ......0.8.B....H
4000000000122160 11 00 00 00 01 00 80 00 80 00 42 80 08 00 84 00 ..........B.....
4000000000122170 11 00 00 00 01 00 00 00 00 02 00 80 08 00 84 00 ................
4000000000122180 11 00 00 00 01 00 00 00 00 02 00 80 08 00 84 00 ................
4000000000122190 08 00 00 00 01 00 00 00 00 02 00 00 00 00 04 00 ................
40000000001221A0 08 00 00 00 01 00 00 00 00 02 00 00 00 00 04 00 ................
40000000001221B0 08 00 00 00 01 00 00 00 00 02 00 00 00 00 04 00 ................
40000000001221C0 08 70 00 40 10 10 F0 00 00 00 42 40 02 00 00 84 .p.@......B@....
40000000001221D0 09 98 00 00 00 21 90 00 85 10 68 00 01 00 01 84 .....!....h.....
40000000001221E0 08 30 00 1C 87 39 00 01 00 00 42 00 00 00 04 00 .0...9....B.....
40000000001221F0 19 88 00 00 00 21 A0 E0 8B 16 73 03 80 00 00 43 .....!....s....C
4000000000122200 11 00 00 00 01 00 00 00 00 02 00 04 60 03 00 43 ............`..C
4000000000122210 11 00 00 00 01 00 70 00 3C 0C 73 03 00 01 00 42 ......p.<.s....B
4000000000122220 11 30 6C 1D 87 39 00 00 00 02 00 03 10 02 00 43 .0l..9.........C
4000000000122230 11 00 00 00 01 00 60 D8 3A 0E 63 03 50 00 00 42 ......`.:.c.P..B
4000000000122240 11 30 A0 1C 87 39 00 00 00 02 00 03 90 02 00 43 .0...9.........C
4000000000122250 11 30 A4 1C 87 39 00 00 00 02 00 03 30 02 00 43 .0...9......0..C
4000000000122260 10 00 00 00 01 00 60 00 38 0E F3 03 50 00 00 42 ......`.8...P..B
4000000000122270 11 00 00 00 01 00 80 00 00 00 42 80 08 00 84 00 ..........B.....
4000000000122280 11 30 74 1D 87 39 00 00 00 02 00 03 20 01 00 43 .0t..9...... ..C
4000000000122290 11 00 00 00 01 00 70 E0 3A 0C 63 03 F0 00 00 42 ......p.:.c....B
40000000001222A0 10 00 00 00 01 00 60 E0 3B 0E 73 03 90 00 00 43 ......`.;.s....C
40000000001222B0 09 00 00 00 01 00 80 20 20 00 42 00 00 00 04 00 .......  .B.....
40000000001222C0 09 70 00 10 10 10 00 00 00 02 00 00 00 00 04 00 .p..............
40000000001222D0 08 00 00 00 01 00 00 00 00 02 00 00 00 00 04 00 ................
40000000001222E0 11 38 00 1C 86 39 00 00 00 02 80 03 90 FF FF 4B .8...9.........K
40000000001222F0 11 38 20 42 06 34 00 00 00 02 00 83 08 00 84 03 .8 B.4..........
4000000000122300 10 00 00 00 01 00 70 00 3C 0C F3 03 20 FF FF 4A ......p.<... ..J
4000000000122310 09 40 10 10 00 21 00 00 00 02 00 E0 01 00 00 84 .@...!..........
4000000000122320 11 70 00 10 10 10 00 00 00 02 00 00 C0 FF FF 48 .p.............H
4000000000122330 09 00 00 00 01 00 E0 80 44 1C 40 00 00 00 04 00 ........D.@.....
4000000000122340 10 00 00 00 01 00 60 00 38 0E F3 03 70 FF FF 4A ......`.8...p..J
4000000000122350 08 40 10 10 00 21 00 00 00 02 00 00 02 00 00 84 .@...!..........
4000000000122360 19 88 00 00 00 21 00 00 00 02 00 05 10 02 00 43 .....!.........C
4000000000122370 10 70 00 10 10 10 00 00 00 02 00 00 70 FF FF 48 .p..........p..H
4000000000122380 09 40 10 10 00 21 00 00 00 02 00 E0 11 00 00 90 .@...!..........
4000000000122390 10 70 00 10 10 10 00 00 00 02 00 00 50 FF FF 48 .p..........P..H
40000000001223A0 11 00 00 00 01 00 70 00 40 0C F3 03 10 FF FF 4A ......p.@......J
40000000001223B0 10 00 00 00 01 00 60 00 4C 0E 73 03 40 00 00 42 ......`.L.s.@..B
40000000001223C0 0B 70 F0 11 3F 23 E0 00 38 20 20 00 00 00 04 00 .p..?#..8  .....
40000000001223D0 0B 38 4C 1C 86 F8 81 20 20 00 C2 63 02 00 00 84 .8L....  ..c....
40000000001223E0 F0 70 00 10 10 10 00 00 00 02 80 03 00 FF FF 4B .p.............K
40000000001223F0 02 38 48 10 06 38 00 00 00 02 80 83 42 40 00 84 .8H..8......B@..
4000000000122400 C9 40 10 10 00 A1 01 F9 43 7E 46 43 02 00 00 84 .@......C~FC....
4000000000122410 E9 90 00 10 00 E1 E1 00 50 20 A0 03 01 A0 00 84 ........P ......
4000000000122420 D0 70 00 10 10 10 00 00 00 02 00 00 C0 FE FF 48 .p.............H
4000000000122430 10 00 00 00 01 00 70 00 40 0C 73 03 D0 00 00 42 ......p.@.s....B
4000000000122440 0B 80 10 10 00 21 E0 00 40 20 20 00 00 00 04 00 .....!..@  .....
4000000000122450 09 00 00 00 01 00 70 F0 3A 0C 73 00 00 00 04 00 ......p.:.s.....
4000000000122460 0B 38 84 1C C6 F9 21 41 20 00 42 00 01 80 00 84 .8....!A .B.....
4000000000122470 D1 90 00 20 00 21 00 09 00 00 48 00 70 FE FF 48 ... .!....H.p..H
4000000000122480 11 00 00 00 01 00 60 00 40 0E F3 03 30 FE FF 4A ......`.@...0..J
4000000000122490 08 40 10 10 00 21 00 00 00 02 00 C0 F1 8F FC 8C .@...!..........
40000000001224A0 19 38 00 22 86 31 00 00 00 02 00 03 E0 00 00 43 .8.".1.........C
40000000001224B0 08 00 00 00 01 00 10 01 38 00 42 00 00 00 04 00 ........8.B.....
40000000001224C0 18 70 00 10 10 10 00 00 00 02 00 00 20 FE FF 48 .p.......... ..H
40000000001224D0 02 30 00 20 87 39 80 20 20 00 42 23 12 88 00 84 .0. .9.  .B#....
40000000001224E0 19 00 00 00 01 80 E1 00 20 20 20 03 00 FE FF 4A ........   ....J
40000000001224F0 10 70 00 10 10 10 00 00 00 02 00 00 F0 FD FF 48 .p.............H
4000000000122500 0B 40 10 10 00 21 E0 00 20 20 20 00 00 00 04 00 .@...!..   .....
4000000000122510 09 00 00 00 01 00 60 D0 39 0E 73 00 00 00 04 00 ......`.9.s.....
4000000000122520 10 00 00 00 01 00 60 70 39 8E F3 03 20 00 00 42 ......`p9... ..B
4000000000122530 11 00 00 00 01 00 30 01 38 00 42 00 B0 FD FF 48 ......0.8.B....H
4000000000122540 10 00 00 00 01 00 60 E8 39 0E F3 03 A0 FD FF 4A ......`.9......J
4000000000122550 10 00 00 00 01 00 30 01 38 00 42 00 90 FD FF 48 ......0.8.B....H
4000000000122560 11 00 00 00 01 00 80 00 80 00 42 80 08 00 84 00 ..........B.....
4000000000122570 11 00 00 00 01 00 00 00 00 02 00 80 08 00 84 00 ................
4000000000122580 11 00 00 00 01 00 00 00 00 02 00 80 08 00 84 00 ................
4000000000122590 08 00 00 00 01 00 00 00 00 02 00 00 00 00 04 00 ................
40000000001225A0 08 00 00 00 01 00 00 00 00 02 00 00 00 00 04 00 ................
40000000001225B0 08 00 00 00 01 00 00 00 00 02 00 00 00 00 04 00 ................
40000000001225C0 08 58 41 1A 80 05 80 22 80 00 42 40 05 00 C4 00 .XA...."..B@....
40000000001225D0 09 60 01 02 00 21 00 00 00 02 00 00 84 00 01 84 .`...!..........
40000000001225E0 08 38 01 50 10 10 00 00 00 02 00 40 14 00 00 90 .8.P.......@....
40000000001225F0 09 30 01 00 00 21 00 00 00 02 00 00 02 00 00 84 .0...!..........
4000000000122600 11 30 00 4E 87 39 50 FA 8B 7E 46 03 80 02 00 43 .0.N.9P..~F....C
4000000000122610 09 00 00 00 01 C0 E1 00 9C 00 42 00 00 00 04 00 ..........B.....
4000000000122620 11 00 00 00 01 00 70 70 39 0C F3 03 80 00 00 43 ......pp9......C
4000000000122630 08 00 00 00 01 00 00 00 00 02 00 00 00 00 04 00 ................
4000000000122640 08 00 00 00 01 00 E0 20 80 20 28 E0 11 10 01 84 ....... . (.....
4000000000122650 09 28 01 44 00 21 60 12 01 22 40 00 02 10 01 84 .(.D.!`.."@.....
4000000000122660 11 38 00 1C 86 39 00 00 00 02 80 03 40 01 00 43 .8...9......@..C
4000000000122670 08 00 00 00 01 00 20 02 3C 00 42 E0 E0 72 18 E6 ...... .<.B..r..
4000000000122680 19 00 00 00 01 00 00 00 00 02 00 03 C0 FF FF 4A ...............J
4000000000122690 08 28 FD 45 3F 23 00 00 00 02 00 00 00 00 04 00 .(.E?#..........
40000000001226A0 0B 70 04 20 00 21 E0 70 A0 22 40 00 00 00 04 00 .p. .!.p."@.....
40000000001226B0 09 00 00 00 01 00 E0 00 38 20 20 00 00 00 04 00 ........8  .....
40000000001226C0 10 00 00 00 01 00 70 E8 3A 0C 73 03 80 FF FF 4A ......p.:.s....J
40000000001226D0 09 20 D1 FB 9F 27 90 12 40 00 42 40 04 80 00 84 . ...'..@.B@....
40000000001226E0 09 00 00 00 01 00 00 00 00 02 00 20 95 02 44 80 ........... ..D.
40000000001226F0 09 00 00 00 01 00 30 02 90 30 20 00 00 00 04 00 ......0..0 .....
4000000000122700 11 00 00 00 01 00 60 00 8C 0E 72 03 60 00 00 43 ......`...r.`..C
4000000000122710 08 00 00 00 01 00 00 00 00 02 00 00 00 00 04 00 ................
4000000000122720 09 00 00 00 01 00 E0 00 8C 20 20 00 00 00 04 00 .........  .....
4000000000122730 10 00 00 00 01 00 70 38 39 0C F1 03 C0 00 00 43 ......p89......C
4000000000122740 0B 20 41 48 00 21 30 02 90 30 20 00 00 00 04 00 . AH.!0..0 .....
4000000000122750 11 00 00 00 01 00 70 00 8C 0C 72 03 D0 FF FF 4A ......p...r....J
4000000000122760 09 38 04 4A 86 39 80 40 A5 00 40 00 B0 02 AA 00 .8.J.9.@..@.....
4000000000122770 E9 28 01 4E 00 21 00 00 00 02 00 00 A0 0A 00 07 .(.N.!..........
4000000000122780 C9 28 FD F9 FF 27 00 00 00 02 00 C0 00 08 1D E4 .(...'..........
4000000000122790 F0 00 94 42 90 11 00 00 00 02 00 80 08 00 84 00 ...B............
40000000001227A0 09 20 D1 FB 9F 27 00 00 00 02 00 20 25 10 01 84 . ...'..... %...
40000000001227B0 09 00 00 00 01 00 00 00 00 02 00 20 95 02 44 80 ........... ..D.
40000000001227C0 09 00 00 00 01 00 30 02 90 30 20 00 00 00 04 00 ......0..0 .....
40000000001227D0 10 00 00 00 01 00 60 00 8C 0E F2 03 50 FF FF 4A ......`.....P..J
40000000001227E0 10 00 00 00 01 00 00 00 00 02 00 00 80 FF FF 48 ...............H
40000000001227F0 08 68 01 46 00 21 E0 02 A0 00 42 00 00 00 04 00 .h.F.!....B.....
4000000000122800 19 78 01 44 00 21 30 1A 99 00 40 00 48 83 EF 58 .x.D.!0...@.H..X
4000000000122810 10 08 00 58 00 21 70 00 20 0C 73 03 30 FF FF 4A ...X.!p. .s.0..J
4000000000122820 09 00 00 00 01 00 E0 00 8C 20 20 00 00 00 04 00 .........  .....
4000000000122830 11 00 00 00 01 00 70 00 38 0C 73 03 10 FF FF 4A ......p.8.s....J
4000000000122840 18 20 21 48 00 21 60 00 84 0E 72 00 00 00 00 20 . !H.!`...r.... 
4000000000122850 09 40 A0 52 00 20 00 00 00 02 00 00 B0 02 AA 00 .@.R. ..........
4000000000122860 09 28 01 48 10 10 00 00 00 02 00 00 A0 0A 00 07 .(.H............
4000000000122870 F0 00 94 42 90 11 00 00 00 02 00 80 08 00 84 00 ...B............
4000000000122880 08 20 D1 FB 9F 27 90 42 00 00 48 00 00 00 04 00 . ...'.B..H.....
4000000000122890 09 30 01 00 00 21 20 02 00 00 42 A0 04 00 00 84 .0...! ...B.....
40000000001228A0 0B 00 00 00 01 00 30 02 90 30 20 00 00 00 04 00 ......0..0 .....
40000000001228B0 10 00 00 00 01 00 60 00 8C 0E F2 03 70 FE FF 4A ......`.....p..J
40000000001228C0 11 00 00 00 01 00 00 00 00 02 00 00 A0 FE FF 48 ...............H
40000000001228D0 08 00 00 00 01 00 00 00 00 02 00 00 00 00 04 00 ................
40000000001228E0 08 00 00 00 01 00 00 00 00 02 00 00 00 00 04 00 ................
40000000001228F0 08 00 00 00 01 00 00 00 00 02 00 00 00 00 04 00 ................
4000000000122900 18 18 1D 0A 80 05 00 A1 07 62 48 00 00 00 00 20 .........bH.... 
4000000000122910 01 78 F0 03 31 24 20 02 00 62 00 80 04 08 00 84 .x..1$ ..b......
4000000000122920 09 70 FC 01 01 24 50 02 40 00 42 C0 04 78 00 84 .p...$P.@.B..x..
4000000000122930 03 00 39 40 0C 20 10 72 84 18 40 C0 10 02 1D E2 ..9@. .r..@.....
4000000000122940 D1 40 00 00 00 21 00 00 00 02 00 03 40 00 00 43 .@...!......@..C
4000000000122950 08 00 00 00 01 00 00 00 41 00 23 00 00 00 04 00 ........A.#.....
4000000000122960 19 00 84 1E 80 11 00 00 00 02 00 00 E8 8A EF 58 ...............X
4000000000122970 02 38 00 10 86 39 10 00 90 00 C2 03 01 0A 15 80 .8...9..........
4000000000122980 01 00 00 00 01 00 00 18 01 55 00 00 00 00 04 00 .........U......
4000000000122990 11 00 00 00 01 00 00 10 05 80 03 80 08 00 84 00 ................
40000000001229A0 08 00 00 00 01 00 00 00 00 02 00 00 00 00 04 00 ................
40000000001229B0 08 00 00 00 01 00 00 00 00 02 00 00 00 00 04 00 ................
40000000001229C0 08 58 41 1A 80 05 70 0A 80 00 42 40 05 00 C4 00 .XA...p...B@....
40000000001229D0 09 60 01 02 00 21 00 00 00 02 00 00 24 00 01 84 .`...!......$...
40000000001229E0 09 70 00 4E 00 10 20 0A 00 00 48 00 02 00 00 84 .p.N.. ...H.....
40000000001229F0 08 30 00 1C 87 39 00 00 00 02 00 00 05 70 00 84 .0...9.......p..
4000000000122A00 19 28 FD 45 3F 23 00 00 00 02 00 03 30 02 00 43 .(.E?#......0..C
4000000000122A10 11 00 00 00 01 00 70 70 39 0C F3 03 70 00 00 43 ......pp9...p..C
4000000000122A20 08 70 04 40 00 14 00 00 00 02 00 E0 11 10 01 84 .p.@............
4000000000122A30 09 28 01 44 00 21 00 00 00 02 00 00 02 10 01 84 .(.D.!..........
4000000000122A40 11 38 00 1C 86 39 00 00 00 02 80 03 20 01 00 43 .8...9...... ..C
4000000000122A50 08 00 00 00 01 00 20 02 3C 00 42 E0 E0 72 18 E6 ...... .<.B..r..
4000000000122A60 19 00 00 00 01 00 00 00 00 02 00 03 C0 FF FF 4A ...............J
4000000000122A70 08 28 FD 45 3F 23 00 00 00 02 00 00 00 00 04 00 .(.E?#..........
4000000000122A80 0B 70 9C 20 01 20 E0 00 38 00 20 00 00 00 04 00 .p. . ..8. .....
4000000000122A90 10 00 00 00 01 00 70 E8 3A 0C 72 03 90 FF FF 4A ......p.:.r....J
4000000000122AA0 08 20 D1 FB 93 27 20 02 40 00 42 C0 04 40 51 00 . ...' .@.B..@Q.
4000000000122AB0 0B 48 09 20 00 21 00 00 00 02 00 00 00 00 04 00 .H. .!..........
4000000000122AC0 09 00 00 00 01 00 30 02 90 30 20 00 00 00 04 00 ......0..0 .....
4000000000122AD0 11 00 00 00 01 00 60 00 8C 0E 72 03 50 00 00 43 ......`...r.P..C
4000000000122AE0 0B 70 00 46 00 10 00 00 00 02 00 C0 01 70 50 00 .p.F.........pP.
4000000000122AF0 10 00 00 00 01 00 70 70 98 0C F1 03 B0 00 00 43 ......pp.......C
4000000000122B00 0B 20 41 48 00 21 30 02 90 30 20 00 00 00 04 00 . AH.!0..0 .....
4000000000122B10 11 00 00 00 01 00 70 00 8C 0C 72 03 D0 FF FF 4A ......p...r....J
4000000000122B20 09 38 04 4A 86 39 80 38 A5 00 40 00 B0 02 AA 00 .8.J.9.8..@.....
4000000000122B30 E9 28 01 50 00 21 00 00 00 02 00 00 A0 0A 00 07 .(.P.!..........
4000000000122B40 C9 28 FD F9 FF 27 00 00 00 02 00 C0 00 08 1D E4 .(...'..........
4000000000122B50 F0 00 94 42 90 11 00 00 00 02 00 80 08 00 84 00 ...B............
4000000000122B60 09 20 D1 FB 93 27 90 12 88 00 42 C0 04 40 51 00 . ...'....B..@Q.
4000000000122B70 0B 00 00 00 01 00 30 02 90 30 20 00 00 00 04 00 ......0..0 .....
4000000000122B80 10 00 00 00 01 00 60 00 8C 0E F2 03 60 FF FF 4A ......`.....`..J
4000000000122B90 10 00 00 00 01 00 00 00 00 02 00 00 90 FF FF 48 ...............H
4000000000122BA0 08 68 01 46 00 21 E0 02 9C 00 42 00 00 00 04 00 .h.F.!....B.....
4000000000122BB0 19 78 01 44 00 21 30 1A 89 00 40 00 78 94 EF 58 .x.D.!0...@.x..X
4000000000122BC0 10 08 00 58 00 21 70 00 20 0C 73 03 40 FF FF 4A ...X.!p. .s.@..J
4000000000122BD0 0B 70 00 46 00 10 00 00 00 02 00 C0 01 70 50 00 .p.F.........pP.
4000000000122BE0 11 00 00 00 01 00 70 00 38 0C 73 03 20 FF FF 4A ......p.8.s. ..J
4000000000122BF0 18 20 21 48 00 21 60 00 84 0E 72 00 00 00 00 20 . !H.!`...r.... 
4000000000122C00 09 40 9C 52 00 20 00 00 00 02 00 00 B0 02 AA 00 .@.R. ..........
4000000000122C10 09 28 01 48 00 10 00 00 00 02 00 00 A0 0A 00 07 .(.H............
4000000000122C20 F0 00 94 42 90 11 00 00 00 02 00 80 08 00 84 00 ...B............
4000000000122C30 08 20 D1 FB 93 27 90 12 00 00 48 00 00 00 04 00 . ...'....H.....
4000000000122C40 09 10 01 00 00 21 50 02 00 00 42 C0 04 40 51 00 .....!P...B..@Q.
4000000000122C50 0B 00 00 00 01 00 30 02 90 30 20 00 00 00 04 00 ......0..0 .....
4000000000122C60 10 00 00 00 01 00 60 00 8C 0E F2 03 80 FE FF 4A ......`........J
4000000000122C70 11 00 00 00 01 00 00 00 00 02 00 00 B0 FE FF 48 ...............H

l4000000000122C80:
	{ alloc	r60,ar.pfs,0x26,0x0,0x20; adds	r12,0xFFFFFFFFFFFFFFF0,r12; mov	r62,pr }
	{ cmp.eq	p06,p07,0x0,r32; and	r47,0x20,r36; and	r46,0x2,r36; }
	{ cmp.eq.or.andcm	p06,p07,0x0,r34; addl	r51,-5820,r1; mov	r63,LC }
	{ adds	r61,0x0,r1; adds	r39,0x0,r32; addl	r42,256,r0; }
	{ addl	r49,255,r0; mov	r59,b3; cmp4.eq	p18,p19,0x0,r47 }
	{ cmp4.eq	p23,p22,0x0,r46; addl	r50,6380,r1; (p06) br.cond.dpnt.few	4000000000122F20; }

l4000000000122CE0:
	{ cmp.ltu	p07,p06,r34,r35; tnat.z	p16,p17,r36; (p06) br.cond.dpnt.few	4000000000124580; }

l4000000000122CF0:
	{ nop.m	0x0; tnat.z	p24,p25,r36; nop.i	0x0 }
	{ ld8	r51,[r51]; nop.i	0x0; tnat.z	p26,p27,r36 }
	{ adds	r38,0x0,r34; ld1	r37,[r38],1; nop.i	0x0; }
	{ adds	r14,0x0,r37; adds	r45,0x0,r38; (p16) br.cond.dptk.few	4000000000122DA0 }

l4000000000122D30:
	{ nop.m	0x0; zxt1	r40,r37; br.call.sptk.many	b0,400000000001C3C0; }
	{ ld8	r14,[r8]; adds	r1,0x0,r61; shladd	r14,r40,0x1,r14; }
	{ ld2	r14,[r14]; and	r14,r42,r14; nop.i	0x0; }
	{ nop.m	0x0; cmp4.eq	p06,p07,0x0,r14; (p06) br.cond.dptk.few	4000000000122DA0 }

l4000000000122D70:
	{ nop.m	0x0; nop.i	0x0; br.call.sptk.many	b0,400000000001C3A0; }
	{ ld8	r14,[r8]; adds	r1,0x0,r61; shladd	r40,r40,0x2,r14 }
	{ nop.m	0x0; ld4	r37,[r40]; nop.i	0x0 }

l4000000000122DA0:
	{ cmp.ltu	p21,p20,r39,r33; (p21) ld1	r40,[r39]; nop.i	0x0; }

l4000000000122DAC:
	{ invala; mov	pr,0x8001000; (p05) chk.s.i	r0,3FFFFFFFFF542DAC }

l4000000000122DBC:
	{ (p01) nop; cmp.lt	p00,p00,r32,r0; (p01) rfi }

l4000000000122DC2:
	{ Invalid; (p32) break.i	0x20009; Invalid }
	{ Invalid; (p37) cmp.eq.unc	p03,p01,r65,r124; (p05) nop }
	{ (p23) break.m	0x730E9; break.f	0x20; clrrrb }
	{ break.m	0x20; nop; Invalid }
	{ cmp.eq.or.andcm	p32,p32,r0,r0; (p23) cmp.lt.unc	p41,p01,r97,r88; Invalid }
	{ ld1.sa	r32,[r0]; (p21) cmp.lt.unc	p41,p01,r97,r92; Invalid }
	{ nop; Invalid; Invalid }
	{ Invalid; nop; Invalid }
	{ invala; (p16) nop; Invalid }
	{ Invalid; (p37) break.i	0x40183; Invalid }
	{ Invalid; (p32) add	r99,r97,r92,0x1; Invalid }
	{ break.m	0x20; Invalid; Invalid }
	{ invala; (p16) nop; Invalid }
	{ Invalid; (p16) break.i	0x2020A; Invalid }
	{ Invalid; (p21) nop.i	0x710C9; (p01) nop }
	{ (p32) break.m	0x42009; break.i	0x20; nop; }
	{ (p48) ld1.sa	r9,[r16]; (p60) nop; }

l4000000000122ED0:
	{ cmp.eq	p06,p07,r39,r33; nop.i	0x0; (p06) br.cond.dpnt.few	4000000000123520; }

l4000000000122EE0:
	{ nop.m	0x0; tbit.z	p06,p07,r36,0x3; (p06) br.cond.dptk.few	4000000000122F20 }

l4000000000122EF0:
	{ nop.m	0x0; ld1	r14,[r39]; nop.i	0x0; }
	{ nop.m	0x0; cmp.eq	p06,p07,0x2F,r14; (p06) br.cond.dpnt.few	4000000000123520; }

l4000000000122F10:
	{ nop.m	0x0; nop.m	0x0; nop.i	0x0 }

l4000000000122F20:
	{ addl	r8,1,r0; nop.m	0x0; nop.i	0x0; }
	{ nop.m	0x0; mov	pr,r62,0xFFFFFFFFFFFFFFFE; mov.i	ar.pfs,r60; }
	{ nop.m	0x0; mov.i	LC,r63; mov.spnt	b0,r59,4000000000122F40 }
	{ nop.m	0x0; adds	r12,0x10,r12; br.ret	b0 }
4000000000122F60 11 30 6C 4B 87 39 00 00 00 02 00 03 A0 07 00 43 .0lK.9.........C
4000000000122F70 11 00 00 00 01 00 60 E0 96 0E F3 03 B0 FE FF 4A ......`........J
4000000000122F80 12 30 98 46 07 B8 01 D0 FF FF 25 0B D0 05 00 42 .0.F......%....B
4000000000122F90 09 68 09 44 00 21 50 02 98 00 20 00 00 00 04 00 .h.D.!P... .....
4000000000122FA0 12 30 8C 5A 07 B4 01 C0 FF FF 25 08 C0 05 00 42 .0.Z......%....B
4000000000122FB0 11 00 00 00 01 00 90 02 94 20 00 00 18 94 EF 58 ......... .....X
4000000000122FC0 03 30 01 10 18 10 10 00 F4 00 42 C0 91 32 41 80 .0........B..2A.
4000000000122FD0 0B 70 00 1C 08 10 E0 50 39 18 40 00 00 00 04 00 .p.....P9.@.....
4000000000122FE0 10 00 00 00 01 00 60 00 38 0E 73 03 40 00 00 42 ......`.8.s.@..B
4000000000122FF0 11 00 00 00 01 00 00 00 00 02 00 00 B8 93 EF 58 ...............X
4000000000123000 02 70 00 10 18 10 10 00 F4 00 42 20 95 72 44 80 .p........B .rD.
4000000000123010 0B 00 00 00 01 00 50 02 A4 20 20 00 00 00 04 00 ......P..  .....
4000000000123020 08 00 00 00 01 00 50 8A 95 18 40 40 04 68 01 84 ......P...@@.h..
4000000000123030 03 00 00 00 01 00 90 02 A0 2C 00 C0 94 32 41 80 .........,...2A.
4000000000123040 0B 70 00 4C 08 10 E0 50 39 18 40 00 00 00 04 00 .p.L...P9.@.....
4000000000123050 10 00 00 00 01 00 60 00 38 0E 73 03 40 00 00 42 ......`.8.s.@..B
4000000000123060 11 00 00 00 01 00 00 00 00 02 00 00 48 93 EF 58 ............H..X
4000000000123070 02 70 00 10 18 10 10 00 F4 00 42 20 95 72 44 80 .p........B .rD.
4000000000123080 0B 00 00 00 01 00 80 02 A4 20 20 00 00 00 04 00 .........  .....
4000000000123090 11 00 00 00 01 00 70 28 A1 0C 71 03 90 FE FF 4B ......p(..q....K
40000000001230A0 10 38 05 4E 00 21 60 10 8D 0E 68 03 70 FC FF 4A .8.N.!`...h.p..J
40000000001230B0 11 00 00 00 01 00 00 00 00 02 00 00 20 FE FF 48 ............ ..H
40000000001230C0 03 70 58 4B 3F 23 60 F8 95 0E 73 20 11 70 20 D6 .pXK?#`...s .p .
40000000001230D0 D1 40 00 00 C9 39 00 00 00 02 00 04 30 00 00 43 .@...9......0..C
40000000001230E0 09 00 00 00 01 00 90 08 95 10 73 00 00 00 04 00 ..........s.....
40000000001230F0 10 00 00 00 01 00 90 00 96 90 73 04 00 FD FF 4A ..........s....J
4000000000123100 08 30 9C 40 07 38 00 04 94 00 42 20 08 38 01 84 .0.@.8....B .8..
4000000000123110 09 10 02 42 00 21 30 04 98 00 42 80 08 18 01 84 ...B.!0...B.....
4000000000123120 09 00 00 00 01 C0 41 DA 93 58 44 00 00 00 04 00 ......A..XD.....
4000000000123130 11 28 02 48 00 21 00 00 00 02 00 00 98 18 00 50 .(.H.!.........P
4000000000123140 03 08 00 7A 00 21 F0 F7 C1 BF 05 00 C0 03 AA 00 ...z.!..........
4000000000123150 02 00 00 00 01 00 00 F8 05 55 00 00 B0 0B 00 07 .........U......
4000000000123160 18 00 00 00 01 00 C0 80 30 00 42 80 08 00 84 00 ........0.B.....
4000000000123170 11 38 98 46 06 38 00 00 00 02 80 03 B0 03 00 43 .8.F.8.........C
4000000000123180 11 00 00 00 01 00 60 20 90 0E 28 03 20 00 00 42 ......` ..(. ..B
4000000000123190 10 00 00 00 01 00 70 70 A1 0C F3 03 D0 0F 00 43 ......pp.......C
40000000001231A0 03 28 01 4C 00 10 60 12 88 00 42 E0 A0 2A 19 E6 .(.L..`...B..*..
40000000001231B0 11 00 00 00 01 00 70 F8 95 8C 73 03 C0 00 00 43 ......p...s....C
40000000001231C0 01 00 00 00 01 00 40 01 90 2A 28 00 00 00 04 00 ......@..*(.....
40000000001231D0 08 00 00 00 01 00 00 00 00 02 00 00 00 00 04 00 ................
40000000001231E0 10 00 00 00 01 00 00 00 00 02 00 0A 20 00 00 42 ............ ..B
40000000001231F0 11 00 00 00 01 00 60 78 A1 0E 73 03 30 FD FF 4B ......`x..s.0..K
4000000000123200 10 00 00 00 01 00 70 F8 95 0C 73 09 80 03 00 42 ......p...s....B
4000000000123210 11 00 00 00 01 00 00 00 00 02 80 03 B0 03 00 43 ...............C
4000000000123220 11 00 00 00 01 00 70 50 95 0C F3 03 20 02 00 43 ......pP.... ..C
4000000000123230 11 30 98 46 07 38 00 00 00 02 00 03 F0 02 00 43 .0.F.8.........C
4000000000123240 0B 28 05 4C 00 14 60 F8 95 0E 73 00 00 00 04 00 .(.L..`...s.....
4000000000123250 10 00 00 00 01 00 60 50 95 8E 73 03 90 FF FF 4A ......`P..s....J
4000000000123260 09 A8 9C 42 14 34 00 00 00 02 00 00 00 00 04 00 ...B.4..........
4000000000123270 11 00 00 00 01 00 70 10 90 0C 28 03 30 00 00 42 ......p...(.0..B
4000000000123280 09 00 00 00 01 00 70 E0 96 0C 73 00 00 00 04 00 ......p...s.....
4000000000123290 F1 48 01 4C 00 10 00 00 00 02 80 03 20 00 00 43 .H.L........ ..C
40000000001232A0 08 48 01 4A 00 21 00 00 00 02 00 00 00 00 04 00 .H.J.!..........
40000000001232B0 11 00 00 00 01 00 00 00 00 02 00 08 80 00 00 42 ...............B
40000000001232C0 11 00 00 00 01 00 80 02 A4 20 00 00 08 91 EF 58 ......... .....X
40000000001232D0 03 70 00 10 18 10 10 00 F4 00 42 C0 81 72 40 80 .p........B..r@.
40000000001232E0 09 00 00 00 01 00 E0 00 38 10 20 00 00 00 04 00 ........8. .....
40000000001232F0 10 00 00 00 01 00 60 80 38 0E 28 03 40 00 00 42 ......`.8.(.@..B
4000000000123300 11 00 00 00 01 00 00 00 00 02 00 00 A8 90 EF 58 ...............X
4000000000123310 02 70 00 10 18 10 10 00 F4 00 42 00 85 72 44 80 .p........B..rD.
4000000000123320 0A 00 00 00 01 00 90 02 A0 00 20 00 00 00 04 00 .......... .....
4000000000123330 08 40 FD 4D 3F 23 E0 08 9D 08 40 60 02 78 49 E6 .@.M?#....@`.xI.
4000000000123340 19 20 ED 49 2C 22 B0 02 00 04 48 0A E0 FB FF 4B . .I,"....H....K
4000000000123350 09 00 00 00 01 00 40 D9 96 2A 73 00 E0 08 AA 00 ......@..*s.....
4000000000123360 10 00 00 00 01 00 00 00 00 02 00 09 50 0E 00 42 ............P..B
4000000000123370 11 00 00 00 01 00 00 00 00 02 00 0A 50 0F 00 43 ............P..C
4000000000123380 10 72 00 4E 00 10 00 00 00 02 00 08 90 00 00 42 .r.N...........B
4000000000123390 11 00 00 00 01 00 00 00 00 02 00 00 38 90 EF 58 ............8..X
40000000001233A0 08 00 00 00 01 00 E0 00 9C 00 20 20 00 E8 01 84 ..........  ....
40000000001233B0 0B 78 00 10 18 10 F0 70 3C 20 40 40 05 70 00 84 .x.....p< @@.p..
40000000001233C0 0B 78 00 1E 08 10 F0 58 3D 18 40 00 00 00 04 00 .x.....X=.@.....
40000000001233D0 10 00 00 00 01 00 60 00 3C 0E 73 03 40 00 00 42 ......`.<.s.@..B
40000000001233E0 11 00 00 00 01 00 00 00 00 02 00 00 C8 8F EF 58 ...............X
40000000001233F0 02 70 00 10 18 10 10 00 F4 00 42 40 A5 72 44 80 .p........B@.rD.
4000000000123400 0B 00 00 00 01 00 E0 00 A8 20 20 00 00 00 04 00 .........  .....
4000000000123410 10 00 00 00 01 00 60 70 A4 0E 71 03 B0 0E 00 43 ......`p..q....C
4000000000123420 10 00 00 00 01 00 70 0A 9C 00 42 A0 40 FF FF 48 ......p...B.@..H
4000000000123430 10 00 00 00 01 00 80 08 00 00 48 00 00 FB FF 48 ..........H....H
4000000000123440 09 00 00 00 01 00 E0 00 98 00 20 00 00 00 04 00 .......... .....
4000000000123450 11 00 00 00 01 00 70 40 39 0C 72 03 E0 FD FF 4A ......p@9.r....J
4000000000123460 11 30 9C 42 07 34 00 00 00 02 80 03 70 00 00 43 .0.B.4......p..C
4000000000123470 C3 70 84 4E 04 A0 51 02 9C 00 42 03 E0 08 AA 00 .p.N..Q...B.....
4000000000123480 08 08 02 4A 00 21 00 54 01 00 48 40 08 08 01 84 ...J.!.T..H@....
4000000000123490 09 18 02 4C 00 21 40 04 8C 00 42 A0 08 20 01 84 ...L.!@...B.. ..
40000000001234A0 11 28 05 4A 00 21 00 00 00 02 00 00 28 15 00 50 .(.J.!......(..P
40000000001234B0 08 00 00 00 01 00 10 00 F4 00 42 C0 00 40 1C E6 ..........B..@..
40000000001234C0 16 00 00 00 00 88 01 30 00 80 21 A0 C0 FF FF 48 .......0..!....H
40000000001234D0 08 00 06 4C 00 21 00 00 00 02 00 20 08 18 01 84 ...L.!..... ....
40000000001234E0 19 10 02 00 00 21 00 00 00 02 00 00 E8 E8 FF 58 .....!.........X
40000000001234F0 08 00 00 00 01 00 10 00 F4 00 42 C0 04 40 00 84 ..........B..@..
4000000000123500 19 00 00 00 01 00 70 00 20 0C 72 03 30 FD FF 4A ......p. .r.0..J
4000000000123510 08 00 00 00 01 00 00 00 00 02 00 00 00 00 04 00 ................

l4000000000123520:
	{ adds	r8,0x0,r0; mov	pr,r62,0xFFFFFFFFFFFFFFFE; mov.i	ar.pfs,r60; }
	{ nop.m	0x0; mov.i	LC,r63; mov.spnt	b0,r59,4000000000123530 }
	{ nop.m	0x0; adds	r12,0x10,r12; br.ret	b0 }
4000000000123550 10 00 00 00 01 00 00 00 00 02 80 08 50 0B 00 42 ............P..B
4000000000123560 10 10 01 5A 00 21 70 28 A1 0C F1 03 40 FB FF 4A ...Z.!p(....@..J
4000000000123570 10 00 00 00 01 00 00 00 00 02 00 00 B0 F9 FF 48 ...............H
4000000000123580 11 00 00 00 01 00 00 00 00 02 00 03 B0 FC FF 4A ...............J
4000000000123590 11 30 00 50 87 39 70 0A 9C 00 42 03 90 F9 FF 4B .0.P.9p...B....K
40000000001235A0 0B 38 9C 42 06 F4 81 02 9C 00 20 00 00 00 04 00 .8.B...... .....
40000000001235B0 10 00 00 00 01 80 81 02 00 00 42 00 80 FC FF 48 ..........B....H
40000000001235C0 09 00 00 00 01 00 E0 00 98 00 20 00 00 00 04 00 .......... .....
40000000001235D0 11 00 00 00 01 00 70 40 39 0C 72 03 C0 FF FF 4A ......p@9.r....J
40000000001235E0 08 00 00 00 01 00 E0 08 9D 08 40 E0 70 0A 19 D0 ..........@.p...
40000000001235F0 19 00 00 00 01 00 00 00 00 02 00 03 30 F9 FF 4B ............0..K
4000000000123600 01 00 00 00 01 00 00 70 04 55 00 00 00 00 04 00 .......p.U......
4000000000123610 08 00 00 00 01 00 00 00 00 02 00 00 00 00 04 00 ................
4000000000123620 08 08 02 4E 00 21 00 FC 01 00 48 40 08 08 01 84 ...N.!....H@....
4000000000123630 09 18 02 4C 00 21 40 04 8C 00 42 A0 08 20 01 84 ...L.!@...B.. ..
4000000000123640 11 38 05 4E 00 21 00 00 00 02 00 00 88 13 00 50 .8.N.!.........P
4000000000123650 08 00 00 00 01 00 10 00 F4 00 42 C0 00 40 1C E6 ..........B..@..
4000000000123660 16 00 00 00 00 88 01 60 FF FF 25 A0 C0 FF FF 48 .......`..%....H
4000000000123670 11 00 00 00 01 00 80 08 00 00 48 00 C0 F8 FF 48 ..........H....H
4000000000123680 13 38 00 50 86 F9 01 50 FC FF 25 0C 20 00 00 42 .8.P...P..%. ..B
4000000000123690 10 00 00 00 01 00 60 78 A1 0E 73 03 90 F8 FF 4B ......`x..s....K
40000000001236A0 11 00 00 00 01 00 00 00 00 02 00 0D 10 F8 FF 4A ...............J
40000000001236B0 11 00 00 00 01 00 70 70 A1 0C 73 03 00 F8 FF 4A ......pp..s....J
40000000001236C0 12 30 9C 40 07 B8 01 30 FC FF 25 0C F0 F7 FF 4A .0.@...0..%....J
40000000001236D0 09 70 FC 4F 3F 23 00 00 00 02 00 40 04 30 01 84 .p.O?#.....@.0..
40000000001236E0 09 00 00 00 01 00 E0 00 38 00 20 00 00 00 04 00 ........8. .....
40000000001236F0 13 30 BC 1C 07 B9 01 18 FC FF 25 00 D0 F7 FF 48 .0........%....H
4000000000123700 09 00 00 00 01 00 60 38 85 0E 70 00 00 00 04 00 ......`8..p.....
4000000000123710 13 30 00 50 C7 B9 01 08 FC FF 25 0D 20 00 00 43 .0.P......%. ..C
4000000000123720 10 00 00 00 01 00 70 70 A1 0C F3 03 00 0A 00 43 ......pp.......C
4000000000123730 10 00 00 00 01 00 B0 02 A0 20 00 08 80 00 00 42 ......... .....B
4000000000123740 11 00 00 00 01 00 80 02 A0 2C 00 00 88 8C EF 58 .........,.....X
4000000000123750 03 70 00 10 18 10 10 00 F4 00 42 C0 81 72 40 80 .p........B..r@.
4000000000123760 0B 70 00 1C 08 10 E0 50 39 18 40 00 00 00 04 00 .p.....P9.@.....
4000000000123770 10 00 00 00 01 00 60 00 38 0E 73 03 40 00 00 42 ......`.8.s.@..B
4000000000123780 11 00 00 00 01 00 00 00 00 02 00 00 28 8C EF 58 ............(..X
4000000000123790 02 70 00 10 18 10 10 00 F4 00 42 00 85 72 44 80 .p........B..rD.
40000000001237A0 0B 00 00 00 01 00 B0 02 A0 00 20 00 00 00 04 00 .......... .....
40000000001237B0 08 28 01 4C 00 10 00 00 00 02 00 20 02 58 B1 88 .(.L....... .X..
40000000001237C0 02 78 04 56 00 21 00 01 AC 20 00 C0 E0 2D 1D E6 .x.V.!... ...-..
40000000001237D0 09 40 84 4A 89 39 50 83 00 20 40 E0 06 78 40 00 .@.J.9P.. @..x@.
40000000001237E0 C2 70 04 00 00 24 02 0B 00 00 C8 C3 01 00 00 84 .p...$..........
40000000001237F0 2B 81 01 00 00 21 00 83 39 1C 40 C0 F1 5F FD 8C +....!..9.@.._..
4000000000123800 03 30 00 60 87 39 90 03 38 20 80 C3 24 10 01 84 .0.`.9..8 ..$...
4000000000123810 E9 28 01 4C 00 10 60 F8 AE 0E 73 40 14 30 01 84 .(.L..`...s@.0..
4000000000123820 CB C0 05 00 00 E4 81 03 00 00 42 C0 00 88 1C E6 ..........B.....
4000000000123830 C3 D0 05 00 00 24 00 00 00 02 80 43 07 00 00 84 .....$.....C....
4000000000123840 10 00 00 00 01 00 70 D8 96 0C F3 03 20 03 00 43 ......p..... ..C
4000000000123850 11 00 00 00 01 00 00 00 00 02 00 0B 20 00 00 42 ............ ..B
4000000000123860 10 00 00 00 01 00 70 E0 96 0C F3 03 50 03 00 43 ......p.....P..C
4000000000123870 08 40 01 4A 00 21 00 00 00 02 00 00 00 00 04 00 .@.J.!..........
4000000000123880 11 00 00 00 01 00 00 00 00 02 00 08 80 00 00 42 ...............B
4000000000123890 11 00 00 00 01 00 60 02 A0 20 00 00 38 8B EF 58 ......`.. ..8..X
40000000001238A0 03 70 00 10 18 10 10 00 F4 00 42 C0 61 72 40 80 .p........B.ar@.
40000000001238B0 0B 70 00 1C 08 10 E0 50 39 18 40 00 00 00 04 00 .p.....P9.@.....
40000000001238C0 10 00 00 00 01 00 60 00 38 0E 73 03 40 00 00 42 ......`.8.s.@..B
40000000001238D0 11 00 00 00 01 00 00 00 00 02 00 00 D8 8A EF 58 ...............X
40000000001238E0 02 70 00 10 18 10 10 00 F4 00 42 C0 64 72 44 80 .p........B.drD.
40000000001238F0 0A 00 00 00 01 00 80 02 98 00 20 00 00 00 04 00 .......... .....
4000000000123900 11 30 01 44 00 21 70 00 94 0C F3 03 90 0B 00 43 .0.D.!p........C
4000000000123910 11 28 05 4C 00 14 00 00 00 02 00 08 80 00 00 42 .(.L...........B
4000000000123920 11 00 00 00 01 00 90 02 94 20 00 00 A8 8A EF 58 ......... .....X
4000000000123930 03 70 00 10 18 10 10 00 F4 00 42 C0 91 72 40 80 .p........B..r@.
4000000000123940 0B 70 00 1C 08 10 E0 50 39 18 40 00 00 00 04 00 .p.....P9.@.....
4000000000123950 10 00 00 00 01 00 60 00 38 0E 73 03 40 00 00 42 ......`.8.s.@..B
4000000000123960 11 00 00 00 01 00 00 00 00 02 00 00 48 8A EF 58 ............H..X
4000000000123970 02 70 00 10 18 10 10 00 F4 00 42 20 95 72 44 80 .p........B .rD.
4000000000123980 0A 00 00 00 01 00 50 02 A4 00 20 00 00 00 04 00 ......P... .....
4000000000123990 11 00 00 00 01 00 00 00 00 02 00 0C 20 00 00 42 ............ ..B
40000000001239A0 11 00 00 00 01 00 60 78 95 0E 73 03 80 F5 FF 4B ......`x..s....K
40000000001239B0 10 00 00 00 01 00 70 68 95 0C 73 03 80 02 00 42 ......ph..s....B
40000000001239C0 09 00 00 00 01 00 90 02 98 00 20 00 00 00 04 00 .......... .....
40000000001239D0 11 38 74 53 86 39 00 00 00 02 80 03 60 02 00 43 .8tS.9......`..C
40000000001239E0 11 30 09 44 00 21 70 00 B8 0C 73 03 20 00 00 42 .0.D.!p...s. ..B
40000000001239F0 0B 38 70 53 86 F9 91 02 98 00 A0 C3 34 10 01 84 .8pS........4...
4000000000123A00 11 30 00 52 87 39 00 00 00 02 00 03 20 F5 FF 4B .0.R.9...... ..K
4000000000123A10 10 28 01 4C 00 10 60 D8 A6 0E 73 03 C0 01 00 43 .(.L..`...s....C
4000000000123A20 10 00 00 00 01 00 00 00 00 02 00 08 80 00 00 42 ...............B
4000000000123A30 11 00 00 00 01 00 C0 02 A4 20 00 00 98 89 EF 58 ......... .....X
4000000000123A40 03 70 00 10 18 10 10 00 F4 00 42 C0 C1 72 40 80 .p........B..r@.
4000000000123A50 0B 70 00 1C 08 10 E0 50 39 18 40 00 00 00 04 00 .p.....P9.@.....
4000000000123A60 10 00 00 00 01 00 60 00 38 0E 73 03 40 00 00 42 ......`.8.s.@..B
4000000000123A70 11 00 00 00 01 00 00 00 00 02 00 00 38 89 EF 58 ............8..X
4000000000123A80 02 70 00 10 18 10 10 00 F4 00 42 80 C5 72 44 80 .p........B..rD.
4000000000123A90 0B 00 00 00 01 00 90 02 B0 00 20 00 00 00 04 00 .......... .....
4000000000123AA0 08 08 02 52 00 21 00 04 A0 00 42 00 00 00 04 00 ...R.!....B.....
4000000000123AB0 19 10 05 4C 00 21 C0 02 A0 00 42 00 58 EE FF 58 ...L.!....B.X..X
4000000000123AC0 11 38 00 10 86 31 10 00 F4 00 42 03 20 02 00 43 .8...1....B. ..C
4000000000123AD0 12 30 74 4B 87 B9 01 E8 00 80 21 08 70 FD FF 4A .0tK......!.p..J
4000000000123AE0 11 00 00 00 01 00 60 02 94 20 00 00 E8 88 EF 58 ......`.. .....X
4000000000123AF0 03 80 00 10 18 10 10 00 F4 00 42 00 62 82 40 80 ..........B.b.@.
4000000000123B00 0B 80 00 20 08 10 00 51 41 18 40 00 00 00 04 00 ... ...QA.@.....
4000000000123B10 10 00 00 00 01 00 60 00 40 0E 73 03 30 FD FF 4A ......`.@.s.0..J
4000000000123B20 11 00 00 00 01 00 00 00 00 02 00 00 88 88 EF 58 ...............X
4000000000123B30 02 70 00 10 18 10 10 00 F4 00 42 C0 64 72 44 80 .p........B.drD.
4000000000123B40 0B 00 00 00 01 00 50 02 98 00 20 00 00 00 04 00 ......P... .....
4000000000123B50 11 00 00 00 01 00 70 D8 96 0C 73 03 00 FD FF 4A ......p...s....J
4000000000123B60 09 00 00 00 01 00 E0 00 88 00 20 00 00 00 04 00 .......... .....
4000000000123B70 11 38 F4 1C 86 39 00 00 00 02 80 03 80 01 00 43 .8...9.........C
4000000000123B80 11 38 E8 1C 86 39 00 00 00 02 80 03 40 03 00 43 .8...9......@..C
4000000000123B90 10 00 00 00 01 00 70 70 39 0C F3 03 40 05 00 43 ......pp9...@..C
4000000000123BA0 11 00 00 00 01 00 80 DA 02 00 48 00 E0 FC FF 48 ..........H....H
4000000000123BB0 09 40 01 44 00 10 00 00 00 02 00 40 14 10 01 84 .@.D.......@....
4000000000123BC0 13 30 00 50 87 B9 01 B0 F9 FF 25 00 C0 FC FF 48 .0.P......%....H
4000000000123BD0 10 00 00 00 01 00 70 70 95 0C 73 03 50 FE FF 4A ......pp..s.P..J
4000000000123BE0 11 00 02 4C 00 21 10 84 30 00 42 00 E8 ED FF 58 ...L.!..0.B....X
4000000000123BF0 09 78 40 18 00 21 10 00 F4 00 42 C0 04 40 00 84 .x@..!....B..@..
4000000000123C00 0B 70 00 1E 10 10 70 F8 3B 0C 77 00 00 00 04 00 .p....p.;.w.....
4000000000123C10 E2 28 01 10 00 D0 91 02 E4 00 42 23 05 70 40 00 .(........B#.p@.
4000000000123C20 18 00 00 00 01 80 51 02 20 00 20 00 00 FE FF 48 ......Q. . ....H
4000000000123C30 09 00 00 00 01 00 C0 02 A0 00 42 40 04 30 01 84 ..........B@.0..
4000000000123C40 11 08 02 58 00 21 00 04 AC 00 42 00 C8 EC FF 58 ...X.!....B....X
4000000000123C50 08 38 20 00 86 30 00 00 00 02 00 20 00 E8 01 84 .8 ..0..... ....
4000000000123C60 19 00 02 56 00 21 00 00 00 02 80 03 30 00 00 43 ...V.!......0..C
4000000000123C70 11 08 02 50 00 21 00 00 00 02 00 00 98 EC FF 58 ...P.!.........X
4000000000123C80 11 08 00 7A 00 21 70 00 20 0C 63 03 20 07 00 43 ...z.!p. .c. ..C
4000000000123C90 11 00 00 00 01 00 60 E8 96 0E F3 03 B0 FB FF 4A ......`........J
4000000000123CA0 11 00 00 00 01 00 70 00 C0 0C F3 03 80 F2 FF 4B ......p........K
4000000000123CB0 11 00 00 00 01 00 60 00 88 0E 72 03 70 F2 FF 49 ......`...r.p..I
4000000000123CC0 10 38 05 4E 00 21 60 10 8D 0E 68 03 50 F0 FF 4A .8.N.!`...h.P..J
4000000000123CD0 10 00 00 00 01 00 00 00 00 02 00 00 00 F2 FF 48 ...............H
4000000000123CE0 10 00 00 00 01 00 80 02 A4 00 42 00 60 FF FF 48 ..........B.`..H
4000000000123CF0 0B 80 08 44 00 21 00 01 40 00 20 00 00 00 04 00 ...D.!..@. .....
4000000000123D00 10 00 00 00 01 00 70 E8 41 0C 72 03 A0 FE FF 4A ......p.A.r....J
4000000000123D10 0B 70 0C 44 00 21 E0 00 38 00 20 00 00 00 04 00 .p.D.!..8. .....
4000000000123D20 10 00 00 00 01 00 70 E8 3A 0C 72 03 80 FE FF 4A ......p.:.r....J
4000000000123D30 09 00 00 00 01 00 E4 08 88 00 42 00 00 00 04 00 ..........B.....
4000000000123D40 10 0A 02 1C 00 10 00 00 00 02 00 08 90 00 00 42 ...............B
4000000000123D50 11 00 00 00 01 00 00 00 00 02 00 00 78 86 EF 58 ............x..X
4000000000123D60 09 70 04 44 00 21 F0 00 20 30 20 20 00 E8 01 84 .p.D.!.. 0  ....
4000000000123D70 0B 08 02 1C 00 10 E0 08 3E 20 40 A0 04 08 02 84 ........> @.....
4000000000123D80 0B 70 00 1C 08 10 E0 50 39 18 40 00 00 00 04 00 .p.....P9.@.....
4000000000123D90 10 00 00 00 01 00 60 00 38 0E 73 03 40 00 00 42 ......`.8.s.@..B
4000000000123DA0 11 00 00 00 01 00 00 00 00 02 00 00 08 86 EF 58 ...............X
4000000000123DB0 02 70 00 10 18 10 10 00 F4 00 42 A0 54 72 44 80 .p........B.TrD.
4000000000123DC0 0A 00 00 00 01 00 10 04 94 20 20 00 00 00 04 00 .........  .....
4000000000123DD0 09 70 40 18 00 21 00 00 00 02 00 00 08 58 01 84 .p@..!.......X..
4000000000123DE0 11 00 04 1D 90 11 00 00 00 02 00 00 28 EB FF 58 ............(..X
4000000000123DF0 08 70 10 44 00 21 00 00 00 02 00 20 00 E8 01 84 .p.D.!..... ....
4000000000123E00 19 38 00 10 86 39 00 00 00 02 80 03 B0 0B 00 43 .8...9.........C
4000000000123E10 09 28 01 1C 00 10 00 00 00 02 00 40 54 10 01 84 .(.........@T...
4000000000123E20 11 00 00 00 01 00 70 00 94 0C F3 03 70 06 00 42 ......p.....p..B
4000000000123E30 08 00 00 00 01 00 00 00 00 02 00 00 00 00 04 00 ................
4000000000123E40 10 00 00 00 01 00 00 00 00 02 00 08 00 FA FF 4A ...............J
4000000000123E50 11 00 00 00 01 00 60 02 94 20 00 00 78 85 EF 58 ......`.. ..x..X
4000000000123E60 03 70 00 10 18 10 10 00 F4 00 42 C0 61 72 40 80 .p........B.ar@.
4000000000123E70 0B 70 00 1C 08 10 E0 50 39 18 40 00 00 00 04 00 .p.....P9.@.....
4000000000123E80 10 00 00 00 01 00 60 00 38 0E 73 03 C0 F9 FF 4A ......`.8.s....J
4000000000123E90 11 00 00 00 01 00 00 00 00 02 00 00 18 85 EF 58 ...............X
4000000000123EA0 03 70 00 10 18 10 10 00 F4 00 42 C0 64 72 44 80 .p........B.drD.
4000000000123EB0 10 28 01 4C 00 10 00 00 00 02 00 00 A0 FC FF 48 .(.L...........H
4000000000123EC0 09 70 40 18 00 21 00 00 00 02 00 20 15 10 01 84 .p@..!..... ....
4000000000123ED0 09 00 00 1C 90 11 00 00 00 02 00 A0 04 48 01 84 .............H..
4000000000123EE0 09 00 00 00 01 00 E0 00 A4 00 20 00 00 00 04 00 .......... .....
4000000000123EF0 11 00 00 00 01 00 60 00 38 0E 73 03 40 00 00 43 ......`.8.s.@..C
4000000000123F00 09 78 04 4A 00 21 00 00 00 02 00 C0 A0 73 1C E6 .x.J.!.......s..
4000000000123F10 11 70 00 1E 00 10 00 00 00 02 00 03 70 00 00 43 .p..........p..C
4000000000123F20 11 28 01 1E 00 21 70 00 38 0C 73 03 E0 FF FF 4A .(...!p.8.s....J
4000000000123F30 09 28 01 44 00 10 00 00 00 02 00 40 04 48 01 84 .(.D.......@.H..
4000000000123F40 11 38 00 4A 86 39 00 00 00 02 80 03 50 05 00 43 .8.J.9......P..C
4000000000123F50 11 00 00 00 01 00 60 E8 96 0E F3 03 F0 FE FF 4A ......`........J
4000000000123F60 10 00 00 00 01 00 70 00 C0 0C 73 03 50 FD FF 4A ......p...s.P..J
4000000000123F70 11 00 00 00 01 00 00 00 00 02 00 00 B0 EF FF 48 ...............H
4000000000123F80 10 00 00 00 01 00 60 E8 3A 0E F3 03 A0 FF FF 4A ......`.:......J
4000000000123F90 09 40 95 44 05 20 C0 0A 00 00 48 C0 14 00 00 90 .@.D. ....H.....
4000000000123FA0 11 00 02 50 00 21 00 00 00 02 00 00 A8 73 EF 58 ...P.!.......s.X
4000000000123FB0 08 B0 01 10 00 21 60 00 20 0E 72 20 00 E8 01 84 .....!`. .r ....
4000000000123FC0 19 10 FE 51 3F 23 10 04 A4 00 42 03 70 05 00 43 ...Q?#....B.p..C
4000000000123FD0 11 00 02 6C 00 21 00 00 00 02 00 00 D8 68 EF 58 ...l.!.......h.X
4000000000123FE0 18 70 D8 50 00 20 10 00 F4 00 42 00 00 00 00 20 .p.P. ....B.... 
4000000000123FF0 03 40 01 64 18 10 00 68 04 15 00 C0 F1 77 FC 8C .@.d...h.....w..
4000000000124000 09 00 00 00 01 00 00 00 38 00 23 00 00 00 04 00 ........8.#.....
4000000000124010 03 70 00 6C 00 10 00 00 00 02 00 80 06 70 50 00 .p.l.........pP.
4000000000124020 0B 08 22 50 18 14 E0 00 04 01 20 00 00 00 04 00 .."P...... .....
4000000000124030 01 00 00 00 01 00 E0 00 38 28 00 00 00 00 04 00 ........8(......
4000000000124040 10 00 00 00 01 00 70 70 D0 0C F1 03 D0 02 00 43 ......pp.......C
4000000000124050 09 00 00 00 01 00 60 0A 98 00 42 00 00 00 04 00 ......`...B.....
4000000000124060 10 00 00 00 01 00 C0 02 98 00 42 A0 C0 FF FF 48 ..........B....H
4000000000124070 09 70 40 18 00 21 00 00 00 02 00 00 08 B0 01 84 .p@..!..........
4000000000124080 11 00 00 1C 90 11 00 00 00 02 00 00 68 67 EF 58 ............hg.X
4000000000124090 10 00 00 00 01 00 10 00 F4 00 42 00 A0 FE FF 48 ..........B....H
40000000001240A0 11 10 01 4C 00 21 00 00 00 02 00 00 28 83 EF 58 ...L.!......(..X
40000000001240B0 08 00 00 00 01 00 10 00 F4 00 42 00 00 00 04 00 ..........B.....
40000000001240C0 18 30 01 10 18 10 00 00 00 02 00 00 70 EF FF 48 .0..........p..H
40000000001240D0 11 00 02 44 00 21 10 84 30 00 42 00 F8 E8 FF 58 ...D.!..0.B....X
40000000001240E0 09 78 40 18 00 21 10 00 F4 00 42 40 04 40 00 84 .x@..!....B@.@..
40000000001240F0 0B 70 00 1E 10 10 70 F8 3B 0C 77 00 00 00 04 00 .p....p.;.w.....
4000000000124100 09 00 00 00 01 C0 81 02 DC 00 42 00 00 00 04 00 ..........B.....
4000000000124110 10 00 00 00 01 80 81 02 38 20 00 00 70 F7 FF 48 ........8 ..p..H
4000000000124120 12 30 9C 40 07 B8 01 00 F7 FF 25 0C 10 F6 FF 4A .0.@......%....J
4000000000124130 0B 70 FC 4F 3F 23 E0 00 38 00 20 00 00 00 04 00 .p.O?#..8. .....
4000000000124140 10 00 00 00 01 00 60 78 39 0E F2 03 F0 F5 FF 4A ......`x9......J
4000000000124150 11 00 00 00 01 00 80 08 00 00 48 00 E0 ED FF 48 ..........H....H
4000000000124160 11 30 9C 40 07 38 00 00 00 02 00 03 C0 ED FF 4B .0.@.8.........K
4000000000124170 10 00 00 00 01 00 60 00 90 0E 28 03 30 F0 FF 4A ......`...(.0..J
4000000000124180 0B 70 FC 4F 3F 23 E0 00 38 00 20 00 00 00 04 00 .p.O?#..8. .....
4000000000124190 10 00 00 00 01 00 60 78 39 0E F2 03 10 F0 FF 4A ......`x9......J
40000000001241A0 10 00 00 00 01 00 80 08 00 00 48 00 90 ED FF 48 ..........H....H
40000000001241B0 09 70 00 4C 00 10 00 00 00 02 00 00 48 EB 4B 9F .p.L........H.K.
40000000001241C0 11 30 A0 1C 07 39 00 00 00 02 00 03 00 01 00 43 .0...9.........C
40000000001241D0 08 00 00 00 01 00 10 04 A0 00 20 00 00 00 04 00 .......... .....
40000000001241E0 19 00 02 80 18 10 00 00 00 02 00 00 A8 74 EF 58 .............t.X
40000000001241F0 10 08 00 7A 00 21 70 00 20 0C 72 03 D0 00 00 42 ...z.!p. .r....B
4000000000124200 11 00 00 00 01 00 00 00 00 02 00 0A C0 00 00 43 ...............C
4000000000124210 10 72 00 4E 00 10 00 00 00 02 00 08 90 00 00 42 .r.N...........B
4000000000124220 11 00 00 00 01 00 00 00 00 02 00 00 A8 81 EF 58 ...............X
4000000000124230 08 00 00 00 01 00 E0 00 9C 00 20 20 00 E8 01 84 ..........  ....
4000000000124240 0B 78 00 10 18 10 F0 70 3C 20 40 40 05 70 00 84 .x.....p< @@.p..
4000000000124250 0B 78 00 1E 08 10 F0 58 3D 18 40 00 00 00 04 00 .x.....X=.@.....
4000000000124260 10 00 00 00 01 00 60 00 3C 0E 73 03 40 00 00 42 ......`.<.s.@..B
4000000000124270 11 00 00 00 01 00 00 00 00 02 00 00 38 81 EF 58 ............8..X
4000000000124280 02 70 00 10 18 10 10 00 F4 00 42 40 A5 72 44 80 .p........B@.rD.
4000000000124290 0B 00 00 00 01 00 E0 00 A8 20 20 00 00 00 04 00 .........  .....
40000000001242A0 11 00 00 00 01 00 70 70 A4 0C 71 03 80 F1 FF 4A ......pp..q....J
40000000001242B0 08 00 00 00 01 00 00 00 00 02 00 00 00 00 04 00 ................
40000000001242C0 08 00 02 4E 00 21 10 04 84 00 42 40 08 40 01 84 ...N.!....B@.@..
40000000001242D0 19 18 02 46 00 21 40 04 90 00 42 00 B8 E9 FF 58 ...F.!@...B....X
40000000001242E0 08 08 00 7A 00 21 60 00 20 0E 73 E0 14 38 01 84 ...z.!`. .s..8..
40000000001242F0 16 00 00 00 00 88 01 18 F9 FF 25 A0 70 F0 FF 48 ..........%.p..H
4000000000124300 10 00 00 00 01 00 00 00 00 02 00 00 30 F1 FF 48 ............0..H
4000000000124310 11 00 02 6C 00 21 00 00 00 02 00 00 38 62 EF 58 ...l.!......8b.X
4000000000124320 11 08 00 7A 00 21 60 00 20 0E F3 03 30 FD FF 4A ...z.!`. ...0..J
4000000000124330 10 00 00 00 01 00 60 70 B0 0E EB 03 20 02 00 42 ......`p.... ..B
4000000000124340 09 30 01 74 00 21 00 00 00 02 00 E0 01 61 00 84 .0.t.!.......a..
4000000000124350 09 00 98 1E 90 11 00 00 00 02 00 00 00 00 04 00 ................
4000000000124360 08 00 02 6C 00 21 00 00 00 02 00 40 24 28 01 84 ...l.!.....@$(..
4000000000124370 19 48 0D 4A 00 21 00 00 00 02 00 00 78 64 EF 58 .H.J.!......xd.X
4000000000124380 10 08 00 7A 00 21 70 00 98 0C F3 03 B0 FB FF 4A ...z.!p........J
4000000000124390 09 10 01 52 00 21 00 00 00 02 00 00 00 00 04 00 ...R.!..........
40000000001243A0 09 78 FC 45 3F 23 00 00 00 02 00 00 12 00 00 90 .x.E?#..........
40000000001243B0 09 70 00 1E 00 10 00 00 00 02 00 40 14 78 00 84 .p.........@.x..
40000000001243C0 11 30 00 1C 87 39 00 00 00 02 00 03 D0 00 00 43 .0...9.........C
40000000001243D0 11 00 00 00 01 00 70 D8 3A 0C F3 03 80 00 00 43 ......p.:......C
40000000001243E0 09 00 00 00 01 00 70 E8 3A 0C 73 00 00 00 04 00 ......p.:.s.....
40000000001243F0 F2 80 FC 21 3F E3 01 80 00 80 21 0B 20 00 00 42 ...!?.....!. ..B
4000000000124400 11 00 00 00 01 00 70 E0 3A 0C F3 03 D0 00 00 43 ......p.:......C
4000000000124410 11 30 00 20 87 31 00 00 00 02 80 03 F0 00 00 43 .0. .1.........C
4000000000124420 10 00 00 00 01 00 60 00 38 0E 73 03 70 00 00 43 ......`.8.s.p..C
4000000000124430 09 70 00 44 00 10 00 00 00 02 00 E0 01 10 01 84 .p.D............
4000000000124440 11 10 05 1E 00 21 70 D8 3A 0C 73 03 A0 FF FF 4A .....!p.:.s....J
4000000000124450 0B 70 00 44 00 10 60 E8 39 0E 73 00 00 00 04 00 .p.D..`.9.s.....
4000000000124460 11 00 00 00 01 00 60 D0 39 8E 73 03 20 00 00 42 ......`.9.s. ..B
4000000000124470 10 00 00 00 01 00 70 70 39 0C 73 03 80 00 00 42 ......pp9.s....B
4000000000124480 11 00 00 00 01 00 00 09 40 00 42 00 70 00 00 40 ........@.B.p..@
4000000000124490 10 00 00 00 01 00 60 D8 AE 0E F3 03 90 EA FF 4A ......`........J
40000000001244A0 09 00 00 00 01 00 20 02 B4 00 42 00 00 00 04 00 ...... ...B.....
40000000001244B0 10 00 00 00 01 00 60 00 88 0E F2 03 10 F8 FF 48 ......`........H
40000000001244C0 10 00 00 00 01 00 00 00 00 02 00 00 60 EA FF 48 ............`..H
40000000001244D0 09 70 00 44 00 10 00 00 00 02 00 40 24 78 00 84 .p.D.......@$x..
40000000001244E0 11 00 00 00 01 00 60 00 38 0E 72 03 40 EA FF 4B ......`.8.r.@..K
40000000001244F0 11 00 00 00 01 00 60 00 40 0E 63 03 40 FF FF 4A ......`.@.c.@..J
4000000000124500 11 00 00 00 01 00 70 00 C0 0C 73 03 20 EA FF 4A ......p...s. ..J
4000000000124510 10 00 00 00 01 00 60 00 88 0E F2 03 B0 F7 FF 48 ......`........H
4000000000124520 10 00 00 00 01 00 00 00 00 02 00 00 00 EA FF 48 ...............H
4000000000124530 09 78 40 18 00 21 00 00 00 02 00 C0 04 00 00 84 .x@..!..........
4000000000124540 10 00 00 1E 90 11 00 00 00 02 00 00 20 FE FF 48 ............ ..H
4000000000124550 0B 70 B0 00 08 20 E0 70 CC 24 40 00 00 00 04 00 .p... .p.$@.....
4000000000124560 0B 78 00 1C 18 10 E0 70 3C 00 40 00 00 00 04 00 .x.....p<.@.....
4000000000124570 11 00 00 00 01 00 60 70 04 80 03 00 60 00 80 00 ......`p....`...

l4000000000124580:
	{ nop.m	0x0; adds	r39,0x0,r32; br.cond.sptk.few	4000000000122ED0 }
4000000000124590 11 00 00 00 01 00 00 00 00 02 00 00 38 7E EF 58 ............8~.X
40000000001245A0 09 70 00 10 18 10 F0 80 30 00 42 20 00 E8 01 84 .p......0.B ....
40000000001245B0 0B 70 38 6A 00 20 60 02 38 10 20 00 00 00 04 00 .p8j. `.8. .....
40000000001245C0 03 00 00 00 01 00 70 30 98 0C 28 C3 14 00 00 90 ......p0..(.....
40000000001245D0 09 00 00 00 01 C0 61 02 E0 00 42 00 00 00 04 00 ......a...B.....
40000000001245E0 10 00 98 1E 90 11 00 00 00 02 00 00 80 FD FF 48 ...............H
40000000001245F0 11 00 00 00 01 00 00 00 00 02 00 00 D8 7D EF 58 .............}.X
4000000000124600 09 70 00 10 18 10 F0 80 30 00 42 20 00 E8 01 84 .p......0.B ....
4000000000124610 0B 70 38 6A 00 20 60 02 38 10 20 00 00 00 04 00 .p8j. `.8. .....
4000000000124620 01 00 00 00 01 00 60 82 98 00 29 00 00 00 04 00 ......`...).....
4000000000124630 10 00 98 1E 90 11 00 00 00 02 00 00 30 FD FF 48 ............0..H
4000000000124640 11 00 00 00 01 00 00 00 00 02 00 00 88 7D EF 58 .............}.X
4000000000124650 09 70 00 10 18 10 F0 80 30 00 42 20 00 E8 01 84 .p......0.B ....
4000000000124660 0B 70 38 6A 00 20 60 02 38 10 20 00 00 00 04 00 .p8j. `.8. .....
4000000000124670 01 00 00 00 01 00 60 D2 98 00 29 00 00 00 04 00 ......`...).....
4000000000124680 10 00 98 1E 90 11 00 00 00 02 00 00 E0 FC FF 48 ...............H
4000000000124690 11 00 00 00 01 00 00 00 00 02 00 00 38 7D EF 58 ............8}.X
40000000001246A0 09 70 00 10 18 10 F0 80 30 00 42 20 00 E8 01 84 .p......0.B ....
40000000001246B0 0B 70 38 6A 00 20 60 02 38 10 20 00 00 00 04 00 .p8j. `.8. .....
40000000001246C0 01 00 00 00 01 00 60 22 98 00 29 00 00 00 04 00 ......`"..).....
40000000001246D0 10 00 98 1E 90 11 00 00 00 02 00 00 90 FC FF 48 ...............H
40000000001246E0 11 00 00 00 01 00 00 00 00 02 00 00 E8 7C EF 58 .............|.X
40000000001246F0 09 70 00 10 18 10 F0 80 30 00 42 20 00 E8 01 84 .p......0.B ....
4000000000124700 0B 70 38 6A 00 20 60 02 38 10 20 00 00 00 04 00 .p8j. `.8. .....
4000000000124710 01 00 00 00 01 00 60 E2 98 00 29 00 00 00 04 00 ......`...).....
4000000000124720 10 00 98 1E 90 11 00 00 00 02 00 00 40 FC FF 48 ............@..H
4000000000124730 11 00 00 00 01 00 00 00 00 02 00 00 98 7C EF 58 .............|.X
4000000000124740 09 70 00 10 18 10 F0 80 30 00 42 20 00 E8 01 84 .p......0.B ....
4000000000124750 0B 70 38 6A 00 20 60 02 38 10 20 00 00 00 04 00 .p8j. `.8. .....
4000000000124760 01 00 00 00 01 00 60 92 98 00 29 00 00 00 04 00 ......`...).....
4000000000124770 10 00 98 1E 90 11 00 00 00 02 00 00 F0 FB FF 48 ...............H
4000000000124780 11 00 00 00 01 00 00 00 00 02 00 00 48 7C EF 58 ............H|.X
4000000000124790 09 70 00 10 18 10 F0 80 30 00 42 20 00 E8 01 84 .p......0.B ....
40000000001247A0 0B 70 38 6A 00 20 60 02 38 10 20 00 00 00 04 00 .p8j. `.8. .....
40000000001247B0 01 00 00 00 01 00 60 F2 98 00 29 00 00 00 04 00 ......`...).....
40000000001247C0 10 00 98 1E 90 11 00 00 00 02 00 00 A0 FB FF 48 ...............H
40000000001247D0 11 00 00 00 01 00 00 00 00 02 00 00 F8 7B EF 58 .............{.X
40000000001247E0 09 70 00 10 18 10 F0 80 30 00 42 20 00 E8 01 84 .p......0.B ....
40000000001247F0 0B 70 38 6A 00 20 60 02 38 10 20 00 00 00 04 00 .p8j. `.8. .....
4000000000124800 01 00 00 00 01 00 60 B2 98 00 29 00 00 00 04 00 ......`...).....
4000000000124810 10 00 98 1E 90 11 00 00 00 02 00 00 50 FB FF 48 ............P..H
4000000000124820 11 00 00 00 01 00 00 00 00 02 00 00 A8 7B EF 58 .............{.X
4000000000124830 09 70 00 10 18 10 F0 80 30 00 42 20 00 E8 01 84 .p......0.B ....
4000000000124840 0B 70 38 6A 00 20 60 02 38 10 20 00 00 00 04 00 .p8j. `.8. .....
4000000000124850 01 00 00 00 01 00 60 12 98 00 29 00 00 00 04 00 ......`...).....
4000000000124860 10 00 98 1E 90 11 00 00 00 02 00 00 00 FB FF 48 ...............H
4000000000124870 11 00 00 00 01 00 00 00 00 02 00 00 58 7B EF 58 ............X{.X
4000000000124880 09 70 00 10 18 10 F0 80 30 00 42 20 00 E8 01 84 .p......0.B ....
4000000000124890 0B 70 38 6A 00 20 60 02 38 10 20 00 00 00 04 00 .p8j. `.8. .....
40000000001248A0 09 00 00 00 01 00 60 0A 98 58 40 00 00 00 04 00 ......`..X@.....
40000000001248B0 10 00 98 1E 90 11 00 00 00 02 00 00 B0 FA FF 48 ...............H
40000000001248C0 11 00 00 00 01 00 00 00 00 02 00 00 08 7B EF 58 .............{.X
40000000001248D0 09 70 00 10 18 10 F0 80 30 00 42 20 00 E8 01 84 .p......0.B ....
40000000001248E0 0B 70 38 6A 00 20 60 02 38 10 20 00 00 00 04 00 .p8j. `.8. .....
40000000001248F0 01 00 00 00 01 00 60 A2 98 00 29 00 00 00 04 00 ......`...).....
4000000000124900 10 00 98 1E 90 11 00 00 00 02 00 00 60 FA FF 48 ............`..H
4000000000124910 11 00 00 00 01 00 00 00 00 02 00 00 B8 7A EF 58 .............z.X
4000000000124920 09 70 00 10 18 10 F0 80 30 00 42 20 00 E8 01 84 .p......0.B ....
4000000000124930 0B 70 38 6A 00 20 60 02 38 10 20 00 00 00 04 00 .p8j. `.8. .....
4000000000124940 01 00 00 00 01 00 60 32 98 00 29 00 00 00 04 00 ......`2..).....
4000000000124950 10 00 98 1E 90 11 00 00 00 02 00 00 10 FA FF 48 ...............H
4000000000124960 11 00 00 00 01 00 00 00 00 02 00 00 68 7A EF 58 ............hz.X
4000000000124970 09 70 00 10 18 10 F0 80 30 00 42 20 00 E8 01 84 .p......0.B ....
4000000000124980 0B 70 38 6A 00 20 60 02 38 10 20 00 00 00 04 00 .p8j. `.8. .....
4000000000124990 01 00 00 00 01 00 60 C2 98 00 29 00 00 00 04 00 ......`...).....
40000000001249A0 10 00 98 1E 90 11 00 00 00 02 00 00 C0 F9 FF 48 ...............H
40000000001249B0 11 00 00 00 01 00 20 2A 88 00 42 00 F0 F9 FF 48 ...... *..B....H
40000000001249C0 08 70 59 22 80 05 E0 00 8C 00 20 00 06 00 CC 00 .pY"...... .....
40000000001249D0 09 78 01 02 00 21 00 00 00 02 00 40 06 20 01 84 .x...!.....@. ..
40000000001249E0 01 30 A0 1C 07 39 D0 02 00 62 00 60 06 00 00 84 .0...9...b.`....
40000000001249F0 CB 88 05 00 00 E4 11 03 00 00 42 00 00 00 04 00 ..........B.....
4000000000124A00 11 88 8D 62 00 20 00 00 00 02 00 00 C8 D3 FF 58 ...b. .........X
4000000000124A10 08 38 00 10 06 39 E0 F8 82 7E 46 00 00 00 04 00 .8...9...~F.....
4000000000124A20 19 08 00 5E 00 21 90 02 20 00 C2 03 50 06 00 43 ...^.!.. ...P..C
4000000000124A30 10 00 00 00 01 00 60 F8 38 0E EB 03 40 00 00 42 ......`.8...@..B
4000000000124A40 09 40 04 00 00 24 00 00 00 02 00 00 00 00 04 00 .@...$..........
4000000000124A50 03 00 00 00 01 00 F0 87 C1 BF 05 00 E0 02 AA 00 ................
4000000000124A60 10 00 00 00 01 00 00 68 05 80 03 80 08 00 84 00 .......h........
4000000000124A70 09 78 30 FB D2 27 00 00 00 02 00 C0 E1 00 20 80 .x0..'........ .
4000000000124A80 0B 78 00 1E 18 10 E0 70 3C 24 40 00 00 00 04 00 .x.....p<$@.....
4000000000124A90 0B 78 00 1C 18 10 E0 70 3C 00 40 00 00 00 04 00 .x.....p<.@.....
4000000000124AA0 11 00 00 00 01 00 60 70 04 80 03 00 60 00 80 00 ......`p....`...
4000000000124AB0 08 40 05 46 00 21 10 21 A5 20 70 60 22 0A 49 D0 .@.F.!.!. p`".I.
4000000000124AC0 19 58 ED 4B 2C 22 60 F8 81 0E 73 03 60 05 00 43 .X.K,"`...s.`..C
4000000000124AD0 28 32 01 44 00 21 10 03 A0 00 42 00 00 00 04 00 (2.D.!....B.....
4000000000124AE0 19 90 01 48 00 21 30 E3 03 00 48 00 E8 D2 FF 58 ...H.!0...H....X
4000000000124AF0 08 08 00 5E 00 21 00 00 00 02 00 80 05 40 00 84 ...^.!.......@..
4000000000124B00 17 00 00 00 00 48 04 10 00 80 A1 09 B0 00 00 43 .....H.........C
4000000000124B10 48 32 01 42 00 21 00 00 00 02 00 00 00 00 04 00 H2.B.!..........
4000000000124B20 09 50 FD 59 3F 23 00 00 00 02 00 00 00 00 04 00 .P.Y?#..........
4000000000124B30 08 00 00 00 01 00 00 00 00 02 00 00 00 00 04 00 ................
4000000000124B40 08 38 84 4C 06 34 10 03 84 00 42 40 06 30 01 84 .8.L.4....B@.0..
4000000000124B50 09 98 01 50 00 21 40 03 A8 00 42 A0 06 28 01 84 ...P.!@...B..(..
4000000000124B60 09 00 00 00 01 80 71 02 94 00 42 00 00 00 04 00 ......q...B.....
4000000000124B70 F1 38 01 56 00 21 00 00 00 02 00 00 18 E1 FF 58 .8.V.!.........X
4000000000124B80 10 08 00 5E 00 21 60 00 20 0E 73 03 50 00 00 43 ...^.!`. .s.P..C
4000000000124B90 09 00 00 00 01 00 60 0A 98 00 42 00 00 00 04 00 ......`...B.....
4000000000124BA0 11 00 00 00 01 00 70 10 99 0C 68 03 A0 FF FF 4A ......p...h....J
4000000000124BB0 10 40 01 58 00 21 60 48 B1 0E F0 03 20 FF FF 4A .@.X.!`H.... ..J
4000000000124BC0 10 00 00 00 01 00 80 08 00 00 48 00 90 FE FF 48 ..........H....H
4000000000124BD0 08 88 01 4C 00 21 20 03 88 00 42 60 06 48 01 84 ...L.! ...B`.H..
4000000000124BE0 19 A0 01 48 00 21 50 03 9C 00 42 00 A8 E0 FF 58 ...H.!P...B....X
4000000000124BF0 11 08 00 5E 00 21 60 00 20 0E F3 03 A0 FF FF 4A ...^.!`. ......J
4000000000124C00 03 40 00 00 00 21 F0 87 C1 BF 05 00 E0 02 AA 00 .@...!..........
4000000000124C10 10 00 00 00 01 00 00 68 05 80 03 80 08 00 84 00 .......h........
4000000000124C20 08 30 A8 40 87 39 70 0A 8C 00 42 00 00 00 04 00 .0.@.9p...B.....
4000000000124C30 19 88 88 42 10 34 B0 DA 97 58 44 03 A0 03 00 43 ...B.4...XD....C
4000000000124C40 08 18 FD 47 3F 23 00 00 00 02 00 00 00 00 04 00 ...G?#..........
4000000000124C50 08 88 01 4E 00 21 20 03 90 00 42 00 00 00 04 00 ...N.! ...B.....
4000000000124C60 19 98 F1 01 00 24 64 02 84 00 42 00 68 D1 FF 58 .....$d...B.h..X
4000000000124C70 08 00 00 00 01 00 84 FA 23 7E 46 20 00 78 01 84 ........#~F .x..
4000000000124C80 19 00 00 00 01 00 C0 02 20 00 C2 08 E0 00 00 43 ........ ......C
4000000000124C90 08 00 00 00 01 00 00 00 00 02 00 00 00 00 04 00 ................
4000000000124CA0 08 88 01 42 00 21 20 03 98 00 42 60 06 38 01 84 ...B.! ...B`.8..
4000000000124CB0 19 A0 01 50 00 21 50 03 94 00 42 00 D8 DF FF 58 ...P.!P...B....X
4000000000124CC0 11 08 00 5E 00 21 70 00 20 0C 73 03 80 00 00 42 ...^.!p. .s....B
4000000000124CD0 08 88 01 4C 00 21 20 03 88 00 42 60 06 48 01 84 ...L.! ...B`.H..
4000000000124CE0 18 A0 01 48 00 21 70 08 99 0C 68 03 40 02 00 42 ...H.!p...h.@..B
4000000000124CF0 11 A8 01 56 00 21 A0 02 AC 00 42 00 98 DF FF 58 ...V.!....B....X
4000000000124D00 10 08 00 5E 00 21 60 00 20 0E 73 03 00 FF FF 4A ...^.!`. .s....J
4000000000124D10 08 88 01 4C 00 21 20 03 88 00 42 60 06 18 01 84 ...L.! ...B`....
4000000000124D20 19 A0 01 48 00 21 50 03 A8 00 42 00 68 DF FF 58 ...H.!P...B.h..X
4000000000124D30 11 08 00 5E 00 21 60 00 20 0E 73 03 D0 FE FF 4A ...^.!`. .s....J
4000000000124D40 09 00 00 00 01 00 60 0A 98 00 42 00 00 00 04 00 ......`...B.....
4000000000124D50 11 00 00 00 01 00 70 10 99 0C 68 03 50 FF FF 4A ......p...h.P..J
4000000000124D60 08 38 01 58 00 21 60 48 B1 0E 70 40 06 20 01 84 .8.X.!`H..p@. ..
4000000000124D70 19 98 F1 01 00 24 64 02 84 00 42 03 D0 FC FF 4B .....$d...B....K
4000000000124D80 11 88 01 4E 00 21 00 00 00 02 00 00 48 D0 FF 58 ...N.!......H..X
4000000000124D90 08 00 00 00 01 00 10 00 BC 00 42 80 05 40 00 84 ..........B..@..
4000000000124DA0 18 00 00 00 01 00 84 FA 23 7E 46 08 00 FF FF 4A ........#~F....J
4000000000124DB0 10 00 00 00 01 00 00 00 00 02 00 00 B0 FF FF 48 ...............H
4000000000124DC0 11 38 88 42 06 34 00 00 00 02 80 03 80 FC FF 4B .8.B.4.........K
4000000000124DD0 C8 58 05 46 00 A1 81 02 84 00 42 00 00 00 04 00 .X.F......B.....
4000000000124DE0 C3 50 ED 4B 2C 22 00 00 00 02 00 C0 04 58 01 84 .P.K,".......X..
4000000000124DF0 08 00 00 00 01 00 00 00 00 02 00 00 00 00 04 00 ................
4000000000124E00 08 88 01 4C 00 21 00 00 00 02 00 40 06 20 01 84 ...L.!.....@. ..
4000000000124E10 19 98 F1 01 00 24 00 00 00 02 00 00 B8 CF FF 58 .....$.........X
4000000000124E20 08 08 00 5E 00 21 70 02 20 00 42 60 06 30 01 84 ...^.!p. .B`.0..
4000000000124E30 09 A8 01 4A 00 21 10 03 84 00 42 40 06 40 01 84 ...J.!....B@.@..
4000000000124E40 11 A0 FD 11 3F 23 60 02 9C 00 42 00 48 DE FF 58 ....?#`...B.H..X
4000000000124E50 11 30 00 10 87 39 10 00 BC 00 42 03 40 01 00 43 .0...9....B.@..C
4000000000124E60 10 00 00 00 01 00 70 48 9D 0C 70 03 A0 FF FF 4A ......pH..p....J
4000000000124E70 09 48 84 50 08 34 00 00 00 02 00 C0 01 00 00 84 .H.P.4..........
4000000000124E80 09 30 00 1C 87 39 00 00 00 02 00 A4 06 28 01 84 .0...9.......(..
4000000000124E90 10 00 00 00 01 40 52 03 A8 00 42 03 40 00 00 43 .....@R...B.@..C
4000000000124EA0 09 00 00 00 01 00 80 0A A0 00 42 00 00 00 04 00 ..........B.....
4000000000124EB0 10 00 00 00 01 00 70 10 A1 0C E8 03 90 FB FF 4B ......p........K
4000000000124EC0 10 00 00 00 01 00 60 02 AC 00 42 00 40 FF FF 48 ......`...B.@..H
4000000000124ED0 08 88 01 50 00 21 20 03 88 00 42 60 06 48 01 84 ...P.! ...B`.H..
4000000000124EE0 19 A0 01 48 00 21 80 0A A0 00 42 00 A8 DD FF 58 ...H.!....B....X
4000000000124EF0 11 30 00 10 87 39 10 00 BC 00 42 03 10 FD FF 4B .0...9....B....K
4000000000124F00 10 00 00 00 01 00 70 10 A1 0C 68 03 C0 FF FF 4A ......p...h....J
4000000000124F10 10 00 00 00 01 00 00 00 00 02 00 00 30 FB FF 48 ............0..H
4000000000124F20 11 A8 01 4A 00 21 00 00 00 02 00 00 68 DD FF 58 ...J.!......h..X
4000000000124F30 11 08 00 5E 00 21 60 00 20 0E 73 03 D0 FC FF 4A ...^.!`. .s....J
4000000000124F40 08 30 98 42 07 38 A0 02 94 00 42 20 06 30 01 84 .0.B.8....B .0..
4000000000124F50 19 90 01 44 00 21 30 03 8C 00 42 03 F0 FD FF 4B ...D.!0...B....K
4000000000124F60 11 A0 01 48 00 21 50 03 A8 00 42 00 28 DD FF 58 ...H.!P...B.(..X
4000000000124F70 10 08 00 5E 00 21 60 00 20 0E 73 03 90 FC FF 4A ...^.!`. .s....J
4000000000124F80 10 00 00 00 01 00 00 00 00 02 00 00 C0 FD FF 48 ...............H
4000000000124F90 02 48 84 50 08 34 E0 08 00 00 48 A4 06 28 01 84 .H.P.4....H..(..
4000000000124FA0 19 30 00 1C 87 39 00 00 00 02 80 03 00 FF FF 4A .0...9.........J
4000000000124FB0 28 A9 01 54 00 21 00 00 00 02 00 00 00 00 04 00 (..T.!..........
4000000000124FC0 11 00 00 00 01 00 00 00 00 02 00 00 10 FF FF 48 ...............H
4000000000124FD0 08 88 01 42 00 21 20 03 88 00 42 60 06 40 00 84 ...B.! ...B`.@..
4000000000124FE0 19 A0 01 48 00 21 50 03 94 00 42 00 A8 DC FF 58 ...H.!P...B....X
4000000000124FF0 08 08 00 5E 00 21 70 00 20 0C 73 E0 14 18 01 84 ...^.!p. .s.....
4000000000125000 19 88 88 42 10 34 30 FA 8F 7E C6 03 00 FC FF 4B ...B.40..~.....K
4000000000125010 10 00 00 00 01 00 B0 DA 97 58 44 00 40 FC FF 48 .........XD.@..H
4000000000125020 08 88 01 42 00 21 20 03 88 00 42 60 06 40 00 84 ...B.! ...B`.@..
4000000000125030 19 A0 01 48 00 21 50 03 94 00 42 00 58 DC FF 58 ...H.!P...B.X..X
4000000000125040 08 08 00 5E 00 21 60 00 20 0E 73 00 15 18 01 84 ...^.!`. .s.....
4000000000125050 19 88 90 52 10 38 30 11 85 24 68 03 B0 FB FF 4B ...R.80..$h....K
4000000000125060 10 00 00 00 01 00 B0 DA 97 58 44 00 70 FA FF 48 .........XD.p..H
4000000000125070 08 38 01 48 00 10 10 FB 8F 7E 46 40 06 08 01 84 .8.H.....~F@....
4000000000125080 09 30 01 44 00 10 00 00 88 00 23 00 00 00 04 00 .0.D......#.....
4000000000125090 11 00 00 48 80 11 00 00 00 02 00 00 B8 63 EF 58 ...H.........c.X
40000000001250A0 08 38 00 10 86 39 00 38 91 00 23 20 00 78 01 84 .8...9.8..# .x..
40000000001250B0 0B 00 98 44 80 91 81 08 00 00 48 00 00 00 04 00 ...D......H.....
40000000001250C0 11 00 00 00 01 C0 81 00 00 00 42 00 90 F9 FF 48 ..........B....H
40000000001250D0 08 00 00 00 01 00 00 00 00 02 00 00 00 00 04 00 ................
40000000001250E0 08 00 00 00 01 00 00 00 00 02 00 00 00 00 04 00 ................
40000000001250F0 08 00 00 00 01 00 00 00 00 02 00 00 00 00 04 00 ................

l4000000000125100:
	{ alloc	r55,ar.pfs,0x20,0x0,0x1A; adds	r12,0xFFFFFFFFFFFFFFE0,r12; mov	r57,pr }
	{ and	r47,0x20,r36; cmp.eq	p06,p07,0x0,r32; and	r46,0x2,r36; }
	{ addl	r49,-5772,r1; cmp.eq.or.andcm	p06,p07,0x0,r34; adds	r56,0x0,r1 }
	{ addl	r44,6400,r1; adds	r38,0x0,r32; addl	r45,6408,r1; }
	{ nop.m	0x0; tnat.z	p16,p17,r36; nop.b	0x0 }
	{ ld8	r49,[r49]; cmp4.eq	p18,p19,0x0,r47; cmp4.eq	p21,p20,0x0,r46; }
	{ nop.m	0x0; tnat.z	p24,p25,r36; tnat.z	p26,p27,r36; }
	{ nop.m	0x0; mov	r54,b6; (p06) br.cond.dpnt.few	4000000000125460; }

l4000000000125180:
	{ nop.m	0x0; cmp.ltu	p07,p06,r34,r35; (p06) br.cond.dpnt.few	4000000000126890 }

l4000000000125190:
	{ nop.m	0x0; adds	r42,0x0,r34; nop.i	0x0; }
	{ ld4	r37,[r42],4; nop.i	0x0; (p16) br.cond.dptk.few	40000000001251F0; }

l40000000001251B0:
	{ adds	r58,0x0,r37; nop.i	0x0; br.call.sptk.many	b0,400000000001B780; }
	{ adds	r1,0x0,r56; cmp4.eq	p06,p07,0x0,r8; (p06) br.cond.dptk.few	40000000001251F0 }

l40000000001251D0:
	{ adds	r58,0x0,r37; nop.i	0x0; br.call.sptk.many	b0,400000000001A760; }
	{ nop.m	0x0; adds	r1,0x0,r56; adds	r37,0x0,r8 }

l40000000001251F0:
	{ cmp.ltu	p23,p22,r38,r33; (p23) ld4	r39,[r38]; nop.i	0x0; }

l40000000001251FC:
	{ invala; cmp4.ge.or.andcm	p00,p00,r0,r0; (p04) chk.s.i	r0,3FFFFFFFFF5451FC }

l400000000012520C:
	{ (p01) nop; cmp.lt	p00,p00,r32,r0; (p01) rfi }

l4000000000125212:
	{ Invalid; (p32) break.i	0x2020A; Invalid }
	{ Invalid; (p37) nop.i	0xF30C3; (p07) nop }
	{ (p23) break.m	0x730E9; break.f	0x20; clrrrb }
	{ break.m	0x20; deposit	r32,r0,r64,63,1; Invalid }
	{ cmp.eq.or.andcm	p32,p32,r0,r0; (p23) nop; Invalid }
	{ ld1.sa	r32,[r0]; (p21) cmp.eq.unc	p41,p01,r97,r92; Invalid }
	{ break.m	0x20; nop; cmp.ltu	p00,p04,r32,r40 }
	{ (p48) break.m	0x42009; nop; Invalid; }
	{ Invalid; nop; cmp.ltu	p00,p04,r32,r40 }
	{ (p48) break.m	0x42009; addl	r32,0,r0; Invalid; }
	{ invala; chk.s.i	r64,3FFFFFFFFFD2D392; Invalid }
	{ cmp.eq.or.andcm	p32,p48,r0,r0; (p20) deposit	r73,r33,r92,63,1; (p03) nop }
	{ (p32) break.m	0x4200A; break.i	0x20; nop; }
	{ (p32) ld1.sa	r9,[r16]; (p52) nop; nop; }

l40000000001252F0:
	{ cmp.eq	p06,p07,r38,r33; nop.i	0x0; (p06) br.cond.dpnt.few	4000000000125950; }

l4000000000125300:
	{ nop.m	0x0; tbit.z	p06,p07,r36,0x3; (p06) br.cond.dptk.few	4000000000125460 }

l4000000000125310:
	{ ld4	r14,[r38]; nop.m	0x0; addl	r8,1,r0; }
	{ cmp4.eq	p06,p07,0x2F,r14; nop.i	0x0; (p06) br.cond.dpnt.few	4000000000125950; }

l4000000000125330:
	{ nop.m	0x0; mov	pr,r57,0xFFFFFFFFFFFFFFFE; nop.i	0x0; }
	{ nop.m	0x0; mov.i	ar.pfs,r55; mov.spnt	b0,r54,4000000000125340 }
	{ nop.m	0x0; adds	r12,0x20,r12; br.ret	b0 }
4000000000125360 0B 70 20 56 00 21 E0 00 38 20 20 00 00 00 04 00 .p V.!..8  .....
4000000000125370 10 00 00 00 01 00 70 E8 39 0C 73 03 40 0C 00 42 ......p.9.s.@..B
4000000000125380 0B 70 30 56 00 21 E0 00 38 20 20 00 00 00 04 00 .p0V.!..8  .....
4000000000125390 10 00 00 00 01 00 70 E8 3A 0C 73 03 20 0C 00 42 ......p.:.s. ..B
40000000001253A0 09 00 00 00 01 00 E0 20 AC 00 42 00 00 00 04 00 ....... ..B.....
40000000001253B0 11 28 01 1C 10 10 00 00 00 02 00 08 50 00 00 42 .(..........P..B
40000000001253C0 11 D0 01 4A 00 21 00 00 00 02 00 00 C8 63 EF 58 ...J.!.......c.X
40000000001253D0 10 08 00 70 00 21 60 00 20 0E 73 03 30 00 00 42 ...p.!`. .s.0..B
40000000001253E0 11 D0 01 4A 00 21 00 00 00 02 00 00 88 53 EF 58 ...J.!.......S.X
40000000001253F0 09 00 00 00 01 00 10 00 E0 00 42 A0 04 40 00 84 ..........B..@..
4000000000125400 09 70 80 18 00 21 70 38 95 0C 71 40 44 59 01 84 .p...!p8..q@DY..
4000000000125410 11 00 94 1C 90 11 E0 80 AC 00 C2 03 60 15 00 43 ............`..C
4000000000125420 09 00 00 00 01 00 50 02 38 20 20 00 00 00 04 00 ......P.8  .....
4000000000125430 11 00 00 00 01 00 70 00 94 0C 73 03 E0 0A 00 42 ......p...s....B
4000000000125440 11 00 00 00 01 00 60 D8 9E 0E 73 03 10 13 00 43 ......`...s....C
4000000000125450 08 00 00 00 01 00 00 00 00 02 00 00 00 00 04 00 ................

l4000000000125460:
	{ addl	r8,1,r0; nop.m	0x0; nop.i	0x0; }
	{ nop.m	0x0; mov	pr,r57,0xFFFFFFFFFFFFFFFE; nop.i	0x0; }
	{ nop.m	0x0; mov.i	ar.pfs,r55; mov.spnt	b0,r54,4000000000125480 }
	{ nop.m	0x0; adds	r12,0x20,r12; br.ret	b0 }
40000000001254A0 11 30 6C 4B 87 39 00 00 00 02 00 03 40 07 00 43 .0lK.9......@..C
40000000001254B0 11 00 00 00 01 00 60 E0 96 0E F3 03 C0 FD FF 4A ......`........J
40000000001254C0 12 30 A8 46 07 B8 01 D0 FF FF 25 0A 50 11 00 42 .0.F......%.P..B
40000000001254D0 09 10 21 44 00 21 50 02 A8 20 20 00 00 00 04 00 ..!D.!P..  .....
40000000001254E0 12 30 8C 44 07 B4 01 C0 FF FF 25 08 90 00 00 42 .0.D......%....B
40000000001254F0 11 D0 01 4A 00 21 00 00 00 02 00 00 98 62 EF 58 ...J.!.......b.X
4000000000125500 10 08 00 70 00 21 60 00 20 0E 73 03 30 00 00 42 ...p.!`. .s.0..B
4000000000125510 11 D0 01 4A 00 21 00 00 00 02 00 00 58 52 EF 58 ...J.!......XR.X
4000000000125520 08 00 00 00 01 00 10 00 E0 00 42 A0 04 40 00 84 ..........B..@..
4000000000125530 11 D0 01 4E 00 21 00 00 00 02 00 00 58 62 EF 58 ...N.!......Xb.X
4000000000125540 10 08 00 70 00 21 60 00 20 0E 73 03 30 00 00 42 ...p.!`. .s.0..B
4000000000125550 11 D0 01 4E 00 21 00 00 00 02 00 00 18 52 EF 58 ...N.!.......R.X
4000000000125560 09 00 00 00 01 00 10 00 E0 00 42 E0 04 40 00 84 ..........B..@..
4000000000125570 11 38 94 4E 86 38 60 22 98 00 42 03 F0 FE FF 4B .8.N.8`"..B....K
4000000000125580 10 00 00 00 01 00 60 10 8D 0E 68 03 10 FC FF 4A ......`...h....J
4000000000125590 11 00 00 00 01 00 00 00 00 02 00 00 60 FD FF 48 ............`..H
40000000001255A0 03 70 58 4B 3F 23 60 F8 95 0E 73 20 11 70 20 D6 .pXK?#`...s .p .
40000000001255B0 D1 40 00 00 C9 39 00 00 00 02 00 04 30 00 00 43 .@...9......0..C
40000000001255C0 09 00 00 00 01 00 80 00 96 12 73 00 00 00 04 00 ..........s.....
40000000001255D0 10 00 00 00 01 00 80 08 95 92 F3 04 70 FC FF 4A ............p..J
40000000001255E0 08 38 98 40 06 38 A0 03 94 00 42 60 07 30 01 84 .8.@.8....B`.0..
40000000001255F0 09 E0 01 42 00 21 D0 03 A8 00 42 C0 07 18 01 84 ...B.!....B.....
4000000000125600 09 00 00 00 01 80 41 DA 93 58 44 00 00 00 04 00 ......A..XD.....
4000000000125610 11 F8 01 48 00 21 00 00 00 02 00 00 B8 13 00 50 ...H.!.........P
4000000000125620 03 08 00 70 00 21 F0 CF C1 BF 05 00 70 03 AA 00 ...p.!......p...
4000000000125630 00 00 00 00 01 00 00 B0 05 80 03 00 00 00 04 00 ................
4000000000125640 18 60 80 18 00 21 00 00 00 02 00 80 08 00 84 00 .`...!..........
4000000000125650 11 38 A8 46 06 38 40 01 90 2A A8 03 00 03 00 43 .8.F.8@..*.....C
4000000000125660 11 00 00 00 01 00 60 20 90 0E 28 03 20 00 00 42 ......` ..(. ..B
4000000000125670 10 00 00 00 01 00 70 70 9D 0C F3 03 70 10 00 43 ......pp....p..C
4000000000125680 03 70 00 54 10 10 50 42 88 00 42 E0 A0 72 18 E6 .p.T..PB..B..r..
4000000000125690 11 00 00 00 01 00 70 F8 39 8C 73 03 A0 00 00 43 ......p.9.s....C
40000000001256A0 11 00 00 00 01 00 00 00 00 02 00 0A 20 00 00 42 ............ ..B
40000000001256B0 11 00 00 00 01 00 60 78 9D 0E 73 03 B0 FD FF 4B ......`x..s....K
40000000001256C0 10 00 00 00 01 00 70 F8 39 0C 73 09 C0 03 00 42 ......p.9.s....B
40000000001256D0 11 00 00 00 01 00 00 00 00 02 80 03 F0 03 00 43 ...............C
40000000001256E0 11 00 00 00 01 00 70 50 39 0C F3 03 B0 02 00 43 ......pP9......C
40000000001256F0 11 30 94 46 07 38 00 00 00 02 00 03 60 02 00 43 .0.F.8......`..C
4000000000125700 0B 70 10 4A 10 14 60 F8 39 0E 73 00 00 00 04 00 .p.J..`.9.s.....
4000000000125710 10 00 00 00 01 00 60 50 39 8E 73 03 90 FF FF 4A ......`P9.s....J
4000000000125720 09 B8 98 42 16 34 00 00 00 02 00 00 00 00 04 00 ...B.4..........
4000000000125730 11 48 01 1C 00 21 70 10 90 0C 28 03 30 00 00 42 .H...!p...(.0..B
4000000000125740 09 00 00 00 01 00 70 E0 3A 0C 73 00 00 00 04 00 ......p.:.s.....
4000000000125750 E8 48 01 4A 10 10 00 00 00 02 00 00 00 00 04 00 .H.J............
4000000000125760 08 00 00 00 01 00 30 01 BC 24 73 80 B4 27 B1 88 ......0..$s..'..
4000000000125770 19 00 00 00 01 00 40 D9 3A 2A 73 08 60 00 00 42 ......@.:*s.`..B
4000000000125780 11 D0 01 52 00 21 00 00 00 02 00 00 08 60 EF 58 ...R.!.......`.X
4000000000125790 08 00 00 00 01 00 A0 03 A4 00 42 20 00 C0 01 84 ..........B ....
40000000001257A0 18 00 00 00 01 00 60 00 20 0E 73 03 30 00 00 42 ......`. .s.0..B
40000000001257B0 11 00 00 00 01 00 00 00 00 02 00 00 B8 4F EF 58 .............O.X
40000000001257C0 08 00 00 00 01 00 10 00 E0 00 42 20 05 40 00 84 ..........B .@..
40000000001257D0 13 38 F1 4B 3F A3 05 48 FE FF 25 09 A0 00 00 42 .8.K?..H..%....B
40000000001257E0 11 00 00 00 01 00 00 00 00 02 00 0A 40 01 00 43 ............@..C
40000000001257F0 11 40 01 4C 10 10 00 00 00 02 00 08 50 00 00 42 .@.L........P..B
4000000000125800 11 D0 01 50 00 21 00 00 00 02 00 00 88 5F EF 58 ...P.!......._.X
4000000000125810 10 08 00 70 00 21 60 00 20 0E 73 03 30 00 00 42 ...p.!`. .s.0..B
4000000000125820 11 D0 01 50 00 21 00 00 00 02 00 00 48 4F EF 58 ...P.!......HO.X
4000000000125830 09 00 00 00 01 00 10 00 E0 00 42 00 05 40 00 84 ..........B..@..
4000000000125840 10 00 00 00 01 00 60 40 A5 0E 71 03 E0 00 00 43 ......`@..q....C
4000000000125850 09 00 00 00 01 00 60 22 98 00 42 00 00 00 04 00 ......`"..B.....
4000000000125860 12 30 98 42 07 F4 01 00 FE FF A5 09 80 FF FF 4A .0.B...........J
4000000000125870 02 78 00 4A 10 10 A0 E3 F6 A5 4F C0 80 7A 1C E6 .x.J......O..z..
4000000000125880 19 D0 01 74 18 10 00 00 00 02 00 03 A0 00 00 43 ...t...........C
4000000000125890 11 D8 01 4E 10 10 00 00 00 02 00 00 38 64 EF 58 ...N........8d.X
40000000001258A0 10 08 00 70 00 21 70 00 20 0C 72 03 80 00 00 42 ...p.!p. .r....B
40000000001258B0 11 00 00 00 01 00 00 00 00 02 00 0A 70 00 00 43 ............p..C
40000000001258C0 11 40 01 4C 10 10 00 00 00 02 00 08 50 00 00 42 .@.L........P..B
40000000001258D0 11 D0 01 50 00 21 00 00 00 02 00 00 B8 5E EF 58 ...P.!.......^.X
40000000001258E0 10 08 00 70 00 21 60 00 20 0E 73 03 30 00 00 42 ...p.!`. .s.0..B
40000000001258F0 11 D0 01 50 00 21 00 00 00 02 00 00 78 4E EF 58 ...P.!......xN.X
4000000000125900 09 00 00 00 01 00 10 00 E0 00 42 00 05 40 00 84 ..........B..@..
4000000000125910 11 00 00 00 01 00 70 40 A5 0C 71 03 40 FF FF 4A ......p@..q.@..J
4000000000125920 08 D0 01 4C 00 21 B0 03 84 00 42 80 07 38 01 84 ...L.!....B..8..
4000000000125930 19 E8 01 46 00 21 E0 03 90 00 42 00 D8 F7 FF 58 ...F.!....B....X
4000000000125940 10 08 00 70 00 21 60 00 20 0E F3 03 10 FF FF 4A ...p.!`. ......J

l4000000000125950:
	{ adds	r8,0x0,r0; nop.m	0x0; nop.i	0x0; }
	{ nop.m	0x0; mov	pr,r57,0xFFFFFFFFFFFFFFFE; nop.i	0x0; }
	{ nop.m	0x0; mov.i	ar.pfs,r55; mov.spnt	b0,r54,4000000000125970 }
	{ nop.m	0x0; adds	r12,0x20,r12; br.ret	b0 }
4000000000125990 09 00 00 00 01 00 E0 00 94 20 20 00 00 00 04 00 .........  .....
40000000001259A0 11 00 00 00 01 00 70 40 39 0C 73 03 50 FD FF 4A ......p@9.s.P..J
40000000001259B0 11 00 00 00 01 00 60 30 85 0E E8 03 80 00 00 43 ......`0.......C
40000000001259C0 C9 40 01 4C 00 21 00 00 00 02 00 00 00 00 04 00 .@.L.!..........
40000000001259D0 08 00 00 00 01 00 00 00 00 02 00 00 00 00 04 00 ................
40000000001259E0 08 D8 01 50 00 21 A0 53 01 00 48 00 45 40 01 84 ...P.!.S..H.E@..
40000000001259F0 09 E0 01 42 00 21 D0 03 94 00 42 C0 07 18 01 84 ...B.!....B.....
4000000000125A00 11 F8 01 48 00 21 00 00 00 02 00 00 C8 0F 00 50 ...H.!.........P
4000000000125A10 11 30 00 10 87 39 10 00 E0 00 42 03 40 FF FF 4B .0...9....B.@..K
4000000000125A20 10 00 00 00 01 00 60 40 85 0E 68 03 C0 FF FF 4A ......`@..h....J
4000000000125A30 08 D0 11 4A 00 21 00 00 00 02 00 60 07 18 01 84 ...J.!.....`....
4000000000125A40 19 E0 01 00 00 21 00 00 00 02 00 00 88 C7 FF 58 .....!.........X
4000000000125A50 08 00 00 00 01 00 10 00 E0 00 42 A0 04 40 00 84 ..........B..@..
4000000000125A60 18 00 00 00 01 00 70 00 20 0C 72 03 90 FC FF 4A ......p. .r....J
4000000000125A70 10 00 00 00 01 00 80 00 00 00 42 00 F0 FE FF 48 ..........B....H
4000000000125A80 11 00 00 00 01 00 00 00 00 02 00 03 70 FC FF 4A ............p..J
4000000000125A90 11 30 00 4E 87 39 60 22 98 00 42 03 D0 F9 FF 4B .0.N.9`"..B....K
4000000000125AA0 0B 38 98 42 06 F4 71 02 98 20 20 00 00 00 04 00 .8.B..q..  .....
4000000000125AB0 10 00 00 00 01 80 71 02 00 00 42 00 40 FC FF 48 ......q...B.@..H
4000000000125AC0 09 00 00 00 01 00 E0 00 94 20 20 00 00 00 04 00 .........  .....
4000000000125AD0 11 00 00 00 01 00 70 40 39 0C 73 03 C0 FF FF 4A ......p@9.s....J
4000000000125AE0 11 00 00 00 01 00 70 30 85 0C 68 03 80 F9 FF 4B ......p0..h....K
4000000000125AF0 08 00 00 00 01 00 00 00 00 02 00 00 00 00 04 00 ................
4000000000125B00 08 D8 01 4C 00 21 A0 FB 01 00 48 C0 44 30 01 84 ...L.!....H.D0..
4000000000125B10 09 E0 01 42 00 21 D0 03 94 00 42 C0 07 18 01 84 ...B.!....B.....
4000000000125B20 11 F8 01 48 00 21 00 00 00 02 00 00 A8 0E 00 50 ...H.!.........P
4000000000125B30 11 30 00 10 87 39 10 00 E0 00 42 03 20 FE FF 4B .0...9....B. ..K
4000000000125B40 10 00 00 00 01 00 60 30 85 0E 68 03 C0 FF FF 4A ......`0..h....J
4000000000125B50 11 00 00 00 01 00 80 08 00 00 48 00 20 F9 FF 48 ..........H. ..H
4000000000125B60 13 38 00 4E 86 F9 01 80 FC FF 25 0C 20 00 00 42 .8.N......%. ..B
4000000000125B70 10 00 00 00 01 00 60 78 9D 0E 73 03 F0 F8 FF 4B ......`x..s....K
4000000000125B80 11 00 00 00 01 00 00 00 00 02 00 0D 50 F7 FF 4A ............P..J
4000000000125B90 11 00 00 00 01 00 70 70 9D 0C 73 03 40 F7 FF 4A ......pp..s.@..J
4000000000125BA0 12 30 98 40 07 B8 01 60 FC FF 25 0C 30 F7 FF 4A .0.@...`..%.0..J
4000000000125BB0 09 70 F0 4D 3F 23 00 00 00 02 00 40 04 50 01 84 .p.M?#.....@.P..
4000000000125BC0 09 00 00 00 01 00 E0 00 38 20 20 00 00 00 04 00 ........8  .....
4000000000125BD0 13 30 BC 1C 87 B9 01 48 FC FF 25 00 10 F7 FF 48 .0.....H..%....H
4000000000125BE0 09 00 00 00 01 00 60 30 85 0E 70 00 00 00 04 00 ......`0..p.....
4000000000125BF0 13 30 00 4E C7 B9 01 38 FC FF 25 0D 20 00 00 43 .0.N...8..%. ..C
4000000000125C00 10 00 00 00 01 00 70 70 9D 0C F3 03 A0 0A 00 43 ......pp.......C
4000000000125C10 10 00 00 00 01 00 00 00 00 02 00 08 50 00 00 42 ............P..B
4000000000125C20 11 D0 01 4E 00 21 00 00 00 02 00 00 68 5B EF 58 ...N.!......h[.X
4000000000125C30 10 08 00 70 00 21 60 00 20 0E 73 03 30 00 00 42 ...p.!`. .s.0..B
4000000000125C40 11 D0 01 4E 00 21 00 00 00 02 00 00 28 4B EF 58 ...N.!......(K.X
4000000000125C50 09 00 00 00 01 00 10 00 E0 00 42 E0 04 40 00 84 ..........B..@..
4000000000125C60 09 28 01 54 10 10 40 FB 9F 7E 46 40 16 38 01 84 .(.T..@..~F@.8..
4000000000125C70 02 30 78 4B 87 39 80 08 95 12 73 C3 11 00 00 90 .0xK.9....s.....
4000000000125C80 0B 81 05 00 00 E4 E1 00 00 00 C2 04 06 00 00 84 ................
4000000000125C90 0B 80 C1 1C 0E 20 60 00 C0 0E 73 00 00 00 04 00 ..... `...s.....
4000000000125CA0 EA 58 21 44 00 E1 51 02 AC 20 20 63 05 50 01 84 .X!D..Q..  c.P..
4000000000125CB0 0B 30 7C 4F 87 F9 31 03 00 00 42 60 45 58 01 84 .0|O..1...B`EX..
4000000000125CC0 D1 98 05 00 00 24 70 D8 96 0C F3 03 B0 02 00 43 .....$p........C
4000000000125CD0 08 00 00 00 01 00 00 00 00 02 00 00 00 00 04 00 ................
4000000000125CE0 11 00 00 00 01 00 00 00 00 02 00 0A 20 00 00 42 ............ ..B
4000000000125CF0 10 00 00 00 01 00 70 E0 96 0C F3 03 D0 02 00 43 ......p........C
4000000000125D00 08 40 01 4A 00 21 00 00 00 02 00 00 00 00 04 00 .@.J.!..........
4000000000125D10 11 00 00 00 01 00 00 00 00 02 00 08 50 00 00 42 ............P..B
4000000000125D20 11 D0 01 50 00 21 00 00 00 02 00 00 68 5A EF 58 ...P.!......hZ.X
4000000000125D30 10 08 00 70 00 21 60 00 20 0E 73 03 30 00 00 42 ...p.!`. .s.0..B
4000000000125D40 11 D0 01 50 00 21 00 00 00 02 00 00 28 4A EF 58 ...P.!......(J.X
4000000000125D50 08 00 00 00 01 00 10 00 E0 00 42 00 05 40 00 84 ..........B..@..
4000000000125D60 11 48 01 56 00 21 70 00 94 0C F3 03 E0 F6 FF 4B .H.V.!p........K
4000000000125D70 09 00 00 00 01 00 50 22 A4 20 28 00 00 00 04 00 ......P". (.....
4000000000125D80 10 00 00 00 01 00 20 02 A4 00 42 08 50 00 00 42 ...... ...B.P..B
4000000000125D90 11 D0 01 4A 00 21 00 00 00 02 00 00 F8 59 EF 58 ...J.!.......Y.X
4000000000125DA0 10 08 00 70 00 21 60 00 20 0E 73 03 30 00 00 42 ...p.!`. .s.0..B
4000000000125DB0 11 D0 01 4A 00 21 00 00 00 02 00 00 B8 49 EF 58 ...J.!.......I.X
4000000000125DC0 08 00 00 00 01 00 10 00 E0 00 42 A0 04 40 00 84 ..........B..@..
4000000000125DD0 11 00 00 00 01 00 00 00 00 02 00 0C 20 00 00 42 ............ ..B
4000000000125DE0 11 00 00 00 01 00 60 78 95 0E 73 03 80 F6 FF 4B ......`x..s....K
4000000000125DF0 10 00 00 00 01 00 70 68 95 0C 73 03 50 02 00 42 ......ph..s.P..B
4000000000125E00 09 00 00 00 01 00 90 02 A4 20 20 00 00 00 04 00 .........  .....
4000000000125E10 11 30 74 53 87 39 00 00 00 02 00 03 30 02 00 43 .0tS.9......0..C
4000000000125E20 11 10 21 56 00 21 70 00 B8 0C 73 03 20 00 00 42 ..!V.!p...s. ..B
4000000000125E30 0B 38 70 53 86 F9 91 02 88 20 A0 43 C4 58 01 84 .8pS..... .C.X..
4000000000125E40 11 30 00 52 87 39 00 00 00 02 00 03 20 F6 FF 4B .0.R.9...... ..K
4000000000125E50 10 28 01 44 10 10 60 D8 A6 0E 73 03 90 01 00 43 .(.D..`...s....C
4000000000125E60 10 00 00 00 01 00 00 00 00 02 00 08 50 00 00 42 ............P..B
4000000000125E70 11 D0 01 52 00 21 00 00 00 02 00 00 18 59 EF 58 ...R.!.......Y.X
4000000000125E80 10 08 00 70 00 21 60 00 20 0E 73 03 30 00 00 42 ...p.!`. .s.0..B
4000000000125E90 11 D0 01 52 00 21 00 00 00 02 00 00 D8 48 EF 58 ...R.!.......H.X
4000000000125EA0 09 00 00 00 01 00 10 00 E0 00 42 20 05 40 00 84 ..........B .@..
4000000000125EB0 08 30 A4 50 87 38 20 22 88 00 42 00 00 00 04 00 .0.P.8 "..B.....
4000000000125EC0 19 D0 01 02 32 24 B0 43 04 64 48 03 80 01 00 43 ....2$.C.dH....C
4000000000125ED0 08 00 00 00 01 00 00 40 B1 20 23 00 00 00 04 00 .......@. #.....
4000000000125EE0 19 00 A4 5A 90 11 00 00 00 02 00 00 48 47 EF 58 ...Z........HG.X
4000000000125EF0 11 38 00 10 86 31 10 00 E0 00 42 03 60 01 00 41 .8...1....B.`..A
4000000000125F00 10 00 00 00 01 00 60 E8 96 0E 73 03 00 02 00 43 ......`...s....C
4000000000125F10 10 00 00 00 01 00 00 00 00 02 00 08 50 00 00 42 ............P..B
4000000000125F20 11 D0 01 4A 00 21 00 00 00 02 00 00 68 58 EF 58 ...J.!......hX.X
4000000000125F30 10 08 00 70 00 21 60 00 20 0E 73 03 30 00 00 42 ...p.!`. .s.0..B
4000000000125F40 11 D0 01 4A 00 21 00 00 00 02 00 00 28 48 EF 58 ...J.!......(H.X
4000000000125F50 09 00 00 00 01 00 10 00 E0 00 42 A0 04 40 00 84 ..........B..@..
4000000000125F60 11 58 01 44 00 21 70 D8 96 0C 73 03 80 FD FF 4A .X.D.!p...s....J
4000000000125F70 09 00 00 00 01 00 E0 00 AC 20 20 00 00 00 04 00 .........  .....
4000000000125F80 11 38 F4 1C 86 39 00 00 00 02 80 03 E0 F3 FF 4B .8...9.........K
4000000000125F90 11 38 E8 1C 86 39 00 00 00 02 80 03 B0 01 00 43 .8...9.........C
4000000000125FA0 10 00 00 00 01 00 70 70 39 0C F3 03 B0 06 00 43 ......pp9......C
4000000000125FB0 11 00 00 00 01 00 80 DA 02 00 48 00 60 FD FF 48 ..........H.`..H
4000000000125FC0 09 40 01 56 10 10 00 00 00 02 00 60 45 58 01 84 .@.V.......`EX..
4000000000125FD0 13 30 00 50 87 B9 01 48 FA FF 25 00 40 FD FF 48 .0.P...H..%.@..H
4000000000125FE0 10 00 00 00 01 00 70 70 95 0C 73 03 80 FE FF 4A ......pp..s....J
4000000000125FF0 11 D0 01 44 00 21 B0 03 31 00 42 00 D8 C5 FF 58 ...D.!..1.B....X
4000000000126000 08 70 80 18 00 21 10 00 E0 00 42 40 04 40 00 84 .p...!....B@.@..
4000000000126010 0B 28 01 10 10 10 90 02 38 20 20 00 00 00 04 00 .(......8  .....
4000000000126020 09 00 00 00 01 00 70 F8 A7 0C 77 00 00 00 04 00 ......p...w.....
4000000000126030 11 00 00 00 01 C0 91 02 D0 00 42 00 30 FE FF 48 ..........B.0..H
4000000000126040 08 48 01 50 00 21 00 00 00 02 00 00 00 00 04 00 .H.P.!..........
4000000000126050 08 38 A0 4E 86 38 00 00 00 02 00 40 07 08 C8 90 .8.N.8.....@....
4000000000126060 19 D8 21 02 32 24 00 00 00 02 80 03 40 00 00 43 ..!.2$......@..C
4000000000126070 08 00 00 00 01 00 00 38 B1 20 23 00 00 00 04 00 .......8. #.....
4000000000126080 19 00 A0 5A 90 11 00 00 00 02 00 00 A8 45 EF 58 ...Z.........E.X
4000000000126090 11 08 00 70 00 21 70 40 00 0C E1 03 60 00 00 42 ...p.!p@....`..B
40000000001260A0 08 30 A4 4E 87 38 00 00 00 02 00 40 07 08 C8 90 .0.N.8.....@....
40000000001260B0 19 D8 21 02 32 24 00 00 00 02 00 03 70 04 00 43 ..!.2$......p..C
40000000001260C0 08 00 00 00 01 00 00 38 B1 20 23 00 00 00 04 00 .......8. #.....
40000000001260D0 19 00 A4 5A 90 11 00 00 00 02 00 00 58 45 EF 58 ...Z........XE.X
40000000001260E0 11 08 00 70 00 21 70 00 20 0C 63 03 40 04 00 41 ...p.!p. .c.@..A
40000000001260F0 11 00 00 00 01 00 60 E8 96 0E F3 03 70 FE FF 4A ......`.....p..J
4000000000126100 11 38 00 60 86 39 00 00 00 02 80 03 60 F3 FF 4B .8.`.9......`..K
4000000000126110 11 00 00 00 01 00 60 00 88 0E 72 03 50 F3 FF 49 ......`...r.P..I
4000000000126120 10 30 11 4C 00 21 60 10 8D 0E 68 03 70 F0 FF 4A .0.L.!`...h.p..J
4000000000126130 10 00 00 00 01 00 00 00 00 02 00 00 C0 F1 FF 48 ...............H
4000000000126140 09 10 11 56 00 21 00 00 00 02 00 C0 01 62 00 84 ...V.!.......b..
4000000000126150 09 00 00 1C 90 11 E0 00 88 20 20 A0 04 10 01 84 .........  .....
4000000000126160 11 00 00 00 01 00 60 00 38 0E 73 03 60 00 00 43 ......`.8.s.`..C
4000000000126170 08 00 00 00 01 00 00 00 00 02 00 00 00 00 04 00 ................
4000000000126180 08 00 00 00 01 00 60 D0 39 0E 73 E0 41 28 01 84 ......`.9.s.A(..
4000000000126190 19 00 00 00 01 00 00 00 00 02 00 03 70 00 00 43 ............p..C
40000000001261A0 E9 70 00 1E 10 10 00 00 00 02 00 00 00 00 04 00 .p..............
40000000001261B0 11 28 01 1E 00 21 70 00 38 0C 73 03 D0 FF FF 4A .(...!p.8.s....J
40000000001261C0 09 00 00 00 01 00 50 02 AC 20 20 00 00 00 04 00 ......P..  .....
40000000001261D0 11 00 00 00 01 00 70 00 94 0C F3 03 70 F2 FF 4B ......p.....p..K
40000000001261E0 10 00 00 00 01 00 60 E8 96 0E F3 03 30 FD FF 4A ......`.....0..J
40000000001261F0 10 00 00 00 01 00 00 00 00 02 00 00 10 FF FF 48 ...............H
4000000000126200 0B 78 10 4A 00 21 E0 00 3C 20 20 00 00 00 04 00 .x.J.!..<  .....
4000000000126210 10 00 00 00 01 00 60 E8 3A 0E F3 03 A0 FF FF 4A ......`.:......J
4000000000126220 0B 48 95 56 05 20 00 00 00 02 00 20 55 48 F5 52 .H.V. ..... UH.R
4000000000126230 11 D0 A5 00 11 20 90 FA A7 7E 46 00 18 51 EF 58 ..... ...~F..Q.X
4000000000126240 08 40 01 10 00 21 60 00 20 0E 72 20 95 02 44 80 .@...!`. .r ..D.
4000000000126250 19 08 00 70 00 21 B0 03 88 00 42 03 00 06 00 43 ...p.!....B....C
4000000000126260 08 E0 01 52 00 21 00 00 00 02 00 40 07 40 01 84 ...R.!.....@.@..
4000000000126270 19 48 A1 52 00 20 00 00 00 02 00 00 58 45 EF 58 .H.R. ......XE.X
4000000000126280 08 00 00 00 01 00 10 00 E0 00 42 E0 81 61 00 84 ..........B..a..
4000000000126290 09 00 00 00 01 00 00 00 A4 20 23 00 00 00 04 00 ......... #.....
40000000001262A0 09 D0 F1 FA D2 27 00 40 3D 30 23 00 00 00 04 00 .....'.@=0#.....
40000000001262B0 11 D0 01 74 18 10 00 00 00 02 00 00 B8 40 EF 58 ...t.........@.X
40000000001262C0 09 70 60 18 00 21 10 00 E0 00 42 E0 00 40 18 E4 .p`..!....B..@..
40000000001262D0 11 48 01 1C 18 10 00 00 00 02 80 03 B0 04 00 42 .H.............B
40000000001262E0 09 D8 B1 FB D2 27 00 00 00 02 00 40 07 48 01 84 .....'.....@.H..
40000000001262F0 11 D8 01 76 18 10 00 00 00 02 00 00 58 4F EF 58 ...v........XO.X
4000000000126300 09 B8 00 10 96 39 E0 C0 30 00 42 20 00 C0 01 84 .....9..0.B ....
4000000000126310 E9 7A 60 18 00 21 A0 03 38 B0 20 00 00 00 04 00 .z`..!..8. .....
4000000000126320 E2 02 C4 1E 98 11 F0 80 30 00 42 00 00 00 04 00 ........0.B.....
4000000000126330 19 00 00 1E 98 11 A0 03 38 30 22 00 18 5A EF 58 ........80"..Z.X
4000000000126340 11 08 00 70 00 21 90 02 20 00 42 00 88 4D EF 58 ...p.!.. .B..M.X
4000000000126350 09 38 A4 00 E1 18 60 40 00 C2 31 20 00 C0 01 84 .8....`@..1 ....
4000000000126360 0F 00 00 00 01 00 00 00 00 02 00 C0 00 30 1C E8 .............0..
4000000000126370 09 00 00 00 01 00 A0 33 00 C2 21 00 00 00 04 00 .......3..!.....
4000000000126380 11 D0 05 74 00 21 00 00 00 02 00 00 C8 4F EF 58 ...t.!.......O.X
4000000000126390 09 70 60 18 00 21 90 02 20 00 42 20 00 C0 01 84 .p`..!.. .B ....
40000000001263A0 11 D0 01 1C 18 10 00 00 00 02 00 00 A8 59 EF 58 .............Y.X
40000000001263B0 11 08 00 70 00 21 50 03 20 00 42 00 18 4D EF 58 ...p.!P. .B..M.X
40000000001263C0 08 38 D4 00 E1 18 60 40 00 C2 31 60 87 61 00 84 .8....`@..1`.a..
40000000001263D0 09 E8 41 18 00 21 10 00 E0 00 42 40 07 48 01 84 ..A..!....B@.H..
40000000001263E0 0F 00 00 00 01 00 00 00 00 02 00 C0 00 30 1C E8 .............0..
40000000001263F0 09 00 00 00 01 00 C0 33 00 C2 21 00 00 00 04 00 .......3..!.....
4000000000126400 11 E0 05 78 00 21 00 00 00 02 00 00 A8 43 EF 58 ...x.!.......C.X
4000000000126410 09 40 08 10 00 21 10 00 E0 00 42 40 07 48 01 84 .@...!....B@.H..
4000000000126420 11 30 04 10 07 35 00 00 00 02 80 03 60 05 00 43 .0...5......`..C
4000000000126430 11 00 00 00 01 00 00 00 00 02 00 00 38 3F EF 58 ............8?.X
4000000000126440 08 08 00 70 00 21 00 00 00 02 00 A0 06 40 00 84 ...p.!.......@..
4000000000126450 19 D0 01 52 00 21 00 00 00 02 00 00 98 43 EF 58 ...R.!.......C.X
4000000000126460 08 08 00 70 00 21 60 00 D4 0E 72 00 00 00 04 00 ...p.!`...r.....
4000000000126470 19 D0 01 4E 00 21 B0 03 D4 00 42 03 D0 04 00 43 ...N.!....B....C
4000000000126480 10 00 00 00 01 00 00 00 00 02 00 0B 80 04 00 42 ...............B
4000000000126490 11 00 00 00 01 00 00 00 00 02 00 00 F8 40 EF 58 .............@.X
40000000001264A0 09 38 00 10 86 39 00 00 00 02 00 20 00 C0 01 84 .8...9..... ....
40000000001264B0 C3 48 05 00 00 24 00 00 00 02 80 23 05 98 01 84 .H...$.....#....
40000000001264C0 09 70 80 18 00 21 00 00 00 02 00 E0 F0 4F 19 EE .p...!.......O..
40000000001264D0 10 00 A4 1C 90 11 00 00 00 02 80 03 40 03 00 43 ............@..C
40000000001264E0 08 D0 01 50 00 21 00 00 00 02 00 60 85 28 01 84 ...P.!.....`.(..
40000000001264F0 19 10 31 4A 00 21 00 00 00 02 00 00 F8 42 EF 58 ..1J.!.......B.X
4000000000126500 11 08 00 70 00 21 70 00 A4 0C F3 03 C0 FC FF 4A ...p.!p........J
4000000000126510 08 00 00 00 01 00 00 00 00 02 00 00 00 00 04 00 ................
4000000000126520 09 78 F0 45 3F 23 00 00 00 02 00 00 12 00 00 90 .x.E?#..........
4000000000126530 09 70 00 1E 10 10 00 00 00 02 00 40 44 78 00 84 .p.........@Dx..
4000000000126540 11 30 00 1C 87 39 00 00 00 02 00 03 00 EF FF 4B .0...9.........K
4000000000126550 11 00 00 00 01 00 70 D8 3A 0C F3 03 80 00 00 43 ......p.:......C
4000000000126560 09 00 00 00 01 00 70 E8 3A 0C 73 00 00 00 04 00 ......p.:.s.....
4000000000126570 F2 80 FC 21 3F E3 01 A8 01 80 21 0A 20 00 00 42 ...!?.....!. ..B
4000000000126580 11 00 00 00 01 00 70 E0 3A 0C F3 03 20 03 00 43 ......p.:... ..C
4000000000126590 11 30 00 20 87 31 00 00 00 02 80 03 40 03 00 43 .0. .1......@..C
40000000001265A0 10 00 00 00 01 00 60 00 38 0E 73 03 A0 EE FF 4B ......`.8.s....K
40000000001265B0 09 70 00 44 10 10 00 00 00 02 00 E0 01 10 01 84 .p.D............
40000000001265C0 11 10 11 1E 00 21 70 D8 3A 0C 73 03 A0 FF FF 4A .....!p.:.s....J
40000000001265D0 0B 70 00 44 10 10 60 E8 39 0E 73 20 E1 72 20 E6 .p.D..`.9.s .r .
40000000001265E0 10 00 00 00 01 00 60 D0 39 8E 73 03 20 00 00 42 ......`.9.s. ..B
40000000001265F0 10 00 00 00 01 00 00 00 00 02 00 04 D0 02 00 42 ...............B
4000000000126600 10 00 00 00 01 00 00 09 40 00 42 00 C0 02 00 40 ........@.B....@
4000000000126610 08 10 01 54 00 21 00 00 00 02 00 40 07 38 01 84 ...T.!.....@.8..
4000000000126620 17 00 00 00 00 08 04 A8 F7 FF 25 00 68 51 EF 58 ..........%.hQ.X
4000000000126630 10 08 00 70 00 21 60 00 20 0E 73 03 40 EF FF 4A ...p.!`. .s.@..J
4000000000126640 10 00 00 00 01 00 00 00 00 02 00 00 10 EF FF 48 ...............H
4000000000126650 11 D0 01 56 00 21 B0 03 31 00 42 00 78 BF FF 58 ...V.!..1.B.x..X
4000000000126660 09 78 80 18 00 21 10 00 E0 00 42 60 05 40 00 84 .x...!....B`.@..
4000000000126670 0B 70 00 1E 10 10 70 F8 3B 0C 77 00 00 00 04 00 .p....p.;.w.....
4000000000126680 09 00 00 00 01 80 81 02 38 00 42 00 00 00 04 00 ........8.B.....
4000000000126690 10 00 00 00 01 C0 81 02 C8 00 42 00 80 F6 FF 48 ..........B....H
40000000001266A0 12 30 98 40 07 B8 01 E0 F6 FF 25 0C 70 F5 FF 4A .0.@......%.p..J
40000000001266B0 0B 70 F0 4D 3F 23 E0 00 38 20 20 00 00 00 04 00 .p.M?#..8  .....
40000000001266C0 10 00 00 00 01 00 60 78 39 0E F3 03 50 F5 FF 4A ......`x9...P..J
40000000001266D0 11 00 00 00 01 00 80 08 00 00 48 00 A0 ED FF 48 ..........H....H
40000000001266E0 11 30 98 40 07 38 E0 E0 9B 7E 46 03 80 ED FF 4B .0.@.8...~F....K
40000000001266F0 10 00 00 00 01 00 60 00 90 0E 28 03 90 EF FF 4A ......`...(....J
4000000000126700 09 70 00 1C 10 10 00 00 00 02 00 A0 84 10 01 84 .p..............
4000000000126710 11 30 BC 1C 87 39 00 00 00 02 00 03 50 ED FF 4B .0...9......P..K
4000000000126720 0B 70 00 54 10 10 70 50 39 0C 73 00 00 00 04 00 .p.T..pP9.s.....
4000000000126730 10 00 00 00 01 00 70 F8 39 8C F3 03 70 EF FF 4A ......p.9...p..J
4000000000126740 10 00 00 00 01 00 00 00 00 02 00 00 F0 EF FF 48 ...............H
4000000000126750 09 00 00 00 01 00 20 02 A8 00 42 00 00 00 04 00 ...... ...B.....
4000000000126760 10 00 00 00 01 00 60 00 88 0E F2 03 C0 F9 FF 48 ......`........H
4000000000126770 10 00 00 00 01 00 00 00 00 02 00 00 F0 EC FF 48 ...............H
4000000000126780 09 D8 91 FB D2 27 00 00 00 02 00 40 07 48 01 84 .....'.....@.H..
4000000000126790 11 D8 01 76 18 10 00 00 00 02 00 00 B8 4A EF 58 ...v.........J.X
40000000001267A0 10 08 00 70 00 21 70 00 20 0C 73 03 40 FB FF 4A ...p.!p. .s.@..J
40000000001267B0 11 D0 01 4E 00 21 00 00 00 02 00 00 38 4E EF 58 ...N.!......8N.X
40000000001267C0 09 30 FC 11 87 3B 10 00 E0 00 42 C0 01 62 00 84 .0...;....B..b..
40000000001267D0 D1 48 01 00 00 21 00 00 00 02 00 03 F0 FC FF 4B .H...!.........K
40000000001267E0 0B 38 FC 11 86 B1 81 08 00 00 48 00 00 00 04 00 .8........H.....
40000000001267F0 EB 40 00 00 00 21 90 02 20 00 42 00 00 00 04 00 .@...!.. .B.....
4000000000126800 10 00 A4 1C 90 11 70 F8 A7 0C 77 03 E0 FC FF 4A ......p...w....J
4000000000126810 11 00 00 1C 90 11 A0 03 A0 00 42 00 D8 3F EF 58 ..........B..?.X
4000000000126820 09 28 01 56 10 10 00 00 00 02 00 20 00 C0 01 84 .(.V....... ....
4000000000126830 10 00 00 00 01 00 70 00 94 0C 73 03 B0 F9 FF 4A ......p...s....J
4000000000126840 10 00 00 00 01 00 00 00 00 02 00 00 00 EC FF 48 ...............H
4000000000126850 08 48 01 00 00 21 A0 03 A0 00 42 00 00 00 04 00 .H...!....B.....
4000000000126860 19 58 21 4A 00 21 20 62 94 00 42 00 88 3F EF 58 .X!J.! b..B..?.X
4000000000126870 10 08 00 70 00 21 70 00 A4 0C F3 03 50 F9 FF 4A ...p.!p.....P..J
4000000000126880 10 00 00 00 01 00 00 00 00 02 00 00 A0 FC FF 48 ...............H

l4000000000126890:
	{ nop.m	0x0; adds	r38,0x0,r32; br.cond.sptk.few	40000000001252F0 }
40000000001268A0 09 70 00 44 10 10 00 00 00 02 00 40 84 78 00 84 .p.D.......@.x..
40000000001268B0 11 00 00 00 01 00 60 00 38 0E 73 03 B0 EB FF 4B ......`.8.s....K
40000000001268C0 11 00 00 00 01 00 60 00 40 0E 63 03 F0 FC FF 4A ......`.@.c....J
40000000001268D0 11 00 00 00 01 00 70 00 C0 0C 73 03 90 EB FF 4A ......p...s....J
40000000001268E0 10 00 00 00 01 00 60 00 88 0E F2 03 40 F8 FF 48 ......`.....@..H
40000000001268F0 10 00 00 00 01 00 00 00 00 02 00 00 70 EB FF 48 ............p..H
4000000000126900 11 00 00 00 01 00 00 00 00 02 00 00 88 3C EF 58 .............<.X
4000000000126910 09 70 80 18 00 21 90 02 20 00 42 20 00 C0 01 84 .p...!.. .B ....
4000000000126920 10 00 A4 1C 90 11 70 F8 A7 0C 77 03 C0 FB FF 4A ......p...w....J
4000000000126930 10 00 00 00 01 00 00 00 00 02 00 00 E0 FE FF 48 ...............H
4000000000126940 09 48 FD F9 FF 27 00 00 00 02 00 C0 01 62 00 84 .H...'.......b..
4000000000126950 10 00 A4 1C 90 11 70 F8 A7 0C 77 03 90 FB FF 4A ......p...w....J
4000000000126960 10 00 00 00 01 00 00 00 00 02 00 00 B0 FE FF 48 ...............H
4000000000126970 10 00 00 00 01 00 20 A2 AC 00 42 00 B0 FB FF 48 ...... ...B....H
4000000000126980 11 48 FD F9 FF 27 00 00 00 02 00 00 68 3E EF 58 .H...'......h>.X
4000000000126990 09 70 80 18 00 21 10 00 E0 00 42 E0 F0 4F 19 EE .p...!....B..O..
40000000001269A0 10 00 A4 1C 90 11 00 00 00 02 00 03 40 FB FF 4A ............@..J
40000000001269B0 11 00 00 00 01 00 00 00 00 02 00 00 60 FE FF 48 ............`..H
40000000001269C0 08 70 59 22 80 05 E0 00 8C 20 20 00 06 00 CC 00 .pY".....  .....
40000000001269D0 09 78 01 02 00 21 00 00 00 02 00 40 06 20 01 84 .x...!.....@. ..
40000000001269E0 01 38 A0 1C 86 39 D0 02 00 62 00 60 06 00 00 84 .8...9...b.`....
40000000001269F0 CB 88 01 00 00 E1 11 23 00 00 48 00 00 00 04 00 .......#..H.....
4000000000126A00 11 88 8D 62 00 20 00 00 00 02 00 00 C8 B7 FF 58 ...b. .........X
4000000000126A10 08 38 00 10 06 39 E0 F8 82 7E 46 00 00 00 04 00 .8...9...~F.....
4000000000126A20 19 08 00 5E 00 21 90 02 20 00 C2 03 50 06 00 43 ...^.!.. ...P..C
4000000000126A30 10 00 00 00 01 00 60 F8 38 0E EB 03 40 00 00 42 ......`.8...@..B
4000000000126A40 09 40 04 00 00 24 00 00 00 02 00 00 00 00 04 00 .@...$..........
4000000000126A50 03 00 00 00 01 00 F0 87 C1 BF 05 00 E0 02 AA 00 ................
4000000000126A60 10 00 00 00 01 00 00 68 05 80 03 80 08 00 84 00 .......h........
4000000000126A70 09 78 50 FB D2 27 00 00 00 02 00 C0 E1 00 20 80 .xP..'........ .
4000000000126A80 0B 78 00 1E 18 10 E0 70 3C 24 40 00 00 00 04 00 .x.....p<$@.....
4000000000126A90 0B 78 00 1C 18 10 E0 70 3C 00 40 00 00 00 04 00 .x.....p<.@.....
4000000000126AA0 11 00 00 00 01 00 60 70 04 80 03 00 60 00 80 00 ......`p....`...
4000000000126AB0 08 40 11 46 00 21 10 21 A5 20 70 60 22 0A 49 D0 .@.F.!.!. p`".I.
4000000000126AC0 19 58 ED 4B 2C 22 60 F8 81 0E 73 03 60 05 00 43 .X.K,"`...s.`..C
4000000000126AD0 28 32 01 44 00 21 10 03 A0 00 42 00 00 00 04 00 (2.D.!....B.....
4000000000126AE0 19 90 01 48 00 21 30 E3 03 00 48 00 E8 B6 FF 58 ...H.!0...H....X
4000000000126AF0 08 08 00 5E 00 21 00 00 00 02 00 80 05 40 00 84 ...^.!.......@..
4000000000126B00 17 00 00 00 00 48 04 10 00 80 A1 09 B0 00 00 43 .....H.........C
4000000000126B10 48 32 01 42 00 21 00 00 00 02 00 00 00 00 04 00 H2.B.!..........
4000000000126B20 09 50 F1 59 3F 23 00 00 00 02 00 00 00 00 04 00 .P.Y?#..........
4000000000126B30 08 00 00 00 01 00 00 00 00 02 00 00 00 00 04 00 ................
4000000000126B40 08 38 84 4C 06 34 10 03 84 00 42 40 06 30 01 84 .8.L.4....B@.0..
4000000000126B50 09 98 01 50 00 21 40 03 A8 00 42 A0 06 28 01 84 ...P.!@...B..(..
4000000000126B60 09 00 00 00 01 80 71 02 94 00 42 00 00 00 04 00 ......q...B.....
4000000000126B70 F1 38 01 56 00 21 00 00 00 02 00 00 98 E5 FF 58 .8.V.!.........X
4000000000126B80 10 08 00 5E 00 21 60 00 20 0E 73 03 50 00 00 43 ...^.!`. .s.P..C
4000000000126B90 09 00 00 00 01 00 60 22 98 00 42 00 00 00 04 00 ......`"..B.....
4000000000126BA0 11 00 00 00 01 00 70 10 99 0C 68 03 A0 FF FF 4A ......p...h....J
4000000000126BB0 10 40 01 58 00 21 60 48 B1 0E F0 03 20 FF FF 4A .@.X.!`H.... ..J
4000000000126BC0 10 00 00 00 01 00 80 08 00 00 48 00 90 FE FF 48 ..........H....H
4000000000126BD0 08 88 01 4C 00 21 20 03 88 00 42 60 06 48 01 84 ...L.! ...B`.H..
4000000000126BE0 19 A0 01 48 00 21 50 03 9C 00 42 00 28 E5 FF 58 ...H.!P...B.(..X
4000000000126BF0 11 08 00 5E 00 21 60 00 20 0E F3 03 A0 FF FF 4A ...^.!`. ......J
4000000000126C00 03 40 00 00 00 21 F0 87 C1 BF 05 00 E0 02 AA 00 .@...!..........
4000000000126C10 10 00 00 00 01 00 00 68 05 80 03 80 08 00 84 00 .......h........
4000000000126C20 08 30 A8 40 87 39 70 22 8C 00 42 00 00 00 04 00 .0.@.9p"..B.....
4000000000126C30 19 88 88 42 10 34 B0 DA 97 58 44 03 A0 03 00 43 ...B.4...XD....C
4000000000126C40 08 18 F1 47 3F 23 00 00 00 02 00 00 00 00 04 00 ...G?#..........
4000000000126C50 08 88 01 4E 00 21 20 03 90 00 42 00 00 00 04 00 ...N.! ...B.....
4000000000126C60 19 98 F1 01 00 24 64 02 84 00 42 00 68 B5 FF 58 .....$d...B.h..X
4000000000126C70 08 00 00 00 01 00 84 E2 23 7E 46 20 00 78 01 84 ........#~F .x..
4000000000126C80 19 00 00 00 01 00 C0 02 20 00 C2 08 E0 00 00 43 ........ ......C
4000000000126C90 08 00 00 00 01 00 00 00 00 02 00 00 00 00 04 00 ................
4000000000126CA0 08 88 01 42 00 21 20 03 98 00 42 60 06 38 01 84 ...B.! ...B`.8..
4000000000126CB0 19 A0 01 50 00 21 50 03 94 00 42 00 58 E4 FF 58 ...P.!P...B.X..X
4000000000126CC0 11 08 00 5E 00 21 70 00 20 0C 73 03 80 00 00 42 ...^.!p. .s....B
4000000000126CD0 08 88 01 4C 00 21 20 03 88 00 42 60 06 48 01 84 ...L.! ...B`.H..
4000000000126CE0 18 A0 01 48 00 21 70 08 99 0C 68 03 40 02 00 42 ...H.!p...h.@..B
4000000000126CF0 11 A8 01 56 00 21 A0 02 AC 00 42 00 18 E4 FF 58 ...V.!....B....X
4000000000126D00 10 08 00 5E 00 21 60 00 20 0E 73 03 00 FF FF 4A ...^.!`. .s....J
4000000000126D10 08 88 01 4C 00 21 20 03 88 00 42 60 06 18 01 84 ...L.! ...B`....
4000000000126D20 19 A0 01 48 00 21 50 03 A8 00 42 00 E8 E3 FF 58 ...H.!P...B....X
4000000000126D30 11 08 00 5E 00 21 60 00 20 0E 73 03 D0 FE FF 4A ...^.!`. .s....J
4000000000126D40 09 00 00 00 01 00 60 22 98 00 42 00 00 00 04 00 ......`"..B.....
4000000000126D50 11 00 00 00 01 00 70 10 99 0C 68 03 50 FF FF 4A ......p...h.P..J
4000000000126D60 08 38 01 58 00 21 60 48 B1 0E 70 40 06 20 01 84 .8.X.!`H..p@. ..
4000000000126D70 19 98 F1 01 00 24 64 02 84 00 42 03 D0 FC FF 4B .....$d...B....K
4000000000126D80 11 88 01 4E 00 21 00 00 00 02 00 00 48 B4 FF 58 ...N.!......H..X
4000000000126D90 08 00 00 00 01 00 10 00 BC 00 42 80 05 40 00 84 ..........B..@..
4000000000126DA0 18 00 00 00 01 00 84 E2 23 7E 46 08 00 FF FF 4A ........#~F....J
4000000000126DB0 10 00 00 00 01 00 00 00 00 02 00 00 B0 FF FF 48 ...............H
4000000000126DC0 11 38 88 42 06 34 00 00 00 02 80 03 80 FC FF 4B .8.B.4.........K
4000000000126DD0 C8 58 11 46 00 A1 81 02 84 00 42 00 00 00 04 00 .X.F......B.....
4000000000126DE0 C3 50 ED 4B 2C 22 00 00 00 02 00 C0 04 58 01 84 .P.K,".......X..
4000000000126DF0 08 00 00 00 01 00 00 00 00 02 00 00 00 00 04 00 ................
4000000000126E00 08 88 01 4C 00 21 00 00 00 02 00 40 06 20 01 84 ...L.!.....@. ..
4000000000126E10 19 98 F1 01 00 24 00 00 00 02 00 00 B8 B3 FF 58 .....$.........X
4000000000126E20 08 08 00 5E 00 21 70 02 20 00 42 60 06 30 01 84 ...^.!p. .B`.0..
4000000000126E30 09 A8 01 4A 00 21 10 03 84 00 42 40 06 40 01 84 ...J.!....B@.@..
4000000000126E40 11 A0 F1 11 3F 23 60 02 9C 00 42 00 C8 E2 FF 58 ....?#`...B....X
4000000000126E50 11 30 00 10 87 39 10 00 BC 00 42 03 40 01 00 43 .0...9....B.@..C
4000000000126E60 10 00 00 00 01 00 70 48 9D 0C 70 03 A0 FF FF 4A ......pH..p....J
4000000000126E70 09 48 84 50 08 34 00 00 00 02 00 C0 01 00 00 84 .H.P.4..........
4000000000126E80 09 30 00 1C 87 39 00 00 00 02 00 A4 06 28 01 84 .0...9.......(..
4000000000126E90 10 00 00 00 01 40 52 03 A8 00 42 03 40 00 00 43 .....@R...B.@..C
4000000000126EA0 09 00 00 00 01 00 80 22 A0 00 42 00 00 00 04 00 ......."..B.....
4000000000126EB0 10 00 00 00 01 00 70 10 A1 0C E8 03 90 FB FF 4B ......p........K
4000000000126EC0 10 00 00 00 01 00 60 02 AC 00 42 00 40 FF FF 48 ......`...B.@..H
4000000000126ED0 08 88 01 50 00 21 20 03 88 00 42 60 06 48 01 84 ...P.! ...B`.H..
4000000000126EE0 19 A0 01 48 00 21 80 22 A0 00 42 00 28 E2 FF 58 ...H.!."..B.(..X
4000000000126EF0 11 30 00 10 87 39 10 00 BC 00 42 03 10 FD FF 4B .0...9....B....K
4000000000126F00 10 00 00 00 01 00 70 10 A1 0C 68 03 C0 FF FF 4A ......p...h....J
4000000000126F10 10 00 00 00 01 00 00 00 00 02 00 00 30 FB FF 48 ............0..H
4000000000126F20 11 A8 01 4A 00 21 00 00 00 02 00 00 E8 E1 FF 58 ...J.!.........X
4000000000126F30 11 08 00 5E 00 21 60 00 20 0E 73 03 D0 FC FF 4A ...^.!`. .s....J
4000000000126F40 08 30 98 42 07 38 A0 02 94 00 42 20 06 30 01 84 .0.B.8....B .0..
4000000000126F50 19 90 01 44 00 21 30 03 8C 00 42 03 F0 FD FF 4B ...D.!0...B....K
4000000000126F60 11 A0 01 48 00 21 50 03 A8 00 42 00 A8 E1 FF 58 ...H.!P...B....X
4000000000126F70 10 08 00 5E 00 21 60 00 20 0E 73 03 90 FC FF 4A ...^.!`. .s....J
4000000000126F80 10 00 00 00 01 00 00 00 00 02 00 00 C0 FD FF 48 ...............H
4000000000126F90 02 48 84 50 08 34 E0 08 00 00 48 A4 06 28 01 84 .H.P.4....H..(..
4000000000126FA0 19 30 00 1C 87 39 00 00 00 02 80 03 00 FF FF 4A .0...9.........J
4000000000126FB0 28 A9 01 54 00 21 00 00 00 02 00 00 00 00 04 00 (..T.!..........
4000000000126FC0 11 00 00 00 01 00 00 00 00 02 00 00 10 FF FF 48 ...............H
4000000000126FD0 08 88 01 42 00 21 20 03 88 00 42 60 06 40 00 84 ...B.! ...B`.@..
4000000000126FE0 19 A0 01 48 00 21 50 03 94 00 42 00 28 E1 FF 58 ...H.!P...B.(..X
4000000000126FF0 08 08 00 5E 00 21 70 00 20 0C 73 E0 44 18 01 84 ...^.!p. .s.D...
4000000000127000 19 88 88 42 10 34 30 E2 8F 7E C6 03 00 FC FF 4B ...B.40..~.....K
4000000000127010 10 00 00 00 01 00 B0 DA 97 58 44 00 40 FC FF 48 .........XD.@..H
4000000000127020 08 88 01 42 00 21 20 03 88 00 42 60 06 40 00 84 ...B.! ...B`.@..
4000000000127030 19 A0 01 48 00 21 50 03 94 00 42 00 D8 E0 FF 58 ...H.!P...B....X
4000000000127040 08 08 00 5E 00 21 60 00 20 0E 73 00 45 18 01 84 ...^.!`. .s.E...
4000000000127050 19 88 90 52 10 38 30 11 85 24 68 03 B0 FB FF 4B ...R.80..$h....K
4000000000127060 10 00 00 00 01 00 B0 DA 97 58 44 00 70 FA FF 48 .........XD.p..H
4000000000127070 08 38 01 48 10 10 10 E3 8F 7E 46 40 06 08 01 84 .8.H.....~F@....
4000000000127080 09 30 01 44 10 10 00 00 88 20 23 00 00 00 04 00 .0.D..... #.....
4000000000127090 11 00 00 48 90 11 00 00 00 02 00 00 98 35 EF 58 ...H.........5.X
40000000001270A0 08 38 00 10 86 39 00 38 91 20 23 20 00 78 01 84 .8...9.8. # .x..
40000000001270B0 0B 00 98 44 90 91 81 08 00 00 48 00 00 00 04 00 ...D......H.....
40000000001270C0 11 00 00 00 01 C0 81 00 00 00 42 00 90 F9 FF 48 ..........B....H
40000000001270D0 08 00 00 00 01 00 00 00 00 02 00 00 00 00 04 00 ................
40000000001270E0 08 00 00 00 01 00 00 00 00 02 00 00 00 00 04 00 ................
40000000001270F0 08 00 00 00 01 00 00 00 00 02 00 00 00 00 04 00 ................

;; internal_strmatch: 4000000000127100
internal_strmatch proc
	{ alloc	r39,ar.pfs,0xA,0x0,0x9; mov	r38,b6; nop.b	0x0 }
	{ cmp.eq	p06,p07,0x0,r32; adds	r40,0x0,r1; adds	r36,0x0,r34; }
	{ addl	r8,1,r0; cmp.eq.or.andcm	p06,p07,0x0,r33; mov.i	ar.pfs,r39 }
	{ nop.m	0x0; nop.m	0x0; (p07) br.cond.dpnt.few	4000000000127150; }

l4000000000127140:
	{ nop.m	0x0; mov.spnt	b0,r38,4000000000127140; br.ret	b0; }

l4000000000127150:
	{ adds	r41,0x0,r33; adds	r34,0x0,r32; br.call.sptk.many	b0,400000000001B6C0; }
	{ adds	r1,0x0,r40; adds	r37,0x0,r8; nop.i	0x0 }
	{ adds	r41,0x0,r32; adds	r32,0x0,r33; br.call.sptk.many	b0,400000000001B6C0; }
	{ adds	r1,0x0,r40; add	r33,r33,r37; nop.b	0x0 }
	{ add	r35,r34,r8; mov.spnt	b0,r38,4000000000127190; mov.i	ar.pfs,r39; }
	{ alloc	r2,ar.pfs,0x5,0x0,0x0; nop.i	0x0; br.cond.sptk.many	4000000000122C80; }
40000000001271B0 0D 00 00 00 01 00 00 00 00 00 00 00 00 00 04 00 ................

;; internal_wstrmatch: 40000000001271C0
internal_wstrmatch proc
	{ alloc	r40,ar.pfs,0xB,0x0,0xA; mov	r39,b7; nop.b	0x0 }
	{ cmp.eq	p06,p07,0x0,r32; adds	r41,0x0,r1; adds	r37,0x0,r32; }
	{ addl	r8,1,r0; cmp.eq.or.andcm	p06,p07,0x0,r33; mov.i	ar.pfs,r40 }
	{ nop.m	0x0; nop.m	0x0; (p07) br.cond.dpnt.few	4000000000127210; }

l4000000000127200:
	{ nop.m	0x0; mov.spnt	b0,r39,4000000000127200; br.ret	b0; }

l4000000000127210:
	{ adds	r42,0x0,r33; nop.m	0x0; adds	r36,0x0,r34 }
	{ adds	r34,0x0,r37; nop.m	0x0; br.call.sptk.many	b0,400000000001BD40; }
	{ adds	r1,0x0,r41; adds	r42,0x0,r32; nop.i	0x0 }
	{ shladd	r38,r8,0x2,r33; adds	r32,0x0,r33; br.call.sptk.many	b0,400000000001BD40; }
	{ adds	r1,0x0,r41; adds	r33,0x0,r38; nop.b	0x0 }
	{ shladd	r35,r8,0x2,r37; mov.spnt	b0,r39,4000000000127260; mov.i	ar.pfs,r40; }
	{ alloc	r2,ar.pfs,0x5,0x0,0x0; nop.i	0x0; br.cond.sptk.many	4000000000125100; }
4000000000127280 0D 00 00 00 01 00 00 00 00 00 00 00 00 00 04 00 ................
4000000000127290 08 00 00 00 01 00 00 00 00 02 00 00 00 00 04 00 ................
40000000001272A0 08 00 00 00 01 00 00 00 00 02 00 00 00 00 04 00 ................
40000000001272B0 08 00 00 00 01 00 00 00 00 02 00 00 00 00 04 00 ................

;; xstrmatch: 40000000001272C0
xstrmatch proc
	{ alloc	r38,ar.pfs,0xB,0x0,0x8; adds	r12,0xFFFFFFFFFFFFFFF0,r12; nop.b	0x0 }
	{ adds	r39,0x0,r1; mov	r37,b5; adds	r40,0x0,r33; }
	{ nop.m	0x0; nop.i	0x0; br.call.sptk.many	b0,mbsmbchar; }
	{ adds	r1,0x0,r39; cmp.eq	p07,p06,0x0,r8; (p07) br.cond.dpnt.few	40000000001274A0 }

l4000000000127300:
	{ adds	r35,0x18,r12; nop.i	0x0; br.call.sptk.many	b0,400000000001B0C0; }
	{ cmp.eq	p07,p06,0x1,r8; adds	r1,0x0,r39; adds	r42,0x0,r32 }
	{ adds	r40,0x0,r35; adds	r41,0x0,r0; (p07) br.cond.dpnt.few	4000000000127450; }

l4000000000127330:
	{ nop.m	0x0; nop.i	0x0; br.call.sptk.many	b0,xdupmbstowcs; }
	{ adds	r8,0x2,r8; adds	r1,0x0,r39; nop.i	0x0 }
	{ adds	r40,0x10,r12; adds	r42,0x0,r33; adds	r41,0x0,r0; }
	{ cmp.ltu	p06,p07,0x1,r8; nop.i	0x0; (p07) br.cond.dpnt.few	4000000000127450; }

l4000000000127370:
	{ nop.m	0x0; nop.i	0x0; br.call.sptk.many	b0,xdupmbstowcs; }
	{ adds	r8,0x2,r8; adds	r14,0x10,r12; nop.i	0x0 }
	{ adds	r1,0x0,r39; ld8	r40,[r35]; adds	r42,0x0,r34; }
	{ cmp.ltu	p06,p07,0x1,r8; nop.i	0x0; (p07) br.cond.dpnt.few	4000000000127430; }

l40000000001273B0:
	{ ld8	r41,[r14]; nop.i	0x0; br.call.sptk.many	b0,internal_wstrmatch; }
	{ adds	r1,0x0,r39; nop.m	0x0; adds	r36,0x0,r8 }
	{ ld8	r40,[r35]; nop.m	0x0; br.call.sptk.many	b0,400000000001A7E0; }
	{ adds	r14,0x10,r12; nop.m	0x0; adds	r1,0x0,r39; }
	{ ld8	r40,[r14]; nop.i	0x0; br.call.sptk.many	b0,400000000001A7E0; }
	{ adds	r8,0x0,r36; adds	r1,0x0,r39; mov.i	ar.pfs,r38; }
	{ nop.m	0x0; mov.spnt	b0,r37,4000000000127410; nop.i	0x0 }
	{ adds	r12,0x10,r12; nop.m	0x0; br.ret	b0; }

l4000000000127430:
	{ nop.m	0x0; nop.i	0x0; br.call.sptk.many	b0,400000000001A7E0; }
	{ adds	r1,0x0,r39; nop.m	0x0; nop.i	0x0 }

l4000000000127450:
	{ adds	r40,0x0,r32; nop.m	0x0; adds	r41,0x0,r33 }
	{ adds	r42,0x0,r34; nop.m	0x0; br.call.sptk.many	b0,internal_strmatch; }
	{ nop.m	0x0; adds	r1,0x0,r39; adds	r36,0x0,r8; }

l4000000000127480:
	{ adds	r8,0x0,r36; mov.i	ar.pfs,r38; mov.spnt	b0,r37,4000000000127480 }
	{ nop.m	0x0; adds	r12,0x10,r12; br.ret	b0; }

l40000000001274A0:
	{ adds	r40,0x0,r32; nop.i	0x0; br.call.sptk.many	b0,mbsmbchar; }
	{ adds	r1,0x0,r39; cmp.eq	p07,p06,0x0,r8; (p06) br.cond.dptk.few	4000000000127300 }

l40000000001274C0:
	{ adds	r40,0x0,r32; nop.m	0x0; adds	r41,0x0,r33 }
	{ adds	r42,0x0,r34; nop.m	0x0; br.call.sptk.many	b0,internal_strmatch; }
	{ adds	r1,0x0,r39; adds	r36,0x0,r8; br.cond.sptk.few	4000000000127480; }
40000000001274F0 00 30 00 00 01 00 70 00 00 02 00 00 01 00 04 00 .0....p.........

;; xmbsrtowcs: 4000000000127500
xmbsrtowcs proc
	{ alloc	r41,ar.pfs,0x10,0x0,0xC; adds	r12,0xFFFFFFFFFFFFFFF0,r12; mov	r43,LC }
	{ adds	r42,0x0,r1; nop.m	0x0; cmp.eq	p07,p06,0x0,r35; }
	{ nop.m	0x0; mov	r40,b0; (p07) br.cond.dpnt.few	4000000000127760 }

l4000000000127530:
	{ nop.m	0x0; ld8	r36,[r33]; nop.i	0x0; }
	{ adds	r44,0x0,r36; nop.i	0x0; br.call.sptk.many	b0,400000000001B6C0; }
	{ cmp.eq	p06,p07,0x0,r32; nop.m	0x0; adds	r1,0x0,r42 }
	{ adds	r37,0x0,r8; nop.m	0x0; (p06) br.cond.dpnt.few	40000000001277F0; }

l4000000000127570:
	{ cmp.eq	p07,p06,0x0,r34; nop.m	0x0; adds	r34,0xFFFFFFFFFFFFFFFF,r34; }
	{ nop.m	0x0; (p07) adds	r38,0x0,r0; mov.i	LC,r34 }

l400000000012758C:
	{ (p17) nop; break.i	0x1000; mov	pr,r32,0x0 }

l4000000000127592:
	{ break.m	0x20; add	r32,r0,r96,0x1; (p01) nop }

l40000000001275A2:
	{ break.m	0x42000; break.i	0x20; Invalid; }
	{ break.m	0x20; break.i	0x20; nop }
	{ (p48) break.m	0x42008; addl	r32,0,r0; Invalid; }
	{ Invalid; mov	pr,r97,0xFFFFFFFFFFFF01C4; nop }
	{ Invalid; (p16) deposit	r9,r64,r80,63,1; (p01) pshr4.u	r0,r104,r48; }
	{ Invalid; (p48) mov	pr,r64,0x8110; (p48) nop }
	{ (p48) break.m	0x730C3; nop; Invalid }
	{ Invalid; (p59) nop; (p01) nop }
	{ cmp.eq	p09,p00,r64,r16; nop; }
	{ (p31) add	r105,r79,r17; (p20) break.f	0x23308; nop; }
	{ (p32) add	r9,r64,r16; (p63) nop; }

l4000000000127650:
	{ adds	r8,0x0,r38; mov.i	ar.pfs,r41; mov.i	LC,r43; }
	{ nop.m	0x0; mov.spnt	b0,r40,4000000000127660; nop.i	0x0 }
	{ adds	r12,0x10,r12; nop.m	0x0; br.ret	b0 }
4000000000127680 08 00 00 00 01 00 C0 02 80 00 42 A0 05 20 01 84 ..........B.. ..
4000000000127690 09 00 00 00 01 00 E0 02 94 00 42 E0 05 18 01 84 ..........B.....
40000000001276A0 11 00 00 00 01 00 00 00 00 02 00 00 08 3A EF 58 .............:.X
40000000001276B0 09 70 08 10 00 21 10 00 A8 00 42 A0 54 42 14 80 .p...!....B.TB..
40000000001276C0 11 38 04 1C 06 35 00 00 00 02 00 03 70 00 00 43 .8...5......p..C
40000000001276D0 09 20 01 42 18 10 E0 00 80 20 20 00 00 00 04 00 . .B.....  .....
40000000001276E0 09 20 91 10 00 20 00 00 00 02 00 E0 00 70 18 E6 . ... .......p..
40000000001276F0 10 00 90 42 98 11 00 00 00 02 00 03 50 FF FF 4A ...B........P..J
4000000000127700 09 40 00 4C 00 21 00 00 84 30 23 00 90 02 AA 00 .@.L.!...0#.....
4000000000127710 02 00 00 00 01 00 00 58 05 55 00 00 80 0A 00 07 .......X.U......
4000000000127720 18 00 00 00 01 00 C0 80 30 00 42 80 08 00 84 00 ........0.B.....
4000000000127730 0B 30 FD F9 FF 27 80 00 98 00 42 00 90 02 AA 00 .0...'....B.....
4000000000127740 02 00 00 00 01 00 00 58 05 55 00 00 80 0A 00 07 .......X.U......
4000000000127750 18 00 00 00 01 00 C0 80 30 00 42 80 08 00 84 00 ........0.B.....

l4000000000127760:
	{ addl	r14,8776,r1; nop.m	0x0; addl	r35,8780,r1; }
	{ nop.m	0x0; ld4	r15,[r14]; nop.i	0x0; }
	{ cmp4.eq	p07,p06,0x0,r15; (p07) adds	r15,0x0,r35; (p07) addl	r16,1,r0; }

l400000000012778C:
	{ nop; nop; rfi }
	{ Invalid; Invalid; break.i	0x1000 }
	{ (p44) nop; Invalid; (p01) epc }
	{ Invalid; Invalid; (p16) break.i	0x2A80A }
	{ (p21) break.m	0x1541; break.i	0x1000; break.b	0xC002A }
	{ shladdp4	r0,r1,0x1,r0; zxt1	r4,r64; add	r0,r32,r0 }
	{ nop; add	r0,r32,r0; zxt1	r0,r64 }

l40000000001277F0:
	{ nop.m	0x0; adds	r44,0x1,r8; nop.i	0x0; }
	{ shladd	r44,r44,0x2,r0; nop.i	0x0; br.call.sptk.many	b0,400000000001B340; }
	{ adds	r14,0x10,r12; ld4	r15,[r35],4; adds	r45,0x18,r12 }
	{ adds	r39,0x0,r8; adds	r1,0x0,r42; adds	r46,0x0,r37; }
	{ adds	r47,0x0,r14; st4	[r14],r4,4; nop.i	0x0 }
	{ ld4	r15,[r35]; st8	[r36],r45; adds	r44,0x0,r8; }
	{ st4	[r15],r14; nop.i	0x0; br.call.sptk.many	b0,400000000001A4C0; }
	{ cmp.eq	p06,p07,0x0,r39; adds	r1,0x0,r42; nop.i	0x0 }
	{ adds	r38,0x0,r8; adds	r44,0x0,r39; (p06) br.cond.dpnt.few	4000000000127650; }

l4000000000127880:
	{ nop.m	0x0; nop.i	0x0; br.call.sptk.many	b0,400000000001A7E0; }
	{ adds	r8,0x0,r38; adds	r1,0x0,r42; mov.i	ar.pfs,r41; }
	{ nop.m	0x0; mov.i	LC,r43; mov.spnt	b0,r40,40000000001278A0 }
	{ nop.m	0x0; adds	r12,0x10,r12; br.ret	b0; }

;; xdupmbstowcs: 40000000001278C0
xdupmbstowcs proc
	{ alloc	r46,ar.pfs,0x15,0x0,0x10; adds	r12,0xFFFFFFFFFFFFFFD0,r12; nop.b	0x0 }
	{ cmp.eq	p06,p07,0x0,r32; mov	r45,b5; adds	r47,0x0,r1; }
	{ (p06) cmp.eq.unc	p08,p00,r0,r0; nop.m	0x0; (p07) cmp.eq.unc	p09,p00,r0,r0; }

l40000000001278E6:
	{ addp4	r0,0xFFFFFFFFFFFFE000,r1; (p36) nop; break.i	0x80000 }
	{ (p04) chk.s	f34,4000000000DCC0F6; nop; add	r0,r0,r32 }
	{ (p18) chk.a.clr	r127,3FFFFFFFFF5278C6; nop; break.i	0x80000; }
	{ mf.a; Invalid; nop }
	{ break.m	0xAA02E; nop; break.i	0x80000 }
	{ Invalid; (p34) nop; (p48) nop }
	{ break.m	0x4000; (p21) nop; nop }
	{ chk.a.nc	f0,3FFFFFFFFF128156; nop; nop }
	{ break.m	0x4000; (p32) nop; (p48) nop }
	{ Invalid; nop; (p16) nop.b	0x800A }
	{ (p24) chk.a.clr	f0,3FFFFFFFFF328986; nop; break.i	0x80000 }
	{ break.m	0x4000; (p32) nop; (p48) nop }
	{ add	r0,r0,r1; (p21) nop; (p16) nop }
	{ chk.a.nc	f0,3FFFFFFFFF1281B6; nop; add	r0,r0,r32 }
	{ (p17) chk.a.clr	r0,3FFFFFFFFF1A79C6; (p18) nop; Invalid; }
	{ Invalid; (p18) nop; nop; }
	{ break.m	0x4000; (p32) nop; (p16) nop }
	{ (p03) chk.a.clr	r0,3FFFFFFFFFDEB276; nop; break.i	0x80000 }
	{ (p07) fwb; Invalid; break.b	0x80000 }
	{ (p07) add	r0,r15,r20; (p03) cmp.eq.or.andcm	p00,p51,r15,r6; (p01) br.call.spnt.few	b0,b0 }
	{ chk.a.nc	f0,3FFFFFFFFF128226; nop; break.i	0x80000 }
	{ Invalid; cmp.eq	p00,p00,r0,r1; (p01) br.call.spnt.many	b0,b3 }
	{ chk.a.nc	f0,3FFFFFFFFF128246; nop; nop }
	{ Invalid; (p25) nop; (p48) nop.b	0x2A00C }
	{ Invalid; (p32) nop; (p32) nop }
	{ Invalid; (p19) nop; nop }
	{ chk.a.nc	f0,3FFFFFFFFF128286; nop; break.i	0x80000 }
	{ (p03) chk.a.clr	f40,3FFFFFFFFFB2ACF6; nop; (p32) br.call.sptk.few	b3,b0 }
	{ break.m	0x4000; (p08) nop; (p48) nop }
	{ add	r0,r0,r1; (p17) nop; nop }
	{ mf.a; (p17) nop; break.i	0x80000 }
	{ (p07) fwb; nop; break.i	0x80000 }
	{ (p03) chk.a.clr	f0,3FFFFFFFFFDEABC6; nop; break.b	0x80000 }
	{ Invalid; nop; nop }
	{ break.m	0x4000; (p24) nop; (p16) nop }
	{ break.m	0x4000; (p32) nop; (p48) nop }
	{ Invalid; (p22) nop; nop.b	0x2B00C }
	{ (p24) chk.a.clr	f40,3FFFFFFFFF130B36; nop; (p16) nop.b	0x800A }
	{ break.m	0x4000; (p32) nop; (p16) nop }
	{ add	r0,r0,r1; (p03) nop; nop }
	{ chk.a.nc	f0,3FFFFFFFFF128366; nop; (p32) nop }
	{ add	r0,r0,r1; (p21) nop; nop }
	{ Invalid; (p17) nop; (p32) br.call.sptk.few	b3,b0 }
	{ mf.a; (p17) nop; break.i	0x80000 }
	{ (p03) chk.a.clr	r0,3FFFFFFFFFDEAC86; nop; break.b	0x80000 }
	{ break.m	0x4000; nop; nop }
	{ Invalid; Invalid; nop }
	{ break.m	0xAA02E; nop; break.i	0x80000 }
	{ Invalid; (p34) nop; (p32) nop }
	{ add	r0,r0,r1; (p19) nop; break.i	0x80000 }
	{ (p03) chk.a.clr	r40,3FFFFFFFFFB2AE66; nop; break.b	0x80000 }
	{ break.m	0x4000; nop; nop }
	{ Invalid; (p19) nop; (p48) nop.b	0x8 }
	{ Invalid; (p21) nop; br.call.spnt.few	b0,b0 }
	{ mf.a; nop; break.i	0x80000 }
	{ break.m	0x4000; nop; nop }
	{ Invalid; (p32) nop; (p32) br.call.sptk.few	b3,b0 }
	{ Invalid; nop; br.call.spnt.many	b0,b0 }
	{ Invalid; (p24) nop; break.i	0x80000 }
	{ (p07) break.m	0x50700; nop; (p48) nop }
	{ Invalid; (p26) nop; nop }
	{ break.m	0x4000; (p07) nop; nop }
	{ addp4	r0,0xFFFFFFFFFFFFE000,r1; (p18) nop; (p48) nop }
	{ (p25) chk.a.clr	r0,3FFFFFFFFF1A7F26; nop; (p32) nop }
	{ break.m	0x4000; (p07) nop; break.i	0x80000 }
	{ (p03) chk.a.clr	r92,3FFFFFFFFFDEB5D6; nop; break.i	0x80000 }
	{ break.m	0x4000; (p32) nop; (p16) nop }
	{ break.m	0x4000; (p19) nop; (p48) nop }
	{ chk.a.nc	r0,3FFFFFFFFF128526; nop; break.i	0x80000 }
	{ (p07) fwb; (p19) nop; (p32) br.call.sptk.few	b3,b0 }
	{ Invalid; (p07) nop; break.i	0x80000 }
	{ mf.a; nop; nop }
	{ Invalid; nop; break.i	0x80000 }
	{ (p03) chk.a.clr	f35,3FFFFFFFFFB2AE56; nop; nop }
	{ Invalid; nop; (p32) nop.b	0x2500C }
	{ Invalid; (p26) nop; nop.b	0x2C00C }
	{ break.m	0x4000; (p32) nop; (p16) nop }
	{ (p03) chk.a.clr	r0,3FFFFFFFFFDAAE36; nop; break.b	0x80000 }
	{ (p07) fwb; nop; break.i	0x80000 }
	{ (p03) chk.a.clr	f0,3FFFFFFFFFDAAEB6; nop; break.b	0x80000 }
	{ (p03) chk.a.clr	r1,3FFFFFFFFFDAB846; nop; (p32) nop }
	{ Invalid; (p32) nop; (p16) nop }
	{ (p03) chk.a.clr	r0,3FFFFFFFFFDEB686; nop; (p32) nop }
	{ chk.a.nc	r0,3FFFFFFFFF128616; nop; (p32) nop }
	{ break.m	0x4000; (p07) nop; break.i	0x80000 }
	{ (p03) chk.a.clr	f92,3FFFFFFFFFDEAF16; nop; break.b	0x80000 }
	{ Invalid; nop; break.b	0x80000 }
	{ Invalid; nop; break.b	0x80000 }
	{ (p03) chk.a.clr	r35,3FFFFFFFFFB2B746; nop; nop }
	{ Invalid; (p32) nop; (p16) nop.b	0x2F000 }
	{ (p03) chk.a.clr	f0,3FFFFFFFFFDAAF06; nop; break.b	0x80000 }
	{ Invalid; nop; break.b	0x80000 }
	{ Invalid; nop; break.i	0x80000 }
	{ (p03) chk.a.clr	f125,3FFFFFFFFFCAB736; nop; (p48) nop }
	{ (p17) fwb; (p24) nop; nop }
	{ (p07) fwb; nop; nop }
	{ mf.a; nop; (p32) nop }
	{ break.m	0x4000; (p07) nop; nop }
	{ (p07) fwb; (p17) mov	pr,r34,0x1002; break.i	0x80000 }
	{ (p07) break.m	0x50700; nop; (p32) nop }
	{ chk.a.nc	r0,3FFFFFFFFF128726; nop; nop }
	{ break.m	0x4000; (p32) nop; (p16) nop }
	{ (p03) chk.a.clr	f0,3FFFFFFFFFDEB7C6; nop; break.i	0x80000 }
	{ break.m	0x4000; nop; break.i	0x80000 }
	{ (p03) chk.a.clr	r0,3FFFFFFFFFDAB186; nop; br.call.spnt.many	b0,b2 }
	{ break.m	0x4000; Invalid; nop }
	{ break.m	0xAA02E; nop; break.i	0x80000 }
	{ Invalid; Invalid; (p32) nop }
	{ Invalid; (p18) nop; break.b	0x80000 }
	{ Invalid; nop; break.i	0x80000 }
	{ (p03) chk.a.clr	r35,3FFFFFFFFFB2B0A6; nop; break.b	0x80000 }
	{ break.m	0x4000; nop; nop }
	{ Invalid; (p32) nop; (p16) nop }
	{ Invalid; (p32) nop; (p16) nop }
	{ mf.a; Invalid; nop }
	{ break.m	0xAA02E; nop; break.i	0x80000 }
	{ Invalid; (p34) nop; break.i	0x80000 }
	{ (p03) chk.a.clr	r127,3FFFFFFFFFEAB0B6; nop; nop.b	0x2B00C }
	{ Invalid; (p32) nop; nop }
	{ Invalid; Invalid; br.call.spnt.few	b0,b0 }
	{ break.m	0xAA02E; nop; break.i	0x80000 }
	{ Invalid; (p34) nop; (p32) nop }
	{ Invalid; (p18) nop; break.b	0x80000 }
	{ Invalid; (p03) nop; break.i	0x80000 }
	{ chk.a.nc	r34,3FFFFFFFFF9F4336; nop; break.i	0x80000 }
	{ break.m	0x4000; nop; nop }
	{ Invalid; (p32) nop; nop }
	{ Invalid; Invalid; br.call.spnt.few	b0,b0 }
	{ break.m	0xAA02E; nop; break.i	0x80000 }
	{ Invalid; (p34) nop; break.i	0x80000 }
	{ mf.a; (p18) nop; break.i	0x80000 }
	{ mf.a; nop; nop }
	{ Invalid; (p32) nop; (p16) nop }
	{ Invalid; (p32) nop; break.i	0x80000 }
	{ Invalid; nop; br.call.spnt.few	b0,b0 }
	{ break.m	0x4000; nop; break.i	0x80000 }
	{ Invalid; nop; nop }
	{ break.m	0x4000; nop; break.i	0x80000 }

;; match_pattern_wchar: 4000000000128180
match_pattern_wchar proc
	{ nop.m	0x0; ld4	r14,[r33]; nop.i	0x0; }
	{ cmp4.eq	p06,p07,0x0,r14; nop.i	0x0; (p06) br.cond.dpnt.few	40000000001282C0; }

l40000000001281A0:
	{ ld4	r16,[r32]; adds	r15,0xFFFFFFFFFFFFFFDF,r16; nop.i	0x0; }
	{ nop.m	0x0; cmp4.ltu	p06,p07,0x3B,r15; (p07) br.cond.dptk.few	40000000001281F0; }

l40000000001281C0:
	{ cmp4.eq	p06,p07,r16,r14; (p06) addl	r14,1,r0; nop.i	0x0; }

l40000000001281CC:
	{ nop; cmp4.eq.and	p00,p32,r32,r0; zxt1	r0,r64 }
	{ invala; break.i	0x1000; (p01) shladd	r64,r3,0x1,r64 }
	{ nop; (p18) invala.e	r0; cmp.eq	p00,p00,r32,r0 }

l40000000001281F0:
	{ addl	r17,1,r0; nop.m	0x0; sxt4	r15,r15; }
	{ nop.m	0x0; shl	r15,r17,r15; nop.b	0x0 }
	{ nop.m	0x0; movl	r17,0x80000401; }
	{ nop.m	0x0; and	r17,r17,r15; nop.i	0x0; }
	{ nop.m	0x0; cmp.eq	p07,p06,0x0,r17; (p06) br.cond.dptk.few	40000000001282D0 }

l4000000000128240:
	{ nop.m	0x0; movl	r17,0x40000200; }
	{ nop.m	0x0; and	r17,r17,r15; nop.i	0x0; }
	{ nop.m	0x0; cmp.eq	p07,p06,0x0,r17; (p06) br.cond.dptk.few	40000000001282F0; }

l4000000000128270:
	{ nop.m	0x0; tbit.z	p07,p06,r15,0x3B; (p07) br.cond.dptk.few	40000000001281C0 }

l4000000000128280:
	{ adds	r32,0x4,r32; ld4	r15,[r32]; nop.i	0x0; }
	{ cmp4.eq	p06,p07,r15,r14; (p06) addl	r14,1,r0; nop.i	0x0; }

l400000000012829C:
	{ nop; cmp4.eq.and	p00,p32,r32,r0; zxt1	r0,r64 }
	{ Invalid; break.i	0x1000; (p01) shladd	r64,r3,0x1,r64 }
	{ invala; break.m	0x1000; (p01) shladd	r0,r0,0x1,r64 }

l40000000001282C0:
	{ nop.m	0x0; adds	r8,0x0,r0; br.ret	b0 }

l40000000001282D0:
	{ adds	r32,0x4,r32; ld4	r15,[r32]; nop.i	0x0; }
	{ nop.m	0x0; cmp4.eq	p06,p07,0x28,r15; (p07) br.cond.dptk.few	40000000001281C0 }

l40000000001282F0:
	{ nop.m	0x0; addl	r8,1,r0; br.ret	b0; }

;; wmatchlen: 4000000000128300
wmatchlen proc
	{ ld4	r14,[r32]; addl	r17,-5748,r1; adds	r15,0x4,r32 }
	{ adds	r18,0x0,r0; adds	r20,0x0,r0; adds	r19,0x0,r0; }
	{ nop.m	0x0; cmp4.eq	p06,p07,0x0,r14; adds	r8,0x0,r0 }
	{ nop.m	0x0; nop.m	0x0; (p06) br.cond.dpnt.few	4000000000128730; }

l4000000000128340:
	{ ld8	r17,[r17]; nop.m	0x0; nop.i	0x0; }
	{ nop.m	0x0; nop.m	0x0; nop.i	0x0 }

l4000000000128360:
	{ nop.m	0x0; adds	r14,0xFFFFFFFFFFFFFFDF,r14; nop.i	0x0; }
	{ nop.m	0x0; cmp4.ltu	p06,p07,0x3B,r14; (p07) br.cond.dptk.few	40000000001283B0 }

l4000000000128380:
	{ ld4	r14,[r15]; adds	r32,0x0,r15; adds	r8,0x1,r8; }
	{ adds	r15,0x4,r32; cmp4.eq	p07,p06,0x0,r14; (p06) br.cond.sptk.few	4000000000128360 }

l40000000001283A0:
	{ nop.m	0x0; nop.i	0x0; br.ret	b0 }

l40000000001283B0:
	{ addp4	r14,r14,r0; shladd	r14,r14,0x3,r17; nop.i	0x0; }
	{ ld8	r16,[r14]; add	r14,r14,r16; nop.i	0x0; }
	{ nop.m	0x0; mov.spnt	b6,r14,40000000001283D0; br.cond	b6; }
40000000001283E0 09 70 00 1E 10 10 00 02 3C 00 42 00 11 40 00 84 .p......<.B..@..
40000000001283F0 11 30 A0 1C 87 39 F0 20 80 00 42 03 30 00 00 43 .0...9. ..B.0..C
4000000000128400 10 00 00 00 01 00 70 00 38 0C 73 03 60 FF FF 48 ......p.8.s.`..H
4000000000128410 10 00 00 00 01 00 00 00 00 02 00 00 90 FF FF 48 ...............H
4000000000128420 10 00 00 00 01 00 80 F8 F3 FF 4F 80 08 00 84 00 ..........O.....
4000000000128430 09 70 00 1E 10 10 00 42 80 00 42 E0 11 00 00 90 .p.....B..B.....
4000000000128440 11 00 00 00 01 00 60 00 38 0E 73 03 40 01 00 43 ......`.8.s.@..C
4000000000128450 08 00 00 00 01 00 00 00 00 02 00 00 00 00 04 00 ................
4000000000128460 11 38 70 1D 86 39 00 00 00 02 80 03 80 01 00 43 .8p..9.........C
4000000000128470 11 38 6C 1D 86 39 00 00 00 02 80 03 D0 01 00 43 .8l..9.........C
4000000000128480 09 00 00 00 01 00 60 D0 39 0E 73 00 00 00 04 00 ......`.9.s.....
4000000000128490 10 00 00 00 01 00 70 00 4C 8C AC 03 10 03 00 42 ......p.L......B
40000000001284A0 0B 80 00 40 10 10 70 E8 42 0C 73 00 00 00 04 00 ...@..p.B.s.....
40000000001284B0 E9 00 11 40 00 E1 F1 08 3C 00 C2 63 02 00 00 84 ...@....<..c....
40000000001284C0 F1 70 00 40 10 10 00 00 00 02 80 03 A0 00 00 43 .p.@...........C
40000000001284D0 09 00 00 00 01 00 60 70 39 0E 73 00 00 00 04 00 ......`p9.s.....
40000000001284E0 11 00 00 00 01 00 70 00 50 8C 2C 03 70 00 00 42 ......p.P.,.p..B
40000000001284F0 0B 30 F4 1C 87 B9 E1 08 00 00 48 00 00 00 04 00 .0........H.....
4000000000128500 EB 70 00 00 00 21 E0 90 38 18 40 00 00 00 04 00 .p...!..8.@.....
4000000000128510 11 30 00 1C 87 39 00 00 00 02 00 03 40 00 00 43 .0...9......@..C
4000000000128520 09 00 00 00 01 00 70 E8 42 0C 73 00 00 00 04 00 ......p.B.s.....
4000000000128530 E9 00 11 40 00 E1 F1 08 3C 00 C2 43 02 00 00 84 ...@....<..C....
4000000000128540 F1 70 00 40 10 10 00 00 00 02 80 03 20 00 00 43 .p.@........ ..C
4000000000128550 09 00 00 00 01 00 F0 08 3C 00 42 C0 01 80 00 84 ........<.B.....
4000000000128560 11 00 11 40 00 21 70 E8 3A 0C F3 03 A0 01 00 43 ...@.!p.:......C
4000000000128570 10 00 00 00 01 00 70 00 38 0C 73 03 F0 FE FF 4A ......p.8.s....J
4000000000128580 10 00 00 00 01 00 80 40 3C 00 40 80 08 00 84 00 .......@<.@.....
4000000000128590 09 70 00 1E 10 10 00 00 00 02 00 00 84 00 01 84 .p..............
40000000001285A0 11 38 00 1C 86 39 F0 20 80 00 C2 03 F0 01 00 43 .8...9. .......C
40000000001285B0 09 70 00 40 10 10 00 00 00 02 00 00 11 40 00 84 .p.@.........@..
40000000001285C0 10 00 00 00 01 00 70 00 38 0C 73 03 A0 FD FF 48 ......p.8.s....H
40000000001285D0 10 00 00 00 01 00 00 00 00 02 00 00 D0 FD FF 48 ...............H
40000000001285E0 09 70 00 40 10 10 00 22 80 00 42 E0 11 78 00 84 .p.@..."..B..x..
40000000001285F0 11 30 00 1C 87 39 00 00 00 02 00 03 90 FF FF 4B .0...9.........K
4000000000128600 09 70 00 40 10 10 00 00 00 02 00 00 44 00 01 84 .p.@........D...
4000000000128610 11 38 00 1C 86 39 00 00 00 02 80 03 70 FF FF 4B .8...9......p..K
4000000000128620 10 00 00 00 01 00 70 E8 3A 0C 73 03 50 FF FF 4A ......p.:.s.P..J
4000000000128630 10 00 00 00 01 00 00 00 00 02 00 00 D0 00 00 40 ...............@
4000000000128640 0B 80 00 40 10 10 70 D0 41 0C 73 00 00 00 04 00 ...@..p.A.s.....
4000000000128650 E9 00 11 40 00 E1 F1 08 3C 00 C2 63 12 00 00 90 ...@....<..c....
4000000000128660 F1 70 00 40 10 10 00 00 00 02 80 03 00 FF FF 4B .p.@...........K
4000000000128670 11 30 B8 20 87 39 00 00 00 02 00 03 D0 00 00 43 .0. .9.........C
4000000000128680 10 00 00 00 01 00 70 E8 41 0C 73 03 D0 FE FF 4A ......p.A.s....J
4000000000128690 0B 80 10 40 00 21 E0 00 40 20 20 00 00 00 04 00 ...@.!..@  .....
40000000001286A0 0A 30 74 1D 87 B9 01 42 80 00 42 E3 21 78 00 84 .0t....B..B.!x..
40000000001286B0 CA 90 04 00 00 A4 E1 00 80 20 A0 E3 11 78 00 84 ......... ...x..
40000000001286C0 F9 90 04 00 00 24 00 00 00 02 00 03 A0 FE FF 4B .....$.........K
40000000001286D0 08 00 11 20 00 21 00 00 00 02 00 00 00 00 04 00 ... .!..........
40000000001286E0 10 00 00 00 01 00 70 00 38 0C 73 03 80 FD FF 4A ......p.8.s....J
40000000001286F0 11 00 00 00 01 00 00 00 00 02 00 00 90 FE FF 48 ...............H
4000000000128700 09 70 00 40 10 10 80 08 20 00 42 E0 41 00 01 84 .p.@.... .B.A...
4000000000128710 10 00 00 00 01 00 70 00 38 0C 73 03 50 FC FF 48 ......p.8.s.P..H
4000000000128720 10 00 00 00 01 00 00 00 00 02 00 00 80 FC FF 48 ...............H

l4000000000128730:
	{ nop.m	0x0; adds	r8,0x0,r0; br.ret	b0 }
4000000000128740 0B 80 10 40 00 21 E0 00 40 20 20 00 00 00 04 00 ...@.!..@  .....
4000000000128750 0A 30 74 1D 87 B9 01 42 80 00 42 E3 21 78 00 84 .0t....B..B.!x..
4000000000128760 CA A0 04 00 00 A4 E1 00 80 20 A0 E3 11 78 00 84 ......... ...x..
4000000000128770 F9 A0 04 00 00 24 00 00 00 02 00 03 F0 FD FF 4B .....$.........K
4000000000128780 10 00 00 00 01 00 00 22 40 00 42 00 60 FF FF 48 ......."@.B.`..H
4000000000128790 11 00 00 00 01 00 80 08 20 00 42 80 08 00 84 00 ........ .B.....
40000000001287A0 09 30 B8 1C 87 39 00 01 80 20 20 00 00 00 04 00 .0...9...  .....
40000000001287B0 11 00 00 00 01 00 70 00 50 8C AC 03 40 FD FF 4A ......p.P...@..J
40000000001287C0 09 00 00 00 01 00 70 E8 42 0C 73 00 00 00 04 00 ......p.B.s.....
40000000001287D0 E9 00 11 40 00 E1 F1 08 3C 00 C2 83 02 00 00 84 ...@....<.......
40000000001287E0 F1 70 00 40 10 10 00 00 00 02 80 03 80 FD FF 4B .p.@...........K
40000000001287F0 11 78 04 1E 00 21 E0 00 40 00 42 00 70 FD FF 48 .x...!..@.B.p..H

;; match_pattern_char: 4000000000128800
match_pattern_char proc
	{ ld1	r14,[r33]; nop.m	0x0; sxt1	r14,r14; }
	{ cmp4.eq	p06,p07,0x0,r14; nop.i	0x0; (p06) br.cond.dpnt.few	4000000000128950; }

l4000000000128820:
	{ ld1	r16,[r32]; nop.m	0x0; sxt1	r16,r16; }
	{ adds	r15,0xFFFFFFFFFFFFFFDF,r16; nop.m	0x0; zxt1	r17,r15; }
	{ nop.m	0x0; cmp4.ltu	p06,p07,0x3B,r17; (p07) br.cond.dptk.few	4000000000128880; }

l4000000000128850:
	{ cmp4.eq	p06,p07,r16,r14; (p06) addl	r14,1,r0; nop.i	0x0; }

l400000000012885C:
	{ nop; cmp4.eq.and	p00,p32,r32,r0; zxt1	r0,r64 }
	{ invala; break.i	0x1000; (p01) shladd	r64,r3,0x1,r64 }
	{ nop; (p18) invala.e	r0; cmp.eq	p00,p00,r32,r0 }

l4000000000128880:
	{ addl	r17,1,r0; nop.m	0x0; sxt1	r15,r15; }
	{ nop.m	0x0; shl	r15,r17,r15; nop.b	0x0 }
	{ nop.m	0x0; movl	r17,0x80000401; }
	{ nop.m	0x0; and	r17,r17,r15; nop.i	0x0; }
	{ nop.m	0x0; cmp.eq	p07,p06,0x0,r17; (p06) br.cond.dptk.few	4000000000128960 }

l40000000001288D0:
	{ nop.m	0x0; movl	r17,0x40000200; }
	{ nop.m	0x0; and	r17,r17,r15; nop.i	0x0; }
	{ nop.m	0x0; cmp.eq	p07,p06,0x0,r17; (p06) br.cond.dptk.few	4000000000128990; }

l4000000000128900:
	{ nop.m	0x0; tbit.z	p07,p06,r15,0x3B; (p07) br.cond.dptk.few	4000000000128850 }

l4000000000128910:
	{ adds	r32,0x1,r32; ld1	r15,[r32]; nop.i	0x0; }
	{ nop.m	0x0; sxt1	r15,r15; cmp4.eq	p06,p07,r15,r14; }
	{ (p06) addl	r14,1,r0; (p07) adds	r14,0x0,r0; nop.i	0x0; }

l4000000000128936:
	{ Invalid; nop; break.i	0x80000; }
	{ Invalid; (p34) nop; break.i	0x80000 }

l4000000000128950:
	{ nop.m	0x0; adds	r8,0x0,r0; br.ret	b0 }

l4000000000128960:
	{ adds	r32,0x1,r32; ld1	r15,[r32]; nop.i	0x0; }
	{ nop.m	0x0; sxt1	r15,r15; nop.i	0x0; }
	{ nop.m	0x0; cmp4.eq	p06,p07,0x28,r15; (p07) br.cond.dptk.few	4000000000128850 }

l4000000000128990:
	{ nop.m	0x0; addl	r8,1,r0; br.ret	b0; }
40000000001289A0 08 00 00 00 01 00 00 00 00 02 00 00 00 00 04 00 ................
40000000001289B0 08 00 00 00 01 00 00 00 00 02 00 00 00 00 04 00 ................

;; umatchlen: 40000000001289C0
umatchlen proc
	{ ld1	r14,[r32]; addl	r17,-5740,r1; adds	r15,0x1,r32 }
	{ adds	r18,0x0,r0; adds	r20,0x0,r0; adds	r19,0x0,r0; }
	{ nop.m	0x0; sxt1	r14,r14; adds	r8,0x0,r0; }
	{ nop.m	0x0; cmp4.eq	p06,p07,0x0,r14; (p06) br.cond.dpnt.few	4000000000128E60; }

l4000000000128A00:
	{ ld8	r17,[r17]; nop.m	0x0; nop.i	0x0; }
	{ nop.m	0x0; nop.m	0x0; nop.i	0x0 }

l4000000000128A20:
	{ adds	r14,0xFFFFFFFFFFFFFFDF,r14; nop.m	0x0; zxt1	r14,r14; }
	{ nop.m	0x0; cmp4.ltu	p06,p07,0x3B,r14; (p07) br.cond.dptk.few	4000000000128A80 }

l4000000000128A40:
	{ ld1	r14,[r15]; adds	r32,0x0,r15; adds	r8,0x1,r8; }
	{ nop.m	0x0; sxt1	r14,r14; adds	r15,0x1,r32; }
	{ nop.m	0x0; cmp4.eq	p07,p06,0x0,r14; (p06) br.cond.sptk.few	4000000000128A20 }

l4000000000128A70:
	{ nop.m	0x0; nop.i	0x0; br.ret	b0 }

l4000000000128A80:
	{ shladd	r14,r14,0x3,r17; ld8	r16,[r14]; nop.i	0x0; }
	{ nop.m	0x0; add	r14,r14,r16; nop.i	0x0; }
	{ nop.m	0x0; mov.spnt	b6,r14,4000000000128AA0; br.cond	b6; }
4000000000128AB0 09 70 00 1E 00 10 00 02 3C 00 42 00 11 40 00 84 .p......<.B..@..
4000000000128AC0 01 00 00 00 01 00 E0 00 38 28 00 E0 11 00 01 84 ........8(......
4000000000128AD0 11 30 A0 1C 87 39 00 00 00 02 00 03 30 00 00 43 .0...9......0..C
4000000000128AE0 10 00 00 00 01 00 70 00 38 0C 73 03 40 FF FF 48 ......p.8.s.@..H
4000000000128AF0 10 00 00 00 01 00 00 00 00 02 00 00 80 FF FF 48 ...............H
4000000000128B00 10 00 00 00 01 00 80 F8 F3 FF 4F 80 08 00 84 00 ..........O.....
4000000000128B10 09 70 00 1E 00 10 00 12 80 00 42 E0 11 00 00 90 .p........B.....
4000000000128B20 01 00 00 00 01 00 E0 00 38 28 00 00 00 00 04 00 ........8(......
4000000000128B30 11 00 00 00 01 00 60 00 38 0E 73 03 C0 00 00 43 ......`.8.s....C
4000000000128B40 11 38 70 1D 86 39 00 00 00 02 80 03 D0 01 00 43 .8p..9.........C
4000000000128B50 11 38 6C 1D 86 39 00 00 00 02 80 03 30 02 00 43 .8l..9......0..C
4000000000128B60 09 30 E8 1C 87 39 00 01 80 00 20 00 00 00 04 00 .0...9.... .....
4000000000128B70 11 00 00 00 01 00 70 00 4C 8C 2C 03 F0 00 00 42 ......p.L.,....B
4000000000128B80 09 30 B8 1C 87 39 00 00 00 02 00 00 02 80 50 00 .0...9........P.
4000000000128B90 11 00 00 00 01 00 70 00 50 8C AC 03 10 01 00 42 ......p.P......B
4000000000128BA0 10 00 00 00 01 00 70 E8 42 0C 73 03 40 01 00 42 ......p.B.s.@..B
4000000000128BB0 09 00 05 40 00 21 F0 08 3C 00 42 80 02 00 00 84 ...@.!..<.B.....
4000000000128BC0 03 70 00 40 00 10 00 0A 80 00 42 C0 01 70 50 00 .p.@......B..pP.
4000000000128BD0 11 00 00 00 01 00 70 E8 3A 0C F3 03 50 02 00 43 ......p.:...P..C
4000000000128BE0 10 00 00 00 01 00 70 00 38 0C 73 03 60 FF FF 4A ......p.8.s.`..J
4000000000128BF0 10 00 00 00 01 00 80 40 3C 00 40 80 08 00 84 00 .......@<.@.....
4000000000128C00 09 70 00 1E 00 10 00 00 00 02 00 00 24 00 01 84 .p..........$...
4000000000128C10 01 00 00 00 01 00 E0 00 38 28 00 E0 11 00 01 84 ........8(......
4000000000128C20 11 38 00 1C 86 39 00 00 00 02 80 03 C0 03 00 43 .8...9.........C
4000000000128C30 03 70 00 40 00 10 80 08 20 00 42 C0 01 70 50 00 .p.@.... .B..pP.
4000000000128C40 10 00 00 00 01 00 70 00 38 0C 73 03 E0 FD FF 48 ......p.8.s....H
4000000000128C50 10 00 00 00 01 00 00 00 00 02 00 00 20 FE FF 48 ............ ..H
4000000000128C60 01 00 00 00 01 00 00 01 40 28 00 00 00 00 04 00 ........@(......
4000000000128C70 11 38 74 21 86 39 00 00 00 02 80 03 00 02 00 43 .8t!.9.........C
4000000000128C80 09 00 00 00 01 00 60 70 39 0E 73 00 00 00 04 00 ......`p9.s.....
4000000000128C90 11 00 00 00 01 00 70 00 50 8C 2C 03 50 00 00 42 ......p.P.,.P..B
4000000000128CA0 0B 30 F4 1C 87 B9 E1 08 00 00 48 00 00 00 04 00 .0........H.....
4000000000128CB0 EB 70 00 00 00 21 E0 90 38 18 40 00 00 00 04 00 .p...!..8.@.....
4000000000128CC0 11 30 00 1C 87 39 00 00 00 02 00 03 20 00 00 43 .0...9...... ..C
4000000000128CD0 10 00 00 00 01 00 70 E8 42 0C F3 03 E0 01 00 43 ......p.B......C
4000000000128CE0 09 70 00 20 00 21 F0 08 3C 00 42 00 14 00 01 84 .p. .!..<.B.....
4000000000128CF0 10 00 00 00 01 00 70 E8 3A 0C 73 03 F0 FE FF 4A ......p.:.s....J
4000000000128D00 10 00 00 00 01 00 00 00 00 02 00 00 20 01 00 40 ............ ..@
4000000000128D10 09 70 00 40 00 10 00 0A 80 00 42 E0 11 78 00 84 .p.@......B..x..
4000000000128D20 01 00 00 00 01 00 E0 00 38 28 00 00 00 00 04 00 ........8(......
4000000000128D30 11 30 00 1C 87 39 00 00 00 02 00 03 C0 FE FF 4B .0...9.........K
4000000000128D40 03 70 00 40 00 10 00 0A 80 00 42 C0 01 70 50 00 .p.@......B..pP.
4000000000128D50 11 38 00 1C 86 39 00 00 00 02 80 03 A0 FE FF 4B .8...9.........K
4000000000128D60 10 00 00 00 01 00 70 E8 3A 0C 73 03 80 FE FF 4A ......p.:.s....J
4000000000128D70 10 00 00 00 01 00 00 00 00 02 00 00 B0 00 00 40 ...............@
4000000000128D80 0B 80 00 40 00 10 00 00 00 02 00 00 02 80 50 00 ...@..........P.
4000000000128D90 11 38 E8 20 86 39 00 00 00 02 80 03 60 01 00 43 .8. .9......`..C
4000000000128DA0 11 30 B8 20 87 39 00 00 00 02 00 03 90 01 00 43 .0. .9.........C
4000000000128DB0 10 00 00 00 01 00 70 E8 41 0C 73 03 30 FF FF 4A ......p.A.s.0..J
4000000000128DC0 0B 80 04 40 00 21 E0 00 40 00 20 00 00 00 04 00 ...@.!..@. .....
4000000000128DD0 01 00 00 00 01 00 E0 00 38 28 00 00 00 00 04 00 ........8(......
4000000000128DE0 11 30 74 1D 87 39 00 00 00 02 00 03 C0 01 00 43 .0t..9.........C
4000000000128DF0 08 00 00 00 01 C0 F1 08 3C 00 C2 43 12 00 00 90 ........<..C....
4000000000128E00 10 00 05 20 00 21 70 00 38 0C 73 03 40 FD FF 4A ... .!p.8.s.@..J
4000000000128E10 11 00 00 00 01 00 00 00 00 02 00 00 E0 FD FF 48 ...............H
4000000000128E20 09 70 00 40 00 10 80 08 20 00 42 E0 11 00 01 84 .p.@.... .B.....
4000000000128E30 01 00 00 00 01 00 E0 00 38 28 00 00 00 00 04 00 ........8(......
4000000000128E40 10 00 00 00 01 00 70 00 38 0C 73 03 E0 FB FF 48 ......p.8.s....H
4000000000128E50 10 00 00 00 01 00 00 00 00 02 00 00 20 FC FF 48 ............ ..H

l4000000000128E60:
	{ nop.m	0x0; adds	r8,0x0,r0; br.ret	b0 }
4000000000128E70 09 00 05 40 00 21 F0 08 3C 00 42 60 02 00 00 84 ...@.!..<.B`....
4000000000128E80 03 70 00 40 00 10 00 0A 80 00 42 C0 01 70 50 00 .p.@......B..pP.
4000000000128E90 10 00 00 00 01 00 70 E8 3A 0C 73 03 50 FD FF 4A ......p.:.s.P..J
4000000000128EA0 10 00 00 00 01 00 00 00 00 02 00 00 80 FF FF 48 ...............H
4000000000128EB0 09 00 05 40 00 21 F0 08 3C 00 42 40 02 00 00 84 ...@.!..<.B@....
4000000000128EC0 03 70 00 40 00 10 00 0A 80 00 42 C0 01 70 50 00 .p.@......B..pP.
4000000000128ED0 10 00 00 00 01 00 70 E8 3A 0C 73 03 10 FD FF 4A ......p.:.s....J
4000000000128EE0 10 00 00 00 01 00 00 00 00 02 00 00 40 FF FF 48 ............@..H
4000000000128EF0 09 00 05 40 00 21 F0 08 3C 00 42 60 12 00 00 90 ...@.!..<.B`....
4000000000128F00 03 70 00 40 00 10 00 0A 80 00 42 C0 01 70 50 00 .p.@......B..pP.
4000000000128F10 10 00 00 00 01 00 70 E8 3A 0C 73 03 D0 FC FF 4A ......p.:.s....J
4000000000128F20 10 00 00 00 01 00 00 00 00 02 00 00 00 FF FF 48 ...............H
4000000000128F30 0B 80 04 40 00 21 E0 00 40 00 20 00 00 00 04 00 ...@.!..@. .....
4000000000128F40 03 00 00 00 01 00 E0 00 38 28 00 C0 D0 75 1C E6 ........8(...u..
4000000000128F50 F1 78 04 1E 00 E1 41 09 00 00 C8 03 B0 FE FF 4A .x....A........J
4000000000128F60 09 00 09 40 00 21 F0 10 3C 00 42 80 12 00 00 90 ...@.!..<.B.....
4000000000128F70 03 70 00 40 00 10 00 0A 80 00 42 C0 01 70 50 00 .p.@......B..pP.
4000000000128F80 10 00 00 00 01 00 70 E8 3A 0C 73 03 60 FC FF 4A ......p.:.s.`..J
4000000000128F90 10 00 00 00 01 00 00 00 00 02 00 00 90 FE FF 48 ...............H
4000000000128FA0 09 00 09 40 00 21 F0 10 3C 00 42 40 12 00 00 90 ...@.!..<.B@....
4000000000128FB0 03 70 00 40 00 10 00 0A 80 00 42 C0 01 70 50 00 .p.@......B..pP.
4000000000128FC0 10 00 00 00 01 00 70 E8 3A 0C 73 03 20 FC FF 4A ......p.:.s. ..J
4000000000128FD0 10 00 00 00 01 00 00 00 00 02 00 00 50 FE FF 48 ............P..H
4000000000128FE0 11 00 00 00 01 00 80 08 20 00 42 80 08 00 84 00 ........ .B.....
4000000000128FF0 00 30 00 00 01 00 70 00 00 02 00 00 01 00 04 00 .0....p.........

;; getenv: 4000000000129000
;;   Called from:
;;     400000000012938C (in _getenv)
getenv proc
	{ alloc	r37,ar.pfs,0xB,0x0,0x8; ld1	r14,[r32]; mov	r39,pr }
	{ adds	r38,0x0,r1; nop.m	0x0; adds	r40,0x0,r32; }
	{ nop.m	0x0; mov	r36,b4; sxt1	r14,r14; }
	{ cmp4.eq	p07,p06,0x0,r14; nop.i	0x0; (p07) br.cond.dpnt.few	4000000000129200; }

l4000000000129040:
	{ nop.m	0x0; nop.i	0x0; br.call.sptk.many	b0,find_tempenv_variable; }
	{ adds	r1,0x0,r38; nop.m	0x0; cmp.eq	p06,p07,0x0,r8 }
	{ adds	r33,0x0,r8; nop.m	0x0; (p06) br.cond.dpnt.few	4000000000129220; }

l4000000000129070:
	{ addl	r34,8788,r1; ld8	r40,[r34]; nop.i	0x0; }
	{ cmp.eq	p06,p07,0x0,r40; nop.i	0x0; (p06) br.cond.dpnt.few	40000000001290B0; }

l4000000000129090:
	{ nop.m	0x0; nop.i	0x0; br.call.sptk.many	b0,400000000001A7E0; }
	{ adds	r1,0x0,r38; nop.m	0x0; nop.i	0x0 }

l40000000001290B0:
	{ adds	r33,0x8,r33; ld8	r40,[r33]; nop.i	0x0; }
	{ nop.m	0x0; cmp.eq	p06,p07,0x0,r40; nop.i	0x0; }
	{ (p06) adds	r8,0x0,r0; nop.i	0x0; (p06) br.cond.dpnt.few	4000000000129130; }

l40000000001290D6:
	{ chk.a.nc	r0,3FFFFFFFFF1298D6; nop; break.i	0x80000 }
	{ break.m	0x4000; (p32) nop; (p16) nop }

l40000000001290F2:
	{ (p32) nop; nop; Invalid }

l40000000001290F8:
	{ (p01) cmp4.ne.or.andcm	p00,p24,0xFFFFFFFFFFFFFF90,r0; Invalid; (p24) break.i	0x10802 }

l40000000001290FE:
	{ Invalid; Invalid; Invalid }
	{ (p32) nop.m	0x190330; (p33) break.i	0x101; (p04) nop }
	{ (p07) nop; (p01) break.m	0x210; (p04) break.f	0x0; }
	{ nop; (p63) nop }
	{ (p05) break.m	0x220; Invalid; Invalid }
	{ (p04) break.m	0x220; (p04) nop }

l4000000000129150:
	{ nop.m	0x0; nop.i	0x0; br.call.sptk.many	b0,400000000001B6C0; }
	{ adds	r1,0x0,r38; sxt4	r35,r8; cmp4.eq	p16,p17,0x0,r8; }
	{ addl	r14,-10116,r1; ld8	r14,[r14]; nop.i	0x0; }
	{ ld8	r34,[r14]; ld8	r33,[r34]; adds	r34,0x8,r34; }
	{ nop.m	0x0; cmp.eq	p06,p07,0x0,r33; (p06) br.cond.dpnt.few	4000000000129200; }

l40000000001291A0:
	{ nop.m	0x0; nop.i	0x0; (p16) br.cond.dptk.few	4000000000129300 }

l40000000001291B0:
	{ ld1	r15,[r33]; ld1	r14,[r32]; nop.i	0x0; }
	{ nop.m	0x0; sxt1	r15,r15; sxt1	r14,r14; }
	{ nop.m	0x0; cmp4.eq	p07,p06,r15,r14; (p07) br.cond.dpnt.few	40000000001292D0 }

l40000000001291E0:
	{ nop.m	0x0; ld8	r33,[r34],8; nop.i	0x0; }
	{ nop.m	0x0; cmp.eq	p07,p06,0x0,r33; (p06) br.cond.dptk.few	40000000001291A0; }

l4000000000129200:
	{ adds	r8,0x0,r0; mov	pr,r39,0xFFFFFFFFFFFFFFFE; mov.i	ar.pfs,r37; }
	{ nop.m	0x0; mov.spnt	b0,r36,4000000000129210; br.ret	b0 }

l4000000000129220:
	{ addl	r14,7172,r1; nop.m	0x0; adds	r40,0x0,r32; }
	{ nop.m	0x0; ld8	r14,[r14]; nop.i	0x0; }
	{ cmp.eq	p06,p07,0x0,r14; nop.i	0x0; (p06) br.cond.dpnt.few	4000000000129150; }

l4000000000129250:
	{ nop.m	0x0; nop.i	0x0; br.call.sptk.many	b0,find_variable; }
	{ adds	r14,0x28,r8; adds	r1,0x0,r38; nop.i	0x0 }
	{ cmp.eq	p06,p07,0x0,r8; adds	r8,0x8,r8; (p06) br.cond.dpnt.few	4000000000129200; }

l4000000000129280:
	{ ld4	r14,[r14]; nop.m	0x0; mov.i	ar.pfs,r37; }
	{ nop.m	0x0; tbit.z	p06,p07,r14,0x0; (p06) br.cond.dpnt.few	4000000000129200; }

l40000000001292A0:
	{ nop.m	0x0; mov.spnt	b0,r36,40000000001292A0; nop.i	0x0 }
	{ ld8	r8,[r8]; nop.m	0x0; nop.i	0x0; }
	{ nop.m	0x0; mov	pr,r39,0xFFFFFFFFFFFFFFFE; br.ret	b0; }

l40000000001292D0:
	{ adds	r40,0x0,r33; nop.m	0x0; adds	r41,0x0,r32 }
	{ adds	r42,0x0,r35; nop.m	0x0; br.call.sptk.many	b0,400000000001C020; }
	{ adds	r1,0x0,r38; cmp4.eq	p07,p06,0x0,r8; (p06) br.cond.dptk.few	40000000001291E0; }

l4000000000129300:
	{ add	r14,r33,r35; ld1	r14,[r14]; nop.i	0x0; }
	{ nop.m	0x0; sxt1	r14,r14; nop.i	0x0; }
	{ nop.m	0x0; cmp4.eq	p07,p06,0x3D,r14; (p06) br.cond.dptk.few	40000000001291E0; }

l4000000000129330:
	{ add	r8,r33,r35,0x1; mov	pr,r39,0xFFFFFFFFFFFFFFFE; mov.i	ar.pfs,r37; }
	{ nop.m	0x0; mov.spnt	b0,r36,4000000000129340; br.ret	b0; }
4000000000129350 08 00 00 00 01 00 00 00 00 02 00 00 00 00 04 00 ................
4000000000129360 08 00 00 00 01 00 00 00 00 02 00 00 00 00 04 00 ................
4000000000129370 08 00 00 00 01 00 00 00 00 02 00 00 00 00 04 00 ................

;; _getenv: 4000000000129380
_getenv proc
	{ alloc	r2,ar.pfs,0x1,0x0,0x0; nop.i	0x0; br.cond.sptk.many	getenv; }
4000000000129390 0D 00 00 00 01 00 00 00 00 00 00 00 00 00 04 00 ................
40000000001293A0 08 00 00 00 01 00 00 00 00 02 00 00 00 00 04 00 ................
40000000001293B0 08 00 00 00 01 00 00 00 00 02 00 00 00 00 04 00 ................

;; putenv: 40000000001293C0
putenv proc
	{ alloc	r35,ar.pfs,0x8,0x0,0x5; ld1	r14,[r32]; mov	r34,b2 }
	{ adds	r36,0x0,r1; nop.m	0x0; adds	r37,0x0,r32; }
	{ nop.m	0x0; sxt1	r14,r14; adds	r38,0x0,r0; }
	{ cmp4.eq	p07,p06,0x0,r14; nop.i	0x0; (p07) br.cond.dpnt.few	4000000000129520; }

l4000000000129400:
	{ nop.m	0x0; nop.i	0x0; br.call.sptk.many	b0,assignment; }
	{ nop.m	0x0; sxt4	r33,r8; adds	r37,0x0,r32 }
	{ adds	r1,0x0,r36; add	r14,r32,r33; nop.i	0x0; }
	{ ld1	r14,[r14]; nop.m	0x0; sxt1	r14,r14; }
	{ cmp4.eq	p06,p07,0x3D,r14; nop.i	0x0; (p07) br.cond.dpnt.few	4000000000129520; }

l4000000000129450:
	{ nop.m	0x0; nop.i	0x0; br.call.sptk.many	b0,400000000001B6C0; }
	{ adds	r37,0x1,r8; adds	r1,0x0,r36; br.call.sptk.many	b0,xmalloc; }
	{ adds	r37,0x0,r8; nop.m	0x0; adds	r1,0x0,r36 }
	{ adds	r38,0x0,r32; nop.m	0x0; br.call.sptk.many	b0,400000000001B180; }
	{ adds	r37,0x0,r8; nop.m	0x0; add	r8,r8,r33 }
	{ adds	r1,0x0,r36; adds	r39,0x0,r0; add	r38,r33,r37,0x1 }
	{ st1	[r0],r8; nop.m	0x0; br.call.sptk.many	b0,bind_variable; }
	{ cmp.eq	p07,p06,0x0,r8; adds	r15,0x28,r8; nop.i	0x0 }
	{ adds	r16,0x0,r0; adds	r1,0x0,r36; (p07) br.cond.spnt.few	4000000000129520; }

l40000000001294E0:
	{ (p06) ld4	r14,[r15]; (p06) addl	r17,-4097,r0; nop.b	0x0 }

l40000000001294E6:
	{ Invalid; nop; nop.b	0x10002; }
	{ break.m	0x4000; addp4	r35,0x40,r42; (p33) nop }
	{ chk.a.nc	r34,3FFFFFFFFF209516; (p07) nop; (p01) nop }
	{ break.m	0x4000; (p34) nop; break.i	0x80000 }

l4000000000129520:
	{ nop.m	0x0; nop.i	0x0; br.call.sptk.many	b0,400000000001B840; }
	{ addl	r16,-1,r0; addl	r14,22,r0; nop.b	0x0 }
	{ adds	r1,0x0,r36; nop.m	0x0; mov.i	ar.pfs,r35; }
	{ nop.m	0x0; st4	[r14],r8; mov.spnt	b0,r34,4000000000129550 }
	{ nop.m	0x0; adds	r8,0x0,r16; br.ret	b0; }
4000000000129570 08 00 00 00 01 00 00 00 00 02 00 00 00 00 04 00 ................

;; setenv: 4000000000129580
setenv proc
	{ alloc	r36,ar.pfs,0x9,0x0,0x6; adds	r37,0x0,r1; mov	r35,b3 }
	{ cmp.eq	p06,p07,0x0,r32; adds	r38,0x0,r32; (p06) br.cond.spnt.few	40000000001296E0; }

l40000000001295A0:
	{ ld1	r14,[r32]; addl	r39,61,r0; sxt1	r14,r14; }
	{ cmp4.eq	p06,p07,0x0,r14; nop.i	0x0; (p06) br.cond.dpnt.few	40000000001296E0; }

l40000000001295C0:
	{ nop.m	0x0; nop.i	0x0; br.call.sptk.many	b0,400000000001B680; }
	{ cmp.eq	p06,p07,0x0,r8; adds	r1,0x0,r37; (p07) br.cond.dpnt.few	40000000001296E0; }

l40000000001295E0:
	{ nop.m	0x0; cmp4.eq	p06,p07,0x0,r34; (p06) br.cond.dpnt.few	4000000000129680 }

l40000000001295F0:
	{ adds	r38,0x0,r32; nop.m	0x0; adds	r39,0x0,r33 }
	{ adds	r40,0x0,r0; nop.m	0x0; br.call.sptk.many	b0,bind_variable; }
	{ adds	r14,0x28,r8; adds	r1,0x0,r37; cmp.eq	p06,p07,0x0,r8 }
	{ addl	r17,-4097,r0; adds	r15,0x0,r0; (p06) br.cond.dpnt.few	4000000000129730; }

l4000000000129630:
	{ ld4	r16,[r14]; and	r16,r17,r16; nop.i	0x0; }
	{ nop.m	0x0; or	r16,0x1,r16; nop.i	0x0; }
	{ st4	[r16],r14; nop.m	0x0; nop.i	0x0 }

l4000000000129660:
	{ adds	r8,0x0,r15; nop.m	0x0; mov.i	ar.pfs,r36; }
	{ nop.m	0x0; mov.spnt	b0,r35,4000000000129670; br.ret	b0; }

l4000000000129680:
	{ adds	r38,0x0,r32; nop.i	0x0; br.call.sptk.many	b0,find_variable; }
	{ adds	r14,0x28,r8; adds	r1,0x0,r37; cmp.eq	p06,p07,0x0,r8 }
	{ addl	r17,-4097,r0; adds	r15,0x0,r0; (p06) br.cond.spnt.few	40000000001295F0; }

l40000000001296B0:
	{ ld4	r16,[r14]; and	r16,r17,r16; nop.i	0x0; }
	{ nop.m	0x0; or	r16,0x1,r16; nop.i	0x0; }
	{ st4	[r16],r14; nop.i	0x0; br.cond.sptk.few	4000000000129660 }

l40000000001296E0:
	{ nop.m	0x0; nop.i	0x0; br.call.sptk.many	b0,400000000001B840; }
	{ addl	r15,-1,r0; addl	r14,22,r0; nop.b	0x0 }
	{ adds	r1,0x0,r37; nop.m	0x0; mov.i	ar.pfs,r36; }
	{ nop.m	0x0; st4	[r14],r8; mov.spnt	b0,r35,4000000000129710 }
	{ nop.m	0x0; adds	r8,0x0,r15; br.ret	b0 }

l4000000000129730:
	{ addl	r15,-1,r0; nop.m	0x0; mov.i	ar.pfs,r36; }
	{ adds	r8,0x0,r15; mov.spnt	b0,r35,4000000000129740; br.ret	b0; }
4000000000129750 08 00 00 00 01 00 00 00 00 02 00 00 00 00 04 00 ................
4000000000129760 08 00 00 00 01 00 00 00 00 02 00 00 00 00 04 00 ................
4000000000129770 08 00 00 00 01 00 00 00 00 02 00 00 00 00 04 00 ................

;; unsetenv: 4000000000129780
unsetenv proc
	{ alloc	r34,ar.pfs,0x6,0x0,0x4; ld1	r14,[r32]; mov	r33,b1 }
	{ adds	r35,0x0,r1; nop.m	0x0; adds	r36,0x0,r32; }
	{ nop.m	0x0; sxt1	r14,r14; addl	r37,61,r0; }
	{ cmp4.eq	p06,p07,0x0,r14; nop.i	0x0; (p06) br.cond.dpnt.few	4000000000129820; }

l40000000001297C0:
	{ nop.m	0x0; nop.i	0x0; br.call.sptk.many	b0,400000000001B680; }
	{ cmp.eq	p06,p07,0x0,r8; nop.m	0x0; adds	r1,0x0,r35 }
	{ adds	r36,0x0,r32; nop.m	0x0; (p07) br.cond.dpnt.few	4000000000129820; }

l40000000001297F0:
	{ nop.m	0x0; nop.i	0x0; br.call.sptk.many	b0,unbind_variable; }
	{ adds	r14,0x0,r0; adds	r1,0x0,r35; mov.i	ar.pfs,r34; }
	{ adds	r8,0x0,r14; mov.spnt	b0,r33,4000000000129810; br.ret	b0; }

l4000000000129820:
	{ nop.m	0x0; nop.i	0x0; br.call.sptk.many	b0,400000000001B840; }
	{ addl	r14,-1,r0; addl	r15,22,r0; nop.b	0x0 }
	{ adds	r1,0x0,r35; nop.m	0x0; mov.i	ar.pfs,r34; }
	{ nop.m	0x0; st4	[r15],r8; mov.spnt	b0,r33,4000000000129850 }
	{ nop.m	0x0; adds	r8,0x0,r14; br.ret	b0; }
4000000000129870 00 30 00 00 01 00 70 00 00 02 00 00 01 00 04 00 .0....p.........

;; getmaxgroups: 4000000000129880
getmaxgroups proc
	{ alloc	r34,ar.pfs,0x5,0x0,0x4; mov	r33,b1; addl	r32,6420,r1 }
	{ adds	r35,0x0,r1; ld4	r8,[r32]; mov.i	ar.pfs,r34; }
	{ nop.m	0x0; cmp4.lt	p06,p07,0x0,r8; mov.spnt	b0,r33,40000000001298A0 }
	{ nop.b	0x0; (p07) br.cond.dpnt.few	40000000001298C0; br.ret	b0; }

l40000000001298BC:
	{ shladd	r0,r33,0x2,r0; (p52) invala.e	r0; break.i	0x1000 }

l40000000001298C0:
	{ addl	r36,3,r0; nop.i	0x0; br.call.sptk.many	b0,400000000001AD00; }
	{ adds	r14,0x0,r8; cmp4.lt	p07,p06,0x0,r8; nop.b	0x0 }
	{ adds	r1,0x0,r35; nop.m	0x0; mov.i	ar.pfs,r34; }
	{ (p06) addl	r14,64,r0; (p06) addl	r8,64,r0; mov.spnt	b0,r33,40000000001298F0; }

l40000000001298F6:
	{ Invalid; nop; nop; }
	{ break.m	0x4000; (p34) nop; break.i	0x80000 }
	{ break.m	0x4000; nop; break.i	0x80000 }
	{ break.m	0x4000; nop; break.i	0x80000 }
	{ break.m	0x4000; break.i	0x4000; Invalid }

;; getmaxchild: 4000000000129940
getmaxchild proc
	{ alloc	r34,ar.pfs,0x5,0x0,0x4; mov	r33,b1; addl	r32,6428,r1 }
	{ adds	r35,0x0,r1; ld8	r8,[r32]; mov.i	ar.pfs,r34; }
	{ nop.m	0x0; cmp.lt	p06,p07,0x0,r8; mov.spnt	b0,r33,4000000000129960 }
	{ nop.b	0x0; (p07) br.cond.dpnt.few	4000000000129980; br.ret	b0; }

l400000000012997C:
	{ shladd	r0,r33,0x2,r0; (p20) invala.e	r0; break.i	0x1000 }

l4000000000129980:
	{ addl	r36,1,r0; nop.i	0x0; br.call.sptk.many	b0,400000000001AD00; }
	{ adds	r1,0x0,r35; st8	[r8],r32; mov.i	ar.pfs,r34; }
	{ nop.m	0x0; mov.spnt	b0,r33,40000000001299A0; br.ret	b0; }
40000000001299B0 00 30 00 00 01 00 70 00 00 02 00 00 01 00 04 00 .0....p.........

;; sh_setlinebuf: 40000000001299C0
sh_setlinebuf proc
	{ alloc	r34,ar.pfs,0x8,0x0,0x4; mov	r33,b1; adds	r35,0x0,r1 }
	{ adds	r36,0x0,r32; adds	r37,0x0,r0; addl	r38,1,r0 }
	{ addl	r39,8192,r0; nop.m	0x0; br.call.sptk.many	b0,400000000001B720; }
	{ adds	r1,0x0,r35; nop.m	0x0; mov.i	ar.pfs,r34; }
	{ nop.m	0x0; mov.spnt	b0,r33,4000000000129A00; br.ret	b0; }
4000000000129A10 00 30 00 00 01 00 70 00 00 02 00 00 01 00 04 00 .0....p.........
4000000000129A20 00 30 00 00 01 00 70 00 00 02 00 00 01 00 04 00 .0....p.........
4000000000129A30 00 30 00 00 01 00 70 00 00 02 00 00 01 00 04 00 .0....p.........

;; inttostr: 4000000000129A40
inttostr proc
	{ alloc	r36,ar.pfs,0xB,0x0,0x6; adds	r37,0x0,r1; mov	r35,b3 }
	{ adds	r38,0x0,r32; adds	r40,0x0,r33; adds	r41,0x0,r34; }
	{ addl	r39,10,r0; adds	r42,0x0,r0; br.call.sptk.many	b0,fmtumax; }
	{ adds	r1,0x0,r37; nop.m	0x0; mov.i	ar.pfs,r36; }
	{ nop.m	0x0; mov.spnt	b0,r35,4000000000129A80; br.ret	b0; }
4000000000129A90 08 00 00 00 01 00 00 00 00 02 00 00 00 00 04 00 ................
4000000000129AA0 08 00 00 00 01 00 00 00 00 02 00 00 00 00 04 00 ................
4000000000129AB0 08 00 00 00 01 00 00 00 00 02 00 00 00 00 04 00 ................

;; itos: 4000000000129AC0
itos proc
	{ alloc	r35,ar.pfs,0xA,0x0,0x5; adds	r12,0xFFFFFFFFFFFFFFE0,r12; mov	r34,b2 }
	{ adds	r36,0x0,r1; nop.m	0x0; adds	r37,0x0,r32; }
	{ adds	r39,0x10,r12; addl	r40,22,r0; nop.i	0x0 }
	{ adds	r41,0x0,r0; addl	r38,10,r0; br.call.sptk.many	b0,fmtumax; }
	{ adds	r1,0x0,r36; nop.m	0x0; adds	r33,0x0,r8 }
	{ adds	r37,0x0,r8; nop.m	0x0; br.call.sptk.many	b0,400000000001B6C0; }
	{ adds	r1,0x0,r36; adds	r37,0x1,r8; br.call.sptk.many	b0,xmalloc; }
	{ adds	r1,0x0,r36; nop.m	0x0; adds	r37,0x0,r8 }
	{ adds	r38,0x0,r33; nop.m	0x0; br.call.sptk.many	b0,400000000001B180; }
	{ adds	r1,0x0,r36; mov.i	ar.pfs,r35; mov.spnt	b0,r34,4000000000129B50 }
	{ nop.m	0x0; adds	r12,0x20,r12; br.ret	b0; }
4000000000129B70 08 00 00 00 01 00 00 00 00 02 00 00 00 00 04 00 ................

;; uinttostr: 4000000000129B80
uinttostr proc
	{ alloc	r36,ar.pfs,0xB,0x0,0x6; adds	r37,0x0,r1; mov	r35,b3 }
	{ adds	r38,0x0,r32; adds	r40,0x0,r33; adds	r41,0x0,r34; }
	{ addl	r39,10,r0; addl	r42,8,r0; br.call.sptk.many	b0,fmtumax; }
	{ adds	r1,0x0,r37; nop.m	0x0; mov.i	ar.pfs,r36; }
	{ nop.m	0x0; mov.spnt	b0,r35,4000000000129BC0; br.ret	b0; }
4000000000129BD0 08 00 00 00 01 00 00 00 00 02 00 00 00 00 04 00 ................
4000000000129BE0 08 00 00 00 01 00 00 00 00 02 00 00 00 00 04 00 ................
4000000000129BF0 08 00 00 00 01 00 00 00 00 02 00 00 00 00 04 00 ................

;; uitos: 4000000000129C00
uitos proc
	{ alloc	r35,ar.pfs,0xA,0x0,0x5; adds	r12,0xFFFFFFFFFFFFFFE0,r12; mov	r34,b2 }
	{ adds	r36,0x0,r1; nop.m	0x0; adds	r37,0x0,r32; }
	{ adds	r39,0x10,r12; addl	r40,21,r0; nop.i	0x0 }
	{ addl	r41,8,r0; addl	r38,10,r0; br.call.sptk.many	b0,fmtumax; }
	{ adds	r1,0x0,r36; nop.m	0x0; adds	r33,0x0,r8 }
	{ adds	r37,0x0,r8; nop.m	0x0; br.call.sptk.many	b0,400000000001B6C0; }
	{ adds	r1,0x0,r36; adds	r37,0x1,r8; br.call.sptk.many	b0,xmalloc; }
	{ adds	r1,0x0,r36; nop.m	0x0; adds	r37,0x0,r8 }
	{ adds	r38,0x0,r33; nop.m	0x0; br.call.sptk.many	b0,400000000001B180; }
	{ adds	r1,0x0,r36; mov.i	ar.pfs,r35; mov.spnt	b0,r34,4000000000129C90 }
	{ nop.m	0x0; adds	r12,0x20,r12; br.ret	b0; }
4000000000129CB0 00 30 00 00 01 00 70 00 00 02 00 00 01 00 04 00 .0....p.........

;; zread: 4000000000129CC0
zread proc
	{ alloc	r37,ar.pfs,0xA,0x0,0x7; mov	r36,b4; adds	r38,0x0,r1; }
	{ nop.m	0x0; nop.m	0x0; nop.i	0x0 }

l4000000000129CE0:
	{ adds	r39,0x0,r32; nop.m	0x0; adds	r40,0x0,r33 }
	{ adds	r41,0x0,r34; nop.m	0x0; br.call.sptk.many	b0,400000000001A600; }
	{ cmp.lt	p06,p07,r8,r0; nop.m	0x0; adds	r1,0x0,r38 }
	{ adds	r35,0x0,r8; nop.m	0x0; (p07) br.cond.dpnt.few	4000000000129D50; }

l4000000000129D20:
	{ nop.m	0x0; nop.i	0x0; br.call.sptk.many	b0,400000000001B840; }
	{ ld4	r14,[r8]; nop.m	0x0; adds	r1,0x0,r38; }
	{ nop.m	0x0; cmp4.eq	p06,p07,0x4,r14; (p06) br.cond.dptk.few	4000000000129CE0 }

l4000000000129D50:
	{ adds	r8,0x0,r35; nop.m	0x0; mov.i	ar.pfs,r37; }
	{ nop.m	0x0; mov.spnt	b0,r36,4000000000129D60; br.ret	b0; }
4000000000129D70 08 00 00 00 01 00 00 00 00 02 00 00 00 00 04 00 ................

;; zreadretry: 4000000000129D80
zreadretry proc
	{ alloc	r38,ar.pfs,0xB,0x0,0x8; mov	r37,b5; nop.i	0x0 }
	{ adds	r39,0x0,r1; nop.i	0x0; addl	r36,3,r0; }
	{ adds	r40,0x0,r32; adds	r41,0x0,r33; nop.i	0x0 }
	{ adds	r42,0x0,r34; adds	r36,0xFFFFFFFFFFFFFFFF,r36; br.call.sptk.many	b0,400000000001A600; }
	{ cmp.lt	p07,p06,r8,r0; nop.m	0x0; adds	r1,0x0,r39 }
	{ adds	r35,0x0,r8; nop.m	0x0; (p06) br.cond.dpnt.few	4000000000129E20; }

l4000000000129DE0:
	{ cmp.eq	p07,p06,0xFFFFFFFFFFFFFFFF,r8; nop.i	0x0; (p06) br.cond.dpnt.few	4000000000129E20; }

l4000000000129DF0:
	{ nop.m	0x0; nop.i	0x0; br.call.sptk.many	b0,400000000001B840; }
	{ ld4	r14,[r8]; adds	r1,0x0,r39; cmp4.eq	p09,p08,0x0,r36; }
	{ cmp4.eq	p07,p06,0x4,r14; (p06) br.cond.dpnt.few	4000000000129E20; (p08) br.cond.dptk.few	4000000000129DA0 }

l4000000000129E1C:
	{ (p60) nop; zxt1	r96,r64; break.b	0x1000 }

l4000000000129E20:
	{ adds	r8,0x0,r35; nop.m	0x0; mov.i	ar.pfs,r38; }

l4000000000129E22:
	{ (p48) break.m	0x42008; cmp.lt	p32,p00,r0,r0; Invalid }

l4000000000129E28:
	{ Invalid; (p40) break.i	0x1100A; nop }
	{ nop; (p24) nop; }

;; zreadintr: 4000000000129E40
zreadintr proc
	{ alloc	r36,ar.pfs,0x9,0x0,0x6; adds	r37,0x0,r1; mov	r35,b3 }
	{ adds	r38,0x0,r32; adds	r39,0x0,r33; adds	r40,0x0,r34; }
	{ nop.m	0x0; nop.i	0x0; br.call.sptk.many	b0,400000000001A600; }
	{ adds	r1,0x0,r37; nop.m	0x0; mov.i	ar.pfs,r36; }
	{ nop.m	0x0; mov.spnt	b0,r35,4000000000129E80; br.ret	b0; }
4000000000129E90 08 00 00 00 01 00 00 00 00 02 00 00 00 00 04 00 ................
4000000000129EA0 08 00 00 00 01 00 00 00 00 02 00 00 00 00 04 00 ................
4000000000129EB0 08 00 00 00 01 00 00 00 00 02 00 00 00 00 04 00 ................

;; zreadcn: 4000000000129EC0
;;   Called from:
;;     400000000012A05C (in zreadc)
zreadcn proc
	{ alloc	r38,ar.pfs,0xB,0x0,0x8; addl	r35,8796,r1; nop.b	0x0 }
	{ addl	r36,8804,r1; addl	r41,21292,r1; mov	r37,b5; }
	{ addl	r42,128,r0; ld8	r14,[r36]; adds	r39,0x0,r1 }
	{ adds	r40,0x0,r32; ld8	r15,[r35]; nop.i	0x0; }
	{ cmp4.ltu	p06,p07,r42,r34; nop.m	0x0; nop.i	0x0; }
	{ nop.m	0x0; (p06) adds	r42,0x1,r0; nop.i	0x0; }

l4000000000129F1C:
	{ getf.s	r0,f1; (p05) cmp.lt	p00,p16,r0,r64; (p32) mov	pr,r99,0xE0C6 }

l4000000000129F28:
	{ (p49) fwb; break.f	0x11430; nop }

l4000000000129F2E:
	{ (p24) break.m	0x228; Invalid; czx1.r	r16,r0 }

l4000000000129F34:
	{ nop; (p08) break.i	0x70037; (p04) break.i	0x1A; }

l4000000000129F40:
	{ nop.m	0x0; tbit.z	p07,p06,r42,0x0; (p07) adds	r42,0x0,r34; }

l4000000000129F50:
	{ (p06) addl	r42,128,r0; nop.i	0x0; br.call.sptk.many	b0,zread; }

l4000000000129F56:
	{ break.m	0x4000; (p32) nop; break.i	0x80000 }

l4000000000129F62:
	{ Invalid; zxt1	r98,r24; (p48) break.i	0x42009 }
	{ (p48) break.m	0x23308; break.i	0x20; Invalid }
	{ break.m	0x23309; cmp.eq	p32,p01,r0,r96; Invalid }
	{ (p01) break.m	0x23309; break.i	0x20; Invalid }
	{ Invalid; (p16) break.i	0x720E8; nop }
	{ Invalid; (p48) nop; break.b	0x48000 }
	{ nop; cmp4.eq.or.andcm	p00,p49,r0,r114; (p33) nop }
	{ Invalid; nop }
	{ (p49) cmp.eq	p08,p01,r102,r104; (p17) break.m	0x23008; break.b	0x80020 }
	{ cmp.lt	p32,p00,r0,r0; (p04) break.i	0x550; Invalid }
	{ nop; (p20) nop; Invalid }
	{ break.m	0x20; break.i	0x20; Invalid }
	{ break.m	0x20; break.i	0x20; Invalid }
	{ break.m	0x20; break.i	0x20; Invalid }

;; zreadc: 400000000012A040
zreadc proc
	{ alloc	r16,ar.pfs,0x3,0x0,0x3; addl	r34,128,r0; nop.i	0x0; }
	{ alloc	r2,ar.pfs,0x3,0x0,0x0; nop.i	0x0; br.cond.sptk.many	zreadcn; }
400000000012A060 0D 00 00 00 01 00 00 00 00 00 00 00 00 00 04 00 ................
400000000012A070 08 00 00 00 01 00 00 00 00 02 00 00 00 00 04 00 ................

;; zreadcintr: 400000000012A080
zreadcintr proc
	{ alloc	r37,ar.pfs,0xA,0x0,0x7; addl	r34,8796,r1; nop.b	0x0 }
	{ addl	r35,8804,r1; addl	r40,21292,r1; mov	r36,b4; }
	{ ld8	r14,[r35]; adds	r38,0x0,r1; addl	r41,128,r0 }
	{ adds	r39,0x0,r32; ld8	r15,[r34]; nop.i	0x0; }
	{ nop.m	0x0; cmp.eq	p06,p07,r14,r15; nop.i	0x0 }
	{ nop.m	0x0; nop.m	0x0; (p06) br.cond.dpnt.few	400000000012A0F0; }

l400000000012A0E0:
	{ nop.m	0x0; cmp.eq	p07,p06,0x0,r14; (p06) br.cond.dptk.few	400000000012A140 }

l400000000012A0F0:
	{ nop.m	0x0; nop.i	0x0; br.call.sptk.many	b0,zreadintr; }
	{ nop.m	0x0; cmp.lt	p06,p07,0x0,r8; adds	r1,0x0,r38 }
	{ st8	[r0],r34; nop.i	0x0; nop.i	0x0 }
	{ (p07) st8	[r0],r35; nop.m	0x0; (p07) br.cond.dpnt.few	400000000012A190; }

l400000000012A126:
	{ chk.a.nc	f0,3FFFFFFFFF12A926; nop; nop }
	{ break.m	0x4000; nop; break.i	0x80000 }

l400000000012A140:
	{ nop.m	0x0; cmp.eq	p06,p07,0x0,r33; nop.i	0x0; }

l400000000012A142:
	{ Invalid; (p16) break.i	0x720E8; nop }
	{ Invalid; (p32) nop; break.b	0x48000 }

l400000000012A156:
	{ (p07) chk.a.nc	f0,3FFFFFFFFF936376; Invalid; add	r0,r0,r32; }

l400000000012A15C:
	{ Invalid; mov	pr,r32,0x0; Invalid; }
	{ (p07) cmp4.eq.and	p14,p42,r0,r64; (p17) cmp4.ne.or.andcm	p00,p48,r3,r64; (p01) rfi; }
	{ Invalid; (p32) mov	pr,r8,0x4686; Invalid }
	{ nop.m	0x80; break.i	0x1000; (p16) break.i	0x2A809 }
	{ Invalid; break.i	0x1000; add	r41,r0,r112 }
	{ nop; break.m	0x1000; break.i	0x1000 }
	{ cmp.lt	p00,p11,r1,r0; zxt4	r57,r17; cmp.lt.unc	p00,p08,r3,r102 }

;; zreset: 400000000012A1C0
zreset proc
	{ addl	r14,8804,r1; st8	[r0],r14; addl	r14,8796,r1; }
	{ st8	[r0],r14; nop.i	0x0; br.ret	b0; }
400000000012A1E0 08 00 00 00 01 00 00 00 00 02 00 00 00 00 04 00 ................
400000000012A1F0 08 00 00 00 01 00 00 00 00 02 00 00 00 00 04 00 ................

;; zsyncfd: 400000000012A200
zsyncfd proc
	{ alloc	r36,ar.pfs,0x9,0x0,0x6; addl	r34,8804,r1; mov	r35,b3 }
	{ addl	r33,8796,r1; adds	r37,0x0,r1; adds	r38,0x0,r32; }
	{ nop.m	0x0; ld8	r39,[r34]; addl	r40,1,r0 }
	{ ld8	r14,[r33]; sub	r39,r39,r14; nop.i	0x0; }
	{ cmp.lt	p06,p07,0x0,r39; sub	r39,r0,r39; (p07) br.cond.dpnt.few	400000000012A270; }

l400000000012A250:
	{ nop.m	0x0; nop.i	0x0; br.call.sptk.many	b0,400000000001AA20; }
	{ adds	r1,0x0,r37; cmp.eq	p07,p06,0xFFFFFFFFFFFFFFFF,r8; (p07) br.cond.dpnt.few	400000000012A280 }

l400000000012A270:
	{ st8	[r0],r33; st8	[r0],r34; nop.i	0x0 }

l400000000012A280:
	{ nop.m	0x0; mov.i	ar.pfs,r36; nop.i	0x0; }
	{ nop.m	0x0; mov.spnt	b0,r35,400000000012A290; br.ret	b0; }
400000000012A2A0 00 30 00 00 01 00 70 00 00 02 00 00 01 00 04 00 .0....p.........
400000000012A2B0 00 30 00 00 01 00 70 00 00 02 00 00 01 00 04 00 .0....p.........

;; ttgetattr: 400000000012A2C0
ttgetattr proc
	{ alloc	r35,ar.pfs,0x7,0x0,0x5; mov	r34,b2; nop.b	0x0 }
	{ adds	r36,0x0,r1; adds	r37,0x0,r32; adds	r38,0x0,r33; }
	{ nop.m	0x0; nop.i	0x0; br.call.sptk.many	b0,400000000001C400; }
	{ adds	r1,0x0,r36; nop.m	0x0; mov.i	ar.pfs,r35; }
	{ nop.m	0x0; mov.spnt	b0,r34,400000000012A300; br.ret	b0; }
400000000012A310 08 00 00 00 01 00 00 00 00 02 00 00 00 00 04 00 ................
400000000012A320 08 00 00 00 01 00 00 00 00 02 00 00 00 00 04 00 ................
400000000012A330 08 00 00 00 01 00 00 00 00 02 00 00 00 00 04 00 ................

;; ttsetattr: 400000000012A340
;;   Called from:
;;     400000000012A6EC (in ttfd_onechar)
;;     400000000012A86C (in ttfd_noecho)
;;     400000000012AA0C (in ttfd_eightbit)
;;     400000000012AB6C (in ttfd_nocanon)
;;     400000000012AD26 (in ttfd_cbreak)
ttsetattr proc
	{ alloc	r35,ar.pfs,0x8,0x0,0x5; mov	r34,b2; nop.b	0x0 }
	{ adds	r36,0x0,r1; adds	r37,0x0,r32; adds	r39,0x0,r33; }
	{ addl	r38,1,r0; nop.i	0x0; br.call.sptk.many	b0,400000000001B1E0; }
	{ adds	r1,0x0,r36; nop.m	0x0; mov.i	ar.pfs,r35; }
	{ nop.m	0x0; mov.spnt	b0,r34,400000000012A380; br.ret	b0; }
400000000012A390 08 00 00 00 01 00 00 00 00 02 00 00 00 00 04 00 ................
400000000012A3A0 08 00 00 00 01 00 00 00 00 02 00 00 00 00 04 00 ................
400000000012A3B0 08 00 00 00 01 00 00 00 00 02 00 00 00 00 04 00 ................

;; ttsave: 400000000012A3C0
ttsave proc
	{ alloc	r34,ar.pfs,0x6,0x0,0x4; mov	r33,b1; addl	r32,8812,r1 }
	{ adds	r35,0x0,r1; ld4	r14,[r32]; mov.i	ar.pfs,r34; }
	{ nop.m	0x0; cmp4.eq	p07,p06,0x0,r14; mov.spnt	b0,r33,400000000012A3E0 }
	{ nop.b	0x0; (p07) br.cond.dpnt.few	400000000012A400; br.ret	b0 }

l400000000012A3FC:
	{ nop; (p04) invala.e	r43; add	r0,r32,r0 }

l400000000012A400:
	{ addl	r37,21420,r1; nop.m	0x0; adds	r36,0x0,r0; }

l400000000012A402:
	{ (p21) break.m	0x494E0; chk.s.i	r0,3FFFFFFFFF12A602; clrrrb; }

l400000000012A406:
	{ break.m	0x4000; (p18) nop; break.i	0x80000 }

l400000000012A408:
	{ (p16) sum	0x100000; break.i	0x11840; break.i	0x8 }

l400000000012A40C:
	{ Invalid; break.x	0x8000001000 }

l400000000012A40E:
	{ (p32) break.m	0x230; (p04) break.i	0x0; (p04) nop }

l400000000012A414:
	{ break.m	0x100000; nop; (p49) deposit	r26,r0,r1,39,0; }

l400000000012A424:
	{ (p08) break.m	0x14804; (p32) nop; (p37) break.i	0x8C }

l400000000012A42A:
	{ (p02) nop; Invalid; mov	pr,0x0 }

l400000000012A430:
	{ nop.m	0x0; nop.i	0x0; br.call.sptk.many	b0,ttgetattr; }
	{ addl	r14,1,r0; adds	r1,0x0,r35; mov.i	ar.pfs,r34; }
	{ st4	[r14],r32; mov.spnt	b0,r33,400000000012A450; br.ret	b0; }
400000000012A460 08 00 00 00 01 00 00 00 00 02 00 00 00 00 04 00 ................
400000000012A470 08 00 00 00 01 00 00 00 00 02 00 00 00 00 04 00 ................

;; ttrestore: 400000000012A480
ttrestore proc
	{ alloc	r34,ar.pfs,0x6,0x0,0x4; mov	r33,b1; addl	r32,8812,r1 }
	{ adds	r35,0x0,r1; ld4	r14,[r32]; mov.i	ar.pfs,r34; }
	{ nop.m	0x0; cmp4.eq	p06,p07,0x0,r14; mov.spnt	b0,r33,400000000012A4A0 }
	{ nop.b	0x0; (p07) br.cond.dpnt.few	400000000012A4C0; br.ret	b0 }

l400000000012A4BC:
	{ nop; (p04) invala.e	r43; add	r0,r32,r0 }

l400000000012A4C0:
	{ addl	r37,21420,r1; nop.m	0x0; adds	r36,0x0,r0; }

l400000000012A4C2:
	{ (p21) break.m	0x494E0; chk.s.i	r0,3FFFFFFFFF12A6C2; clrrrb; }

l400000000012A4C6:
	{ break.m	0x4000; (p18) nop; break.i	0x80000 }

l400000000012A4C8:
	{ (p16) sum	0x100000; break.i	0x11840; break.i	0x8 }

l400000000012A4CC:
	{ Invalid; break.x	0x8000001000 }

l400000000012A4CE:
	{ (p32) break.m	0x230; (p04) break.i	0x0; (p04) nop }

l400000000012A4D4:
	{ break.m	0x100000; nop; (p49) deposit	r26,r0,r1,39,0; }

l400000000012A4E4:
	{ (p08) break.m	0x14804; (p32) nop; (p37) break.i	0x8C }

l400000000012A4EA:
	{ (p02) nop; Invalid; mov	pr,0x0 }

l400000000012A4F0:
	{ nop.m	0x0; nop.i	0x0; br.call.sptk.many	b0,ttsetattr; }
	{ adds	r1,0x0,r35; st4	[r0],r32; mov.i	ar.pfs,r34; }
	{ nop.m	0x0; mov.spnt	b0,r33,400000000012A510; br.ret	b0; }
400000000012A520 08 00 00 00 01 00 00 00 00 02 00 00 00 00 04 00 ................
400000000012A530 08 00 00 00 01 00 00 00 00 02 00 00 00 00 04 00 ................

;; ttattr: 400000000012A540
ttattr proc
	{ cmp4.eq	p07,p06,0x1,r32; addl	r14,8812,r1; cmp4.eq	p08,p09,0x0,r32; }
	{ (p07) addl	r8,21480,r1; ld4	r14,[r14]; nop.i	0x0; }

l400000000012A556:
	{ (p07) fwb; addl	r0,32768,r1; (p01) nop }

l400000000012A55C:
	{ Invalid; zxt1	r0,r64; cmp.lt	p00,p00,r32,r0 }
	{ Invalid; Invalid; (p16) addp4	r0,r0,r48 }
	{ nop; break.m	0x1000; zxt4	r43,r41 }
	{ Invalid; break.i	0x1000; add	r0,r32,r0 }
	{ Invalid; break.m	0x1000; (p01) shladd	r0,r0,0x1,r64 }
	{ nop; break.m	0x1000; break.i	0x1000 }
	{ nop; (p02) deposit	r0,r8,r4,63,8; (p50) nop }

;; tt_setonechar: 400000000012A5C0
tt_setonechar proc
	{ ld4	r17,[r32]; adds	r18,0x17,r32; addl	r19,1,r0 }
	{ adds	r15,0xC,r32; adds	r14,0x0,r32; adds	r32,0x16,r32; }
	{ st1	[r19],r18; and	r17,0xBF,r17; addl	r18,256,r0 }
	{ ld4	r16,[r15]; st1	[r0],r32; adds	r8,0x0,r0; }
	{ or	r17,r18,r17; nop.m	0x0; and	r16,0xFD,r16; }
	{ st4	[r14],r4,4; addl	r17,32769,r0; or	r17,r17,r16 }
	{ ld4	r16,[r14]; nop.i	0x0; and	r16,0xC7,r16 }
	{ st4	[r17],r15; or	r16,0x5,r16; nop.i	0x0; }
	{ st4	[r16],r14; nop.i	0x0; br.ret	b0; }
400000000012A650 08 00 00 00 01 00 00 00 00 02 00 00 00 00 04 00 ................
400000000012A660 08 00 00 00 01 00 00 00 00 02 00 00 00 00 04 00 ................
400000000012A670 08 00 00 00 01 00 00 00 00 02 00 00 00 00 04 00 ................

;; ttfd_onechar: 400000000012A680
ttfd_onechar proc
	{ alloc	r35,ar.pfs,0x6,0x0,0x5; nop.m	0x0; mov	r34,b2 }
	{ adds	r36,0x0,r1; nop.m	0x0; adds	r37,0x0,r33; }
	{ nop.m	0x0; nop.i	0x0; br.call.sptk.many	b0,tt_setonechar; }
	{ adds	r1,0x0,r36; cmp4.lt	p06,p07,r8,r0; mov.spnt	b0,r34,400000000012A6B0 }
	{ nop.m	0x0; nop.m	0x0; (p06) br.cond.dpnt.few	400000000012A6F0; }

l400000000012A6D0:
	{ nop.m	0x0; mov.i	ar.pfs,r35; nop.i	0x0; }
	{ alloc	r2,ar.pfs,0x2,0x0,0x0; nop.i	0x0; br.cond.sptk.many	ttsetattr }

l400000000012A6F0:
	{ addl	r8,-1,r0; nop.m	0x0; mov.i	ar.pfs,r35; }
	{ nop.m	0x0; mov.spnt	b0,r34,400000000012A700; br.ret	b0; }
400000000012A710 08 00 00 00 01 00 00 00 00 02 00 00 00 00 04 00 ................
400000000012A720 08 00 00 00 01 00 00 00 00 02 00 00 00 00 04 00 ................
400000000012A730 08 00 00 00 01 00 00 00 00 02 00 00 00 00 04 00 ................

;; ttonechar: 400000000012A740
ttonechar proc
	{ alloc	r33,ar.pfs,0x6,0x0,0x3; adds	r12,0xFFFFFFFFFFFFFFC0,r12; mov	r32,b0 }
	{ addl	r14,8812,r1; addl	r36,21420,r1; adds	r34,0x0,r1; }
	{ ld4	r14,[r14]; adds	r35,0x10,r12; addl	r37,60,r0 }
	{ nop.m	0x0; cmp4.eq	p06,p07,0x0,r14; nop.i	0x0; }
	{ (p06) addl	r8,-1,r0; nop.i	0x0; (p06) br.cond.dpnt.few	400000000012A7D0; }

l400000000012A786:
	{ chk.a.nc	r0,3FFFFFFFFF12AF86; nop; break.i	0x80000 }
	{ break.m	0x4000; (p32) nop; (p16) nop }

l400000000012A7A2:
	{ (p32) break.m	0x42008; mov	r32,ip; nop }

l400000000012A7A8:
	{ (p16) sum	0xC0000; nop; (p48) break.i	0x10800 }

l400000000012A7AE:
	{ (p32) nop; break.i	0x210; (p04) nop }

l400000000012A7B4:
	{ (p08) break.m	0x100004; nop; (p49) deposit	r66,r0,r1,47,0 }

l400000000012A7BA:
	{ setf.d	f0,r54; Invalid; (p02) mov	pr,0x1 }
	{ sum	0x0; (p08) mov	pr,0x0; Invalid }
	{ nop; (p36) mov	pr,0x1; Invalid }
	{ Invalid; (p32) mov	pr,0x0; mov	pr,0x0 }
	{ sum	0x0; Invalid; (p02) mov	pr,0x1 }

;; tt_setnoecho: 400000000012A800
tt_setnoecho proc
	{ adds	r32,0xC,r32; nop.m	0x0; adds	r8,0x0,r0; }
	{ ld4	r14,[r32]; and	r14,0x97,r14; nop.i	0x0; }
	{ st4	[r14],r32; nop.i	0x0; br.ret	b0; }
400000000012A830 08 00 00 00 01 00 00 00 00 02 00 00 00 00 04 00 ................

;; ttfd_noecho: 400000000012A840
ttfd_noecho proc
	{ adds	r14,0xC,r33; ld4	r15,[r14]; nop.i	0x0; }
	{ and	r15,0x97,r15; st4	[r15],r14; nop.i	0x0; }
	{ alloc	r2,ar.pfs,0x2,0x0,0x0; nop.i	0x0; br.cond.sptk.many	ttsetattr; }
400000000012A870 0D 00 00 00 01 00 00 00 00 00 00 00 00 00 04 00 ................

;; ttnoecho: 400000000012A880
ttnoecho proc
	{ alloc	r33,ar.pfs,0x6,0x0,0x3; adds	r12,0xFFFFFFFFFFFFFFC0,r12; mov	r32,b0 }
	{ addl	r14,8812,r1; addl	r36,21420,r1; adds	r34,0x0,r1; }
	{ ld4	r14,[r14]; adds	r35,0x10,r12; addl	r37,60,r0 }
	{ nop.m	0x0; cmp4.eq	p06,p07,0x0,r14; nop.i	0x0; }
	{ (p06) addl	r8,-1,r0; nop.i	0x0; (p06) br.cond.dpnt.few	400000000012A910; }

l400000000012A8C6:
	{ chk.a.nc	r0,3FFFFFFFFF12B0C6; nop; break.i	0x80000 }
	{ break.m	0x4000; (p32) nop; (p16) nop }

l400000000012A8E2:
	{ (p32) break.m	0x42008; mov	r32,ip; nop }

l400000000012A8E8:
	{ (p16) sum	0xC0000; nop; (p48) break.i	0x10800 }

l400000000012A8EE:
	{ (p32) nop; break.i	0x210; (p04) nop }

l400000000012A8F4:
	{ (p08) break.m	0x100004; nop; (p49) deposit	r66,r0,r1,47,0 }

l400000000012A8FA:
	{ setf.d	f0,r86; Invalid; (p02) mov	pr,0x1 }
	{ sum	0x0; (p08) mov	pr,0x0; Invalid }
	{ nop; (p36) mov	pr,0x1; Invalid }
	{ Invalid; (p32) mov	pr,0x0; mov	pr,0x0 }
	{ sum	0x0; (p36) nop; (p32) nop }

;; tt_seteightbit: 400000000012A940
tt_seteightbit proc
	{ ld4	r14,[r32]; addl	r15,-257,r0; adds	r8,0x0,r0; }
	{ and	r14,0xDF,r14; st4	[r32],r8,8; nop.i	0x0; }
	{ ld4	r14,[r32]; and	r14,r15,r14; nop.i	0x0; }
	{ nop.m	0x0; or	r14,0x30,r14; nop.i	0x0; }
	{ st4	[r14],r32; nop.i	0x0; br.ret	b0; }
400000000012A990 08 00 00 00 01 00 00 00 00 02 00 00 00 00 04 00 ................
400000000012A9A0 08 00 00 00 01 00 00 00 00 02 00 00 00 00 04 00 ................
400000000012A9B0 08 00 00 00 01 00 00 00 00 02 00 00 00 00 04 00 ................

;; ttfd_eightbit: 400000000012A9C0
ttfd_eightbit proc
	{ ld4	r15,[r33]; adds	r14,0x0,r33; addl	r16,-257,r0; }
	{ and	r15,0xDF,r15; st4	[r14],r8,8; nop.i	0x0; }
	{ ld4	r15,[r14]; and	r15,r16,r15; nop.i	0x0; }
	{ or	r15,0x30,r15; st4	[r15],r14; nop.i	0x0; }
	{ alloc	r2,ar.pfs,0x2,0x0,0x0; nop.i	0x0; br.cond.sptk.many	ttsetattr; }
400000000012AA10 0D 00 00 00 01 00 00 00 00 00 00 00 00 00 04 00 ................
400000000012AA20 08 00 00 00 01 00 00 00 00 02 00 00 00 00 04 00 ................
400000000012AA30 08 00 00 00 01 00 00 00 00 02 00 00 00 00 04 00 ................

;; tteightbit: 400000000012AA40
tteightbit proc
	{ alloc	r33,ar.pfs,0x6,0x0,0x3; adds	r12,0xFFFFFFFFFFFFFFC0,r12; mov	r32,b0 }
	{ addl	r14,8812,r1; addl	r36,21420,r1; adds	r34,0x0,r1; }
	{ ld4	r14,[r14]; adds	r35,0x10,r12; addl	r37,60,r0 }
	{ nop.m	0x0; cmp4.eq	p06,p07,0x0,r14; nop.i	0x0; }
	{ (p06) addl	r8,-1,r0; nop.i	0x0; (p06) br.cond.dpnt.few	400000000012AAD0; }

l400000000012AA86:
	{ chk.a.nc	r0,3FFFFFFFFF12B286; nop; break.i	0x80000 }
	{ break.m	0x4000; (p32) nop; (p16) nop }

l400000000012AAA2:
	{ (p32) break.m	0x42008; mov	r32,ip; nop }

l400000000012AAA8:
	{ (p16) sum	0xC0000; nop; (p48) break.i	0x10800 }

l400000000012AAAE:
	{ (p32) nop; break.i	0x210; (p04) nop }

l400000000012AAB4:
	{ (p08) break.m	0x100004; nop; (p49) deposit	r66,r0,r1,47,0 }

l400000000012AABA:
	{ setf.d	f0,r70; Invalid; (p02) mov	pr,0x1 }
	{ sum	0x0; (p08) mov	pr,0x0; Invalid }
	{ nop; (p36) mov	pr,0x1; Invalid }
	{ Invalid; (p32) mov	pr,0x0; mov	pr,0x0 }
	{ sum	0x0; Invalid; (p02) mov	pr,0x1 }

;; tt_setnocanon: 400000000012AB00
tt_setnocanon proc
	{ adds	r32,0xC,r32; nop.m	0x0; adds	r8,0x0,r0; }
	{ ld4	r14,[r32]; and	r14,0xFD,r14; nop.i	0x0; }
	{ st4	[r14],r32; nop.i	0x0; br.ret	b0; }
400000000012AB30 08 00 00 00 01 00 00 00 00 02 00 00 00 00 04 00 ................

;; ttfd_nocanon: 400000000012AB40
ttfd_nocanon proc
	{ adds	r14,0xC,r33; ld4	r15,[r14]; nop.i	0x0; }
	{ and	r15,0xFD,r15; st4	[r15],r14; nop.i	0x0; }
	{ alloc	r2,ar.pfs,0x2,0x0,0x0; nop.i	0x0; br.cond.sptk.many	ttsetattr; }
400000000012AB70 0D 00 00 00 01 00 00 00 00 00 00 00 00 00 04 00 ................

;; ttnocanon: 400000000012AB80
ttnocanon proc
	{ alloc	r33,ar.pfs,0x6,0x0,0x3; adds	r12,0xFFFFFFFFFFFFFFC0,r12; mov	r32,b0 }
	{ addl	r14,8812,r1; addl	r36,21420,r1; adds	r34,0x0,r1; }
	{ ld4	r14,[r14]; adds	r35,0x10,r12; addl	r37,60,r0 }
	{ nop.m	0x0; cmp4.eq	p06,p07,0x0,r14; nop.i	0x0; }
	{ (p06) addl	r8,-1,r0; nop.i	0x0; (p06) br.cond.dpnt.few	400000000012AC10; }

l400000000012ABC6:
	{ chk.a.nc	r0,3FFFFFFFFF12B3C6; nop; break.i	0x80000 }
	{ break.m	0x4000; (p32) nop; (p16) nop }

l400000000012ABE2:
	{ (p32) break.m	0x42008; mov	r32,ip; nop }

l400000000012ABE8:
	{ (p16) sum	0xC0000; nop; (p48) break.i	0x10800 }

l400000000012ABEE:
	{ (p32) nop; break.i	0x210; (p04) nop }

l400000000012ABF4:
	{ (p08) break.m	0x100004; nop; (p49) deposit	r66,r0,r1,47,0 }

l400000000012ABFA:
	{ setf.d	f0,r86; Invalid; (p02) mov	pr,0x1 }
	{ sum	0x0; (p08) mov	pr,0x0; Invalid }
	{ nop; (p36) mov	pr,0x1; Invalid }
	{ Invalid; (p32) mov	pr,0x0; mov	pr,0x0 }
	{ sum	0x0; Invalid; (p11) nop }

;; tt_setcbreak: 400000000012AC40
tt_setcbreak proc
	{ alloc	r34,ar.pfs,0x5,0x0,0x4; mov	r33,b1; nop.b	0x0 }
	{ adds	r35,0x0,r1; adds	r36,0x0,r32; adds	r32,0xC,r32; }
	{ nop.m	0x0; nop.i	0x0; br.call.sptk.many	b0,tt_setonechar; }
	{ cmp4.lt	p06,p07,r8,r0; adds	r1,0x0,r35; mov.i	ar.pfs,r34; }
	{ (p07) ld4	r14,[r32]; (p07) adds	r8,0x0,r0; mov.spnt	b0,r33,400000000012AC80; }

l400000000012AC86:
	{ Invalid; cmp4.ltu	p33,p03,r1,r64; (p33) nop; }
	{ chk.a.nc	r0,3FFFFFFFFF12B496; (p04) cmp4.ne.or.andcm	p63,p15,r124,r127; (p01) nop }
	{ break.m	0x4000; (p34) nop; break.i	0x80000 }
	{ break.m	0x4000; nop; Invalid }

;; ttfd_cbreak: 400000000012ACC0
ttfd_cbreak proc
	{ alloc	r35,ar.pfs,0x6,0x0,0x5; nop.m	0x0; mov	r34,b2 }
	{ adds	r36,0x0,r1; nop.m	0x0; adds	r37,0x0,r33; }
	{ nop.m	0x0; nop.i	0x0; br.call.sptk.many	b0,tt_setcbreak; }
	{ adds	r1,0x0,r36; cmp4.lt	p06,p07,r8,r0; mov.spnt	b0,r34,400000000012ACF0 }
	{ nop.m	0x0; nop.m	0x0; (p06) br.cond.dpnt.few	400000000012AD30; }

l400000000012AD10:
	{ nop.m	0x0; mov.i	ar.pfs,r35; nop.i	0x0; }
	{ alloc	r2,ar.pfs,0x2,0x0,0x0; nop.i	0x0; br.cond.sptk.many	ttsetattr }

l400000000012AD30:
	{ addl	r8,-1,r0; nop.m	0x0; mov.i	ar.pfs,r35; }
	{ nop.m	0x0; mov.spnt	b0,r34,400000000012AD40; br.ret	b0; }
400000000012AD50 08 00 00 00 01 00 00 00 00 02 00 00 00 00 04 00 ................
400000000012AD60 08 00 00 00 01 00 00 00 00 02 00 00 00 00 04 00 ................
400000000012AD70 08 00 00 00 01 00 00 00 00 02 00 00 00 00 04 00 ................

;; ttcbreak: 400000000012AD80
ttcbreak proc
	{ alloc	r33,ar.pfs,0x6,0x0,0x3; adds	r12,0xFFFFFFFFFFFFFFC0,r12; mov	r32,b0 }
	{ addl	r14,8812,r1; addl	r36,21420,r1; adds	r34,0x0,r1; }
	{ ld4	r14,[r14]; adds	r35,0x10,r12; addl	r37,60,r0 }
	{ nop.m	0x0; cmp4.eq	p06,p07,0x0,r14; nop.i	0x0; }
	{ (p06) addl	r8,-1,r0; nop.i	0x0; (p06) br.cond.dpnt.few	400000000012AE10; }

l400000000012ADC6:
	{ chk.a.nc	r0,3FFFFFFFFF12B5C6; nop; break.i	0x80000 }
	{ break.m	0x4000; (p32) nop; (p16) nop }

l400000000012ADE2:
	{ (p32) break.m	0x42008; mov	r32,ip; nop }

l400000000012ADE8:
	{ (p16) sum	0xC0000; nop; (p48) break.i	0x10800 }

l400000000012ADEE:
	{ (p32) nop; break.i	0x210; (p04) nop }

l400000000012ADF4:
	{ (p08) break.m	0x100004; nop; (p49) deposit	r66,r0,r1,47,0 }

l400000000012ADFA:
	{ setf.d	f0,r54; Invalid; (p02) mov	pr,0x1 }
	{ sum	0x0; (p08) mov	pr,0x0; Invalid }
	{ nop; (p36) mov	pr,0x1; Invalid }
	{ Invalid; mov	pr,0x300; mov	pr,0x380 }
	{ sum	0x20; Invalid; Nyi }

;; sh_regmatch: 400000000012AE40
sh_regmatch proc
	{ alloc	r45,ar.pfs,0x14,0x0,0xF; adds	r12,0xFFFFFFFFFFFFFFC0,r12; nop.b	0x0 }
	{ addl	r15,8772,r1; mov	r44,b4; adds	r46,0x0,r1; }
	{ adds	r14,0x10,r12; nop.m	0x0; addl	r49,3,r0; }
	{ st8	[r14],r8,8; st8	[r14],r8,8; nop.i	0x0 }
	{ ld4	r15,[r15]; st8	[r14],r8,8; cmp4.eq	p07,p06,0x0,r15; }
	{ st8	[r14],r8,8; st8	[r14],r8,8; nop.i	0x0; }
	{ st8	[r14],r8,8; st8	[r14],r8,8; nop.i	0x0; }
	{ st8	[r0],r14; nop.i	0x0; (p06) br.cond.dptk.few	400000000012AEF0 }

l400000000012AEC0:
	{ addl	r14,7036,r1; nop.m	0x0; nop.i	0x0; }
	{ ld4	r49,[r14]; cmp4.eq	p07,p06,0x0,r49; nop.i	0x0; }
	{ (p06) addl	r49,3,r0; nop.i	0x0; (p07) addl	r49,1,r0 }

l400000000012AEE6:
	{ addp4	r0,0xFFFFFFFFFFFFE000,r1; (p24) nop; (p48) nop }

l400000000012AEF0:
	{ addl	r35,2,r0; nop.m	0x0; adds	r47,0x10,r12 }
	{ adds	r48,0x0,r33; nop.m	0x0; br.call.sptk.many	b0,400000000001BE80; }
	{ adds	r1,0x0,r46; nop.m	0x0; cmp4.eq	p07,p06,0x0,r8 }
	{ adds	r8,0x0,r35; nop.m	0x0; (p07) br.cond.dpnt.few	400000000012AF50; }

l400000000012AF30:
	{ nop.m	0x0; mov.i	ar.pfs,r45; mov.spnt	b0,r44,400000000012AF30 }
	{ nop.m	0x0; adds	r12,0x40,r12; br.ret	b0; }

l400000000012AF50:
	{ adds	r40,0x40,r12; ld8	r35,[r40]; nop.i	0x0; }
	{ nop.m	0x0; adds	r35,0x1,r35; nop.i	0x0; }
	{ shladd	r47,r35,0x3,r0; nop.i	0x0; br.call.sptk.many	b0,400000000001B340; }
	{ adds	r49,0x0,r35; adds	r48,0x0,r32; adds	r50,0x0,r8 }
	{ adds	r51,0x0,r0; adds	r1,0x0,r46; adds	r39,0x0,r8; }
	{ adds	r47,0x10,r12; nop.i	0x0; br.call.sptk.many	b0,400000000001B9A0; }
	{ cmp4.eq	p07,p06,0x0,r8; adds	r47,0x0,r32; adds	r1,0x0,r46; }
	{ (p06) addl	r8,1,r0; (p07) adds	r8,0x0,r0; nop.i	0x0; }

l400000000012AFC6:
	{ Invalid; nop; (p48) nop; }
	{ break.m	0x4000; (p32) nop; (p48) nop }
	{ Invalid; (p21) nop; break.b	0x80000 }
	{ (p23) break.m	0x59780; Invalid; (p16) nop.b	0x2E000 }
	{ Invalid; (p23) nop; (p48) br.call.sptk.few	b3,b0 }
	{ break.m	0x4000; (p32) nop; (p16) nop }
	{ Invalid; nop; (p48) br.call.sptk.few	b3,b0 }
	{ break.m	0x4000; (p32) nop; (p48) nop }
	{ Invalid; (p04) nop; (p16) nop }
	{ Invalid; (p07) addl	r0,262179,r0; (p01) nop.b	0x24 }
	{ add	r0,r0,r1; (p07) nop; (p16) nop }
	{ nop; cmp4.ltu	p15,p33,r0,r0; (p01) nop }
	{ break.m	0x4000; nop; (p48) nop }
	{ break.m	0x4000; (p21) nop; nop }
	{ break.m	0x4000; (p19) nop; break.i	0x80000 }
	{ (p03) chk.a.clr	r0,3FFFFFFFFFDEE9A6; nop; (p48) nop }
	{ break.m	0x4000; (p24) nop; (p16) nop }
	{ break.m	0x4000; (p32) nop; (p32) nop }
	{ Invalid; (p23) nop; (p48) br.call.sptk.few.clr	b3,b1 }
	{ (p07) fwb; (p24) nop; (p16) nop }
	{ break.m	0x4000; (p24) nop; break.i	0x80000 }
	{ (p24) break.m	0x59880; (p32) nop; (p16) nop.b	0x2E000 }
	{ Invalid; (p23) nop; (p16) nop }
	{ Invalid; (p32) nop; (p32) nop }
	{ Invalid; (p19) nop; break.b	0x80000 }
	{ (p03) chk.a.clr	r14,3FFFFFFFFFB2E396; nop; (p48) nop.b	0x2B50A }
	{ add	r0,r0,r1; (p23) nop; (p32) nop }
	{ Invalid; nop; nop }
	{ break.m	0x4000; (p32) nop; (p16) nop }
	{ Invalid; (p32) nop; (p16) nop.b	0x2E000 }
	{ Invalid; (p32) nop; nop.b	0x23002 }
	{ Invalid; break.i	0xAA02D; break.b	0x80000 }
	{ Invalid; nop; nop }
	{ break.m	0x4000; (p34) break.i	0x84000; (p32) break.i	0x80001 }
	{ (p03) break.m	0x4000; (p04) break.i	0x4000; (p32) break.b	0x80001 }
	{ (p03) break.m	0x4000; (p04) nop; (p48) br.ia	b3 }

;; sh_stat: 400000000012B200
sh_stat proc
	{ alloc	r39,ar.pfs,0xC,0x0,0x9; ld1	r34,[r32]; mov	r38,b6 }
	{ adds	r40,0x0,r1; adds	r14,0x1,r32; sxt1	r34,r34; }
	{ cmp4.eq	p07,p06,0x0,r34; nop.i	0x0; (p07) br.cond.dpnt.few	400000000012B3D0; }

l400000000012B230:
	{ nop.m	0x0; cmp4.eq	p07,p06,0x2F,r34; (p07) br.cond.dpnt.few	400000000012B280 }

l400000000012B240:
	{ addl	r41,1,r0; nop.m	0x0; adds	r42,0x0,r32 }
	{ adds	r43,0x0,r33; nop.m	0x0; br.call.sptk.many	b0,400000000001AFE0; }
	{ adds	r14,0x0,r8; adds	r1,0x0,r40; mov.i	ar.pfs,r39; }
	{ adds	r8,0x0,r14; mov.spnt	b0,r38,400000000012B270; br.ret	b0 }

l400000000012B280:
	{ ld1	r35,[r14]; nop.m	0x0; sxt1	r35,r35; }
	{ nop.m	0x0; cmp4.eq	p07,p06,0x64,r35; (p06) br.cond.dptk.few	400000000012B240 }

l400000000012B2A0:
	{ addl	r42,-8492,r1; addl	r43,8,r0; adds	r41,0x0,r32; }
	{ ld8	r42,[r42]; nop.i	0x0; br.call.sptk.many	b0,400000000001C020; }
	{ adds	r1,0x0,r40; cmp4.eq	p07,p06,0x0,r8; (p06) br.cond.dptk.few	400000000012B240; }

l400000000012B2D0:
	{ adds	r32,0x8,r32; nop.m	0x0; addl	r37,8820,r1; }
	{ adds	r41,0x0,r32; nop.i	0x0; br.call.sptk.many	b0,400000000001B6C0; }
	{ adds	r1,0x0,r40; ld8	r41,[r37]; adds	r42,0x9,r8 }
	{ nop.m	0x0; nop.m	0x0; br.call.sptk.many	b0,xrealloc; }
	{ adds	r14,0x0,r8; st8	[r8],r37; addl	r15,101,r0 }
	{ adds	r1,0x0,r40; adds	r36,0x0,r8; adds	r42,0x0,r32; }
	{ st1	[r14],r1,1; nop.m	0x0; adds	r41,0x8,r8; }
	{ st1	[r14],r1,1; st1	[r14],r1,1; addl	r15,118,r0; }
	{ st1	[r14],r1,1; nop.m	0x0; addl	r15,102,r0; }
	{ st1	[r14],r1,1; st1	[r14],r1,1; nop.i	0x0; }
	{ nop.m	0x0; st1	[r14],r1,1; nop.i	0x0; }
	{ st1	[r34],r14; nop.i	0x0; br.call.sptk.many	b0,400000000001B180; }
	{ adds	r1,0x0,r40; addl	r41,1,r0; nop.i	0x0 }
	{ adds	r42,0x0,r36; adds	r43,0x0,r33; br.call.sptk.many	b0,400000000001AFE0; }
	{ adds	r14,0x0,r8; adds	r1,0x0,r40; mov.i	ar.pfs,r39; }
	{ adds	r8,0x0,r14; mov.spnt	b0,r38,400000000012B3C0; br.ret	b0; }

l400000000012B3D0:
	{ nop.m	0x0; nop.i	0x0; br.call.sptk.many	b0,400000000001B840; }
	{ addl	r14,-1,r0; addl	r15,2,r0; nop.b	0x0 }
	{ adds	r1,0x0,r40; nop.m	0x0; mov.i	ar.pfs,r39; }
	{ nop.m	0x0; st4	[r15],r8; mov.spnt	b0,r38,400000000012B400 }
	{ nop.m	0x0; adds	r8,0x0,r14; br.ret	b0; }
400000000012B420 08 00 00 00 01 00 00 00 00 02 00 00 00 00 04 00 ................
400000000012B430 08 00 00 00 01 00 00 00 00 02 00 00 00 00 04 00 ................

;; sh_eaccess: 400000000012B440
sh_eaccess proc
	{ alloc	r36,ar.pfs,0xA,0x0,0x6; adds	r12,0xFFFFFFFFFFFFFF70,r12; nop.b	0x0 }
	{ ld1	r14,[r32]; mov	r35,b3; adds	r37,0x0,r1; }
	{ nop.m	0x0; sxt1	r14,r14; nop.i	0x0; }
	{ nop.m	0x0; cmp4.eq	p07,p06,0x2F,r14; (p07) br.cond.dpnt.few	400000000012B4D0 }

l400000000012B480:
	{ addl	r38,-100,r0; adds	r39,0x0,r32; nop.i	0x0 }
	{ adds	r40,0x0,r33; addl	r41,512,r0; br.call.sptk.many	b0,400000000001A920; }
	{ nop.m	0x0; adds	r1,0x0,r37; adds	r14,0x0,r8; }

l400000000012B4B0:
	{ adds	r8,0x0,r14; mov.i	ar.pfs,r36; mov.spnt	b0,r35,400000000012B4B0 }
	{ nop.m	0x0; adds	r12,0x90,r12; br.ret	b0 }

l400000000012B4D0:
	{ adds	r14,0x1,r32; ld1	r14,[r14]; nop.i	0x0; }
	{ nop.m	0x0; sxt1	r14,r14; nop.i	0x0; }
	{ nop.m	0x0; cmp4.eq	p07,p06,0x64,r14; (p07) br.cond.dpnt.few	400000000012B710 }

l400000000012B500:
	{ addl	r39,-8484,r1; adds	r38,0x0,r32; addl	r40,8,r0; }
	{ ld8	r39,[r39]; nop.i	0x0; br.call.sptk.many	b0,400000000001C020; }
	{ adds	r14,0x8,r32; nop.m	0x0; adds	r1,0x0,r37 }
	{ cmp4.eq	p07,p06,0x0,r8; nop.m	0x0; (p06) br.cond.dpnt.few	400000000012B480; }

l400000000012B540:
	{ ld1	r14,[r14]; nop.m	0x0; sxt1	r14,r14; }
	{ cmp4.eq	p07,p06,0x69,r14; nop.i	0x0; (p07) br.cond.dpnt.few	400000000012B750; }

l400000000012B560:
	{ cmp4.eq	p07,p06,0x6F,r14; nop.i	0x0; (p07) br.cond.dpnt.few	400000000012B7C0; }

l400000000012B570:
	{ nop.m	0x0; cmp4.eq	p07,p06,0x65,r14; (p06) br.cond.dptk.few	400000000012B480 }

l400000000012B580:
	{ adds	r14,0x9,r32; ld1	r14,[r14]; nop.i	0x0; }
	{ nop.m	0x0; cmp.eq	p07,p06,0x72,r14; (p06) br.cond.dptk.few	400000000012B480 }

l400000000012B5A0:
	{ adds	r14,0xA,r32; ld1	r14,[r14]; nop.i	0x0; }
	{ nop.m	0x0; cmp.eq	p06,p07,0x72,r14; (p07) br.cond.dptk.few	400000000012B480 }

l400000000012B5C0:
	{ adds	r14,0xB,r32; ld1	r14,[r14]; nop.i	0x0; }
	{ nop.m	0x0; cmp.eq	p06,p07,0x0,r14; (p07) br.cond.spnt.few	400000000012B480; }

l400000000012B5E0:
	{ adds	r38,0x0,r32; adds	r39,0x10,r12; br.call.sptk.many	b0,sh_stat; }
	{ adds	r1,0x0,r37; cmp4.lt	p06,p07,r8,r0; (p06) br.cond.dpnt.few	400000000012B880; }

l400000000012B600:
	{ addl	r14,-22276,r1; nop.m	0x0; nop.i	0x0; }
	{ adds	r14,0x4,r14; ld4	r14,[r14]; nop.i	0x0; }
	{ nop.m	0x0; cmp4.eq	p07,p06,0x0,r14; nop.i	0x0; }
	{ nop.m	0x0; (p06) adds	r34,0x28,r12; (p06) br.cond.dptk.few	400000000012B670; }

l400000000012B63C:
	{ (p02) cmpxchg4.acq	r0,[r33],r0; (p04) cmp.eq	p10,p16,r3,r64; mov	pr,r72,0x5040 }

l400000000012B642:
	{ Invalid; (p16) deposit	r72,r1,r106,63,1; Invalid; }
	{ (p32) nop; (p57) break.i	0x40583; Invalid }
	{ Invalid; (p48) nop.i	0x730C3; Invalid }
	{ nop; (p05) break.i	0x42003; Invalid }
	{ (p48) cmp.eq.or.andcm	p03,p48,r4,r8; (p33) mov	pr,r33,0x186; Invalid }
	{ nop; (p20) nop; nop }
	{ (p32) break.m	0x20203; tbit.z	p32,p00,r0,0x0; (p18) nop; }
	{ invala; (p16) nop; Invalid }
	{ (p32) cmp.gt	p08,p16,r0,r8; (p17) break.i	0x40188; Invalid }
	{ Invalid; (p16) cmp.lt.unc	p08,p01,r97,r124; Invalid }
	{ Invalid; break.i	0x42000; deposit	r32,r0,r64,63,0 }
	{ (p32) add	r3,r64,r16; (p04) nop; Invalid }
	{ Invalid; (p02) nop; nop }

l400000000012B710:
	{ addl	r39,-8492,r1; adds	r38,0x0,r32; addl	r40,8,r0; }
	{ ld8	r39,[r39]; nop.i	0x0; br.call.sptk.many	b0,400000000001C020; }
	{ adds	r1,0x0,r37; cmp4.eq	p06,p07,0x0,r8; (p07) br.cond.dptk.few	400000000012B500 }

l400000000012B740:
	{ nop.m	0x0; nop.i	0x0; br.cond.sptk.few	400000000012B5E0 }

l400000000012B750:
	{ adds	r14,0x9,r32; ld1	r14,[r14]; nop.i	0x0; }
	{ nop.m	0x0; cmp.eq	p07,p06,0x6E,r14; (p06) br.cond.dptk.few	400000000012B480 }

l400000000012B770:
	{ adds	r14,0xA,r32; ld1	r14,[r14]; nop.i	0x0; }
	{ nop.m	0x0; cmp.eq	p06,p07,0x0,r14; (p06) br.cond.dptk.few	400000000012B5E0 }

l400000000012B790:
	{ addl	r38,-100,r0; adds	r39,0x0,r32; nop.i	0x0 }
	{ adds	r40,0x0,r33; addl	r41,512,r0; br.call.sptk.many	b0,400000000001A920; }
	{ adds	r1,0x0,r37; adds	r14,0x0,r8; br.cond.sptk.few	400000000012B4B0; }

l400000000012B7C0:
	{ adds	r14,0x9,r32; ld1	r14,[r14]; nop.i	0x0; }
	{ nop.m	0x0; cmp.eq	p07,p06,0x75,r14; (p06) br.cond.dptk.few	400000000012B480 }

l400000000012B7E0:
	{ adds	r14,0xA,r32; ld1	r14,[r14]; nop.i	0x0; }
	{ nop.m	0x0; cmp.eq	p07,p06,0x74,r14; (p06) br.cond.dptk.few	400000000012B480 }

l400000000012B800:
	{ adds	r14,0xB,r32; ld1	r14,[r14]; nop.i	0x0; }
	{ nop.m	0x0; cmp.eq	p06,p07,0x0,r14; (p06) br.cond.sptk.few	400000000012B5E0 }

l400000000012B820:
	{ nop.m	0x0; nop.i	0x0; br.cond.sptk.few	400000000012B480 }
400000000012B830 11 00 00 00 01 00 00 00 00 02 00 00 18 00 EF 58 ...............X
400000000012B840 09 70 FC F9 FF 27 F0 68 00 00 48 20 00 28 01 84 .p...'.h..H .(..
400000000012B850 09 00 3C 10 90 11 80 00 38 00 42 00 40 02 AA 00 ..<.....8.B.@...
400000000012B860 00 00 00 00 01 00 00 18 05 80 03 00 00 00 04 00 ................
400000000012B870 18 60 40 18 01 21 00 00 00 02 00 80 08 00 84 00 .`@..!..........

l400000000012B880:
	{ nop.m	0x0; addl	r14,-1,r0; nop.i	0x0; }
	{ adds	r8,0x0,r14; mov.i	ar.pfs,r36; mov.spnt	b0,r35,400000000012B890 }
	{ nop.m	0x0; adds	r12,0x90,r12; br.ret	b0; }
400000000012B8B0 00 30 00 00 01 00 70 00 00 02 00 00 01 00 04 00 .0....p.........

;; isnetconn: 400000000012B8C0
isnetconn proc
	{ alloc	r34,ar.pfs,0x7,0x0,0x4; adds	r12,0xFFFFFFFFFFFFFFE0,r12; nop.b	0x0 }
	{ adds	r35,0x0,r1; mov	r33,b1; adds	r36,0x0,r32; }
	{ adds	r14,0x20,r12; addl	r15,16,r0; adds	r37,0x10,r12; }
	{ nop.m	0x0; adds	r38,0x0,r14; nop.i	0x0 }
	{ st4	[r15],r14; nop.m	0x0; br.call.sptk.many	b0,400000000001BF00; }
	{ nop.m	0x0; addl	r14,1,r0; adds	r1,0x0,r35 }
	{ nop.m	0x0; cmp4.lt	p07,p06,r8,r0; (p07) br.cond.dpnt.few	400000000012B950; }

l400000000012B930:
	{ adds	r8,0x0,r14; mov.i	ar.pfs,r34; mov.spnt	b0,r33,400000000012B930 }
	{ nop.m	0x0; adds	r12,0x20,r12; br.ret	b0; }

l400000000012B950:
	{ nop.m	0x0; nop.i	0x0; br.call.sptk.many	b0,400000000001B840; }
	{ ld4	r15,[r8]; adds	r1,0x0,r35; adds	r14,0x0,r0; }
	{ cmp4.eq	p07,p06,0x58,r15; nop.m	0x0; cmp4.eq	p08,p09,0x16,r15; }
	{ nop.m	0x0; cmp4.eq.or.andcm	p07,p06,0x6B,r15; (p07) br.cond.dptk.few	400000000012B930 }

l400000000012B990:
	{ nop.m	0x0; (p09) addl	r14,1,r0; nop.i	0x0; }

l400000000012B99C:
	{ Invalid; zxt1	r64,r64; (p32) break.i	0x2A808 }
	{ (p16) nop; add	r0,r32,r0; Invalid }
	{ cmp.eq	p00,p24,r33,r0; Invalid; zxt2	r16,r79 }

;; netopen: 400000000012B9C0
netopen proc
	{ alloc	r39,ar.pfs,0xD,0x0,0x9; adds	r12,0xFFFFFFFFFFFFFFC0,r12; nop.b	0x0 }
	{ adds	r40,0x0,r1; mov	r38,b6; adds	r41,0x0,r32; }
	{ nop.m	0x0; nop.i	0x0; br.call.sptk.many	b0,400000000001B6C0; }
	{ adds	r1,0x0,r40; nop.m	0x0; adds	r41,0x1,r8 }
	{ adds	r37,0x40,r12; nop.m	0x0; br.call.sptk.many	b0,xmalloc; }
	{ adds	r36,0x0,r8; adds	r1,0x0,r40; nop.i	0x0 }
	{ adds	r41,0x0,r8; adds	r42,0x0,r32; br.call.sptk.many	b0,400000000001B180; }
	{ adds	r35,0x9,r36; adds	r1,0x0,r40; addl	r42,47,r0; }
	{ adds	r41,0x0,r35; nop.i	0x0; br.call.sptk.many	b0,400000000001B680; }
	{ adds	r15,0x10,r12; adds	r33,0x0,r8; adds	r1,0x0,r40 }
	{ cmp.eq	p07,p06,0x0,r8; adds	r16,0x5,r32; (p07) br.cond.spnt.few	400000000012BED0; }

l400000000012BA70:
	{ adds	r43,0x0,r15; st1	[r33],r1,1; nop.i	0x0 }
	{ st8	[r15],r8,8; adds	r44,0x0,r37; adds	r41,0x0,r35; }
	{ adds	r14,0x0,r15; ld1	r16,[r16]; adds	r42,0x0,r33; }
	{ st8	[r14],r8,8; nop.m	0x0; sxt1	r16,r16; }
	{ st8	[r14],r8,8; nop.m	0x0; cmp4.eq	p07,p06,0x74,r16; }
	{ st8	[r14],r8,8; (p06) addl	r16,2,r0; (p07) addl	r16,1,r0 }

l400000000012BACC:
	{ loadrs; (p01) nop; rfi }

l400000000012BAD8:
	{ (p01) break.m	0x464; (p16) break.f	0x19000; (p56) break.b	0x8CC0 }

l400000000012BADE:
	{ ldfe	f32,[r0],6; (p04) nop }

l400000000012BAEE:
	{ (p07) ld1	r43,[r4]; (p01) ld1	r16,[r24]; (p28) nop; }

l400000000012BAF4:
	{ (p08) nop; (p12) nop.i	0xC003F; (p06) break.i	0x4A }

l400000000012BAFA:
	{ (p31) chk.a.nc	r0,3FFFFFFFFF12C5FA; (p37) break.b	0x0; nop; }

l400000000012BB00:
	{ nop.m	0x0; ld8	r33,[r37]; nop.i	0x0; }
	{ nop.m	0x0; cmp.eq	p06,p07,0x0,r33; (p06) br.cond.dpnt.few	400000000012BC10; }

l400000000012BB20:
	{ adds	r16,0x4,r33; nop.m	0x0; adds	r15,0x8,r33 }
	{ adds	r14,0xC,r33; nop.m	0x0; adds	r35,0x28,r33; }
	{ ld4	r41,[r16]; ld4	r42,[r15]; nop.i	0x0; }
	{ ld4	r43,[r14]; nop.i	0x0; br.call.sptk.many	b0,400000000001BFE0; }
	{ adds	r14,0x18,r33; cmp4.lt	p07,p06,r8,r0; adds	r33,0x10,r33 }
	{ adds	r34,0x0,r8; adds	r1,0x0,r40; (p07) br.cond.dpnt.few	400000000012BC50; }

l400000000012BB80:
	{ adds	r41,0x0,r8; ld8	r42,[r14]; nop.i	0x0 }
	{ ld4	r43,[r33]; nop.m	0x0; br.call.sptk.many	b0,400000000001C280; }
	{ adds	r1,0x0,r40; nop.m	0x0; cmp4.lt	p07,p06,r8,r0 }
	{ adds	r41,0x0,r34; nop.m	0x0; (p06) br.cond.dpnt.few	400000000012BCD0; }

l400000000012BBC0:
	{ nop.m	0x0; ld8	r14,[r35]; nop.i	0x0; }
	{ cmp.eq	p06,p07,0x0,r14; nop.i	0x0; (p06) br.cond.spnt.few	400000000012BD00; }

l400000000012BBE0:
	{ nop.m	0x0; nop.i	0x0; br.call.sptk.many	b0,400000000001C340; }
	{ ld8	r33,[r35]; nop.m	0x0; adds	r1,0x0,r40; }
	{ nop.m	0x0; cmp.eq	p07,p06,0x0,r33; (p06) br.cond.dptk.few	400000000012BB20 }

l400000000012BC10:
	{ nop.m	0x0; adds	r41,0x0,r36; br.call.sptk.many	b0,400000000001A7E0; }
	{ adds	r1,0x0,r40; nop.m	0x0; nop.i	0x0 }

l400000000012BC30:
	{ adds	r8,0x0,r34; mov.i	ar.pfs,r39; mov.spnt	b0,r38,400000000012BC30 }
	{ nop.m	0x0; adds	r12,0x40,r12; br.ret	b0 }

l400000000012BC50:
	{ nop.m	0x0; ld8	r33,[r35]; nop.i	0x0; }
	{ nop.m	0x0; cmp.eq	p07,p06,0x0,r33; (p06) br.cond.sptk.few	400000000012BB20 }

l400000000012BC70:
	{ addl	r41,-8460,r1; nop.m	0x0; addl	r34,-1,r0; }
	{ ld8	r41,[r41]; nop.i	0x0; br.call.sptk.many	b0,sys_error; }
	{ nop.m	0x0; adds	r1,0x0,r40; nop.i	0x0 }
	{ ld8	r41,[r37]; nop.m	0x0; br.call.sptk.many	b0,400000000001BF80; }
	{ adds	r1,0x0,r40; adds	r41,0x0,r36; br.call.sptk.many	b0,400000000001A7E0; }
	{ nop.m	0x0; adds	r1,0x0,r40; br.cond.sptk.few	400000000012BC30 }

l400000000012BCD0:
	{ ld8	r41,[r37]; nop.i	0x0; br.call.sptk.many	b0,400000000001BF80; }
	{ adds	r1,0x0,r40; adds	r41,0x0,r36; br.call.sptk.many	b0,400000000001A7E0; }
	{ nop.m	0x0; adds	r1,0x0,r40; br.cond.sptk.few	400000000012BC30 }

l400000000012BD00:
	{ nop.m	0x0; nop.i	0x0; br.call.sptk.many	b0,400000000001B840; }
	{ nop.m	0x0; adds	r1,0x0,r40; adds	r33,0x0,r8 }
	{ ld4	r35,[r8]; addl	r41,-8452,r1; nop.i	0x0; }
	{ ld8	r41,[r41]; nop.i	0x0; br.call.sptk.many	b0,sys_error; }
	{ adds	r1,0x0,r40; nop.m	0x0; adds	r41,0x0,r34 }
	{ addl	r34,-1,r0; nop.m	0x0; br.call.sptk.many	b0,400000000001C340; }
	{ nop.m	0x0; adds	r1,0x0,r40; nop.i	0x0 }
	{ ld8	r41,[r37]; nop.m	0x0; br.call.sptk.many	b0,400000000001BF80; }
	{ adds	r1,0x0,r40; st4	[r35],r33; adds	r41,0x0,r36 }
	{ nop.m	0x0; nop.m	0x0; br.call.sptk.many	b0,400000000001A7E0; }
	{ nop.m	0x0; adds	r1,0x0,r40; br.cond.sptk.few	400000000012BC30 }
400000000012BDB0 08 38 E0 11 86 3B 00 00 00 02 00 20 05 40 00 84 .8...;..... .@..
400000000012BDC0 19 10 FD F9 FF 27 00 00 00 02 80 03 A0 00 00 43 .....'.........C
400000000012BDD0 11 00 00 00 01 00 00 00 00 02 00 00 78 E9 EE 58 ............x..X
400000000012BDE0 09 08 00 50 00 21 A0 02 8C 00 42 60 05 40 00 84 ...P.!....B`.@..
400000000012BDF0 09 00 00 00 01 00 90 62 F7 7B 4F 00 00 00 04 00 .......b.{O.....
400000000012BE00 11 48 01 52 18 10 00 00 00 02 00 00 88 52 F4 58 .H.R.........R.X
400000000012BE10 11 08 00 50 00 21 00 00 00 02 00 00 38 FA EE 58 ...P.!......8..X
400000000012BE20 09 70 58 00 00 24 00 00 00 02 00 20 00 40 01 84 .pX..$..... .@..
400000000012BE30 08 00 38 10 90 11 00 00 00 02 00 00 00 00 04 00 ..8.............
400000000012BE40 11 48 01 48 00 21 00 00 00 02 00 00 A8 E9 EE 58 .H.H.!.........X
400000000012BE50 10 00 00 00 01 00 10 00 A0 00 42 00 E0 FD FF 48 ..........B....H
400000000012BE60 11 48 E1 F9 FF 27 20 FA F3 FF 4F 00 E8 E8 EE 58 .H...' ...O....X
400000000012BE70 09 08 00 50 00 21 A0 02 84 00 42 60 05 40 00 84 ...P.!....B`.@..
400000000012BE80 09 00 00 00 01 00 90 62 F7 7B 4F 00 00 00 04 00 .......b.{O.....
400000000012BE90 11 48 01 52 18 10 00 00 00 02 00 00 F8 51 F4 58 .H.R.........Q.X
400000000012BEA0 11 08 00 50 00 21 00 00 00 02 00 00 A8 F9 EE 58 ...P.!.........X
400000000012BEB0 09 70 58 00 00 24 00 00 00 02 00 20 00 40 01 84 .pX..$..... .@..
400000000012BEC0 10 00 38 10 90 11 00 00 00 02 00 00 80 FF FF 48 ..8............H

l400000000012BED0:
	{ addl	r42,-8476,r1; nop.m	0x0; addl	r43,5,r0 }
	{ adds	r41,0x0,r0; nop.m	0x0; addl	r34,-1,r0; }
	{ ld8	r42,[r42]; nop.i	0x0; br.call.sptk.many	b0,400000000001AB60; }
	{ adds	r1,0x0,r40; nop.m	0x0; adds	r41,0x0,r8 }
	{ adds	r42,0x0,r32; nop.m	0x0; br.call.sptk.many	b0,internal_error; }
	{ adds	r8,0x0,r34; adds	r1,0x0,r40; mov.i	ar.pfs,r39; }
	{ nop.m	0x0; mov.spnt	b0,r38,400000000012BF30; nop.i	0x0 }
	{ adds	r12,0x40,r12; nop.m	0x0; br.ret	b0; }
400000000012BF50 00 30 00 00 01 00 70 00 00 02 00 00 01 00 04 00 .0....p.........
400000000012BF60 00 30 00 00 01 00 70 00 00 02 00 00 01 00 04 00 .0....p.........
400000000012BF70 00 30 00 00 01 00 70 00 00 02 00 00 01 00 04 00 .0....p.........

;; difftimeval: 400000000012BF80
difftimeval proc
	{ ld8	r17,[r34],8; adds	r14,0x0,r32; adds	r8,0x0,r32 }
	{ ld8	r15,[r33],8; ld8	r2,[r34]; sub	r15,r17,r15 }
	{ ld8	r16,[r33]; st8	[r14],r8,8; sub	r2,r2,r16; }
	{ st8	[r2],r14; cmp.lt	p06,p07,r2,r0; (p07) br.ret	b0 }

l400000000012BFC0:
	{ adds	r15,0xFFFFFFFFFFFFFFFF,r15; nop.m	0x0; addl	r2,1000000,r2; }
	{ cmp.lt	p07,p06,r15,r0; st8	[r2],r14; nop.i	0x0 }
	{ st8	[r15],r32; nop.i	0x0; nop.i	0x0 }
	{ (p07) st8	[r0],r14; (p07) st8	[r0],r32; br.ret	b0; }

l400000000012BFF6:
	{ mf.a; (p34) nop; nop; }

;; addtimeval: 400000000012C000
addtimeval proc
	{ ld8	r16,[r33],8; adds	r17,0x8,r32; adds	r8,0x0,r32 }

l400000000012C002:
	{ (p17) chk.a.nc	r8,4000000000531062; (p01) mov	pr,0x42008; Invalid }

l400000000012C008:
	{ (p04) nop.m	0x840; (p04) deposit	r64,r80,r2,60,8; Invalid }

l400000000012C00E:
	{ (p32) nop; (p33) nop; (p33) pshr4.u	r1,r56,r2; }

l400000000012C014:
	{ (p32) cmp4.lt	p02,p08,r60,r0; nop; Invalid }

l400000000012C01A:
	{ (p01) break.m	0xE2038; (p10) nop; (p32) mov	pr,0x0 }

l400000000012C020:
	{ ld8	r2,[r33]; nop.i	0x0; add	r2,r2,r15 }
	{ adds	r16,0x1,r14; st8	[r14],r32; addl	r14,999999,r0; }
	{ cmp.lt	p06,p07,r14,r2; addl	r15,-1000000,r2; (p07) adds	r14,0x0,r17 }

;; fn400000000012C050: 400000000012C050
;;   Called from:
;;     400000000012C04C (in difftimeval)
;;     400000000012C04C (in difftimeval)
;;     400000000012C04C (in addtimeval)
;;     400000000012C04C (in addtimeval)
fn400000000012C050 proc
	{ (p06) st8	[r15],r17; (p06) st8	[r16],r32; nop.i	0x0; }

l400000000012C056:
	{ mf.a; cmp4.eq	p00,p00,r0,r1; (p01) nop; }

l400000000012C066:
	{ break.m	0x4000; (p34) nop; break.i	0x80000 }

l400000000012C072:
	{ break.m	0x20; break.i	0x20; nop }

;; timeval_to_cpu: 400000000012C080
timeval_to_cpu proc
	{ alloc	r36,ar.pfs,0x9,0x0,0x7; ld8	r15,[r34],8; mov	r38,LC }

;; fn400000000012C082: 400000000012C082
;;   Called from:
;;     400000000012C07E (in fn400000000012C050)
;;     400000000012C080 (in timeval_to_cpu)
fn400000000012C082 proc
	{ Invalid; (p16) nop; }
	{ Invalid; (p17) break.i	0x28308; Invalid; }
	{ (p32) cmp.ge.or.andcm	p08,p48,r0,r8; (p52) cmp4.eq.or.andcm	p03,p48,r0,r16; (p07) nop }
	{ Invalid; (p58) nop; (p43) nop }
	{ cmp.eq.and	p04,p48,r0,r16; (p01) srlz.d; deposit	r32,r12,r32,63,1 }
	{ Invalid; (p44) nop; (p01) nop; }
	{ (p33) chk.a.nc	r64,40000000001380F2; break.f	0x20308; nop }
	{ (p02) rum	0x1B1C20; (p47) nop }
	{ (p40) chk.a.clr	r112,4000000000535EE2; (p02) add	r36,r4,r16; (p16) nop }

l400000000012C106:
	{ Invalid; cmp4.ltu	p04,p00,r65,r10; (p49) nop.b	0x27029 }
	{ Invalid; (p11) nop; (p48) nop }
	{ Invalid; (p10) nop; nop }
	{ (p11) chk.a.clr	r39,3FFFFFFFFF134BA6; nop; (p48) nop }
	{ Invalid; (p12) nop; break.i	0x80000 }
	{ (p01) chk.a.nc	r127,3FFFFFFFFFB6C176; nop; (p48) nop }
	{ break.m	0x4000; (p12) nop; break.i	0x80000 }
	{ break.m	0x4000; (p04) nop; break.i	0x80000 }
	{ break.m	0x4000; (p05) nop; (p48) nop }
	{ break.m	0x4000; (p08) nop; (p32) nop }
	{ Invalid; nop; break.b	0x80000 }
	{ Invalid; nop; (p48) br.call.sptk.few	b2,b5 }
	{ add	r0,r0,r1; (p19) nop; break.i	0x80000 }
	{ Invalid; mov	pr,0x4000; (p32) nop }
	{ Invalid; (p19) nop; break.b	0x80000 }
	{ Invalid; (p07) mov	pr,r24,0x1E; (p32) br.call.sptk.many	b3,b2 }
	{ (p08) nop; (p09) nop; nop }
	{ break.m	0x4000; (p09) mov.spnt	b2,r15,400000000012C216; nop }
	{ (p08) nop; (p09) nop; break.b	0x80000 }
	{ Invalid; mov	pr,0x4000; break.b	0x80000 }
	{ Invalid; Invalid; (p32) nop }
	{ Invalid; (p08) nop; nop }
	{ add	r0,r0,r1; (p08) nop; nop }
	{ Invalid; Invalid; break.i	0x80000 }
	{ (p07) nop; (p07) nop; nop }
	{ Invalid; (p08) nop; nop }
	{ Invalid; (p11) nop; (p16) nop }
	{ Invalid; (p11) nop; (p16) nop }
	{ (p12) chk.a.clr	f39,3FFFFFFFFF134D36; Invalid; nop }
	{ Invalid; (p09) nop; (p32) nop }
	{ chk.a.nc	r0,3FFFFFFFFF12CAE6; nop; break.i	0x80000 }
	{ Invalid; nop; break.b	0x80000 }
	{ Invalid; nop; break.i	0x80000 }
	{ (p05) srlz.i; nop; break.i	0x80000 }
	{ Invalid; nop; break.b	0x80000 }
	{ Invalid; nop; (p32) nop }
	{ Invalid; Invalid; break.b	0x80000 }
	{ (p07) nop; (p07) nop; (p16) br.call.sptk.few	b6,b2 }
	{ add	r0,r0,r1; (p07) nop; (p32) nop }
	{ Invalid; (p09) nop; (p48) nop }
	{ break.m	0x4000; Invalid; break.i	0x80000 }
	{ (p19) nop; (p09) nop; break.b	0x80000 }
	{ Invalid; nop; (p32) nop }
	{ Invalid; (p11) nop; (p48) nop }
	{ add	r0,r0,r1; Invalid; (p48) nop }
	{ Invalid; (p09) nop; (p48) nop }
	{ Invalid; (p07) mov	pr,0x53E5C8F; break.i	0x80000 }
	{ Invalid; (p07) nop; break.i	0x80000 }
	{ Invalid; Invalid; deposit	r0,r0,r32,63,0 }
	{ Invalid; Invalid; Invalid }
	{ break.m	0x0; break.x	0x13835BF9080000; }
	{ (p03) srlz.i; nop; br.call.sptk.few	b2,b2 }
	{ break.m	0x4000; (p03) mov.dpnt	b0,r39,400000000012B446; (p48) nop }
	{ (p07) addp4	r127,0xFFFFFFFFFFFFF4A8,r0; (p19) nop; break.i	0x80000 }
	{ break.m	0x4000; (p03) addl	r0,129928,r3; (p49) nop }
	{ chk.a.nc	r0,3FFFFFFFFF12CC76; (p20) nop; add	r0,r0,r32 }
	{ Invalid; (p02) nop; break.i	0x80000; }
	{ Invalid; nop; (p01) nop }
	{ chk.a.nc	r0,3FFFFFFFFF12CCA6; nop; break.i	0x80000 }
	{ break.m	0x4000; (p32) nop; (p16) nop }
	{ break.m	0x4000; Invalid; break.i	0x80000 }
	{ break.m	0xAA024; nop; break.i	0x80000 }
	{ Invalid; (p34) nop; break.i	0x80000 }
	{ break.m	0x4000; break.i	0x104000; (p32) addl	r3,164610,r0 }
